Certificate:
    Data:
        Version: 3 (0x2)
        Serial Number:
            27:fd:7d:4f:c2:88:db:a6:d8:ed:0d:3b:7b:1e:83:df:52:6d:99:0f
        Signature Algorithm: sha256WithRSAEncryption
        Issuer: C = US, ST = California, L = Santa Clara, O = pkg5, OU = ta11, CN = localhost, emailAddress = ta11
        Validity
            Not Before: Mar 18 08:51:50 2026 GMT
            Not After : Dec 12 08:51:50 2028 GMT
        Subject: C = US, ST = California, L = Santa Clara, O = pkg5, OU = ta11, CN = localhost, emailAddress = ta11
        Subject Public Key Info:
            Public Key Algorithm: rsaEncryption
                Public-Key: (2048 bit)
                Modulus:
                    00:a8:99:3c:40:dc:60:73:04:18:8f:84:2d:db:a4:
                    81:a4:4a:9a:d4:ea:24:0f:72:80:94:d7:1e:00:c2:
                    67:f1:c8:84:52:49:cf:4e:94:67:56:4f:2b:3f:f4:
                    14:9a:b2:70:b0:d1:d6:c5:24:d9:71:25:bf:f4:f2:
                    f4:a2:4c:58:7c:07:9f:a2:0b:0b:59:d3:67:1c:2e:
                    90:3a:a1:a6:a9:ee:45:08:9a:a5:4e:9c:c3:4b:5c:
                    4e:37:2d:75:8b:15:eb:fc:a5:9e:f8:37:72:ad:70:
                    6e:5d:03:d6:22:96:65:7e:d6:9d:b5:44:9c:a3:6d:
                    b4:29:d4:93:37:7d:b7:64:30:75:0e:56:58:23:36:
                    dd:d1:c6:01:18:6f:fe:71:60:f9:75:14:bf:23:b5:
                    7a:73:d0:9d:6c:23:aa:de:cd:f4:76:a0:24:9f:69:
                    8c:ef:7b:77:84:6d:d7:ad:41:86:4e:d9:c8:4e:09:
                    49:f9:f1:5c:a2:8c:04:26:42:cd:fd:e0:6d:72:cc:
                    e7:3f:ed:37:d8:8d:2f:2a:44:b6:ab:36:fc:95:fd:
                    4d:46:81:77:5c:29:31:8e:1f:8a:88:cd:1b:d3:a1:
                    f2:37:b5:d2:39:cc:76:3c:da:e2:f9:54:ab:be:7c:
                    09:ae:b2:b7:b3:10:88:59:72:ed:d8:d7:94:25:4d:
                    01:41
                Exponent: 65537 (0x10001)
        X509v3 extensions:
            X509v3 Subject Key Identifier: 
                43:71:20:B9:64:59:C7:15:ED:59:7D:66:05:42:36:CA:E1:82:64:65
            X509v3 Authority Key Identifier: 
                43:71:20:B9:64:59:C7:15:ED:59:7D:66:05:42:36:CA:E1:82:64:65
            X509v3 Basic Constraints: critical
                CA:TRUE
    Signature Algorithm: sha256WithRSAEncryption
    Signature Value:
        71:db:20:ef:35:51:da:53:c3:b7:f8:4e:29:47:69:a3:af:d9:
        39:0a:4d:a4:b0:68:32:e0:ac:11:a2:02:35:47:a6:9a:f8:6b:
        39:e0:d1:8c:3d:b0:88:61:e2:4a:5b:36:32:eb:76:7f:d1:0e:
        63:91:4a:44:28:34:21:0b:2c:f9:81:90:ce:c4:28:2d:de:1e:
        0f:22:c7:cc:a3:97:93:f7:b7:65:bf:d7:75:9d:0c:a3:b8:28:
        59:1f:07:90:3c:f7:2c:57:e1:79:16:0e:e2:0d:e2:84:0c:fc:
        c8:a8:57:45:21:79:41:66:7d:62:f2:ee:e2:4f:d6:50:8d:7a:
        87:0c:62:57:44:21:bd:d9:85:bd:0b:bb:48:47:6c:3b:40:5e:
        d5:01:35:18:a4:0a:a9:28:c2:89:64:0c:c0:72:84:db:8d:88:
        a8:5a:8c:a7:b8:39:0b:bf:21:11:0d:bc:27:4d:e8:22:ca:54:
        a3:07:95:bf:d0:79:33:f0:d8:b2:e8:2c:da:77:a6:44:9a:cf:
        e8:24:17:c5:51:9f:5d:b1:ab:d6:22:d7:8d:29:da:3c:96:94:
        21:80:42:67:43:82:b3:73:24:f3:de:9d:57:7b:c7:d4:21:bb:
        f4:2c:b7:90:2d:67:ec:6d:2c:14:ed:6d:8a:66:05:44:30:73:
        36:d7:b3:56
-----BEGIN CERTIFICATE-----
MIID3zCCAsegAwIBAgIUJ/19T8KI26bY7Q07ex6D31JtmQ8wDQYJKoZIhvcNAQEL
BQAwfzELMAkGA1UEBhMCVVMxEzARBgNVBAgMCkNhbGlmb3JuaWExFDASBgNVBAcM
C1NhbnRhIENsYXJhMQ0wCwYDVQQKDARwa2c1MQ0wCwYDVQQLDAR0YTExMRIwEAYD
VQQDDAlsb2NhbGhvc3QxEzARBgkqhkiG9w0BCQEWBHRhMTEwHhcNMjYwMzE4MDg1
MTUwWhcNMjgxMjEyMDg1MTUwWjB/MQswCQYDVQQGEwJVUzETMBEGA1UECAwKQ2Fs
aWZvcm5pYTEUMBIGA1UEBwwLU2FudGEgQ2xhcmExDTALBgNVBAoMBHBrZzUxDTAL
BgNVBAsMBHRhMTExEjAQBgNVBAMMCWxvY2FsaG9zdDETMBEGCSqGSIb3DQEJARYE
dGExMTCCASIwDQYJKoZIhvcNAQEBBQADggEPADCCAQoCggEBAKiZPEDcYHMEGI+E
LdukgaRKmtTqJA9ygJTXHgDCZ/HIhFJJz06UZ1ZPKz/0FJqycLDR1sUk2XElv/Ty
9KJMWHwHn6ILC1nTZxwukDqhpqnuRQiapU6cw0tcTjctdYsV6/ylnvg3cq1wbl0D
1iKWZX7WnbVEnKNttCnUkzd9t2QwdQ5WWCM23dHGARhv/nFg+XUUvyO1enPQnWwj
qt7N9HagJJ9pjO97d4Rt161Bhk7ZyE4JSfnxXKKMBCZCzf3gbXLM5z/tN9iNLypE
tqs2/JX9TUaBd1wpMY4fiojNG9Oh8je10jnMdjza4vlUq758Ca6yt7MQiFly7djX
lCVNAUECAwEAAaNTMFEwHQYDVR0OBBYEFENxILlkWccV7Vl9ZgVCNsrhgmRlMB8G
A1UdIwQYMBaAFENxILlkWccV7Vl9ZgVCNsrhgmRlMA8GA1UdEwEB/wQFMAMBAf8w
DQYJKoZIhvcNAQELBQADggEBAHHbIO81UdpTw7f4TilHaaOv2TkKTaSwaDLgrBGi
AjVHppr4azng0Yw9sIhh4kpbNjLrdn/RDmORSkQoNCELLPmBkM7EKC3eHg8ix8yj
l5P3t2W/13WdDKO4KFkfB5A89yxX4XkWDuIN4oQM/MioV0UheUFmfWLy7uJP1lCN
eocMYldEIb3Zhb0Lu0hHbDtAXtUBNRikCqkowolkDMByhNuNiKhajKe4OQu/IREN
vCdN6CLKVKMHlb/QeTPw2LLoLNp3pkSaz+gkF8VRn12xq9Yi140p2jyWlCGAQmdD
grNzJPPenVd7x9Qhu/Qst5AtZ+xtLBTtbYpmBUQwczbXs1Y=
-----END CERTIFICATE-----
