Certificate:
    Data:
        Version: 3 (0x2)
        Serial Number:
            e8:bb:a6:cb:8c:04:07:45
    Signature Algorithm: sha256WithRSAEncryption
        Issuer: C=US, ST=California, L=Santa Clara, O=pkg5, OU=ta11, CN=localhost/emailAddress=ta11
        Validity
            Not Before: Jul 19 11:35:53 2023 GMT
            Not After : Apr 14 11:35:53 2026 GMT
        Subject: C=US, ST=California, L=Santa Clara, O=pkg5, OU=ta11, CN=localhost/emailAddress=ta11
        Subject Public Key Info:
            Public Key Algorithm: rsaEncryption
                Public-Key: (2048 bit)
                Modulus:
                    00:d9:b7:fb:88:4c:75:fd:a8:74:fb:58:3e:dc:92:
                    e8:9a:73:cb:96:2e:f9:7d:c7:d3:8f:74:da:c8:a0:
                    f1:4a:26:37:d2:5e:90:f1:1a:52:d8:66:82:38:96:
                    7a:71:11:9f:da:29:67:39:8c:8c:fb:46:f5:f4:1c:
                    36:25:4e:32:9e:17:dd:08:ac:51:3c:cc:03:b3:e7:
                    29:4d:59:a4:49:2f:32:c9:b0:4d:24:4f:a1:c1:17:
                    8d:f3:a9:3d:56:2c:97:1a:b9:ec:ad:78:5d:43:b7:
                    2d:34:b8:34:ac:ba:7a:f6:2b:ac:53:e3:85:35:55:
                    f3:e5:aa:e5:7b:51:e6:1f:da:0c:17:95:9a:60:f7:
                    63:a1:21:91:ad:d3:20:ea:45:c9:21:7a:f6:2c:e1:
                    67:7e:63:4e:2c:97:8c:fc:51:e2:16:10:f4:32:42:
                    1f:42:59:f6:bb:e7:97:7d:f1:1c:1e:1f:13:ef:8e:
                    4c:fb:9d:d8:d4:90:4f:96:dd:2a:7f:f5:a7:f8:0a:
                    da:50:82:26:33:6c:b5:5c:19:b6:02:28:30:5a:63:
                    e0:35:78:87:2e:1d:d9:8d:7d:70:bb:45:91:ff:9c:
                    a8:a7:5d:c5:53:3e:35:f2:46:db:fe:d4:0e:97:6b:
                    74:13:1e:60:f1:0d:d8:7c:7b:71:9c:e3:22:bb:bb:
                    52:1d
                Exponent: 65537 (0x10001)
        X509v3 extensions:
            X509v3 Subject Key Identifier: 
                10:8A:D0:A4:FB:84:FB:E4:F4:A3:79:60:B5:43:CD:86:BB:2D:20:B7
            X509v3 Authority Key Identifier: 
                keyid:10:8A:D0:A4:FB:84:FB:E4:F4:A3:79:60:B5:43:CD:86:BB:2D:20:B7

            X509v3 Basic Constraints: 
                CA:TRUE
    Signature Algorithm: sha256WithRSAEncryption
         3f:dd:84:71:63:96:e2:76:10:45:fd:2d:e3:f4:a9:63:56:23:
         67:05:1d:17:63:4b:87:65:bc:f0:93:06:7a:78:8d:95:31:6d:
         62:3b:66:04:e4:55:bd:48:2e:18:72:ae:46:37:45:0c:9f:51:
         74:29:f9:82:25:0c:7f:a4:c2:8f:08:54:08:f0:b7:c9:99:6d:
         9e:80:df:ff:2b:b8:8b:bc:f6:85:93:a6:b8:2e:a6:e0:93:ba:
         e7:44:47:9a:d2:5f:9a:80:d0:c2:39:4e:c3:aa:a4:74:17:fd:
         30:3b:b3:60:28:68:9a:c0:2f:f5:9f:26:3e:29:98:f6:ae:96:
         cb:af:d0:f7:05:d5:83:29:2c:51:ab:3a:ba:a6:ac:0e:95:11:
         59:a9:b7:96:c0:6c:c9:6d:5f:d0:a2:cb:7d:60:de:27:99:cd:
         93:4f:01:11:cd:0e:39:36:c7:12:77:34:8e:2a:45:28:c3:d3:
         6c:d5:72:df:42:8b:1e:7c:30:5f:f1:78:63:77:25:4a:07:77:
         b1:4f:99:53:56:6d:24:06:d7:3a:db:95:94:4f:67:79:cd:b9:
         97:ba:19:25:ba:df:12:47:0b:e1:f8:8d:c9:08:0d:01:e6:1a:
         23:87:b3:cb:90:fa:7b:d9:ab:77:68:02:f9:fe:71:42:c6:84:
         85:cc:24:6d
-----BEGIN CERTIFICATE-----
MIID0TCCArmgAwIBAgIJAOi7psuMBAdFMA0GCSqGSIb3DQEBCwUAMH8xCzAJBgNV
BAYTAlVTMRMwEQYDVQQIDApDYWxpZm9ybmlhMRQwEgYDVQQHDAtTYW50YSBDbGFy
YTENMAsGA1UECgwEcGtnNTENMAsGA1UECwwEdGExMTESMBAGA1UEAwwJbG9jYWxo
b3N0MRMwEQYJKoZIhvcNAQkBFgR0YTExMB4XDTIzMDcxOTExMzU1M1oXDTI2MDQx
NDExMzU1M1owfzELMAkGA1UEBhMCVVMxEzARBgNVBAgMCkNhbGlmb3JuaWExFDAS
BgNVBAcMC1NhbnRhIENsYXJhMQ0wCwYDVQQKDARwa2c1MQ0wCwYDVQQLDAR0YTEx
MRIwEAYDVQQDDAlsb2NhbGhvc3QxEzARBgkqhkiG9w0BCQEWBHRhMTEwggEiMA0G
CSqGSIb3DQEBAQUAA4IBDwAwggEKAoIBAQDZt/uITHX9qHT7WD7ckuiac8uWLvl9
x9OPdNrIoPFKJjfSXpDxGlLYZoI4lnpxEZ/aKWc5jIz7RvX0HDYlTjKeF90IrFE8
zAOz5ylNWaRJLzLJsE0kT6HBF43zqT1WLJcaueyteF1Dty00uDSsunr2K6xT44U1
VfPlquV7UeYf2gwXlZpg92OhIZGt0yDqRckhevYs4Wd+Y04sl4z8UeIWEPQyQh9C
Wfa755d98RweHxPvjkz7ndjUkE+W3Sp/9af4CtpQgiYzbLVcGbYCKDBaY+A1eIcu
HdmNfXC7RZH/nKinXcVTPjXyRtv+1A6Xa3QTHmDxDdh8e3Gc4yK7u1IdAgMBAAGj
UDBOMB0GA1UdDgQWBBQQitCk+4T75PSjeWC1Q82Guy0gtzAfBgNVHSMEGDAWgBQQ
itCk+4T75PSjeWC1Q82Guy0gtzAMBgNVHRMEBTADAQH/MA0GCSqGSIb3DQEBCwUA
A4IBAQA/3YRxY5bidhBF/S3j9KljViNnBR0XY0uHZbzwkwZ6eI2VMW1iO2YE5FW9
SC4Ycq5GN0UMn1F0KfmCJQx/pMKPCFQI8LfJmW2egN//K7iLvPaFk6a4Lqbgk7rn
REea0l+agNDCOU7DqqR0F/0wO7NgKGiawC/1nyY+KZj2rpbLr9D3BdWDKSxRqzq6
pqwOlRFZqbeWwGzJbV/Qost9YN4nmc2TTwERzQ45NscSdzSOKkUow9Ns1XLfQose
fDBf8XhjdyVKB3exT5lTVm0kBtc625WUT2d5zbmXuhklut8SRwvh+I3JCA0B5hoj
h7PLkPp72at3aAL5/nFCxoSFzCRt
-----END CERTIFICATE-----
