Certificate:
    Data:
        Version: 3 (0x2)
        Serial Number:
            cd:01:a8:69:e8:cf:ec:14
    Signature Algorithm: sha256WithRSAEncryption
        Issuer: C=US, ST=California, L=Santa Clara, O=pkg5, OU=ta11, CN=localhost/emailAddress=ta11
        Validity
            Not Before: Jan 22 15:33:17 2019 GMT
            Not After : Oct 18 15:33:17 2021 GMT
        Subject: C=US, ST=California, L=Santa Clara, O=pkg5, OU=ta11, CN=localhost/emailAddress=ta11
        Subject Public Key Info:
            Public Key Algorithm: rsaEncryption
                Public-Key: (2048 bit)
                Modulus:
                    00:c3:9c:af:75:00:97:10:f8:74:71:fd:43:c6:ad:
                    17:db:84:0f:67:41:a8:d0:55:2e:96:06:f7:0f:2d:
                    90:c3:2d:52:77:16:0f:4a:94:ae:5f:62:c1:ff:fa:
                    e0:58:2d:b5:e9:2a:5e:a8:40:e8:0f:b5:0e:b5:bf:
                    de:e4:64:a3:63:c1:88:5e:d3:07:70:f6:62:0d:33:
                    fb:38:cc:34:0b:27:14:dd:ac:81:13:7e:2a:99:08:
                    ae:d7:f7:ee:37:d5:46:3e:7b:a6:e5:5b:c6:63:f8:
                    a6:ee:89:12:7c:6e:55:9c:55:7a:05:79:62:1c:76:
                    69:3a:c0:62:98:c3:2e:49:cb:57:34:10:9f:f0:7d:
                    87:ce:85:4f:b7:b3:63:a6:4c:c0:9b:56:f5:15:e6:
                    62:66:b7:e9:0c:d6:d3:65:a2:cd:0d:aa:f6:3a:a1:
                    ec:0b:d4:38:3f:44:6f:eb:50:7d:45:ab:2b:d4:1e:
                    17:15:a6:0e:ad:b5:36:9a:a0:b4:14:ce:0a:73:e7:
                    94:ca:b4:2a:64:14:cc:76:ac:53:a0:86:57:22:c0:
                    a9:3b:2e:73:e9:89:f3:92:6e:29:e0:59:7a:80:8b:
                    c7:c4:9b:be:77:ad:d8:1a:a0:ce:b6:8a:ff:43:fb:
                    42:50:04:7b:ba:0c:b7:95:68:5f:ae:67:0e:74:af:
                    dd:f1
                Exponent: 65537 (0x10001)
        X509v3 extensions:
            X509v3 Subject Key Identifier: 
                BD:E8:3F:11:B1:D5:AC:2D:73:AF:E6:41:B0:7A:3E:AD:16:03:41:58
            X509v3 Authority Key Identifier: 
                keyid:BD:E8:3F:11:B1:D5:AC:2D:73:AF:E6:41:B0:7A:3E:AD:16:03:41:58

            X509v3 Basic Constraints: 
                CA:TRUE
    Signature Algorithm: sha256WithRSAEncryption
         0f:8f:09:0a:91:f8:cb:26:6a:62:f9:5d:6d:f5:6d:f0:8e:e3:
         4f:ed:da:c6:64:e4:cc:0f:56:b2:e6:d2:5a:33:09:4b:a1:5c:
         12:22:0c:ee:0f:91:c1:3f:c3:68:6f:f3:51:cc:9a:4b:e7:a7:
         e8:46:a8:a1:b5:9e:e2:5f:62:62:76:d7:d7:5f:f5:5a:ae:66:
         c1:9b:bb:7f:43:17:28:00:c1:03:75:b3:87:20:d1:c1:f4:83:
         77:07:9d:88:64:c6:9e:29:6d:d0:24:fb:16:80:fc:bc:d9:46:
         4c:03:7d:ad:fe:41:0f:b7:3b:de:4e:6d:6c:13:19:f0:4b:14:
         3c:e8:3b:52:25:fd:63:6c:cb:f3:d0:03:04:87:90:0a:de:f9:
         55:c9:8e:9e:17:f3:2f:72:18:95:cd:a3:57:bd:0e:60:a0:28:
         1a:2d:3b:09:a5:8f:8e:c9:4d:df:9c:27:2c:1b:15:f1:57:84:
         47:21:c1:35:38:87:03:55:5a:db:ad:7e:00:8e:03:2e:59:5c:
         e4:eb:71:9a:1d:4a:dc:e4:52:4e:57:9f:24:c3:78:e1:95:73:
         2e:66:2a:22:46:97:8e:d0:08:f8:5e:10:c9:58:be:73:a8:59:
         d1:bb:c6:60:d2:40:94:5c:b4:0a:94:39:3e:5c:44:f9:f3:88:
         36:6d:6a:b1
-----BEGIN CERTIFICATE-----
MIID0TCCArmgAwIBAgIJAM0BqGnoz+wUMA0GCSqGSIb3DQEBCwUAMH8xCzAJBgNV
BAYTAlVTMRMwEQYDVQQIDApDYWxpZm9ybmlhMRQwEgYDVQQHDAtTYW50YSBDbGFy
YTENMAsGA1UECgwEcGtnNTENMAsGA1UECwwEdGExMTESMBAGA1UEAwwJbG9jYWxo
b3N0MRMwEQYJKoZIhvcNAQkBFgR0YTExMB4XDTE5MDEyMjE1MzMxN1oXDTIxMTAx
ODE1MzMxN1owfzELMAkGA1UEBhMCVVMxEzARBgNVBAgMCkNhbGlmb3JuaWExFDAS
BgNVBAcMC1NhbnRhIENsYXJhMQ0wCwYDVQQKDARwa2c1MQ0wCwYDVQQLDAR0YTEx
MRIwEAYDVQQDDAlsb2NhbGhvc3QxEzARBgkqhkiG9w0BCQEWBHRhMTEwggEiMA0G
CSqGSIb3DQEBAQUAA4IBDwAwggEKAoIBAQDDnK91AJcQ+HRx/UPGrRfbhA9nQajQ
VS6WBvcPLZDDLVJ3Fg9KlK5fYsH/+uBYLbXpKl6oQOgPtQ61v97kZKNjwYhe0wdw
9mINM/s4zDQLJxTdrIETfiqZCK7X9+431UY+e6blW8Zj+KbuiRJ8blWcVXoFeWIc
dmk6wGKYwy5Jy1c0EJ/wfYfOhU+3s2OmTMCbVvUV5mJmt+kM1tNlos0NqvY6oewL
1Dg/RG/rUH1FqyvUHhcVpg6ttTaaoLQUzgpz55TKtCpkFMx2rFOghlciwKk7LnPp
ifOSbingWXqAi8fEm753rdgaoM62iv9D+0JQBHu6DLeVaF+uZw50r93xAgMBAAGj
UDBOMB0GA1UdDgQWBBS96D8RsdWsLXOv5kGwej6tFgNBWDAfBgNVHSMEGDAWgBS9
6D8RsdWsLXOv5kGwej6tFgNBWDAMBgNVHRMEBTADAQH/MA0GCSqGSIb3DQEBCwUA
A4IBAQAPjwkKkfjLJmpi+V1t9W3wjuNP7drGZOTMD1ay5tJaMwlLoVwSIgzuD5HB
P8Nob/NRzJpL56foRqihtZ7iX2JidtfXX/VarmbBm7t/QxcoAMEDdbOHINHB9IN3
B52IZMaeKW3QJPsWgPy82UZMA32t/kEPtzveTm1sExnwSxQ86DtSJf1jbMvz0AME
h5AK3vlVyY6eF/MvchiVzaNXvQ5goCgaLTsJpY+OyU3fnCcsGxXxV4RHIcE1OIcD
VVrbrX4AjgMuWVzk63GaHUrc5FJOV58kw3jhlXMuZioiRpeO0Aj4XhDJWL5zqFnR
u8Zg0kCUXLQKlDk+XET584g2bWqx
-----END CERTIFICATE-----
