Certificate:
    Data:
        Version: 3 (0x2)
        Serial Number:
            b8:9c:7a:9f:ff:94:77:90
    Signature Algorithm: sha256WithRSAEncryption
        Issuer: C=US, ST=California, L=Santa Clara, O=pkg5, OU=ta11, CN=localhost/emailAddress=ta11
        Validity
            Not Before: Sep 22 05:33:40 2021 GMT
            Not After : Jun 18 05:33:40 2024 GMT
        Subject: C=US, ST=California, L=Santa Clara, O=pkg5, OU=ta11, CN=localhost/emailAddress=ta11
        Subject Public Key Info:
            Public Key Algorithm: rsaEncryption
                Public-Key: (2048 bit)
                Modulus:
                    00:c2:db:16:46:fa:4d:1d:10:ae:20:1e:3c:1c:63:
                    23:d4:1f:b7:52:22:6b:7c:04:20:e9:41:33:22:83:
                    bc:5e:a3:c8:ad:8e:25:98:e6:18:f6:fe:4c:1c:8d:
                    c9:73:bd:81:ea:eb:4a:00:49:a4:50:64:76:bf:73:
                    02:5d:d0:66:7b:99:2e:5c:3a:76:b4:df:d3:38:42:
                    fe:14:e2:57:6f:e8:3f:08:db:3a:a3:89:0c:3c:df:
                    8f:9f:c1:5b:24:d2:91:a9:fa:6e:13:33:b6:75:33:
                    63:41:34:b0:e2:44:34:c7:c7:09:62:ca:8c:e5:9a:
                    dd:92:8a:3d:20:b4:e1:26:45:be:3a:db:af:37:bf:
                    14:b5:9a:27:e6:ea:8c:d7:ee:ad:f7:51:25:3e:bb:
                    6d:34:06:6f:16:ec:85:e9:68:ec:17:ed:c3:f1:dc:
                    51:de:c5:6e:1c:4d:1a:8c:ce:9c:af:67:c0:50:a4:
                    12:1d:f5:c6:b5:b8:94:eb:8e:cc:3d:29:57:d5:76:
                    6e:9b:a1:a6:5d:5d:a8:38:03:57:ff:9f:bd:73:a2:
                    85:ce:e2:90:66:aa:22:0f:24:f3:5e:e7:e7:3d:f5:
                    1f:b9:a1:65:66:fc:50:d5:40:ff:95:ad:c5:58:12:
                    0e:11:2f:03:1b:c6:80:0a:d2:1d:2a:eb:56:eb:81:
                    60:65
                Exponent: 65537 (0x10001)
        X509v3 extensions:
            X509v3 Subject Key Identifier: 
                06:C5:78:F1:62:6C:6B:FC:44:F5:D2:6D:52:0D:8D:BF:18:AD:38:8A
            X509v3 Authority Key Identifier: 
                keyid:06:C5:78:F1:62:6C:6B:FC:44:F5:D2:6D:52:0D:8D:BF:18:AD:38:8A

            X509v3 Basic Constraints: 
                CA:TRUE
    Signature Algorithm: sha256WithRSAEncryption
         ab:5a:1e:27:18:5c:b8:c5:e1:48:74:a0:94:87:10:ba:75:06:
         e0:0f:77:f6:9b:94:ad:33:9a:d5:51:2e:e4:37:2e:30:97:83:
         62:58:1a:52:10:50:a9:7b:27:de:06:7d:b9:3c:97:0a:6e:f7:
         d3:82:82:b3:ff:a6:53:c0:ca:04:b1:48:7f:35:11:4f:d1:37:
         3f:dc:cd:56:fc:3b:ef:87:2d:f9:7c:39:55:1f:11:30:90:d2:
         3b:7e:49:87:66:75:63:d6:e6:40:34:ad:a7:e5:a6:de:24:75:
         59:da:6d:51:f6:5e:92:8d:47:e4:61:57:e4:e2:5f:16:33:3e:
         aa:da:38:03:c4:c9:65:09:b1:75:5f:db:57:2b:71:5f:97:01:
         89:98:23:b0:d3:e3:c7:6e:7b:60:4d:e3:4f:0c:e6:57:a5:21:
         08:3b:d2:24:38:28:57:69:25:e1:e2:07:01:17:40:11:ee:cd:
         88:d3:b4:7e:56:47:d1:9c:0a:8f:d1:aa:32:e6:f8:84:5f:21:
         9f:fc:ea:67:dd:d2:7f:92:73:e3:3d:e9:40:21:45:cf:59:c3:
         32:56:8f:a8:60:87:76:aa:51:75:f2:0e:c7:33:51:50:ad:df:
         04:bc:83:67:fb:6d:47:6e:55:cf:28:60:e3:19:e1:fa:e2:96:
         7f:87:44:ae
-----BEGIN CERTIFICATE-----
MIID0TCCArmgAwIBAgIJALicep//lHeQMA0GCSqGSIb3DQEBCwUAMH8xCzAJBgNV
BAYTAlVTMRMwEQYDVQQIDApDYWxpZm9ybmlhMRQwEgYDVQQHDAtTYW50YSBDbGFy
YTENMAsGA1UECgwEcGtnNTENMAsGA1UECwwEdGExMTESMBAGA1UEAwwJbG9jYWxo
b3N0MRMwEQYJKoZIhvcNAQkBFgR0YTExMB4XDTIxMDkyMjA1MzM0MFoXDTI0MDYx
ODA1MzM0MFowfzELMAkGA1UEBhMCVVMxEzARBgNVBAgMCkNhbGlmb3JuaWExFDAS
BgNVBAcMC1NhbnRhIENsYXJhMQ0wCwYDVQQKDARwa2c1MQ0wCwYDVQQLDAR0YTEx
MRIwEAYDVQQDDAlsb2NhbGhvc3QxEzARBgkqhkiG9w0BCQEWBHRhMTEwggEiMA0G
CSqGSIb3DQEBAQUAA4IBDwAwggEKAoIBAQDC2xZG+k0dEK4gHjwcYyPUH7dSImt8
BCDpQTMig7xeo8itjiWY5hj2/kwcjclzvYHq60oASaRQZHa/cwJd0GZ7mS5cOna0
39M4Qv4U4ldv6D8I2zqjiQw834+fwVsk0pGp+m4TM7Z1M2NBNLDiRDTHxwliyozl
mt2Sij0gtOEmRb462683vxS1mifm6ozX7q33USU+u200Bm8W7IXpaOwX7cPx3FHe
xW4cTRqMzpyvZ8BQpBId9ca1uJTrjsw9KVfVdm6boaZdXag4A1f/n71zooXO4pBm
qiIPJPNe5+c99R+5oWVm/FDVQP+VrcVYEg4RLwMbxoAK0h0q61brgWBlAgMBAAGj
UDBOMB0GA1UdDgQWBBQGxXjxYmxr/ET10m1SDY2/GK04ijAfBgNVHSMEGDAWgBQG
xXjxYmxr/ET10m1SDY2/GK04ijAMBgNVHRMEBTADAQH/MA0GCSqGSIb3DQEBCwUA
A4IBAQCrWh4nGFy4xeFIdKCUhxC6dQbgD3f2m5StM5rVUS7kNy4wl4NiWBpSEFCp
eyfeBn25PJcKbvfTgoKz/6ZTwMoEsUh/NRFP0Tc/3M1W/Dvvhy35fDlVHxEwkNI7
fkmHZnVj1uZANK2n5abeJHVZ2m1R9l6SjUfkYVfk4l8WMz6q2jgDxMllCbF1X9tX
K3FflwGJmCOw0+PHbntgTeNPDOZXpSEIO9IkOChXaSXh4gcBF0AR7s2I07R+VkfR
nAqP0aoy5viEXyGf/Opn3dJ/knPjPelAIUXPWcMyVo+oYId2qlF18g7HM1FQrd8E
vINn+21HblXPKGDjGeH64pZ/h0Su
-----END CERTIFICATE-----
