Certificate:
    Data:
        Version: 3 (0x2)
        Serial Number:
            fc:c0:ee:93:13:43:17:2d
        Signature Algorithm: sha256WithRSAEncryption
        Issuer: C=US, ST=California, L=Menlo Park, O=pkg5, CN=ta4/emailAddress=ta4
        Validity
            Not Before: Jan 28 02:54:21 2011 GMT
            Not After : Oct 24 02:54:21 2013 GMT
        Subject: C=US, ST=California, L=Menlo Park, O=pkg5, CN=ta4/emailAddress=ta4
        Subject Public Key Info:
            Public Key Algorithm: rsaEncryption
            RSA Public Key: (1024 bit)
                Modulus (1024 bit):
                    00:c0:2b:f2:13:a5:29:e8:19:ed:15:b7:ef:65:2a:
                    33:bc:aa:23:17:07:4f:e2:b8:c2:fc:e8:f0:36:d2:
                    71:55:fe:45:15:4f:62:3d:0b:f6:1a:4e:6c:7c:59:
                    09:06:10:6e:f6:17:1c:96:4e:d6:ce:fa:b8:b6:a4:
                    36:97:95:dc:49:87:ce:ed:10:1a:f8:ca:b9:8f:3e:
                    d4:e6:89:64:27:01:1d:e0:56:9d:71:55:7b:f1:53:
                    eb:16:b9:d6:3c:f4:35:3f:a5:23:b7:50:1e:d8:0d:
                    67:af:fb:65:77:55:34:0f:a9:cf:35:9a:bc:ea:ed:
                    cb:7c:5c:9f:61:1a:96:ea:a3
                Exponent: 65537 (0x10001)
        X509v3 extensions:
            X509v3 Subject Key Identifier: 
                B9:A8:52:5F:91:1B:2A:27:A9:0A:94:54:06:52:2F:72:86:85:9E:75
            X509v3 Authority Key Identifier: 
                keyid:B9:A8:52:5F:91:1B:2A:27:A9:0A:94:54:06:52:2F:72:86:85:9E:75
                DirName:/C=US/ST=California/L=Menlo Park/O=pkg5/CN=ta4/emailAddress=ta4
                serial:FC:C0:EE:93:13:43:17:2D

            X509v3 Basic Constraints: 
                CA:TRUE
    Signature Algorithm: sha256WithRSAEncryption
        18:3d:23:29:a5:74:64:5d:c8:6d:b8:66:f6:68:d5:ff:72:51:
        cb:ce:ca:6c:55:af:25:ff:c5:4e:ac:65:f3:16:a7:22:11:82:
        4c:35:92:27:dc:23:55:a0:d8:b1:e9:1d:d7:fc:ba:a6:df:13:
        c5:6c:85:42:43:cc:ec:ff:62:49:b1:ef:63:15:25:37:57:59:
        15:e3:ab:26:06:5a:62:df:fb:82:1a:57:a0:0f:64:29:7f:80:
        5e:e5:c7:2b:cb:5d:da:4d:e4:dc:da:52:94:79:9b:4b:b5:ba:
        fa:4d:4b:65:26:95:20:70:95:8c:cf:d5:d2:fe:44:66:48:ec:
        c1:ad
-----BEGIN CERTIFICATE-----
MIIDHDCCAoWgAwIBAgIJAPzA7pMTQxctMA0GCSqGSIb3DQEBCwUAMGgxCzAJBgNV
BAYTAlVTMRMwEQYDVQQIEwpDYWxpZm9ybmlhMRMwEQYDVQQHEwpNZW5sbyBQYXJr
MQ0wCwYDVQQKEwRwa2c1MQwwCgYDVQQDEwN0YTQxEjAQBgkqhkiG9w0BCQEWA3Rh
NDAeFw0xMTAxMjgwMjU0MjFaFw0xMzEwMjQwMjU0MjFaMGgxCzAJBgNVBAYTAlVT
MRMwEQYDVQQIEwpDYWxpZm9ybmlhMRMwEQYDVQQHEwpNZW5sbyBQYXJrMQ0wCwYD
VQQKEwRwa2c1MQwwCgYDVQQDEwN0YTQxEjAQBgkqhkiG9w0BCQEWA3RhNDCBnzAN
BgkqhkiG9w0BAQEFAAOBjQAwgYkCgYEAwCvyE6Up6BntFbfvZSozvKojFwdP4rjC
/OjwNtJxVf5FFU9iPQv2Gk5sfFkJBhBu9hcclk7Wzvq4tqQ2l5XcSYfO7RAa+Mq5
jz7U5olkJwEd4FadcVV78VPrFrnWPPQ1P6Ujt1Ae2A1nr/tld1U0D6nPNZq86u3L
fFyfYRqW6qMCAwEAAaOBzTCByjAdBgNVHQ4EFgQUuahSX5EbKiepCpRUBlIvcoaF
nnUwgZoGA1UdIwSBkjCBj4AUuahSX5EbKiepCpRUBlIvcoaFnnWhbKRqMGgxCzAJ
BgNVBAYTAlVTMRMwEQYDVQQIEwpDYWxpZm9ybmlhMRMwEQYDVQQHEwpNZW5sbyBQ
YXJrMQ0wCwYDVQQKEwRwa2c1MQwwCgYDVQQDEwN0YTQxEjAQBgkqhkiG9w0BCQEW
A3RhNIIJAPzA7pMTQxctMAwGA1UdEwQFMAMBAf8wDQYJKoZIhvcNAQELBQADgYEA
GD0jKaV0ZF3Ibbhm9mjV/3JRy87KbFWvJf/FTqxl8xanIhGCTDWSJ9wjVaDYsekd
1/y6pt8TxWyFQkPM7P9iSbHvYxUlN1dZFeOrJgZaYt/7ghpXoA9kKX+AXuXHK8td
2k3k3NpSlHmbS7W6+k1LZSaVIHCVjM/V0v5EZkjswa0=
-----END CERTIFICATE-----
