Certificate:
    Data:
        Version: 3 (0x2)
        Serial Number:
            c5:19:14:97:e3:27:2e:9b
        Signature Algorithm: sha256WithRSAEncryption
        Issuer: C=US, ST=California, L=Menlo Park, O=pkg5, CN=ta4/emailAddress=ta4
        Validity
            Not Before: Mar 21 00:49:31 2011 GMT
            Not After : Dec 15 00:49:31 2013 GMT
        Subject: C=US, ST=California, L=Menlo Park, O=pkg5, CN=ta4/emailAddress=ta4
        Subject Public Key Info:
            Public Key Algorithm: rsaEncryption
            RSA Public Key: (1024 bit)
                Modulus (1024 bit):
                    00:b1:4b:88:95:b3:1e:8c:08:95:21:43:4e:19:f6:
                    c1:e0:4a:68:49:d8:28:48:ba:20:22:2d:ab:d8:62:
                    15:d5:4e:21:bd:c0:af:00:d0:09:4a:da:3b:00:2d:
                    13:0c:6e:e1:3d:37:00:f5:09:5d:cd:69:81:4e:2b:
                    3d:38:8c:f0:64:66:0e:a0:d6:68:b1:27:57:3e:01:
                    c3:27:2a:c1:a8:35:b2:54:a7:4e:17:3d:83:85:43:
                    6d:f8:07:ba:3b:40:05:b5:c3:9b:a7:66:f5:5f:a5:
                    f8:b0:5f:3d:3d:97:25:4c:4f:89:63:51:7d:4a:be:
                    48:1a:1c:71:a3:fa:6a:87:13
                Exponent: 65537 (0x10001)
        X509v3 extensions:
            X509v3 Subject Key Identifier: 
                0A:1C:BA:A6:5B:C6:83:32:60:E5:9B:00:85:37:74:D1:8D:30:BA:8A
            X509v3 Authority Key Identifier: 
                keyid:0A:1C:BA:A6:5B:C6:83:32:60:E5:9B:00:85:37:74:D1:8D:30:BA:8A
                DirName:/C=US/ST=California/L=Menlo Park/O=pkg5/CN=ta4/emailAddress=ta4
                serial:C5:19:14:97:E3:27:2E:9B

            X509v3 Basic Constraints: 
                CA:TRUE
    Signature Algorithm: sha256WithRSAEncryption
        64:93:80:7e:ae:43:e2:e6:96:07:67:cf:34:c3:ef:cc:69:1c:
        52:41:fb:ec:11:dc:f6:fe:88:e4:8e:3b:90:97:d5:e5:6e:b6:
        b7:8e:0b:40:3b:84:5b:36:73:e4:ce:39:8e:e7:7e:db:dc:cd:
        0f:97:1c:bb:2a:31:56:28:6b:87:50:72:be:5f:47:68:4e:a1:
        38:7e:bc:c6:11:4c:2e:46:e3:94:a1:04:a5:15:70:af:2f:a9:
        8f:b3:26:be:c1:35:15:b2:fd:94:f1:5d:a7:06:4f:2d:37:c8:
        47:eb:db:cb:a4:69:05:98:fb:5a:1a:d3:03:17:e2:90:54:5a:
        7d:1d
-----BEGIN CERTIFICATE-----
MIIDHDCCAoWgAwIBAgIJAMUZFJfjJy6bMA0GCSqGSIb3DQEBCwUAMGgxCzAJBgNV
BAYTAlVTMRMwEQYDVQQIEwpDYWxpZm9ybmlhMRMwEQYDVQQHEwpNZW5sbyBQYXJr
MQ0wCwYDVQQKEwRwa2c1MQwwCgYDVQQDEwN0YTQxEjAQBgkqhkiG9w0BCQEWA3Rh
NDAeFw0xMTAzMjEwMDQ5MzFaFw0xMzEyMTUwMDQ5MzFaMGgxCzAJBgNVBAYTAlVT
MRMwEQYDVQQIEwpDYWxpZm9ybmlhMRMwEQYDVQQHEwpNZW5sbyBQYXJrMQ0wCwYD
VQQKEwRwa2c1MQwwCgYDVQQDEwN0YTQxEjAQBgkqhkiG9w0BCQEWA3RhNDCBnzAN
BgkqhkiG9w0BAQEFAAOBjQAwgYkCgYEAsUuIlbMejAiVIUNOGfbB4EpoSdgoSLog
Ii2r2GIV1U4hvcCvANAJSto7AC0TDG7hPTcA9QldzWmBTis9OIzwZGYOoNZosSdX
PgHDJyrBqDWyVKdOFz2DhUNt+Ae6O0AFtcObp2b1X6X4sF89PZclTE+JY1F9Sr5I
Ghxxo/pqhxMCAwEAAaOBzTCByjAdBgNVHQ4EFgQUChy6plvGgzJg5ZsAhTd00Y0w
uoowgZoGA1UdIwSBkjCBj4AUChy6plvGgzJg5ZsAhTd00Y0wuoqhbKRqMGgxCzAJ
BgNVBAYTAlVTMRMwEQYDVQQIEwpDYWxpZm9ybmlhMRMwEQYDVQQHEwpNZW5sbyBQ
YXJrMQ0wCwYDVQQKEwRwa2c1MQwwCgYDVQQDEwN0YTQxEjAQBgkqhkiG9w0BCQEW
A3RhNIIJAMUZFJfjJy6bMAwGA1UdEwQFMAMBAf8wDQYJKoZIhvcNAQELBQADgYEA
ZJOAfq5D4uaWB2fPNMPvzGkcUkH77BHc9v6I5I47kJfV5W62t44LQDuEWzZz5M45
jud+29zND5ccuyoxVihrh1Byvl9HaE6hOH68xhFMLkbjlKEEpRVwry+pj7MmvsE1
FbL9lPFdpwZPLTfIR+vby6RpBZj7WhrTAxfikFRafR0=
-----END CERTIFICATE-----
