Certificate:
    Data:
        Version: 3 (0x2)
        Serial Number:
            ba:06:fd:ec:89:18:b5:7f
        Signature Algorithm: sha256WithRSAEncryption
        Issuer: C=US, ST=California, L=Menlo Park, O=pkg5, CN=ta4/emailAddress=ta4
        Validity
            Not Before: Apr 11 22:37:49 2011 GMT
            Not After : Jan  5 22:37:49 2014 GMT
        Subject: C=US, ST=California, L=Menlo Park, O=pkg5, CN=ta4/emailAddress=ta4
        Subject Public Key Info:
            Public Key Algorithm: rsaEncryption
            RSA Public Key: (1024 bit)
                Modulus (1024 bit):
                    00:cf:c0:25:a7:fa:df:a4:e4:02:33:84:4d:a0:3f:
                    4e:09:c4:ae:0a:58:d3:45:15:d3:5e:94:56:5a:b5:
                    da:3e:27:68:66:3d:b1:83:14:bc:13:94:f3:a8:38:
                    9c:e8:9a:46:4e:06:78:0d:29:95:69:a0:2c:12:19:
                    3b:6b:a6:3d:46:eb:56:8a:f7:85:2d:d9:9c:f0:30:
                    6b:0a:03:8d:ae:d8:cf:9e:df:c9:a5:d7:d3:b1:ab:
                    13:74:e8:1e:a2:be:31:3f:17:78:22:4c:83:8b:24:
                    ef:4f:5d:c4:6e:26:f8:b0:d9:2b:ad:9e:b0:c4:fc:
                    c2:00:10:99:e9:39:17:68:05
                Exponent: 65537 (0x10001)
        X509v3 extensions:
            X509v3 Subject Key Identifier: 
                3E:5F:64:E9:63:CB:9C:10:D0:91:F4:45:61:F2:F1:EA:42:69:EC:A5
            X509v3 Authority Key Identifier: 
                keyid:3E:5F:64:E9:63:CB:9C:10:D0:91:F4:45:61:F2:F1:EA:42:69:EC:A5
                DirName:/C=US/ST=California/L=Menlo Park/O=pkg5/CN=ta4/emailAddress=ta4
                serial:BA:06:FD:EC:89:18:B5:7F

            X509v3 Basic Constraints: 
                CA:TRUE
    Signature Algorithm: sha256WithRSAEncryption
        c2:01:c5:40:3c:24:aa:8a:f3:be:31:f8:82:12:df:b8:e7:b4:
        92:b1:95:79:d4:f7:db:2a:81:a2:f6:5f:3a:1d:b1:e2:a1:bd:
        f1:50:75:cc:d6:f7:ab:26:d6:eb:a8:c6:f8:44:25:53:94:ce:
        6e:a4:6e:4f:40:c2:13:00:b7:cb:b1:82:99:e9:1f:68:54:d0:
        69:ba:02:5f:07:be:c2:f8:e3:2c:40:73:61:c2:c3:ad:4c:91:
        f0:ba:0a:61:df:95:d6:fc:d3:19:e3:98:8e:58:73:03:6f:04:
        9e:b6:f7:8c:3c:1e:60:43:27:96:6d:f5:e7:31:43:bb:22:da:
        07:9c
-----BEGIN CERTIFICATE-----
MIIDHDCCAoWgAwIBAgIJALoG/eyJGLV/MA0GCSqGSIb3DQEBCwUAMGgxCzAJBgNV
BAYTAlVTMRMwEQYDVQQIEwpDYWxpZm9ybmlhMRMwEQYDVQQHEwpNZW5sbyBQYXJr
MQ0wCwYDVQQKEwRwa2c1MQwwCgYDVQQDEwN0YTQxEjAQBgkqhkiG9w0BCQEWA3Rh
NDAeFw0xMTA0MTEyMjM3NDlaFw0xNDAxMDUyMjM3NDlaMGgxCzAJBgNVBAYTAlVT
MRMwEQYDVQQIEwpDYWxpZm9ybmlhMRMwEQYDVQQHEwpNZW5sbyBQYXJrMQ0wCwYD
VQQKEwRwa2c1MQwwCgYDVQQDEwN0YTQxEjAQBgkqhkiG9w0BCQEWA3RhNDCBnzAN
BgkqhkiG9w0BAQEFAAOBjQAwgYkCgYEAz8Alp/rfpOQCM4RNoD9OCcSuCljTRRXT
XpRWWrXaPidoZj2xgxS8E5TzqDic6JpGTgZ4DSmVaaAsEhk7a6Y9RutWiveFLdmc
8DBrCgONrtjPnt/JpdfTsasTdOgeor4xPxd4IkyDiyTvT13Ebib4sNkrrZ6wxPzC
ABCZ6TkXaAUCAwEAAaOBzTCByjAdBgNVHQ4EFgQUPl9k6WPLnBDQkfRFYfLx6kJp
7KUwgZoGA1UdIwSBkjCBj4AUPl9k6WPLnBDQkfRFYfLx6kJp7KWhbKRqMGgxCzAJ
BgNVBAYTAlVTMRMwEQYDVQQIEwpDYWxpZm9ybmlhMRMwEQYDVQQHEwpNZW5sbyBQ
YXJrMQ0wCwYDVQQKEwRwa2c1MQwwCgYDVQQDEwN0YTQxEjAQBgkqhkiG9w0BCQEW
A3RhNIIJALoG/eyJGLV/MAwGA1UdEwQFMAMBAf8wDQYJKoZIhvcNAQELBQADgYEA
wgHFQDwkqorzvjH4ghLfuOe0krGVedT32yqBovZfOh2x4qG98VB1zNb3qybW66jG
+EQlU5TObqRuT0DCEwC3y7GCmekfaFTQaboCXwe+wvjjLEBzYcLDrUyR8LoKYd+V
1vzTGeOYjlhzA28Enrb3jDweYEMnlm315zFDuyLaB5w=
-----END CERTIFICATE-----
