Certificate:
    Data:
        Version: 3 (0x2)
        Serial Number: 11021960742086429990 (0x98f5dee5e85ccd26)
    Signature Algorithm: sha256WithRSAEncryption
        Issuer: C=US, ST=California, L=Santa Clara, O=pkg5, CN=ta4/emailAddress=ta4
        Validity
            Not Before: Jan 22 01:57:59 2016 GMT
            Not After : Oct 18 01:57:59 2018 GMT
        Subject: C=US, ST=California, L=Santa Clara, O=pkg5, CN=ta4/emailAddress=ta4
        Subject Public Key Info:
            Public Key Algorithm: rsaEncryption
                Public-Key: (2048 bit)
                Modulus:
                    00:da:8b:12:62:96:2f:24:85:8a:2c:98:21:48:d9:
                    1d:5e:d7:20:ad:a0:45:52:fc:06:a3:c4:d8:5a:a0:
                    90:b0:19:d3:5f:5b:17:3f:34:d1:21:52:62:f3:70:
                    df:c3:13:07:c0:18:5a:14:28:38:9d:9d:e8:06:c5:
                    a1:67:ca:dd:0e:29:da:7e:d0:e7:7b:a6:a0:8b:fd:
                    b8:be:d2:0d:12:c3:b6:01:7b:ec:02:50:06:31:4e:
                    92:65:bc:8c:5f:6b:21:27:f0:2a:fc:52:d2:f5:6f:
                    07:47:53:7e:04:71:91:20:27:82:54:e4:51:ba:31:
                    32:80:b7:65:27:b8:d6:23:b2:d2:46:db:61:8f:40:
                    13:5f:86:26:0a:2d:4b:bd:97:6a:72:19:bc:c0:56:
                    42:f2:33:b3:09:e1:e7:96:93:b8:b1:51:0b:1b:d0:
                    e5:00:08:05:a4:2c:40:4f:0b:88:55:91:05:79:ba:
                    49:62:9d:cc:f2:0b:18:f2:0d:7d:75:bc:5a:ad:d8:
                    ba:96:95:d6:0a:ec:66:3e:0a:3c:ec:dd:d8:6f:d8:
                    5b:6e:f3:90:43:8a:a3:cd:9e:b7:2b:1b:b1:a7:9e:
                    53:7e:b6:62:01:d0:1c:ea:6d:28:e6:f3:46:37:3e:
                    7a:df:95:4c:af:23:70:2c:7c:34:5e:69:42:65:36:
                    b3:7d
                Exponent: 65537 (0x10001)
        X509v3 extensions:
            X509v3 Subject Key Identifier: 
                B1:21:EA:DF:EB:EB:ED:BB:BE:BE:0F:FA:69:1D:B6:28:E9:6F:8F:45
            X509v3 Authority Key Identifier: 
                keyid:B1:21:EA:DF:EB:EB:ED:BB:BE:BE:0F:FA:69:1D:B6:28:E9:6F:8F:45

            X509v3 Basic Constraints: 
                CA:TRUE
    Signature Algorithm: sha256WithRSAEncryption
         2a:a0:7d:50:88:43:b2:74:29:35:2e:d7:64:66:4b:19:ac:b2:
         0a:12:91:1a:ee:5a:77:59:69:68:d3:82:02:e7:e3:cb:2f:79:
         99:22:5b:65:6b:9e:8f:75:b9:4b:b2:f0:77:ef:da:28:6c:74:
         31:1a:48:c3:ed:ea:c8:50:f3:0b:33:5a:82:47:43:ae:5b:69:
         30:02:c9:92:a4:b8:1b:de:98:96:32:2f:7b:31:f2:0b:f7:06:
         2c:8f:d6:69:95:1e:40:9f:f3:e8:20:31:d9:18:42:43:92:0b:
         70:d3:bf:3d:bc:9b:5e:3f:c7:fd:75:4c:66:8f:db:cc:c0:4b:
         06:92:90:8c:e0:eb:29:b0:f1:56:c6:6a:47:39:c3:15:3a:f5:
         20:5d:ac:05:5a:24:4e:fe:5b:1d:f2:13:bc:0e:5f:b7:01:21:
         99:ca:a0:1e:e9:e7:39:e6:86:bf:bd:9d:f5:ab:4f:9d:38:7d:
         29:99:ec:08:41:5e:8f:03:7b:02:4c:24:6c:e2:6b:1c:0c:81:
         79:80:bd:42:00:60:b3:d5:b3:d0:52:20:5e:88:23:10:62:80:
         1f:2f:fc:2f:55:76:65:25:01:8c:ed:1e:d6:f7:5c:92:53:a4:
         f2:1f:8a:d1:dd:03:5a:58:9b:bb:d2:f2:78:11:3f:21:64:5f:
         a7:f2:b4:30
-----BEGIN CERTIFICATE-----
MIIDpTCCAo2gAwIBAgIJAJj13uXoXM0mMA0GCSqGSIb3DQEBCwUAMGkxCzAJBgNV
BAYTAlVTMRMwEQYDVQQIDApDYWxpZm9ybmlhMRQwEgYDVQQHDAtTYW50YSBDbGFy
YTENMAsGA1UECgwEcGtnNTEMMAoGA1UEAwwDdGE0MRIwEAYJKoZIhvcNAQkBFgN0
YTQwHhcNMTYwMTIyMDE1NzU5WhcNMTgxMDE4MDE1NzU5WjBpMQswCQYDVQQGEwJV
UzETMBEGA1UECAwKQ2FsaWZvcm5pYTEUMBIGA1UEBwwLU2FudGEgQ2xhcmExDTAL
BgNVBAoMBHBrZzUxDDAKBgNVBAMMA3RhNDESMBAGCSqGSIb3DQEJARYDdGE0MIIB
IjANBgkqhkiG9w0BAQEFAAOCAQ8AMIIBCgKCAQEA2osSYpYvJIWKLJghSNkdXtcg
raBFUvwGo8TYWqCQsBnTX1sXPzTRIVJi83DfwxMHwBhaFCg4nZ3oBsWhZ8rdDina
ftDne6agi/24vtINEsO2AXvsAlAGMU6SZbyMX2shJ/Aq/FLS9W8HR1N+BHGRICeC
VORRujEygLdlJ7jWI7LSRtthj0ATX4YmCi1LvZdqchm8wFZC8jOzCeHnlpO4sVEL
G9DlAAgFpCxATwuIVZEFebpJYp3M8gsY8g19dbxardi6lpXWCuxmPgo87N3Yb9hb
bvOQQ4qjzZ63Kxuxp55TfrZiAdAc6m0o5vNGNz5635VMryNwLHw0XmlCZTazfQID
AQABo1AwTjAdBgNVHQ4EFgQUsSHq3+vr7bu+vg/6aR22KOlvj0UwHwYDVR0jBBgw
FoAUsSHq3+vr7bu+vg/6aR22KOlvj0UwDAYDVR0TBAUwAwEB/zANBgkqhkiG9w0B
AQsFAAOCAQEAKqB9UIhDsnQpNS7XZGZLGayyChKRGu5ad1lpaNOCAufjyy95mSJb
ZWuej3W5S7Lwd+/aKGx0MRpIw+3qyFDzCzNagkdDrltpMALJkqS4G96YljIvezHy
C/cGLI/WaZUeQJ/z6CAx2RhCQ5ILcNO/PbybXj/H/XVMZo/bzMBLBpKQjODrKbDx
VsZqRznDFTr1IF2sBVokTv5bHfITvA5ftwEhmcqgHunnOeaGv72d9atPnTh9KZns
CEFejwN7AkwkbOJrHAyBeYC9QgBgs9Wz0FIgXogjEGKAHy/8L1V2ZSUBjO0e1vdc
klOk8h+K0d0DWlibu9LyeBE/IWRfp/K0MA==
-----END CERTIFICATE-----
