Certificate:
    Data:
        Version: 3 (0x2)
        Serial Number: 16787041411903739357 (0xe8f78d38fa4b55dd)
    Signature Algorithm: sha256WithRSAEncryption
        Issuer: C=US, ST=California, L=Santa Clara, O=pkg5, CN=ta4/emailAddress=ta4
        Validity
            Not Before: Dec 13 00:13:37 2013 GMT
            Not After : Sep  8 00:13:37 2016 GMT
        Subject: C=US, ST=California, L=Santa Clara, O=pkg5, CN=ta4/emailAddress=ta4
        Subject Public Key Info:
            Public Key Algorithm: rsaEncryption
                Public-Key: (1024 bit)
                Modulus:
                    00:a1:63:5b:f9:78:2a:19:df:d1:4e:d5:75:24:c6:
                    8b:2f:e9:69:99:ab:82:24:b4:0f:66:ec:4c:c1:7a:
                    bd:a4:5c:10:f1:61:c7:fe:2f:53:c1:10:8e:7c:83:
                    4b:c5:50:ca:20:9e:aa:25:41:39:19:0e:7a:99:1a:
                    8a:25:9b:df:67:b6:67:68:ad:f2:22:15:e8:e6:dd:
                    3a:77:4a:b9:6f:e1:0a:70:92:0e:dd:a8:e7:62:e7:
                    a3:3a:fe:ca:75:b4:2d:2c:60:cd:ae:87:fc:ba:27:
                    c1:0d:85:b1:cc:7f:d9:f3:0f:7d:cb:3e:15:70:54:
                    e1:2e:8a:88:9d:e7:05:57:47
                Exponent: 65537 (0x10001)
        X509v3 extensions:
            X509v3 Subject Key Identifier: 
                84:46:29:88:74:31:EF:A6:CC:3C:E3:58:29:DE:BE:FD:1B:F4:59:98
            X509v3 Authority Key Identifier: 
                keyid:84:46:29:88:74:31:EF:A6:CC:3C:E3:58:29:DE:BE:FD:1B:F4:59:98

            X509v3 Basic Constraints: 
                CA:TRUE
    Signature Algorithm: sha256WithRSAEncryption
         07:ae:c1:fc:3b:d3:b3:b5:02:32:28:cb:49:f5:dc:fe:2d:9f:
         21:09:78:85:f7:97:e6:cc:03:b4:08:de:04:a1:64:75:fe:94:
         a8:48:0f:b9:20:11:b8:ba:2e:f1:c4:7f:03:10:0b:1c:f1:ed:
         1e:c8:04:b6:28:34:99:61:57:4d:f0:fc:6b:81:f7:a3:8b:74:
         5a:5f:f7:1d:68:29:ef:5e:cd:b5:ee:2a:72:17:be:db:a4:26:
         7d:ab:4b:09:85:66:bf:ff:94:56:b5:e1:67:f4:0f:dd:88:50:
         10:d6:98:96:51:ac:2c:24:8c:83:21:5a:8a:12:0f:e2:58:8f:
         ef:07
-----BEGIN CERTIFICATE-----
MIICoDCCAgmgAwIBAgIJAOj3jTj6S1XdMA0GCSqGSIb3DQEBCwUAMGkxCzAJBgNV
BAYTAlVTMRMwEQYDVQQIDApDYWxpZm9ybmlhMRQwEgYDVQQHDAtTYW50YSBDbGFy
YTENMAsGA1UECgwEcGtnNTEMMAoGA1UEAwwDdGE0MRIwEAYJKoZIhvcNAQkBFgN0
YTQwHhcNMTMxMjEzMDAxMzM3WhcNMTYwOTA4MDAxMzM3WjBpMQswCQYDVQQGEwJV
UzETMBEGA1UECAwKQ2FsaWZvcm5pYTEUMBIGA1UEBwwLU2FudGEgQ2xhcmExDTAL
BgNVBAoMBHBrZzUxDDAKBgNVBAMMA3RhNDESMBAGCSqGSIb3DQEJARYDdGE0MIGf
MA0GCSqGSIb3DQEBAQUAA4GNADCBiQKBgQChY1v5eCoZ39FO1XUkxosv6WmZq4Ik
tA9m7EzBer2kXBDxYcf+L1PBEI58g0vFUMognqolQTkZDnqZGoolm99ntmdorfIi
Fejm3Tp3Srlv4Qpwkg7dqOdi56M6/sp1tC0sYM2uh/y6J8ENhbHMf9nzD33LPhVw
VOEuioid5wVXRwIDAQABo1AwTjAdBgNVHQ4EFgQUhEYpiHQx76bMPONYKd6+/Rv0
WZgwHwYDVR0jBBgwFoAUhEYpiHQx76bMPONYKd6+/Rv0WZgwDAYDVR0TBAUwAwEB
/zANBgkqhkiG9w0BAQsFAAOBgQAHrsH8O9OztQIyKMtJ9dz+LZ8hCXiF95fmzAO0
CN4EoWR1/pSoSA+5IBG4ui7xxH8DEAsc8e0eyAS2KDSZYVdN8Pxrgfeji3RaX/cd
aCnvXs217ipyF77bpCZ9q0sJhWa//5RWteFn9A/diFAQ1piWUawsJIyDIVqKEg/i
WI/vBw==
-----END CERTIFICATE-----
