Certificate:
    Data:
        Version: 3 (0x2)
        Serial Number:
            e8:31:94:1b:90:49:00:d2
    Signature Algorithm: sha256WithRSAEncryption
        Issuer: C=US, ST=California, L=Santa Clara, O=pkg5, CN=ta4/emailAddress=ta4
        Validity
            Not Before: Sep 22 05:33:29 2021 GMT
            Not After : Jun 18 05:33:29 2024 GMT
        Subject: C=US, ST=California, L=Santa Clara, O=pkg5, CN=ta4/emailAddress=ta4
        Subject Public Key Info:
            Public Key Algorithm: rsaEncryption
                Public-Key: (2048 bit)
                Modulus:
                    00:f3:63:bf:db:bc:47:5a:40:65:82:7f:be:48:6b:
                    07:14:17:24:94:4c:57:a8:94:ea:10:25:53:ba:bf:
                    ce:41:45:88:99:77:d9:27:42:b6:17:50:09:a8:06:
                    a0:c3:7e:79:e3:fe:3c:24:4e:fe:21:52:a8:3c:75:
                    b5:15:98:d4:12:ea:a7:90:8a:5a:26:d3:1d:db:e3:
                    7a:d6:e5:f3:75:44:72:92:df:70:bc:c7:ee:54:bf:
                    a4:1b:ab:78:bd:b4:c6:4a:e2:50:f1:73:c6:30:d6:
                    ae:ab:22:7d:61:11:b2:99:16:14:3b:b5:25:cd:c9:
                    0b:81:85:7d:1b:df:c7:c3:d7:6a:34:ed:ee:9d:7f:
                    44:7b:12:1e:b6:d0:dc:0f:65:ef:54:61:a9:51:71:
                    9b:50:39:78:d6:7d:c1:25:d4:1f:35:d9:47:e0:14:
                    21:0d:e8:0e:04:f0:18:03:ec:5b:5c:92:5d:c4:dd:
                    26:d1:a5:e3:c3:2d:a3:9d:df:a7:6f:6d:8e:5d:c8:
                    7b:3b:39:af:6b:33:62:2f:77:28:4e:a3:85:cd:d5:
                    55:31:e1:a3:a5:03:91:d7:91:99:08:26:34:ee:12:
                    25:1f:99:32:fe:be:8d:68:86:2a:b0:9c:e0:72:f8:
                    0f:aa:fe:b8:73:38:7c:6f:4a:99:e7:d9:31:c2:23:
                    8f:0d
                Exponent: 65537 (0x10001)
        X509v3 extensions:
            X509v3 Subject Key Identifier: 
                CF:EA:49:E1:FB:55:EE:96:09:D9:06:92:5B:F6:F7:92:8D:0C:28:DA
            X509v3 Authority Key Identifier: 
                keyid:CF:EA:49:E1:FB:55:EE:96:09:D9:06:92:5B:F6:F7:92:8D:0C:28:DA

            X509v3 Basic Constraints: 
                CA:TRUE
    Signature Algorithm: sha256WithRSAEncryption
         c7:30:63:27:0b:9e:95:dd:6e:25:26:0e:c5:e1:15:07:f0:54:
         55:80:ce:0f:2b:20:08:b0:3e:ca:62:89:9c:fe:5a:86:a1:55:
         df:b2:d2:76:3a:ab:8b:10:b6:ef:4d:52:6d:e4:f2:2c:bb:53:
         73:bf:eb:34:c2:35:fd:69:40:80:2f:7d:a7:b1:fe:33:d1:3b:
         da:a2:84:25:92:80:f7:c4:f2:28:3e:ba:d1:8c:34:38:af:d2:
         90:59:a4:ae:c2:3f:64:12:0d:70:c9:e2:f7:74:47:af:dd:08:
         f7:9c:8b:8a:b9:17:5a:5f:ac:20:0b:88:c9:f6:67:d8:85:63:
         6a:da:0d:9c:d3:69:69:93:ff:69:39:20:7b:f9:0f:6e:b4:b1:
         4f:05:3a:63:d6:16:a3:ce:5a:b1:db:e1:65:5a:20:38:66:62:
         84:6b:47:07:e0:30:9e:48:23:f4:de:27:87:50:99:ab:44:0c:
         24:3c:d4:c5:e7:15:0c:c3:50:b3:71:1a:38:d7:f7:24:64:77:
         e8:28:0b:30:7d:a4:10:17:c3:53:85:03:a2:60:3b:91:6d:d9:
         7b:84:43:f6:cd:ce:cc:78:c7:93:cf:2b:55:f9:12:01:41:46:
         f3:dc:7f:dd:be:c4:a1:8d:36:ba:82:78:de:84:d9:a8:df:e8:
         35:2f:70:6c
-----BEGIN CERTIFICATE-----
MIIDpTCCAo2gAwIBAgIJAOgxlBuQSQDSMA0GCSqGSIb3DQEBCwUAMGkxCzAJBgNV
BAYTAlVTMRMwEQYDVQQIDApDYWxpZm9ybmlhMRQwEgYDVQQHDAtTYW50YSBDbGFy
YTENMAsGA1UECgwEcGtnNTEMMAoGA1UEAwwDdGE0MRIwEAYJKoZIhvcNAQkBFgN0
YTQwHhcNMjEwOTIyMDUzMzI5WhcNMjQwNjE4MDUzMzI5WjBpMQswCQYDVQQGEwJV
UzETMBEGA1UECAwKQ2FsaWZvcm5pYTEUMBIGA1UEBwwLU2FudGEgQ2xhcmExDTAL
BgNVBAoMBHBrZzUxDDAKBgNVBAMMA3RhNDESMBAGCSqGSIb3DQEJARYDdGE0MIIB
IjANBgkqhkiG9w0BAQEFAAOCAQ8AMIIBCgKCAQEA82O/27xHWkBlgn++SGsHFBck
lExXqJTqECVTur/OQUWImXfZJ0K2F1AJqAagw3554/48JE7+IVKoPHW1FZjUEuqn
kIpaJtMd2+N61uXzdURykt9wvMfuVL+kG6t4vbTGSuJQ8XPGMNauqyJ9YRGymRYU
O7UlzckLgYV9G9/Hw9dqNO3unX9EexIettDcD2XvVGGpUXGbUDl41n3BJdQfNdlH
4BQhDegOBPAYA+xbXJJdxN0m0aXjwy2jnd+nb22OXch7OzmvazNiL3coTqOFzdVV
MeGjpQOR15GZCCY07hIlH5ky/r6NaIYqsJzgcvgPqv64czh8b0qZ59kxwiOPDQID
AQABo1AwTjAdBgNVHQ4EFgQUz+pJ4ftV7pYJ2QaSW/b3ko0MKNowHwYDVR0jBBgw
FoAUz+pJ4ftV7pYJ2QaSW/b3ko0MKNowDAYDVR0TBAUwAwEB/zANBgkqhkiG9w0B
AQsFAAOCAQEAxzBjJwueld1uJSYOxeEVB/BUVYDODysgCLA+ymKJnP5ahqFV37LS
djqrixC2701SbeTyLLtTc7/rNMI1/WlAgC99p7H+M9E72qKEJZKA98TyKD660Yw0
OK/SkFmkrsI/ZBINcMni93RHr90I95yLirkXWl+sIAuIyfZn2IVjatoNnNNpaZP/
aTkge/kPbrSxTwU6Y9YWo85asdvhZVogOGZihGtHB+Awnkgj9N4nh1CZq0QMJDzU
xecVDMNQs3EaONf3JGR36CgLMH2kEBfDU4UDomA7kW3Ze4RD9s3OzHjHk88rVfkS
AUFG89x/3b7EoY02uoJ43oTZqN/oNS9wbA==
-----END CERTIFICATE-----
