Certificate:
    Data:
        Version: 3 (0x2)
        Serial Number:
            d1:b0:ba:4f:8b:62:ad:04
    Signature Algorithm: sha256WithRSAEncryption
        Issuer: C=US, ST=California, L=Santa Clara, O=pkg5, OU=ta6, CN=localhost/emailAddress=ta6
        Validity
            Not Before: Jul 19 11:35:51 2023 GMT
            Not After : Apr 14 11:35:51 2026 GMT
        Subject: C=US, ST=California, L=Santa Clara, O=pkg5, OU=ta6, CN=localhost/emailAddress=ta6
        Subject Public Key Info:
            Public Key Algorithm: rsaEncryption
                Public-Key: (2048 bit)
                Modulus:
                    00:ea:35:70:4a:e2:b2:bc:1d:bb:ee:02:74:8c:2a:
                    e6:18:bf:56:c9:b5:48:19:20:81:4c:79:72:2f:e5:
                    35:53:a2:60:b5:a9:a0:5c:cf:44:a2:f6:92:64:c2:
                    e1:c4:94:d6:fb:a7:43:63:5b:0e:c2:cc:f3:01:61:
                    20:14:ca:ea:9f:a1:26:0e:48:de:94:2d:06:27:f9:
                    50:15:bc:8d:db:c3:be:9e:15:e0:16:0a:14:ab:78:
                    e8:d2:a2:11:45:05:5b:ec:35:74:f6:29:f3:64:88:
                    64:6a:fd:1c:71:45:84:6e:6f:ab:24:87:99:4d:ec:
                    6d:f0:76:cc:7b:37:60:76:eb:02:dc:94:ef:4b:e3:
                    3b:cf:ee:14:0d:4a:1e:6d:b0:1c:3b:ab:0f:5a:1d:
                    ac:5c:b5:7c:e9:04:14:e8:fd:c2:07:9b:eb:d7:dd:
                    f5:4c:1f:bc:78:cb:a8:f5:62:e8:e0:a3:60:1f:c4:
                    78:74:f8:cc:75:46:0a:33:7d:9f:68:ec:f5:9c:c3:
                    c9:2d:f7:2e:46:d9:c6:14:22:84:89:ea:8b:33:a9:
                    6a:41:39:5f:c4:9c:4f:c2:fe:33:f5:a1:65:f1:d0:
                    68:d7:24:d5:9f:39:e6:93:05:e6:01:c4:fd:5e:82:
                    f9:b4:d6:93:5a:a6:bf:5a:3a:c8:e3:6b:f4:4d:ad:
                    e0:19
                Exponent: 65537 (0x10001)
        X509v3 extensions:
            X509v3 Subject Key Identifier: 
                B1:66:86:C1:32:0D:3B:5E:22:51:97:AE:5D:0E:47:81:85:B1:6D:D1
            X509v3 Authority Key Identifier: 
                keyid:B1:66:86:C1:32:0D:3B:5E:22:51:97:AE:5D:0E:47:81:85:B1:6D:D1

            X509v3 Basic Constraints: 
                CA:TRUE
    Signature Algorithm: sha256WithRSAEncryption
         df:84:44:30:10:80:c4:53:0d:1c:5c:d3:8d:b5:a4:40:01:38:
         3b:cc:dd:ad:28:08:74:79:49:69:bd:2f:f5:e4:9d:37:6e:e7:
         af:94:c5:d8:92:5d:af:d7:ac:78:19:84:ce:ef:20:a6:dd:ad:
         56:58:f0:74:86:a9:7d:43:99:1d:19:6c:94:bf:34:0d:65:f2:
         1d:c4:d0:fc:b7:ef:b4:45:88:d4:99:5f:85:78:11:10:06:df:
         9d:3e:03:28:bb:55:b0:85:80:32:75:66:a8:b8:c0:90:6e:52:
         b7:e7:b4:15:c3:52:cc:c8:14:e1:a1:ff:3f:2a:39:e6:10:b1:
         f6:92:52:70:14:4a:12:76:70:56:7b:31:31:36:07:cd:6f:2a:
         cf:f7:3f:44:e4:76:7a:4b:c6:e6:12:9d:44:8b:f1:57:f5:4f:
         d8:55:e5:cf:60:59:dd:e9:0f:3f:5d:3b:41:71:e7:56:46:51:
         f1:c8:91:46:53:3f:37:36:91:7c:24:c4:98:9d:b7:97:7b:26:
         0a:66:70:21:ee:3e:9d:24:d1:96:b2:73:c1:e7:d0:8f:8c:6b:
         e6:52:d4:55:fc:8f:08:f5:87:2f:fe:c1:10:71:ec:8a:5e:e9:
         ec:48:46:e7:5b:b9:7c:31:07:34:eb:d3:48:ef:50:35:c0:48:
         ab:8a:2f:73
-----BEGIN CERTIFICATE-----
MIIDzTCCArWgAwIBAgIJANGwuk+LYq0EMA0GCSqGSIb3DQEBCwUAMH0xCzAJBgNV
BAYTAlVTMRMwEQYDVQQIDApDYWxpZm9ybmlhMRQwEgYDVQQHDAtTYW50YSBDbGFy
YTENMAsGA1UECgwEcGtnNTEMMAoGA1UECwwDdGE2MRIwEAYDVQQDDAlsb2NhbGhv
c3QxEjAQBgkqhkiG9w0BCQEWA3RhNjAeFw0yMzA3MTkxMTM1NTFaFw0yNjA0MTQx
MTM1NTFaMH0xCzAJBgNVBAYTAlVTMRMwEQYDVQQIDApDYWxpZm9ybmlhMRQwEgYD
VQQHDAtTYW50YSBDbGFyYTENMAsGA1UECgwEcGtnNTEMMAoGA1UECwwDdGE2MRIw
EAYDVQQDDAlsb2NhbGhvc3QxEjAQBgkqhkiG9w0BCQEWA3RhNjCCASIwDQYJKoZI
hvcNAQEBBQADggEPADCCAQoCggEBAOo1cErisrwdu+4CdIwq5hi/Vsm1SBkggUx5
ci/lNVOiYLWpoFzPRKL2kmTC4cSU1vunQ2NbDsLM8wFhIBTK6p+hJg5I3pQtBif5
UBW8jdvDvp4V4BYKFKt46NKiEUUFW+w1dPYp82SIZGr9HHFFhG5vqySHmU3sbfB2
zHs3YHbrAtyU70vjO8/uFA1KHm2wHDurD1odrFy1fOkEFOj9wgeb69fd9UwfvHjL
qPVi6OCjYB/EeHT4zHVGCjN9n2js9ZzDyS33LkbZxhQihInqizOpakE5X8ScT8L+
M/WhZfHQaNck1Z855pMF5gHE/V6C+bTWk1qmv1o6yONr9E2t4BkCAwEAAaNQME4w
HQYDVR0OBBYEFLFmhsEyDTteIlGXrl0OR4GFsW3RMB8GA1UdIwQYMBaAFLFmhsEy
DTteIlGXrl0OR4GFsW3RMAwGA1UdEwQFMAMBAf8wDQYJKoZIhvcNAQELBQADggEB
AN+ERDAQgMRTDRxc0421pEABODvM3a0oCHR5SWm9L/XknTdu56+UxdiSXa/XrHgZ
hM7vIKbdrVZY8HSGqX1DmR0ZbJS/NA1l8h3E0Py377RFiNSZX4V4ERAG350+Ayi7
VbCFgDJ1Zqi4wJBuUrfntBXDUszIFOGh/z8qOeYQsfaSUnAUShJ2cFZ7MTE2B81v
Ks/3P0TkdnpLxuYSnUSL8Vf1T9hV5c9gWd3pDz9dO0Fx51ZGUfHIkUZTPzc2kXwk
xJidt5d7JgpmcCHuPp0k0Zayc8Hn0I+Ma+ZS1FX8jwj1hy/+wRBx7Ipe6exIRudb
uXwxBzTr00jvUDXASKuKL3M=
-----END CERTIFICATE-----
