Certificate:
    Data:
        Version: 3 (0x2)
        Serial Number: 14039479151502690113 (0xc2d63fe768d20741)
    Signature Algorithm: sha256WithRSAEncryption
        Issuer: C=US, ST=California, L=Santa Clara, O=pkg5, OU=ta6, CN=localhost/emailAddress=ta6
        Validity
            Not Before: Dec 13 00:13:38 2013 GMT
            Not After : Sep  8 00:13:38 2016 GMT
        Subject: C=US, ST=California, L=Santa Clara, O=pkg5, OU=ta6, CN=localhost/emailAddress=ta6
        Subject Public Key Info:
            Public Key Algorithm: rsaEncryption
                Public-Key: (1024 bit)
                Modulus:
                    00:c5:43:65:b9:e0:b5:bf:68:f6:d0:67:91:49:1f:
                    53:c8:eb:36:57:b9:76:c9:d7:2d:26:4c:f2:08:38:
                    e6:5d:56:b6:20:af:72:ea:ac:98:de:14:cd:35:ed:
                    f9:b3:fb:e3:c4:1f:06:db:04:77:2a:cd:3e:3e:98:
                    9f:52:f1:9e:27:db:91:ec:f4:de:3e:53:d5:fc:ba:
                    5c:37:98:8b:b7:45:4c:bb:a9:d0:cc:b5:f8:45:a4:
                    0c:58:a0:92:60:05:26:01:96:08:c1:8d:5f:18:e8:
                    84:f1:d0:a2:f1:e3:32:67:20:52:a6:6f:7a:47:39:
                    f1:f0:c0:47:6f:3b:9e:7c:81
                Exponent: 65537 (0x10001)
        X509v3 extensions:
            X509v3 Subject Key Identifier: 
                75:D7:5E:D6:65:E8:AA:54:31:F5:3A:5C:DA:C8:EE:5C:02:46:28:26
            X509v3 Authority Key Identifier: 
                keyid:75:D7:5E:D6:65:E8:AA:54:31:F5:3A:5C:DA:C8:EE:5C:02:46:28:26

            X509v3 Basic Constraints: 
                CA:TRUE
    Signature Algorithm: sha256WithRSAEncryption
         c0:55:58:54:3d:b7:dd:d8:c4:3f:35:a4:d9:25:b3:45:08:f3:
         5b:98:16:46:40:36:01:c9:60:d4:a6:2b:9e:29:6d:89:26:d7:
         4e:69:35:ba:15:b2:d1:1a:5e:97:ad:b3:16:33:c5:5b:4f:4f:
         0e:8d:8e:b3:28:50:00:ad:88:2a:2c:60:d3:66:7c:66:95:f9:
         83:0a:ae:14:8b:d8:42:35:8d:50:7f:b2:23:1f:9b:28:ca:de:
         61:b8:6d:c5:38:4a:e1:60:da:75:42:f3:18:4c:14:ae:b0:5d:
         a9:ab:ae:10:89:09:cc:61:1e:ce:28:95:f0:44:98:33:04:9c:
         db:8f
-----BEGIN CERTIFICATE-----
MIICyDCCAjGgAwIBAgIJAMLWP+do0gdBMA0GCSqGSIb3DQEBCwUAMH0xCzAJBgNV
BAYTAlVTMRMwEQYDVQQIDApDYWxpZm9ybmlhMRQwEgYDVQQHDAtTYW50YSBDbGFy
YTENMAsGA1UECgwEcGtnNTEMMAoGA1UECwwDdGE2MRIwEAYDVQQDDAlsb2NhbGhv
c3QxEjAQBgkqhkiG9w0BCQEWA3RhNjAeFw0xMzEyMTMwMDEzMzhaFw0xNjA5MDgw
MDEzMzhaMH0xCzAJBgNVBAYTAlVTMRMwEQYDVQQIDApDYWxpZm9ybmlhMRQwEgYD
VQQHDAtTYW50YSBDbGFyYTENMAsGA1UECgwEcGtnNTEMMAoGA1UECwwDdGE2MRIw
EAYDVQQDDAlsb2NhbGhvc3QxEjAQBgkqhkiG9w0BCQEWA3RhNjCBnzANBgkqhkiG
9w0BAQEFAAOBjQAwgYkCgYEAxUNlueC1v2j20GeRSR9TyOs2V7l2ydctJkzyCDjm
XVa2IK9y6qyY3hTNNe35s/vjxB8G2wR3Ks0+PpifUvGeJ9uR7PTePlPV/LpcN5iL
t0VMu6nQzLX4RaQMWKCSYAUmAZYIwY1fGOiE8dCi8eMyZyBSpm96Rznx8MBHbzue
fIECAwEAAaNQME4wHQYDVR0OBBYEFHXXXtZl6KpUMfU6XNrI7lwCRigmMB8GA1Ud
IwQYMBaAFHXXXtZl6KpUMfU6XNrI7lwCRigmMAwGA1UdEwQFMAMBAf8wDQYJKoZI
hvcNAQELBQADgYEAwFVYVD233djEPzWk2SWzRQjzW5gWRkA2Aclg1KYrniltiSbX
Tmk1uhWy0Rpel62zFjPFW09PDo2OsyhQAK2IKixg02Z8ZpX5gwquFIvYQjWNUH+y
Ix+bKMreYbhtxThK4WDadULzGEwUrrBdqauuEIkJzGEeziiV8ESYMwSc248=
-----END CERTIFICATE-----
