Certificate:
    Data:
        Version: 3 (0x2)
        Serial Number:
            1a:ee:3c:49:09:2f:30:61:b7:da:30:a8:08:e4:4e:2c:f3:2c:8c:bb
        Signature Algorithm: sha256WithRSAEncryption
        Issuer: C = US, ST = California, L = Santa Clara, O = pkg5, OU = ta6, CN = localhost, emailAddress = ta6
        Validity
            Not Before: Mar 18 08:51:45 2026 GMT
            Not After : Dec 12 08:51:45 2028 GMT
        Subject: C = US, ST = California, L = Santa Clara, O = pkg5, OU = ta6, CN = localhost, emailAddress = ta6
        Subject Public Key Info:
            Public Key Algorithm: rsaEncryption
                Public-Key: (2048 bit)
                Modulus:
                    00:94:62:4f:63:ab:2c:3a:81:87:f0:25:33:41:43:
                    d1:e6:a7:6e:67:8c:01:13:eb:2d:03:73:ba:46:20:
                    62:7c:76:d2:8a:14:ab:9f:d4:26:ee:bf:04:d1:b5:
                    a2:f8:9f:1f:9e:08:85:5e:c8:aa:03:ab:96:88:29:
                    93:a1:22:7d:8a:3a:3f:fe:55:45:7a:bd:07:ca:82:
                    d4:e3:32:fe:f4:43:a9:05:bd:f0:df:b7:e7:b4:44:
                    82:7d:6b:ca:1e:43:ee:66:ad:bb:df:01:d0:01:93:
                    08:ab:b5:33:8c:fb:4f:9a:4a:6c:24:9d:82:f6:f2:
                    37:68:38:16:19:15:f5:fd:fa:90:1a:e2:16:1b:74:
                    c5:f6:1d:14:d2:1f:97:ef:be:00:35:65:07:ba:c8:
                    37:8f:29:54:a3:17:9c:40:4e:ce:8f:4c:e1:df:d7:
                    ec:1a:c9:b6:a2:f5:7e:8e:6a:83:84:28:b9:51:cf:
                    e6:3b:49:36:dc:7a:89:70:06:25:6e:f7:b4:51:de:
                    08:5f:b9:f6:67:3a:06:0d:b6:6d:4a:cd:d1:17:d6:
                    de:a7:8a:85:5b:48:eb:c1:05:98:4c:38:e3:aa:88:
                    a0:46:02:b8:0f:83:3b:92:89:7f:18:ce:a1:ce:f5:
                    8d:fd:98:12:ff:eb:4e:ce:d6:54:dd:d5:ae:25:9c:
                    27:c9
                Exponent: 65537 (0x10001)
        X509v3 extensions:
            X509v3 Subject Key Identifier: 
                9D:9A:19:B7:0F:4E:D7:3A:24:87:E6:86:B8:BF:D8:D5:E8:57:09:56
            X509v3 Authority Key Identifier: 
                9D:9A:19:B7:0F:4E:D7:3A:24:87:E6:86:B8:BF:D8:D5:E8:57:09:56
            X509v3 Basic Constraints: critical
                CA:TRUE
    Signature Algorithm: sha256WithRSAEncryption
    Signature Value:
        77:a4:b9:80:09:87:4c:a3:9b:ce:a9:e2:bb:55:c6:79:73:05:
        c4:21:76:bb:32:bc:4e:a6:7d:e5:6b:2b:ec:77:a8:62:b5:3d:
        ec:63:c4:cd:54:99:56:85:fd:f4:8c:23:ac:5d:aa:54:4c:db:
        89:99:79:12:d7:dd:da:13:0e:de:59:6f:34:60:44:48:aa:de:
        3f:a5:60:d7:40:be:c1:5f:79:38:d9:64:1c:14:5a:bd:b4:5f:
        07:5f:6d:7b:b4:4d:56:e0:af:dc:4a:73:9c:45:d6:dc:35:15:
        e5:32:ee:c4:60:b8:c2:4a:72:76:22:cd:3c:7f:4a:ca:9d:27:
        6c:b2:59:6d:10:cd:4b:e5:88:38:29:19:ab:43:8c:2e:8c:e2:
        33:40:59:ef:0a:5c:79:33:23:fd:cc:24:78:99:80:76:6a:86:
        d6:29:48:08:81:4e:9a:1c:0f:9a:f9:21:cb:86:91:42:46:db:
        33:5f:29:4f:af:4b:b4:42:f0:8b:b2:b3:7f:d0:8b:3f:41:c4:
        b7:f4:01:1d:9f:6c:fa:3b:59:f0:eb:d9:62:ba:79:9a:ce:f4:
        eb:7f:bb:ee:1d:c1:02:8d:54:23:75:20:dc:b5:c7:c0:f8:c9:
        96:25:b4:f1:8d:37:f8:53:87:7b:43:d4:ca:e4:1c:77:30:08:
        71:92:19:0b
-----BEGIN CERTIFICATE-----
MIID2zCCAsOgAwIBAgIUGu48SQkvMGG32jCoCOROLPMsjLswDQYJKoZIhvcNAQEL
BQAwfTELMAkGA1UEBhMCVVMxEzARBgNVBAgMCkNhbGlmb3JuaWExFDASBgNVBAcM
C1NhbnRhIENsYXJhMQ0wCwYDVQQKDARwa2c1MQwwCgYDVQQLDAN0YTYxEjAQBgNV
BAMMCWxvY2FsaG9zdDESMBAGCSqGSIb3DQEJARYDdGE2MB4XDTI2MDMxODA4NTE0
NVoXDTI4MTIxMjA4NTE0NVowfTELMAkGA1UEBhMCVVMxEzARBgNVBAgMCkNhbGlm
b3JuaWExFDASBgNVBAcMC1NhbnRhIENsYXJhMQ0wCwYDVQQKDARwa2c1MQwwCgYD
VQQLDAN0YTYxEjAQBgNVBAMMCWxvY2FsaG9zdDESMBAGCSqGSIb3DQEJARYDdGE2
MIIBIjANBgkqhkiG9w0BAQEFAAOCAQ8AMIIBCgKCAQEAlGJPY6ssOoGH8CUzQUPR
5qduZ4wBE+stA3O6RiBifHbSihSrn9Qm7r8E0bWi+J8fngiFXsiqA6uWiCmToSJ9
ijo//lVFer0HyoLU4zL+9EOpBb3w37fntESCfWvKHkPuZq273wHQAZMIq7UzjPtP
mkpsJJ2C9vI3aDgWGRX1/fqQGuIWG3TF9h0U0h+X774ANWUHusg3jylUoxecQE7O
j0zh39fsGsm2ovV+jmqDhCi5Uc/mO0k23HqJcAYlbve0Ud4IX7n2ZzoGDbZtSs3R
F9bep4qFW0jrwQWYTDjjqoigRgK4D4M7kol/GM6hzvWN/ZgS/+tOztZU3dWuJZwn
yQIDAQABo1MwUTAdBgNVHQ4EFgQUnZoZtw9O1zokh+aGuL/Y1ehXCVYwHwYDVR0j
BBgwFoAUnZoZtw9O1zokh+aGuL/Y1ehXCVYwDwYDVR0TAQH/BAUwAwEB/zANBgkq
hkiG9w0BAQsFAAOCAQEAd6S5gAmHTKObzqniu1XGeXMFxCF2uzK8TqZ95Wsr7Heo
YrU97GPEzVSZVoX99IwjrF2qVEzbiZl5Etfd2hMO3llvNGBESKreP6Vg10C+wV95
ONlkHBRavbRfB19te7RNVuCv3EpznEXW3DUV5TLuxGC4wkpydiLNPH9Kyp0nbLJZ
bRDNS+WIOCkZq0OMLoziM0BZ7wpceTMj/cwkeJmAdmqG1ilICIFOmhwPmvkhy4aR
QkbbM18pT69LtELwi7Kzf9CLP0HEt/QBHZ9s+jtZ8OvZYrp5ms7063+77h3BAo1U
I3Ug3LXHwPjJliW08Y03+FOHe0PUyuQcdzAIcZIZCw==
-----END CERTIFICATE-----
