Certificate:
    Data:
        Version: 3 (0x2)
        Serial Number:
            ae:28:d0:e7:7c:c8:ff:c1
    Signature Algorithm: sha256WithRSAEncryption
        Issuer: C=US, ST=California, L=Santa Clara, O=pkg5, OU=ta6, CN=localhost/emailAddress=ta6
        Validity
            Not Before: Jan 22 15:33:15 2019 GMT
            Not After : Oct 18 15:33:15 2021 GMT
        Subject: C=US, ST=California, L=Santa Clara, O=pkg5, OU=ta6, CN=localhost/emailAddress=ta6
        Subject Public Key Info:
            Public Key Algorithm: rsaEncryption
                Public-Key: (2048 bit)
                Modulus:
                    00:b8:e9:d7:a5:9d:42:bc:a2:f8:e1:cd:12:a1:36:
                    17:3d:9d:1b:fa:88:fb:45:1a:50:32:a8:7b:36:3f:
                    f8:59:46:57:22:72:ad:57:7f:84:e8:71:30:a9:ba:
                    b8:fb:ea:42:e0:76:c4:2b:dc:61:34:04:41:1d:1e:
                    7b:ee:1b:bc:bc:52:93:06:45:ef:fc:7e:7f:e4:26:
                    2d:2a:1c:43:81:19:2b:0b:f2:20:af:c6:4d:49:c0:
                    ab:74:2e:9d:0c:2b:60:fa:ca:a6:0c:3f:95:4c:9e:
                    5f:58:fb:8a:a0:72:eb:2e:67:af:20:1b:48:36:1d:
                    ad:d5:d0:8c:3d:f4:b5:41:c1:9a:28:32:72:78:2e:
                    fd:c1:9c:89:fe:cb:1b:b3:5b:29:7f:6c:ba:bb:58:
                    ae:90:83:78:9e:10:6d:f9:78:a0:e9:1b:d3:d8:4b:
                    8c:26:a9:03:b8:82:c2:2a:d9:9b:a6:29:c5:06:1b:
                    11:f3:35:6f:44:52:61:fc:78:a1:1f:36:38:81:fc:
                    4a:6f:0a:f4:0f:42:08:5c:a6:d5:18:c6:a8:bb:df:
                    e4:19:2a:09:f4:8a:fb:b9:20:3c:ad:ef:8f:dd:aa:
                    ee:e5:1b:d7:47:2e:95:aa:d8:b9:c1:8e:07:f0:aa:
                    f4:2f:51:53:5e:63:58:ed:b1:63:31:de:18:52:bf:
                    84:15
                Exponent: 65537 (0x10001)
        X509v3 extensions:
            X509v3 Subject Key Identifier: 
                F3:E7:B0:A5:B3:F6:A0:E2:6A:D2:B5:1D:01:54:29:52:FC:2D:9F:C3
            X509v3 Authority Key Identifier: 
                keyid:F3:E7:B0:A5:B3:F6:A0:E2:6A:D2:B5:1D:01:54:29:52:FC:2D:9F:C3

            X509v3 Basic Constraints: 
                CA:TRUE
    Signature Algorithm: sha256WithRSAEncryption
         6c:33:05:0a:b0:88:77:26:e4:da:a5:36:5e:e9:86:40:fb:cc:
         25:ea:e3:de:f0:72:0d:e6:2f:74:45:11:70:6b:27:87:70:a9:
         0a:95:69:f5:8c:09:4b:43:04:f3:4c:c7:57:dc:d5:0d:8e:26:
         c7:02:63:7b:c5:c5:f3:aa:7b:f3:8b:1c:08:14:a8:50:75:60:
         37:30:68:38:4d:1b:e0:db:da:3a:60:a2:4b:4e:99:3a:24:c5:
         4e:47:92:e9:04:d0:60:4e:e9:57:99:93:8a:af:fd:4f:6c:76:
         94:78:a7:5f:3b:45:c4:4c:90:88:b7:5d:16:9d:67:6b:76:06:
         8c:0c:07:17:f5:b2:99:2c:1e:f0:b4:2d:6b:91:d3:e3:43:ab:
         96:92:a8:ae:b6:f6:2d:27:26:5e:1e:3a:b9:5e:a8:5e:26:bb:
         0a:f7:5d:54:9e:28:60:5b:70:1b:e1:6a:ed:7f:61:b0:58:aa:
         8f:2e:c1:86:57:37:e3:12:6f:ca:1a:b6:97:cd:e8:f8:0a:33:
         d6:fa:f1:3c:3b:1c:a1:eb:bb:56:76:b0:c2:52:59:73:24:41:
         65:f4:5e:46:0c:e3:31:f0:eb:64:cd:70:ed:db:3f:e2:ed:33:
         19:95:a2:ab:f4:ba:8a:c7:a2:7b:4c:5b:c0:41:a9:84:35:e6:
         91:e7:6c:1b
-----BEGIN CERTIFICATE-----
MIIDzTCCArWgAwIBAgIJAK4o0Od8yP/BMA0GCSqGSIb3DQEBCwUAMH0xCzAJBgNV
BAYTAlVTMRMwEQYDVQQIDApDYWxpZm9ybmlhMRQwEgYDVQQHDAtTYW50YSBDbGFy
YTENMAsGA1UECgwEcGtnNTEMMAoGA1UECwwDdGE2MRIwEAYDVQQDDAlsb2NhbGhv
c3QxEjAQBgkqhkiG9w0BCQEWA3RhNjAeFw0xOTAxMjIxNTMzMTVaFw0yMTEwMTgx
NTMzMTVaMH0xCzAJBgNVBAYTAlVTMRMwEQYDVQQIDApDYWxpZm9ybmlhMRQwEgYD
VQQHDAtTYW50YSBDbGFyYTENMAsGA1UECgwEcGtnNTEMMAoGA1UECwwDdGE2MRIw
EAYDVQQDDAlsb2NhbGhvc3QxEjAQBgkqhkiG9w0BCQEWA3RhNjCCASIwDQYJKoZI
hvcNAQEBBQADggEPADCCAQoCggEBALjp16WdQryi+OHNEqE2Fz2dG/qI+0UaUDKo
ezY/+FlGVyJyrVd/hOhxMKm6uPvqQuB2xCvcYTQEQR0ee+4bvLxSkwZF7/x+f+Qm
LSocQ4EZKwvyIK/GTUnAq3QunQwrYPrKpgw/lUyeX1j7iqBy6y5nryAbSDYdrdXQ
jD30tUHBmigycngu/cGcif7LG7NbKX9surtYrpCDeJ4Qbfl4oOkb09hLjCapA7iC
wirZm6YpxQYbEfM1b0RSYfx4oR82OIH8Sm8K9A9CCFym1RjGqLvf5BkqCfSK+7kg
PK3vj92q7uUb10cularYucGOB/Cq9C9RU15jWO2xYzHeGFK/hBUCAwEAAaNQME4w
HQYDVR0OBBYEFPPnsKWz9qDiatK1HQFUKVL8LZ/DMB8GA1UdIwQYMBaAFPPnsKWz
9qDiatK1HQFUKVL8LZ/DMAwGA1UdEwQFMAMBAf8wDQYJKoZIhvcNAQELBQADggEB
AGwzBQqwiHcm5NqlNl7phkD7zCXq497wcg3mL3RFEXBrJ4dwqQqVafWMCUtDBPNM
x1fc1Q2OJscCY3vFxfOqe/OLHAgUqFB1YDcwaDhNG+Db2jpgoktOmTokxU5HkukE
0GBO6VeZk4qv/U9sdpR4p187RcRMkIi3XRadZ2t2BowMBxf1spksHvC0LWuR0+ND
q5aSqK629i0nJl4eOrleqF4muwr3XVSeKGBbcBvhau1/YbBYqo8uwYZXN+MSb8oa
tpfN6PgKM9b68Tw7HKHru1Z2sMJSWXMkQWX0XkYM4zHw62TNcO3bP+LtMxmVoqv0
uorHontMW8BBqYQ15pHnbBs=
-----END CERTIFICATE-----
