Certificate:
    Data:
        Version: 3 (0x2)
        Serial Number:
            fd:4b:a3:76:c8:a2:73:27
    Signature Algorithm: sha256WithRSAEncryption
        Issuer: C=US, ST=California, L=Santa Clara, O=pkg5, CN=ta2/emailAddress=ta2
        Validity
            Not Before: Jan 22 15:33:09 2019 GMT
            Not After : Oct 18 15:33:09 2021 GMT
        Subject: C=US, ST=California, L=Santa Clara, O=pkg5, CN=ta2/emailAddress=ta2
        Subject Public Key Info:
            Public Key Algorithm: rsaEncryption
                Public-Key: (2048 bit)
                Modulus:
                    00:e4:8f:6a:c3:b2:b6:7f:c2:5e:a7:d6:2b:63:06:
                    2d:af:83:d8:75:aa:46:e0:55:fc:0c:c3:2f:24:6c:
                    9e:07:fe:06:ef:a7:c4:c0:64:5c:87:b8:e4:fc:b0:
                    8d:99:15:5a:b3:ee:7e:c1:6f:89:fd:0d:b3:7b:f1:
                    cd:a9:c4:d1:35:5b:37:32:b4:5a:59:85:6d:f5:7f:
                    4e:72:d7:a7:3a:53:11:48:b4:89:10:f2:25:4e:17:
                    23:35:ec:b5:06:86:c8:86:1b:73:c1:80:b6:5b:6b:
                    50:57:d9:63:c9:91:7c:a9:89:b0:77:d2:40:ce:43:
                    20:ef:d9:c8:6e:8f:e7:a8:05:df:bd:fa:f0:79:11:
                    69:b7:c0:2d:22:7f:17:d9:a6:0e:96:17:7f:1a:5e:
                    10:37:27:dc:a4:6b:90:15:c3:7e:f4:81:bd:69:06:
                    9f:b4:5a:db:b2:c4:21:89:aa:4b:f1:17:f7:62:53:
                    f1:af:28:be:52:8d:33:90:d6:4f:61:2f:58:0c:0f:
                    bc:7c:02:ca:32:4f:6f:eb:05:77:e4:f2:e0:3c:b0:
                    e6:1a:b8:1d:97:fd:f6:4d:ed:45:46:48:cb:57:58:
                    e0:91:a5:8f:10:80:ad:36:d1:fb:1a:a1:a1:73:ee:
                    ba:92:73:7f:7a:5a:02:44:80:c2:15:57:cf:70:1b:
                    5a:db
                Exponent: 65537 (0x10001)
        X509v3 extensions:
            X509v3 Subject Key Identifier: 
                87:DB:AB:B3:6C:12:D9:EC:17:FD:53:B5:4A:24:93:3A:C7:03:0B:B2
            X509v3 Authority Key Identifier: 
                keyid:87:DB:AB:B3:6C:12:D9:EC:17:FD:53:B5:4A:24:93:3A:C7:03:0B:B2

            X509v3 Basic Constraints: 
                CA:TRUE
    Signature Algorithm: sha256WithRSAEncryption
         06:8e:b7:a9:49:e6:6e:e3:b9:d8:da:4f:b8:5f:66:e5:7c:32:
         2b:2e:e1:d8:41:49:64:ac:e1:61:34:ec:76:1d:dc:1b:ec:d2:
         42:fa:9f:aa:40:b6:4d:83:3a:01:fe:c3:82:82:a7:8d:2f:fa:
         13:93:1b:2c:5f:4f:8a:8f:e5:a5:3c:ae:ce:00:c9:c6:bf:49:
         b2:90:59:f8:f7:75:52:aa:8d:d0:15:f0:18:a8:5e:7c:36:d5:
         b2:f4:39:48:6d:2e:4f:cc:21:bf:2a:e3:91:81:4e:16:e5:39:
         1a:d4:ec:23:4c:b0:c4:e1:3b:0c:ee:9d:3c:83:cf:58:8a:09:
         d9:5b:ec:bf:05:db:3e:31:9e:fb:a8:0d:34:63:a4:8e:a2:2c:
         cd:07:c1:49:1d:09:9c:de:5a:fa:64:69:69:b8:cd:70:f5:6c:
         b5:68:2f:d8:35:8d:22:0c:fd:96:b9:85:7e:86:7b:05:9b:e3:
         d9:3c:5f:9b:b0:a2:81:5f:04:18:51:32:bd:db:fb:35:35:92:
         cc:98:c5:82:98:25:7b:4a:5f:73:66:20:17:96:e8:9c:d2:04:
         d8:2e:d2:84:18:a8:02:1c:02:76:ba:4e:95:61:4b:18:02:a1:
         79:97:f4:78:73:a4:50:26:be:8d:ef:df:0b:6e:5f:28:cc:6b:
         f0:41:f0:03
-----BEGIN CERTIFICATE-----
MIIDpTCCAo2gAwIBAgIJAP1Lo3bIonMnMA0GCSqGSIb3DQEBCwUAMGkxCzAJBgNV
BAYTAlVTMRMwEQYDVQQIDApDYWxpZm9ybmlhMRQwEgYDVQQHDAtTYW50YSBDbGFy
YTENMAsGA1UECgwEcGtnNTEMMAoGA1UEAwwDdGEyMRIwEAYJKoZIhvcNAQkBFgN0
YTIwHhcNMTkwMTIyMTUzMzA5WhcNMjExMDE4MTUzMzA5WjBpMQswCQYDVQQGEwJV
UzETMBEGA1UECAwKQ2FsaWZvcm5pYTEUMBIGA1UEBwwLU2FudGEgQ2xhcmExDTAL
BgNVBAoMBHBrZzUxDDAKBgNVBAMMA3RhMjESMBAGCSqGSIb3DQEJARYDdGEyMIIB
IjANBgkqhkiG9w0BAQEFAAOCAQ8AMIIBCgKCAQEA5I9qw7K2f8Jep9YrYwYtr4PY
dapG4FX8DMMvJGyeB/4G76fEwGRch7jk/LCNmRVas+5+wW+J/Q2ze/HNqcTRNVs3
MrRaWYVt9X9OctenOlMRSLSJEPIlThcjNey1BobIhhtzwYC2W2tQV9ljyZF8qYmw
d9JAzkMg79nIbo/nqAXfvfrweRFpt8AtIn8X2aYOlhd/Gl4QNyfcpGuQFcN+9IG9
aQaftFrbssQhiapL8Rf3YlPxryi+Uo0zkNZPYS9YDA+8fALKMk9v6wV35PLgPLDm
Grgdl/32Te1FRkjLV1jgkaWPEICtNtH7GqGhc+66knN/eloCRIDCFVfPcBta2wID
AQABo1AwTjAdBgNVHQ4EFgQUh9urs2wS2ewX/VO1SiSTOscDC7IwHwYDVR0jBBgw
FoAUh9urs2wS2ewX/VO1SiSTOscDC7IwDAYDVR0TBAUwAwEB/zANBgkqhkiG9w0B
AQsFAAOCAQEABo63qUnmbuO52NpPuF9m5XwyKy7h2EFJZKzhYTTsdh3cG+zSQvqf
qkC2TYM6Af7DgoKnjS/6E5MbLF9Pio/lpTyuzgDJxr9JspBZ+Pd1UqqN0BXwGKhe
fDbVsvQ5SG0uT8whvyrjkYFOFuU5GtTsI0ywxOE7DO6dPIPPWIoJ2VvsvwXbPjGe
+6gNNGOkjqIszQfBSR0JnN5a+mRpabjNcPVstWgv2DWNIgz9lrmFfoZ7BZvj2Txf
m7CigV8EGFEyvdv7NTWSzJjFgpgle0pfc2YgF5bonNIE2C7ShBioAhwCdrpOlWFL
GAKheZf0eHOkUCa+je/fC25fKMxr8EHwAw==
-----END CERTIFICATE-----
