Certificate:
    Data:
        Version: 3 (0x2)
        Serial Number:
            50:e7:bb:84:9a:07:05:8c:ac:d4:41:48:7e:e1:52:29:f8:40:41:8e
        Signature Algorithm: sha256WithRSAEncryption
        Issuer: C = US, ST = California, L = Santa Clara, O = pkg5, CN = ta2, emailAddress = ta2
        Validity
            Not Before: Mar 18 08:51:32 2026 GMT
            Not After : Dec 12 08:51:32 2028 GMT
        Subject: C = US, ST = California, L = Santa Clara, O = pkg5, CN = ta2, emailAddress = ta2
        Subject Public Key Info:
            Public Key Algorithm: rsaEncryption
                Public-Key: (2048 bit)
                Modulus:
                    00:8e:12:ea:5c:bf:4f:7a:3e:28:eb:e2:c6:23:9b:
                    7c:8a:6e:02:83:9c:46:bd:6a:17:e3:1a:a0:8d:3a:
                    b3:2d:08:0c:1c:82:ee:67:43:06:81:b3:9a:ef:f1:
                    a2:23:3b:14:b2:cf:39:fd:75:bc:ee:2a:b0:67:00:
                    92:6a:21:87:30:cc:0e:0c:97:30:b6:8a:ae:ce:38:
                    38:13:c4:0b:be:b4:05:19:d3:8b:b3:37:45:fb:9d:
                    58:d3:30:74:7b:6a:d3:da:16:4b:f0:bb:e6:c7:50:
                    90:67:11:e4:ca:ab:7c:0f:79:52:2e:c0:0b:ed:c4:
                    10:a5:32:06:f1:cf:30:19:6b:91:4e:0c:e6:f6:31:
                    c4:2e:51:4c:b6:f7:49:0a:1a:97:a9:df:2f:b9:5d:
                    a2:8a:62:f7:f7:e5:2d:ca:e1:3b:47:ec:35:9b:b8:
                    72:b4:5b:a3:eb:68:39:1d:91:65:a2:b8:a2:e6:3f:
                    33:53:1b:49:9c:54:4e:2a:1f:83:34:40:cc:98:88:
                    8e:d3:e6:a6:ca:74:21:5e:80:a0:27:46:18:13:7c:
                    4e:21:f8:a1:a0:4f:91:16:64:8e:a1:c0:52:b4:9c:
                    43:dd:9a:8c:ee:3a:c9:f7:3a:af:e9:4a:8e:d8:60:
                    7e:62:e9:81:eb:ab:f4:9a:f8:b3:0f:cb:50:95:81:
                    a8:61
                Exponent: 65537 (0x10001)
        X509v3 extensions:
            X509v3 Subject Key Identifier: 
                E8:50:B1:B4:A4:EF:31:C0:08:0C:C2:7A:FE:79:E5:60:D9:3E:49:14
            X509v3 Authority Key Identifier: 
                E8:50:B1:B4:A4:EF:31:C0:08:0C:C2:7A:FE:79:E5:60:D9:3E:49:14
            X509v3 Basic Constraints: critical
                CA:TRUE
    Signature Algorithm: sha256WithRSAEncryption
    Signature Value:
        20:05:84:43:37:3b:3c:be:52:29:4f:5f:2c:88:72:c3:12:a8:
        ef:f0:57:8d:8a:69:78:b1:38:9a:cb:1b:a5:54:f3:21:99:77:
        cb:60:83:49:0e:b5:72:fb:a5:67:40:1a:31:37:36:f4:c2:11:
        c1:35:46:96:36:bb:9d:ae:41:fc:ff:d6:6d:4d:55:bb:e6:97:
        12:1f:36:28:7b:fd:77:ae:a6:02:48:2a:d9:d3:cd:ec:ed:04:
        0a:76:57:ea:da:01:e0:75:4c:b5:98:4f:6c:ba:03:eb:83:d4:
        8e:34:f2:2c:93:04:e4:a7:ad:72:98:4a:07:d9:1c:1a:39:92:
        05:10:83:82:73:24:8e:46:f0:e7:71:2c:8e:87:6a:81:92:4a:
        db:12:d6:98:3e:f6:a7:6a:1a:43:4b:ea:d7:16:c1:c9:7c:1d:
        50:9f:6b:7c:74:65:7b:b9:ac:bc:e1:8f:e7:3d:9d:3a:4d:a6:
        42:a2:4b:22:d5:ea:de:d7:f8:fb:93:c5:9a:1f:3e:61:78:fd:
        72:e4:cb:11:1c:71:59:65:b2:15:78:96:e8:81:36:8c:13:06:
        c4:67:76:6b:08:a7:85:1d:4f:ee:7e:30:ae:cb:21:f3:79:e5:
        7c:03:7b:1c:12:6d:a0:4d:ec:84:58:10:a1:17:e9:fb:cf:56:
        ca:9a:f5:9a
-----BEGIN CERTIFICATE-----
MIIDszCCApugAwIBAgIUUOe7hJoHBYys1EFIfuFSKfhAQY4wDQYJKoZIhvcNAQEL
BQAwaTELMAkGA1UEBhMCVVMxEzARBgNVBAgMCkNhbGlmb3JuaWExFDASBgNVBAcM
C1NhbnRhIENsYXJhMQ0wCwYDVQQKDARwa2c1MQwwCgYDVQQDDAN0YTIxEjAQBgkq
hkiG9w0BCQEWA3RhMjAeFw0yNjAzMTgwODUxMzJaFw0yODEyMTIwODUxMzJaMGkx
CzAJBgNVBAYTAlVTMRMwEQYDVQQIDApDYWxpZm9ybmlhMRQwEgYDVQQHDAtTYW50
YSBDbGFyYTENMAsGA1UECgwEcGtnNTEMMAoGA1UEAwwDdGEyMRIwEAYJKoZIhvcN
AQkBFgN0YTIwggEiMA0GCSqGSIb3DQEBAQUAA4IBDwAwggEKAoIBAQCOEupcv096
Pijr4sYjm3yKbgKDnEa9ahfjGqCNOrMtCAwcgu5nQwaBs5rv8aIjOxSyzzn9dbzu
KrBnAJJqIYcwzA4MlzC2iq7OODgTxAu+tAUZ04uzN0X7nVjTMHR7atPaFkvwu+bH
UJBnEeTKq3wPeVIuwAvtxBClMgbxzzAZa5FODOb2McQuUUy290kKGpep3y+5XaKK
Yvf35S3K4TtH7DWbuHK0W6PraDkdkWWiuKLmPzNTG0mcVE4qH4M0QMyYiI7T5qbK
dCFegKAnRhgTfE4h+KGgT5EWZI6hwFK0nEPdmozuOsn3Oq/pSo7YYH5i6YHrq/Sa
+LMPy1CVgahhAgMBAAGjUzBRMB0GA1UdDgQWBBToULG0pO8xwAgMwnr+eeVg2T5J
FDAfBgNVHSMEGDAWgBToULG0pO8xwAgMwnr+eeVg2T5JFDAPBgNVHRMBAf8EBTAD
AQH/MA0GCSqGSIb3DQEBCwUAA4IBAQAgBYRDNzs8vlIpT18siHLDEqjv8FeNiml4
sTiayxulVPMhmXfLYINJDrVy+6VnQBoxNzb0whHBNUaWNrudrkH8/9ZtTVW75pcS
HzYoe/13rqYCSCrZ083s7QQKdlfq2gHgdUy1mE9sugPrg9SONPIskwTkp61ymEoH
2RwaOZIFEIOCcySORvDncSyOh2qBkkrbEtaYPvanahpDS+rXFsHJfB1Qn2t8dGV7
uay84Y/nPZ06TaZCoksi1ere1/j7k8WaHz5heP1y5MsRHHFZZbIVeJbogTaMEwbE
Z3ZrCKeFHU/ufjCuyyHzeeV8A3scEm2gTeyEWBChF+n7z1bKmvWa
-----END CERTIFICATE-----
