Certificate:
    Data:
        Version: 3 (0x2)
        Serial Number:
            a8:5c:e8:7d:2f:86:1f:3c
        Signature Algorithm: sha256WithRSAEncryption
        Issuer: C=US, ST=California, L=Menlo Park, O=pkg5, CN=ta2/emailAddress=ta2
        Validity
            Not Before: Mar 21 00:49:26 2011 GMT
            Not After : Dec 15 00:49:26 2013 GMT
        Subject: C=US, ST=California, L=Menlo Park, O=pkg5, CN=ta2/emailAddress=ta2
        Subject Public Key Info:
            Public Key Algorithm: rsaEncryption
            RSA Public Key: (1024 bit)
                Modulus (1024 bit):
                    00:a4:44:fb:94:e4:92:ab:2c:c0:22:a1:ed:7d:4c:
                    de:52:91:a6:70:e4:89:75:55:a4:01:ef:66:63:b4:
                    fe:69:ac:b7:83:e6:43:5f:90:44:f6:cc:66:21:69:
                    be:d3:06:3d:82:2d:dc:6d:f1:d2:6d:e3:b0:32:d6:
                    32:e7:b3:d6:39:76:13:1a:14:f5:1c:a0:cc:8d:b0:
                    7a:b5:63:b3:10:b9:37:cc:34:ee:18:b1:35:59:86:
                    96:1c:d4:b4:1a:71:25:e7:aa:ca:56:57:d5:ea:8a:
                    b6:4a:fc:d8:d6:96:54:5c:da:c4:b3:3d:f9:25:e5:
                    e5:bd:bc:8e:47:bf:e9:c7:fd
                Exponent: 65537 (0x10001)
        X509v3 extensions:
            X509v3 Subject Key Identifier: 
                FF:24:E8:06:21:CA:81:14:44:D5:85:07:EF:FB:A2:E7:C0:72:E3:AF
            X509v3 Authority Key Identifier: 
                keyid:FF:24:E8:06:21:CA:81:14:44:D5:85:07:EF:FB:A2:E7:C0:72:E3:AF
                DirName:/C=US/ST=California/L=Menlo Park/O=pkg5/CN=ta2/emailAddress=ta2
                serial:A8:5C:E8:7D:2F:86:1F:3C

            X509v3 Basic Constraints: 
                CA:TRUE
    Signature Algorithm: sha256WithRSAEncryption
        24:2b:df:0f:66:4c:23:88:18:45:08:26:65:c1:65:6b:d8:0d:
        74:c8:2a:c6:6c:77:60:f2:41:1a:8f:23:42:5a:5b:53:5d:33:
        fe:07:41:13:a9:a2:c4:62:22:08:13:30:57:60:fe:f5:55:ca:
        09:59:0d:b1:f9:27:49:a5:7d:2b:6d:52:f8:0e:1e:4f:04:27:
        6e:c4:98:31:b5:db:c2:c5:c3:09:29:28:d3:01:c7:5d:4a:a1:
        92:27:3d:2c:ef:94:ac:19:94:ff:24:5b:18:85:7d:a8:f9:8d:
        b1:1f:46:a1:d6:30:4b:0d:d1:a3:0f:05:82:ae:4c:e2:53:b3:
        de:1b
-----BEGIN CERTIFICATE-----
MIIDHDCCAoWgAwIBAgIJAKhc6H0vhh88MA0GCSqGSIb3DQEBCwUAMGgxCzAJBgNV
BAYTAlVTMRMwEQYDVQQIEwpDYWxpZm9ybmlhMRMwEQYDVQQHEwpNZW5sbyBQYXJr
MQ0wCwYDVQQKEwRwa2c1MQwwCgYDVQQDEwN0YTIxEjAQBgkqhkiG9w0BCQEWA3Rh
MjAeFw0xMTAzMjEwMDQ5MjZaFw0xMzEyMTUwMDQ5MjZaMGgxCzAJBgNVBAYTAlVT
MRMwEQYDVQQIEwpDYWxpZm9ybmlhMRMwEQYDVQQHEwpNZW5sbyBQYXJrMQ0wCwYD
VQQKEwRwa2c1MQwwCgYDVQQDEwN0YTIxEjAQBgkqhkiG9w0BCQEWA3RhMjCBnzAN
BgkqhkiG9w0BAQEFAAOBjQAwgYkCgYEApET7lOSSqyzAIqHtfUzeUpGmcOSJdVWk
Ae9mY7T+aay3g+ZDX5BE9sxmIWm+0wY9gi3cbfHSbeOwMtYy57PWOXYTGhT1HKDM
jbB6tWOzELk3zDTuGLE1WYaWHNS0GnEl56rKVlfV6oq2SvzY1pZUXNrEsz35JeXl
vbyOR7/px/0CAwEAAaOBzTCByjAdBgNVHQ4EFgQU/yToBiHKgRRE1YUH7/ui58By
468wgZoGA1UdIwSBkjCBj4AU/yToBiHKgRRE1YUH7/ui58By46+hbKRqMGgxCzAJ
BgNVBAYTAlVTMRMwEQYDVQQIEwpDYWxpZm9ybmlhMRMwEQYDVQQHEwpNZW5sbyBQ
YXJrMQ0wCwYDVQQKEwRwa2c1MQwwCgYDVQQDEwN0YTIxEjAQBgkqhkiG9w0BCQEW
A3RhMoIJAKhc6H0vhh88MAwGA1UdEwQFMAMBAf8wDQYJKoZIhvcNAQELBQADgYEA
JCvfD2ZMI4gYRQgmZcFla9gNdMgqxmx3YPJBGo8jQlpbU10z/gdBE6mixGIiCBMw
V2D+9VXKCVkNsfknSaV9K21S+A4eTwQnbsSYMbXbwsXDCSko0wHHXUqhkic9LO+U
rBmU/yRbGIV9qPmNsR9GodYwSw3Row8Fgq5M4lOz3hs=
-----END CERTIFICATE-----
