Certificate:
    Data:
        Version: 3 (0x2)
        Serial Number: 3 (0x3)
        Signature Algorithm: sha256WithRSAEncryption
        Issuer: C=US, ST=California, L=Menlo Park, O=pkg5, CN=i2_ta1/emailAddress=i2_ta1
        Validity
            Not Before: Aug  4 20:59:23 2010 GMT
            Not After : Apr 30 20:59:23 2013 GMT
        Subject: C=US, ST=California, L=Menlo Park, O=pkg5, CN=pubCA1_ta1/emailAddress=pubCA1_ta1
        Subject Public Key Info:
            Public Key Algorithm: rsaEncryption
            RSA Public Key: (1024 bit)
                Modulus (1024 bit):
                    00:aa:b0:34:d1:f2:16:6f:f7:d5:33:8d:45:66:2c:
                    be:01:ec:68:c9:31:ca:ee:7f:93:fc:d6:17:13:e0:
                    ba:fb:29:e1:70:3b:12:15:3a:b2:42:96:8b:25:d1:
                    f3:59:64:58:fa:ad:8d:26:3b:cf:4b:88:e1:32:6f:
                    2e:e3:69:d3:4a:4d:7e:c8:f9:5c:7a:40:a9:14:ba:
                    0e:3e:a7:f1:d9:7f:a7:3f:de:2d:96:83:52:d7:1f:
                    eb:ff:e9:08:66:35:d8:38:8a:15:b7:0e:5e:a5:e2:
                    4d:e3:74:b6:1e:14:05:78:67:ed:fb:82:cc:55:c5:
                    03:df:64:8f:09:d0:3b:c5:d3
                Exponent: 65537 (0x10001)
        X509v3 extensions:
            X509v3 Subject Key Identifier: 
                E8:81:62:06:D5:A6:C6:2E:6C:2A:4F:A3:21:42:59:CD:19:5B:32:ED
            X509v3 Authority Key Identifier: 
                keyid:E3:6D:6B:62:16:42:41:2B:9C:3B:68:01:F3:EF:16:3C:31:83:05:41
                DirName:/C=US/ST=California/L=Menlo Park/O=pkg5/CN=i1_ta1/emailAddress=i1_ta1
                serial:02

            X509v3 Basic Constraints: critical
                CA:TRUE
    Signature Algorithm: sha256WithRSAEncryption
        72:ed:f0:65:97:65:56:53:3c:c8:78:ae:a1:22:70:c3:a0:1d:
        db:42:3b:75:43:c9:b1:98:7d:7c:c4:c0:41:07:b4:18:72:26:
        34:98:35:c1:20:17:1c:dc:53:59:a6:d9:42:01:f3:0d:9b:16:
        f9:15:73:3f:1f:49:71:06:f0:0c:b0:49:d2:2c:89:f7:42:7f:
        b5:37:55:fb:49:2e:2b:8e:c1:70:e3:84:96:13:ab:63:f9:70:
        11:89:86:b7:e9:db:1e:56:dc:9a:78:3b:ad:47:30:5f:98:28:
        8c:ea:f2:8f:af:40:b8:93:73:72:b0:be:e0:52:72:69:e8:ee:
        52:4d
-----BEGIN CERTIFICATE-----
MIIDKTCCApKgAwIBAgIBAzANBgkqhkiG9w0BAQsFADBuMQswCQYDVQQGEwJVUzET
MBEGA1UECBMKQ2FsaWZvcm5pYTETMBEGA1UEBxMKTWVubG8gUGFyazENMAsGA1UE
ChMEcGtnNTEPMA0GA1UEAxQGaTJfdGExMRUwEwYJKoZIhvcNAQkBFgZpMl90YTEw
HhcNMTAwODA0MjA1OTIzWhcNMTMwNDMwMjA1OTIzWjB2MQswCQYDVQQGEwJVUzET
MBEGA1UECBMKQ2FsaWZvcm5pYTETMBEGA1UEBxMKTWVubG8gUGFyazENMAsGA1UE
ChMEcGtnNTETMBEGA1UEAxQKcHViQ0ExX3RhMTEZMBcGCSqGSIb3DQEJARYKcHVi
Q0ExX3RhMTCBnzANBgkqhkiG9w0BAQEFAAOBjQAwgYkCgYEAqrA00fIWb/fVM41F
Ziy+AexoyTHK7n+T/NYXE+C6+ynhcDsSFTqyQpaLJdHzWWRY+q2NJjvPS4jhMm8u
42nTSk1+yPlcekCpFLoOPqfx2X+nP94tloNS1x/r/+kIZjXYOIoVtw5epeJN43S2
HhQFeGft+4LMVcUD32SPCdA7xdMCAwEAAaOBzjCByzAdBgNVHQ4EFgQU6IFiBtWm
xi5sKk+jIUJZzRlbMu0wgZgGA1UdIwSBkDCBjYAU421rYhZCQSucO2gB8+8WPDGD
BUGhcqRwMG4xCzAJBgNVBAYTAlVTMRMwEQYDVQQIEwpDYWxpZm9ybmlhMRMwEQYD
VQQHEwpNZW5sbyBQYXJrMQ0wCwYDVQQKEwRwa2c1MQ8wDQYDVQQDFAZpMV90YTEx
FTATBgkqhkiG9w0BCQEWBmkxX3RhMYIBAjAPBgNVHRMBAf8EBTADAQH/MA0GCSqG
SIb3DQEBCwUAA4GBAHLt8GWXZVZTPMh4rqEicMOgHdtCO3VDybGYfXzEwEEHtBhy
JjSYNcEgFxzcU1mm2UIB8w2bFvkVcz8fSXEG8AywSdIsifdCf7U3VftJLiuOwXDj
hJYTq2P5cBGJhrfp2x5W3Jp4O61HMF+YKIzq8o+vQLiTc3KwvuBScmno7lJN
-----END CERTIFICATE-----
