Certificate:
    Data:
        Version: 3 (0x2)
        Serial Number: 3 (0x3)
        Signature Algorithm: sha256WithRSAEncryption
        Issuer: C=US, ST=California, L=Menlo Park, O=pkg5, CN=i2_ta1/emailAddress=i2_ta1
        Validity
            Not Before: Jan 28 02:54:10 2011 GMT
            Not After : Oct 24 02:54:10 2013 GMT
        Subject: C=US, ST=California, L=Menlo Park, O=pkg5, CN=pubCA1_ta1/emailAddress=pubCA1_ta1
        Subject Public Key Info:
            Public Key Algorithm: rsaEncryption
            RSA Public Key: (1024 bit)
                Modulus (1024 bit):
                    00:df:99:e1:31:21:52:4c:52:21:74:ae:ca:4d:e9:
                    75:6d:3a:23:75:8e:9c:52:a3:3e:53:cf:fb:cd:cc:
                    47:74:d2:8e:5d:65:57:a1:ad:1b:cf:58:23:9e:53:
                    9d:3c:1a:46:60:98:d9:5e:3c:e5:d0:c4:cb:0c:28:
                    59:96:5e:26:c8:1d:29:e9:01:a5:5a:3b:df:9e:1a:
                    85:f4:9d:53:0e:19:81:20:d8:bc:3d:2a:89:e7:8c:
                    fe:75:61:45:a5:f7:6a:7f:ad:94:a2:95:4b:58:35:
                    2a:6f:e9:54:4b:2c:bf:07:0a:39:03:7e:c0:96:1b:
                    9e:8f:39:fa:49:3e:d0:4f:6b
                Exponent: 65537 (0x10001)
        X509v3 extensions:
            X509v3 Subject Key Identifier: 
                F1:31:DD:AE:13:EF:6C:62:A3:83:98:4D:1F:0D:25:1A:21:28:1E:5D
            X509v3 Authority Key Identifier: 
                keyid:4A:49:37:7B:87:42:F2:B2:3F:07:11:1E:FC:AD:31:B2:C9:DA:CD:25
                DirName:/C=US/ST=California/L=Menlo Park/O=pkg5/CN=i1_ta1/emailAddress=i1_ta1
                serial:02

            X509v3 Basic Constraints: critical
                CA:TRUE
            X509v3 Key Usage: critical
                Certificate Sign, CRL Sign
    Signature Algorithm: sha256WithRSAEncryption
        98:18:b3:7c:e7:02:ff:ac:b5:bd:af:2d:7e:02:5a:f2:db:fd:
        1a:c8:31:20:44:2a:b4:78:df:87:f4:f5:5d:f0:bb:ee:97:d0:
        45:db:10:2b:e3:1c:96:45:7b:d1:7c:d7:95:d8:f7:13:d1:2e:
        da:59:09:68:6c:1f:f1:b7:b6:c4:1b:3c:89:38:9e:ff:5a:74:
        53:18:56:3b:9e:ba:c2:a6:e3:f0:94:85:6a:89:bb:7c:f3:a8:
        8e:33:c5:54:d1:e1:4c:31:b6:c8:4d:e0:62:36:d6:83:a3:08:
        c4:e7:c4:5c:20:61:b4:8b:5c:05:2c:8c:28:b1:83:2f:68:e8:
        16:92
-----BEGIN CERTIFICATE-----
MIIDOTCCAqKgAwIBAgIBAzANBgkqhkiG9w0BAQsFADBuMQswCQYDVQQGEwJVUzET
MBEGA1UECBMKQ2FsaWZvcm5pYTETMBEGA1UEBxMKTWVubG8gUGFyazENMAsGA1UE
ChMEcGtnNTEPMA0GA1UEAxQGaTJfdGExMRUwEwYJKoZIhvcNAQkBFgZpMl90YTEw
HhcNMTEwMTI4MDI1NDEwWhcNMTMxMDI0MDI1NDEwWjB2MQswCQYDVQQGEwJVUzET
MBEGA1UECBMKQ2FsaWZvcm5pYTETMBEGA1UEBxMKTWVubG8gUGFyazENMAsGA1UE
ChMEcGtnNTETMBEGA1UEAxQKcHViQ0ExX3RhMTEZMBcGCSqGSIb3DQEJARYKcHVi
Q0ExX3RhMTCBnzANBgkqhkiG9w0BAQEFAAOBjQAwgYkCgYEA35nhMSFSTFIhdK7K
Tel1bTojdY6cUqM+U8/7zcxHdNKOXWVXoa0bz1gjnlOdPBpGYJjZXjzl0MTLDChZ
ll4myB0p6QGlWjvfnhqF9J1TDhmBINi8PSqJ54z+dWFFpfdqf62UopVLWDUqb+lU
Syy/Bwo5A37Alhuejzn6ST7QT2sCAwEAAaOB3jCB2zAdBgNVHQ4EFgQU8THdrhPv
bGKjg5hNHw0lGiEoHl0wgZgGA1UdIwSBkDCBjYAUSkk3e4dC8rI/BxEe/K0xssna
zSWhcqRwMG4xCzAJBgNVBAYTAlVTMRMwEQYDVQQIEwpDYWxpZm9ybmlhMRMwEQYD
VQQHEwpNZW5sbyBQYXJrMQ0wCwYDVQQKEwRwa2c1MQ8wDQYDVQQDFAZpMV90YTEx
FTATBgkqhkiG9w0BCQEWBmkxX3RhMYIBAjAPBgNVHRMBAf8EBTADAQH/MA4GA1Ud
DwEB/wQEAwIBBjANBgkqhkiG9w0BAQsFAAOBgQCYGLN85wL/rLW9ry1+Alry2/0a
yDEgRCq0eN+H9PVd8Lvul9BF2xAr4xyWRXvRfNeV2PcT0S7aWQlobB/xt7bEGzyJ
OJ7/WnRTGFY7nrrCpuPwlIVqibt886iOM8VU0eFMMbbITeBiNtaDowjE58RcIGG0
i1wFLIwosYMvaOgWkg==
-----END CERTIFICATE-----
