Certificate:
    Data:
        Version: 3 (0x2)
        Serial Number: 12 (0xc)
        Signature Algorithm: sha256WithRSAEncryption
        Issuer: C=US, ST=California, L=Menlo Park, O=pkg5, CN=ta3/emailAddress=ta3
        Validity
            Not Before: Aug  4 20:59:25 2010 GMT
            Not After : Apr 30 20:59:25 2013 GMT
        Subject: C=US, ST=California, L=Menlo Park, O=pkg5, CN=pubCA1_ta3/emailAddress=pubCA1_ta3
        Subject Public Key Info:
            Public Key Algorithm: rsaEncryption
            RSA Public Key: (1024 bit)
                Modulus (1024 bit):
                    00:bd:ef:e1:5e:a1:32:ff:ee:9b:64:1a:a3:f0:e2:
                    63:64:ab:7d:60:5e:32:60:36:f5:67:54:d0:e0:13:
                    6e:ef:88:c1:ff:0e:64:d2:f4:cc:07:fd:18:03:90:
                    fb:73:b7:91:c9:9e:97:b2:b0:0a:ae:9f:88:dc:29:
                    fd:2c:19:09:43:ef:68:7c:ab:de:91:de:51:cb:e2:
                    35:fc:96:fe:13:e9:3c:ea:97:3c:2a:ef:92:9a:31:
                    77:e4:a2:24:40:01:6e:a0:59:ef:7e:71:d9:be:5a:
                    3f:ed:7e:b6:d5:7b:38:6d:4c:16:f8:fd:ec:fb:6f:
                    8c:41:fb:fd:dc:0c:54:1c:db
                Exponent: 65537 (0x10001)
        X509v3 extensions:
            X509v3 Subject Key Identifier: 
                47:D6:CB:F2:38:3E:A8:40:85:4A:BE:EF:F8:85:B3:49:FF:D0:8F:16
            X509v3 Authority Key Identifier: 
                keyid:E0:CE:66:66:57:70:37:16:AF:EB:65:B6:15:DC:2D:2C:B7:B4:49:4D
                DirName:/C=US/ST=California/L=Menlo Park/O=pkg5/CN=ta3/emailAddress=ta3
                serial:E1:F8:52:2F:AC:F4:00:EE

            X509v3 Basic Constraints: critical
                CA:TRUE
    Signature Algorithm: sha256WithRSAEncryption
        6a:25:8d:33:01:c1:a0:fe:99:5f:f0:b4:8a:39:86:55:f5:6c:
        59:2a:84:a5:01:10:dd:1a:b6:a2:52:17:62:e1:e5:d5:8a:e9:
        09:bd:04:95:b1:a4:b3:ec:9b:73:f3:54:12:26:97:a5:1e:52:
        9e:bf:93:c7:4d:dd:a3:c4:ec:0b:46:3e:e4:b7:c3:47:17:68:
        15:df:a1:1a:67:c0:8b:f6:a8:ea:ab:81:6a:fc:a3:4c:5b:0e:
        ca:cc:b7:bf:e5:35:73:e9:95:d0:ad:8c:fc:2a:7d:2c:ee:6b:
        09:53:2f:f3:9b:57:fa:32:bb:02:f9:10:fa:30:a2:e3:55:0c:
        4a:73
-----BEGIN CERTIFICATE-----
MIIDJTCCAo6gAwIBAgIBDDANBgkqhkiG9w0BAQsFADBoMQswCQYDVQQGEwJVUzET
MBEGA1UECBMKQ2FsaWZvcm5pYTETMBEGA1UEBxMKTWVubG8gUGFyazENMAsGA1UE
ChMEcGtnNTEMMAoGA1UEAxMDdGEzMRIwEAYJKoZIhvcNAQkBFgN0YTMwHhcNMTAw
ODA0MjA1OTI1WhcNMTMwNDMwMjA1OTI1WjB2MQswCQYDVQQGEwJVUzETMBEGA1UE
CBMKQ2FsaWZvcm5pYTETMBEGA1UEBxMKTWVubG8gUGFyazENMAsGA1UEChMEcGtn
NTETMBEGA1UEAxQKcHViQ0ExX3RhMzEZMBcGCSqGSIb3DQEJARYKcHViQ0ExX3Rh
MzCBnzANBgkqhkiG9w0BAQEFAAOBjQAwgYkCgYEAve/hXqEy/+6bZBqj8OJjZKt9
YF4yYDb1Z1TQ4BNu74jB/w5k0vTMB/0YA5D7c7eRyZ6XsrAKrp+I3Cn9LBkJQ+9o
fKvekd5Ry+I1/Jb+E+k86pc8Ku+SmjF35KIkQAFuoFnvfnHZvlo/7X621Xs4bUwW
+P3s+2+MQfv93AxUHNsCAwEAAaOB0DCBzTAdBgNVHQ4EFgQUR9bL8jg+qECFSr7v
+IWzSf/QjxYwgZoGA1UdIwSBkjCBj4AU4M5mZldwNxav62W2FdwtLLe0SU2hbKRq
MGgxCzAJBgNVBAYTAlVTMRMwEQYDVQQIEwpDYWxpZm9ybmlhMRMwEQYDVQQHEwpN
ZW5sbyBQYXJrMQ0wCwYDVQQKEwRwa2c1MQwwCgYDVQQDEwN0YTMxEjAQBgkqhkiG
9w0BCQEWA3RhM4IJAOH4Ui+s9ADuMA8GA1UdEwEB/wQFMAMBAf8wDQYJKoZIhvcN
AQELBQADgYEAaiWNMwHBoP6ZX/C0ijmGVfVsWSqEpQEQ3Rq2olIXYuHl1YrpCb0E
lbGks+ybc/NUEiaXpR5Snr+Tx03do8TsC0Y+5LfDRxdoFd+hGmfAi/ao6quBavyj
TFsOysy3v+U1c+mV0K2M/Cp9LO5rCVMv85tX+jK7AvkQ+jCi41UMSnM=
-----END CERTIFICATE-----
