Certificate:
    Data:
        Version: 3 (0x2)
        Serial Number: 17 (0x11)
        Signature Algorithm: sha256WithRSAEncryption
        Issuer: C=US, ST=California, L=Menlo Park, O=pkg5, CN=ta3/emailAddress=ta3
        Validity
            Not Before: Aug  4 20:59:27 2010 GMT
            Not After : Apr 30 20:59:27 2013 GMT
        Subject: C=US, ST=California, L=Menlo Park, O=pkg5, CN=pubCA2_ta3/emailAddress=pubCA2_ta3
        Subject Public Key Info:
            Public Key Algorithm: rsaEncryption
            RSA Public Key: (1024 bit)
                Modulus (1024 bit):
                    00:91:27:b7:93:9d:5d:e5:9e:e9:5d:78:e2:1d:ff:
                    73:0e:d7:a7:4e:a3:bf:e3:ff:33:08:c9:a9:e4:6f:
                    bc:a5:b9:33:32:29:8f:da:d1:63:51:0c:3b:da:84:
                    32:bb:74:28:70:d3:07:3b:3d:ac:2f:7d:c2:9e:4a:
                    4e:7c:34:37:e6:1d:76:aa:44:a0:56:c9:83:83:13:
                    7e:67:91:99:af:5d:5a:36:5d:a6:20:23:4a:f5:a8:
                    08:12:5e:49:52:4b:ae:d3:e6:b4:63:f8:2e:1d:80:
                    5f:bd:1f:58:75:34:92:ce:be:6a:3b:f8:25:fd:64:
                    49:b6:fe:6b:03:dc:0c:9e:4f
                Exponent: 65537 (0x10001)
        X509v3 extensions:
            X509v3 Basic Constraints: critical
                CA:TRUE
            X509v3 Issuer Alternative Name: critical
                <EMPTY>

    Signature Algorithm: sha256WithRSAEncryption
        07:01:15:2c:e6:eb:e6:8a:b4:dc:6c:fa:f5:30:2d:32:e1:6f:
        27:76:6d:1e:c8:4b:e1:ae:f8:96:fb:15:0e:0e:8f:e7:fe:43:
        d3:af:f7:b3:f8:19:e0:77:38:43:d3:6b:86:6b:f1:b6:36:b5:
        34:66:49:ad:c0:58:7a:40:18:da:48:af:b4:b3:24:43:92:06:
        df:84:c2:ac:ea:c1:0d:8a:82:86:39:ce:44:1e:72:f2:46:0e:
        c4:cf:70:78:86:a9:8f:35:83:5f:74:e1:30:a3:90:29:f2:f2:
        5f:d1:d3:84:84:4d:1d:08:ea:05:24:2d:d0:ae:3d:0f:78:7c:
        c7:10
-----BEGIN CERTIFICATE-----
MIICdTCCAd6gAwIBAgIBETANBgkqhkiG9w0BAQsFADBoMQswCQYDVQQGEwJVUzET
MBEGA1UECBMKQ2FsaWZvcm5pYTETMBEGA1UEBxMKTWVubG8gUGFyazENMAsGA1UE
ChMEcGtnNTEMMAoGA1UEAxMDdGEzMRIwEAYJKoZIhvcNAQkBFgN0YTMwHhcNMTAw
ODA0MjA1OTI3WhcNMTMwNDMwMjA1OTI3WjB2MQswCQYDVQQGEwJVUzETMBEGA1UE
CBMKQ2FsaWZvcm5pYTETMBEGA1UEBxMKTWVubG8gUGFyazENMAsGA1UEChMEcGtn
NTETMBEGA1UEAxQKcHViQ0EyX3RhMzEZMBcGCSqGSIb3DQEJARYKcHViQ0EyX3Rh
MzCBnzANBgkqhkiG9w0BAQEFAAOBjQAwgYkCgYEAkSe3k51d5Z7pXXjiHf9zDten
TqO/4/8zCMmp5G+8pbkzMimP2tFjUQw72oQyu3QocNMHOz2sL33CnkpOfDQ35h12
qkSgVsmDgxN+Z5GZr11aNl2mICNK9agIEl5JUkuu0+a0Y/guHYBfvR9YdTSSzr5q
O/gl/WRJtv5rA9wMnk8CAwEAAaMhMB8wDwYDVR0TAQH/BAUwAwEB/zAMBgNVHRIB
Af8EAjAAMA0GCSqGSIb3DQEBCwUAA4GBAAcBFSzm6+aKtNxs+vUwLTLhbyd2bR7I
S+Gu+Jb7FQ4Oj+f+Q9Ov97P4GeB3OEPTa4Zr8bY2tTRmSa3AWHpAGNpIr7SzJEOS
Bt+EwqzqwQ2KgoY5zkQecvJGDsTPcHiGqY81g1904TCjkCny8l/R04SETR0I6gUk
LdCuPQ94fMcQ
-----END CERTIFICATE-----
