Certificate:
    Data:
        Version: 3 (0x2)
        Serial Number: 21 (0x15)
        Signature Algorithm: sha256WithRSAEncryption
        Issuer: C=US, ST=California, L=Menlo Park, O=pkg5, CN=ta3/emailAddress=ta3
        Validity
            Not Before: Jan  1 01:01:01 2035 GMT
            Not After : Jan  2 01:01:01 2035 GMT
        Subject: C=US, ST=California, L=Menlo Park, O=pkg5, CN=pubCA4_ta3/emailAddress=pubCA4_ta3
        Subject Public Key Info:
            Public Key Algorithm: rsaEncryption
            RSA Public Key: (1024 bit)
                Modulus (1024 bit):
                    00:b2:8a:7a:22:17:a3:be:ff:35:73:f1:13:34:e2:
                    c1:02:e3:1e:a6:d8:bc:c2:29:a6:9d:e1:96:0b:2b:
                    38:42:db:f4:9f:f8:05:c0:d9:81:ab:37:35:da:24:
                    1b:e5:95:6b:c5:da:e8:c1:14:c3:c7:3e:a4:20:ce:
                    25:75:5f:13:d4:94:4d:7c:69:42:82:ef:09:c9:b1:
                    11:dd:a0:d9:e2:76:47:fd:68:e7:ec:11:02:f7:a6:
                    92:da:50:b8:9d:e8:90:9d:f7:e2:d6:cd:35:7e:1c:
                    f6:31:71:39:fe:1a:5d:49:cc:50:c7:34:fd:cb:e1:
                    85:3a:e4:a6:15:9a:7f:6b:c5
                Exponent: 65537 (0x10001)
        X509v3 extensions:
            X509v3 Subject Key Identifier: 
                A5:56:E6:44:AE:89:5C:8E:24:C2:58:B6:C6:D1:7B:51:BC:F4:7A:83
            X509v3 Authority Key Identifier: 
                keyid:E0:CE:66:66:57:70:37:16:AF:EB:65:B6:15:DC:2D:2C:B7:B4:49:4D
                DirName:/C=US/ST=California/L=Menlo Park/O=pkg5/CN=ta3/emailAddress=ta3
                serial:E1:F8:52:2F:AC:F4:00:EE

            X509v3 Basic Constraints: critical
                CA:TRUE
    Signature Algorithm: sha256WithRSAEncryption
        65:98:33:cd:b4:af:b0:67:bf:0e:8e:0e:d6:8c:fd:a6:7c:18:
        88:a7:2a:ac:55:5d:b3:95:f3:8f:5f:d7:00:78:cc:fd:00:6a:
        0c:75:12:00:7b:88:f4:93:66:00:be:c7:ce:d7:75:72:0e:44:
        3e:fc:b2:ff:d1:23:72:9c:be:a7:a7:70:d9:af:0d:e5:84:43:
        77:6e:73:60:ff:40:f0:f6:94:17:8e:4e:57:0d:d6:35:4f:5b:
        46:d6:36:6e:3a:03:e6:13:b9:4c:c9:fd:75:c7:e6:4f:f3:75:
        bc:2a:38:dd:7c:9b:3c:5a:75:27:c9:00:5d:11:11:b6:4e:e9:
        97:b9
-----BEGIN CERTIFICATE-----
MIIDJTCCAo6gAwIBAgIBFTANBgkqhkiG9w0BAQsFADBoMQswCQYDVQQGEwJVUzET
MBEGA1UECBMKQ2FsaWZvcm5pYTETMBEGA1UEBxMKTWVubG8gUGFyazENMAsGA1UE
ChMEcGtnNTEMMAoGA1UEAxMDdGEzMRIwEAYJKoZIhvcNAQkBFgN0YTMwHhcNMzUw
MTAxMDEwMTAxWhcNMzUwMTAyMDEwMTAxWjB2MQswCQYDVQQGEwJVUzETMBEGA1UE
CBMKQ2FsaWZvcm5pYTETMBEGA1UEBxMKTWVubG8gUGFyazENMAsGA1UEChMEcGtn
NTETMBEGA1UEAxQKcHViQ0E0X3RhMzEZMBcGCSqGSIb3DQEJARYKcHViQ0E0X3Rh
MzCBnzANBgkqhkiG9w0BAQEFAAOBjQAwgYkCgYEAsop6Ihejvv81c/ETNOLBAuMe
pti8wimmneGWCys4Qtv0n/gFwNmBqzc12iQb5ZVrxdrowRTDxz6kIM4ldV8T1JRN
fGlCgu8JybER3aDZ4nZH/Wjn7BEC96aS2lC4neiQnffi1s01fhz2MXE5/hpdScxQ
xzT9y+GFOuSmFZp/a8UCAwEAAaOB0DCBzTAdBgNVHQ4EFgQUpVbmRK6JXI4kwli2
xtF7Ubz0eoMwgZoGA1UdIwSBkjCBj4AU4M5mZldwNxav62W2FdwtLLe0SU2hbKRq
MGgxCzAJBgNVBAYTAlVTMRMwEQYDVQQIEwpDYWxpZm9ybmlhMRMwEQYDVQQHEwpN
ZW5sbyBQYXJrMQ0wCwYDVQQKEwRwa2c1MQwwCgYDVQQDEwN0YTMxEjAQBgkqhkiG
9w0BCQEWA3RhM4IJAOH4Ui+s9ADuMA8GA1UdEwEB/wQFMAMBAf8wDQYJKoZIhvcN
AQELBQADgYEAZZgzzbSvsGe/Do4O1oz9pnwYiKcqrFVds5Xzj1/XAHjM/QBqDHUS
AHuI9JNmAL7Hztd1cg5EPvyy/9Ejcpy+p6dw2a8N5YRDd25zYP9A8PaUF45OVw3W
NU9bRtY2bjoD5hO5TMn9dcfmT/N1vCo43XybPFp1J8kAXRERtk7pl7k=
-----END CERTIFICATE-----
