Certificate:
    Data:
        Version: 3 (0x2)
        Serial Number: 22 (0x16)
        Signature Algorithm: sha256WithRSAEncryption
        Issuer: C=US, ST=California, L=Menlo Park, O=pkg5, CN=ta3/emailAddress=ta3
        Validity
            Not Before: Jan 28 02:54:20 2011 GMT
            Not After : Oct 24 02:54:20 2013 GMT
        Subject: C=US, ST=California, L=Menlo Park, O=pkg5, CN=pubCA2_ta3/emailAddress=pubCA2_ta3
        Subject Public Key Info:
            Public Key Algorithm: rsaEncryption
            RSA Public Key: (1024 bit)
                Modulus (1024 bit):
                    00:b8:c0:ed:3f:ee:b2:c4:82:85:82:6e:dc:d2:63:
                    72:d9:d7:73:bf:24:bc:5a:ab:9a:aa:39:dc:01:23:
                    95:40:8b:1c:c4:08:e1:3a:20:a9:f3:21:e4:ca:e9:
                    c8:be:48:52:34:35:5f:af:19:60:89:7a:4f:95:e2:
                    c2:dc:0a:f2:7a:7d:62:ce:d5:39:55:4e:10:d8:da:
                    90:48:73:69:64:ef:7d:a9:57:a2:f2:6d:e6:db:d0:
                    a3:df:2a:a1:c1:f4:c6:44:32:bc:af:d9:bb:5e:c1:
                    39:10:27:fd:1e:6e:9f:dc:65:63:1c:9c:bd:3b:b1:
                    8f:9a:da:82:6e:5b:71:a0:97
                Exponent: 65537 (0x10001)
        X509v3 extensions:
            X509v3 Basic Constraints: critical
                CA:TRUE
            X509v3 Issuer Alternative Name: critical
                <EMPTY>

    Signature Algorithm: sha256WithRSAEncryption
        bd:39:e7:46:37:ef:db:c9:d2:d5:af:3e:ac:5d:36:b3:c8:55:
        3f:3a:5c:cb:54:33:bb:46:ad:90:a5:5b:29:87:31:c1:f2:7c:
        b0:15:99:93:ce:70:3c:7d:59:8d:3e:ba:ae:f6:77:ae:ee:21:
        0e:6b:12:de:7c:f7:12:1e:94:81:77:01:ee:3b:15:86:28:f0:
        13:64:2f:24:fa:15:71:02:53:93:9c:aa:a6:55:f9:75:eb:27:
        f8:09:09:af:7f:77:bf:5c:38:b1:ce:e6:46:60:36:16:83:59:
        0d:f0:b5:b5:97:82:a7:43:d4:b5:6f:85:cd:77:4f:59:73:49:
        9c:cb
-----BEGIN CERTIFICATE-----
MIICdTCCAd6gAwIBAgIBFjANBgkqhkiG9w0BAQsFADBoMQswCQYDVQQGEwJVUzET
MBEGA1UECBMKQ2FsaWZvcm5pYTETMBEGA1UEBxMKTWVubG8gUGFyazENMAsGA1UE
ChMEcGtnNTEMMAoGA1UEAxMDdGEzMRIwEAYJKoZIhvcNAQkBFgN0YTMwHhcNMTEw
MTI4MDI1NDIwWhcNMTMxMDI0MDI1NDIwWjB2MQswCQYDVQQGEwJVUzETMBEGA1UE
CBMKQ2FsaWZvcm5pYTETMBEGA1UEBxMKTWVubG8gUGFyazENMAsGA1UEChMEcGtn
NTETMBEGA1UEAxQKcHViQ0EyX3RhMzEZMBcGCSqGSIb3DQEJARYKcHViQ0EyX3Rh
MzCBnzANBgkqhkiG9w0BAQEFAAOBjQAwgYkCgYEAuMDtP+6yxIKFgm7c0mNy2ddz
vyS8WquaqjncASOVQIscxAjhOiCp8yHkyunIvkhSNDVfrxlgiXpPleLC3Aryen1i
ztU5VU4Q2NqQSHNpZO99qVei8m3m29Cj3yqhwfTGRDK8r9m7XsE5ECf9Hm6f3GVj
HJy9O7GPmtqCbltxoJcCAwEAAaMhMB8wDwYDVR0TAQH/BAUwAwEB/zAMBgNVHRIB
Af8EAjAAMA0GCSqGSIb3DQEBCwUAA4GBAL0550Y379vJ0tWvPqxdNrPIVT86XMtU
M7tGrZClWymHMcHyfLAVmZPOcDx9WY0+uq72d67uIQ5rEt589xIelIF3Ae47FYYo
8BNkLyT6FXECU5OcqqZV+XXrJ/gJCa9/d79cOLHO5kZgNhaDWQ3wtbWXgqdD1LVv
hc13T1lzSZzL
-----END CERTIFICATE-----
