Certificate:
    Data:
        Version: 3 (0x2)
        Serial Number: 24 (0x18)
        Signature Algorithm: sha256WithRSAEncryption
        Issuer: C=US, ST=California, L=Menlo Park, O=pkg5, CN=ta3/emailAddress=ta3
        Validity
            Not Before: Jan  1 01:01:01 2009 GMT
            Not After : Jan  2 01:01:01 2009 GMT
        Subject: C=US, ST=California, L=Menlo Park, O=pkg5, CN=pubCA3_ta3/emailAddress=pubCA3_ta3
        Subject Public Key Info:
            Public Key Algorithm: rsaEncryption
            RSA Public Key: (1024 bit)
                Modulus (1024 bit):
                    00:ba:b1:90:f4:fa:4e:82:56:04:92:7a:d5:d7:23:
                    93:e4:53:47:c2:28:06:c3:a1:6e:ed:7c:02:0e:f6:
                    73:0b:8e:11:75:33:f3:d1:98:c0:ad:37:12:b8:41:
                    1a:57:12:95:5e:63:61:b5:69:97:60:07:6c:6e:4b:
                    a5:19:0e:f8:ba:35:9d:7a:f0:5c:74:33:7a:78:24:
                    cd:2f:2a:cd:31:84:17:0f:e0:4d:06:ba:92:7a:ae:
                    d0:a9:54:80:f1:d2:4d:dc:e9:81:84:ad:c9:74:c0:
                    88:e8:67:63:70:2a:c4:85:75:b8:32:a8:ed:af:2a:
                    6b:63:53:97:27:d3:9d:e6:57
                Exponent: 65537 (0x10001)
        X509v3 extensions:
            X509v3 Subject Key Identifier: 
                A2:91:E3:9A:3E:C3:FD:0E:04:36:9A:5C:34:32:84:C4:91:83:7A:91
            X509v3 Authority Key Identifier: 
                keyid:DF:F1:C3:42:E4:27:21:E0:3B:1D:E0:85:47:1F:16:35:4D:58:F3:1E
                DirName:/C=US/ST=California/L=Menlo Park/O=pkg5/CN=ta3/emailAddress=ta3
                serial:98:29:8D:38:A1:E7:D1:02

            X509v3 Basic Constraints: critical
                CA:TRUE
            X509v3 Key Usage: critical
                Certificate Sign, CRL Sign
    Signature Algorithm: sha256WithRSAEncryption
        03:8e:b8:b8:48:41:bd:75:34:8c:80:37:f3:6a:54:32:9a:dd:
        ef:55:e7:fc:b9:87:c3:1e:28:82:3c:09:09:9a:4d:d8:8e:25:
        7b:4e:bb:b4:e9:45:61:27:25:0b:70:7a:1c:7d:14:da:4a:ff:
        bc:9f:1c:39:47:53:b9:a3:41:b1:15:e5:f7:01:b9:0e:8b:5f:
        a0:31:5e:4e:7d:d4:f0:ba:be:a1:b9:b3:25:d8:bb:b7:3c:0c:
        c9:a1:2e:60:d6:4f:21:a0:6e:2e:1b:40:dd:8c:ee:07:5c:21:
        88:f7:40:3e:4b:3d:7f:00:bf:41:89:b1:1c:45:04:49:c3:92:
        f8:a5
-----BEGIN CERTIFICATE-----
MIIDNTCCAp6gAwIBAgIBGDANBgkqhkiG9w0BAQsFADBoMQswCQYDVQQGEwJVUzET
MBEGA1UECBMKQ2FsaWZvcm5pYTETMBEGA1UEBxMKTWVubG8gUGFyazENMAsGA1UE
ChMEcGtnNTEMMAoGA1UEAxMDdGEzMRIwEAYJKoZIhvcNAQkBFgN0YTMwHhcNMDkw
MTAxMDEwMTAxWhcNMDkwMTAyMDEwMTAxWjB2MQswCQYDVQQGEwJVUzETMBEGA1UE
CBMKQ2FsaWZvcm5pYTETMBEGA1UEBxMKTWVubG8gUGFyazENMAsGA1UEChMEcGtn
NTETMBEGA1UEAxQKcHViQ0EzX3RhMzEZMBcGCSqGSIb3DQEJARYKcHViQ0EzX3Rh
MzCBnzANBgkqhkiG9w0BAQEFAAOBjQAwgYkCgYEAurGQ9PpOglYEknrV1yOT5FNH
wigGw6Fu7XwCDvZzC44RdTPz0ZjArTcSuEEaVxKVXmNhtWmXYAdsbkulGQ74ujWd
evBcdDN6eCTNLyrNMYQXD+BNBrqSeq7QqVSA8dJN3OmBhK3JdMCI6GdjcCrEhXW4
MqjtryprY1OXJ9Od5lcCAwEAAaOB4DCB3TAdBgNVHQ4EFgQUopHjmj7D/Q4ENppc
NDKExJGDepEwgZoGA1UdIwSBkjCBj4AU3/HDQuQnIeA7HeCFRx8WNU1Y8x6hbKRq
MGgxCzAJBgNVBAYTAlVTMRMwEQYDVQQIEwpDYWxpZm9ybmlhMRMwEQYDVQQHEwpN
ZW5sbyBQYXJrMQ0wCwYDVQQKEwRwa2c1MQwwCgYDVQQDEwN0YTMxEjAQBgkqhkiG
9w0BCQEWA3RhM4IJAJgpjTih59ECMA8GA1UdEwEB/wQFMAMBAf8wDgYDVR0PAQH/
BAQDAgEGMA0GCSqGSIb3DQEBCwUAA4GBAAOOuLhIQb11NIyAN/NqVDKa3e9V5/y5
h8MeKII8CQmaTdiOJXtOu7TpRWEnJQtwehx9FNpK/7yfHDlHU7mjQbEV5fcBuQ6L
X6AxXk591PC6vqG5syXYu7c8DMmhLmDWTyGgbi4bQN2M7gdcIYj3QD5LPX8Av0GJ
sRxFBEnDkvil
-----END CERTIFICATE-----
