Certificate:
    Data:
        Version: 3 (0x2)
        Serial Number: 26 (0x1a)
        Signature Algorithm: sha256WithRSAEncryption
        Issuer: C=US, ST=California, L=Menlo Park, O=pkg5, CN=ta3/emailAddress=ta3
        Validity
            Not Before: Jan  1 01:01:01 2035 GMT
            Not After : Jan  2 01:01:01 2035 GMT
        Subject: C=US, ST=California, L=Menlo Park, O=pkg5, CN=pubCA4_ta3/emailAddress=pubCA4_ta3
        Subject Public Key Info:
            Public Key Algorithm: rsaEncryption
            RSA Public Key: (1024 bit)
                Modulus (1024 bit):
                    00:ca:aa:c4:0b:75:27:b8:a2:03:80:fd:5b:9d:db:
                    1d:d1:69:1b:4e:bb:7d:c6:88:db:b6:14:5d:f6:f2:
                    ff:45:f3:b6:74:7f:35:b6:a1:97:49:5e:8a:bc:94:
                    36:25:d1:35:34:34:55:0a:e0:7f:e3:c1:1b:fe:27:
                    ee:33:53:02:3b:a1:a7:99:ed:f1:d1:b8:1a:91:16:
                    ba:83:9c:02:0d:78:0c:1c:79:59:74:bc:f1:0b:21:
                    1a:fa:aa:55:72:a5:b4:39:99:40:1c:77:da:17:d6:
                    6f:a2:14:61:96:5f:c5:14:d8:6c:ec:82:f9:b4:45:
                    76:68:b2:a9:07:ee:94:df:65
                Exponent: 65537 (0x10001)
        X509v3 extensions:
            X509v3 Subject Key Identifier: 
                04:46:EB:13:B6:FE:E1:94:6D:9C:0E:59:20:4B:A2:6C:B1:DA:68:5C
            X509v3 Authority Key Identifier: 
                keyid:DF:F1:C3:42:E4:27:21:E0:3B:1D:E0:85:47:1F:16:35:4D:58:F3:1E
                DirName:/C=US/ST=California/L=Menlo Park/O=pkg5/CN=ta3/emailAddress=ta3
                serial:98:29:8D:38:A1:E7:D1:02

            X509v3 Basic Constraints: critical
                CA:TRUE
            X509v3 Key Usage: critical
                Certificate Sign, CRL Sign
    Signature Algorithm: sha256WithRSAEncryption
        06:1e:6c:15:d0:cd:28:6a:c2:c1:0e:3c:f5:8c:4e:0d:ec:53:
        a6:d9:f0:28:06:df:e6:a6:ed:f7:e5:ab:a1:2a:02:f8:17:29:
        1e:54:ec:83:44:ce:a5:ed:ee:70:33:83:83:1e:31:81:2b:72:
        ee:4d:cd:d5:9c:9c:f3:0d:81:fd:5a:26:1c:c6:3b:27:a9:18:
        41:96:ee:6b:bc:b4:06:72:1e:97:44:78:21:45:19:1d:38:8b:
        69:8e:9e:d8:0f:7a:a4:4e:bb:49:8a:a9:37:5c:a5:98:6b:ad:
        f3:29:f3:8c:53:10:1c:af:d9:5f:2a:c7:9a:f8:d5:ce:b1:ba:
        dc:8d
-----BEGIN CERTIFICATE-----
MIIDNTCCAp6gAwIBAgIBGjANBgkqhkiG9w0BAQsFADBoMQswCQYDVQQGEwJVUzET
MBEGA1UECBMKQ2FsaWZvcm5pYTETMBEGA1UEBxMKTWVubG8gUGFyazENMAsGA1UE
ChMEcGtnNTEMMAoGA1UEAxMDdGEzMRIwEAYJKoZIhvcNAQkBFgN0YTMwHhcNMzUw
MTAxMDEwMTAxWhcNMzUwMTAyMDEwMTAxWjB2MQswCQYDVQQGEwJVUzETMBEGA1UE
CBMKQ2FsaWZvcm5pYTETMBEGA1UEBxMKTWVubG8gUGFyazENMAsGA1UEChMEcGtn
NTETMBEGA1UEAxQKcHViQ0E0X3RhMzEZMBcGCSqGSIb3DQEJARYKcHViQ0E0X3Rh
MzCBnzANBgkqhkiG9w0BAQEFAAOBjQAwgYkCgYEAyqrEC3UnuKIDgP1bndsd0Wkb
Trt9xojbthRd9vL/RfO2dH81tqGXSV6KvJQ2JdE1NDRVCuB/48Eb/ifuM1MCO6Gn
me3x0bgakRa6g5wCDXgMHHlZdLzxCyEa+qpVcqW0OZlAHHfaF9ZvohRhll/FFNhs
7IL5tEV2aLKpB+6U32UCAwEAAaOB4DCB3TAdBgNVHQ4EFgQUBEbrE7b+4ZRtnA5Z
IEuibLHaaFwwgZoGA1UdIwSBkjCBj4AU3/HDQuQnIeA7HeCFRx8WNU1Y8x6hbKRq
MGgxCzAJBgNVBAYTAlVTMRMwEQYDVQQIEwpDYWxpZm9ybmlhMRMwEQYDVQQHEwpN
ZW5sbyBQYXJrMQ0wCwYDVQQKEwRwa2c1MQwwCgYDVQQDEwN0YTMxEjAQBgkqhkiG
9w0BCQEWA3RhM4IJAJgpjTih59ECMA8GA1UdEwEB/wQFMAMBAf8wDgYDVR0PAQH/
BAQDAgEGMA0GCSqGSIb3DQEBCwUAA4GBAAYebBXQzShqwsEOPPWMTg3sU6bZ8CgG
3+am7fflq6EqAvgXKR5U7INEzqXt7nAzg4MeMYErcu5NzdWcnPMNgf1aJhzGOyep
GEGW7mu8tAZyHpdEeCFFGR04i2mOntgPeqROu0mKqTdcpZhrrfMp84xTEByv2V8q
x5r41c6xutyN
-----END CERTIFICATE-----
