Certificate:
    Data:
        Version: 3 (0x2)
        Serial Number: 27 (0x1b)
        Signature Algorithm: sha256WithRSAEncryption
        Issuer: C=US, ST=California, L=Menlo Park, O=pkg5, CN=ta5/emailAddress=ta5
        Validity
            Not Before: Aug  4 20:59:29 2010 GMT
            Not After : Apr 30 20:59:29 2013 GMT
        Subject: C=US, ST=California, L=Menlo Park, O=pkg5, CN=pubCA1_ta5/emailAddress=pubCA1_ta5
        Subject Public Key Info:
            Public Key Algorithm: rsaEncryption
            RSA Public Key: (1024 bit)
                Modulus (1024 bit):
                    00:f1:eb:41:9f:0b:f5:8c:66:1f:8c:5d:e0:9a:a6:
                    d3:3c:a6:af:66:36:e2:5c:8b:c4:a7:ff:fb:6f:f0:
                    65:33:b2:a2:f2:8a:1c:94:ad:de:96:d7:7a:75:78:
                    e1:5f:a8:c9:51:08:ff:38:df:2e:cf:37:b2:a8:e4:
                    82:60:55:d5:40:bc:a0:b3:94:a4:59:51:ad:d8:26:
                    64:ce:d5:54:10:5a:78:52:f1:f8:bc:d6:dc:a7:40:
                    57:82:4f:2f:09:16:de:5b:88:42:aa:67:3e:1f:8b:
                    b7:6e:a9:1e:6a:12:a8:35:9f:28:85:23:29:3a:20:
                    0e:cd:89:3e:73:40:e8:d6:1b
                Exponent: 65537 (0x10001)
        X509v3 extensions:
            X509v3 Subject Key Identifier: 
                B7:AD:D9:89:4D:93:68:D0:D6:CB:4B:DB:6D:D6:CB:03:74:85:4B:AC
            X509v3 Authority Key Identifier: 
                keyid:AA:44:3A:A2:05:A2:04:EB:62:E0:E5:F5:2C:44:CA:3B:CF:4D:B2:74
                DirName:/C=US/ST=California/L=Menlo Park/O=pkg5/CN=ta5/emailAddress=ta5
                serial:CB:2A:36:97:17:4F:60:24

            X509v3 Basic Constraints: critical
                CA:TRUE
            X509v3 CRL Distribution Points: 
                URI:http://localhost:12001/file/0/ta5_crl.pem

    Signature Algorithm: sha256WithRSAEncryption
        93:e0:33:e4:90:54:94:6c:cb:82:8d:18:16:ef:e5:b4:80:16:
        21:f9:f0:6e:5f:63:36:76:c1:c0:37:13:ca:df:e2:6d:f4:30:
        5c:10:5c:86:fb:7b:dc:6f:7f:be:d5:ed:9b:65:fc:14:d2:f3:
        8c:df:21:db:65:88:60:7b:fc:3c:6f:c8:6b:fe:5d:c7:7e:b4:
        c7:75:54:89:0d:01:4a:0d:1a:f1:f2:5c:65:c7:12:16:98:dd:
        f7:89:42:6a:85:a4:a6:3c:19:22:bb:99:b6:7e:d2:2a:c7:80:
        67:6b:0f:ce:f0:c9:1b:a5:5d:39:f4:f2:f0:eb:48:ea:c0:89:
        b0:df
-----BEGIN CERTIFICATE-----
MIIDYzCCAsygAwIBAgIBGzANBgkqhkiG9w0BAQsFADBoMQswCQYDVQQGEwJVUzET
MBEGA1UECBMKQ2FsaWZvcm5pYTETMBEGA1UEBxMKTWVubG8gUGFyazENMAsGA1UE
ChMEcGtnNTEMMAoGA1UEAxMDdGE1MRIwEAYJKoZIhvcNAQkBFgN0YTUwHhcNMTAw
ODA0MjA1OTI5WhcNMTMwNDMwMjA1OTI5WjB2MQswCQYDVQQGEwJVUzETMBEGA1UE
CBMKQ2FsaWZvcm5pYTETMBEGA1UEBxMKTWVubG8gUGFyazENMAsGA1UEChMEcGtn
NTETMBEGA1UEAxQKcHViQ0ExX3RhNTEZMBcGCSqGSIb3DQEJARYKcHViQ0ExX3Rh
NTCBnzANBgkqhkiG9w0BAQEFAAOBjQAwgYkCgYEA8etBnwv1jGYfjF3gmqbTPKav
ZjbiXIvEp//7b/BlM7Ki8ooclK3eltd6dXjhX6jJUQj/ON8uzzeyqOSCYFXVQLyg
s5SkWVGt2CZkztVUEFp4UvH4vNbcp0BXgk8vCRbeW4hCqmc+H4u3bqkeahKoNZ8o
hSMpOiAOzYk+c0Do1hsCAwEAAaOCAQ0wggEJMB0GA1UdDgQWBBS3rdmJTZNo0NbL
S9tt1ssDdIVLrDCBmgYDVR0jBIGSMIGPgBSqRDqiBaIE62Lg5fUsRMo7z02ydKFs
pGowaDELMAkGA1UEBhMCVVMxEzARBgNVBAgTCkNhbGlmb3JuaWExEzARBgNVBAcT
Ck1lbmxvIFBhcmsxDTALBgNVBAoTBHBrZzUxDDAKBgNVBAMTA3RhNTESMBAGCSqG
SIb3DQEJARYDdGE1ggkAyyo2lxdPYCQwDwYDVR0TAQH/BAUwAwEB/zA6BgNVHR8E
MzAxMC+gLaArhilodHRwOi8vbG9jYWxob3N0OjEyMDAxL2ZpbGUvMC90YTVfY3Js
LnBlbTANBgkqhkiG9w0BAQsFAAOBgQCT4DPkkFSUbMuCjRgW7+W0gBYh+fBuX2M2
dsHANxPK3+Jt9DBcEFyG+3vcb3++1e2bZfwU0vOM3yHbZYhge/w8b8hr/l3HfrTH
dVSJDQFKDRrx8lxlxxIWmN33iUJqhaSmPBkiu5m2ftIqx4Bnaw/O8MkbpV059PLw
60jqwImw3w==
-----END CERTIFICATE-----
