Certificate:
    Data:
        Version: 3 (0x2)
        Serial Number: 30 (0x1e)
        Signature Algorithm: sha256WithRSAEncryption
        Issuer: C=US, ST=California, L=Menlo Park, O=pkg5, CN=ta4/emailAddress=ta4
        Validity
            Not Before: Jan 28 02:54:22 2011 GMT
            Not After : Oct 24 02:54:22 2013 GMT
        Subject: C=US, ST=California, L=Menlo Park, O=pkg5, CN=pubCA1_ta4/emailAddress=pubCA1_ta4
        Subject Public Key Info:
            Public Key Algorithm: rsaEncryption
            RSA Public Key: (1024 bit)
                Modulus (1024 bit):
                    00:ae:1e:e8:c6:51:70:cc:7b:06:87:47:a1:f0:5a:
                    fa:f3:cf:c4:fd:eb:ac:32:d9:ab:dd:36:15:09:71:
                    73:12:a3:6e:16:4a:af:83:33:d9:e0:1c:e8:63:ac:
                    c7:8d:79:47:5a:cf:63:67:e1:0d:74:bc:09:16:8b:
                    e1:27:24:78:6a:41:a5:c9:2f:4d:49:ef:a2:61:81:
                    45:98:21:b3:2a:d3:89:94:06:18:87:81:90:63:fc:
                    40:17:8d:89:35:6e:c5:68:d5:6d:89:d3:18:e2:07:
                    e1:9f:f7:5f:78:24:83:11:c6:e5:0b:77:c3:3f:c9:
                    50:26:39:9c:8b:0d:18:fe:3b
                Exponent: 65537 (0x10001)
        X509v3 extensions:
            X509v3 Subject Key Identifier: 
                D3:DE:A8:63:F4:5C:5D:8E:DD:53:9F:D7:9E:90:14:71:D1:21:88:4B
            X509v3 Authority Key Identifier: 
                keyid:B9:A8:52:5F:91:1B:2A:27:A9:0A:94:54:06:52:2F:72:86:85:9E:75
                DirName:/C=US/ST=California/L=Menlo Park/O=pkg5/CN=ta4/emailAddress=ta4
                serial:FC:C0:EE:93:13:43:17:2D

            X509v3 Basic Constraints: critical
                CA:TRUE
            X509v3 Key Usage: critical
                Certificate Sign, CRL Sign
    Signature Algorithm: sha256WithRSAEncryption
        87:6d:c1:4d:b1:ea:af:f8:20:d9:dd:d8:cd:e1:60:62:41:a5:
        5a:58:1e:cc:cb:fa:23:a9:82:fe:2c:54:53:86:f3:52:2f:ab:
        8d:1b:68:9d:3b:83:e3:fd:37:2f:b5:d0:24:cf:78:98:ff:0a:
        63:47:0b:c9:52:96:4f:5d:94:e1:28:fa:c4:eb:ea:17:42:6b:
        a2:30:37:bb:54:ac:47:45:55:2a:30:75:54:c9:7f:01:b9:9a:
        55:3b:4d:bd:e5:29:02:a9:3c:f0:b4:b8:c4:c0:90:34:cd:94:
        30:97:a8:16:2c:25:c8:da:cc:bd:0e:ea:5b:bf:dd:7b:7f:aa:
        f5:05
-----BEGIN CERTIFICATE-----
MIIDNTCCAp6gAwIBAgIBHjANBgkqhkiG9w0BAQsFADBoMQswCQYDVQQGEwJVUzET
MBEGA1UECBMKQ2FsaWZvcm5pYTETMBEGA1UEBxMKTWVubG8gUGFyazENMAsGA1UE
ChMEcGtnNTEMMAoGA1UEAxMDdGE0MRIwEAYJKoZIhvcNAQkBFgN0YTQwHhcNMTEw
MTI4MDI1NDIyWhcNMTMxMDI0MDI1NDIyWjB2MQswCQYDVQQGEwJVUzETMBEGA1UE
CBMKQ2FsaWZvcm5pYTETMBEGA1UEBxMKTWVubG8gUGFyazENMAsGA1UEChMEcGtn
NTETMBEGA1UEAxQKcHViQ0ExX3RhNDEZMBcGCSqGSIb3DQEJARYKcHViQ0ExX3Rh
NDCBnzANBgkqhkiG9w0BAQEFAAOBjQAwgYkCgYEArh7oxlFwzHsGh0eh8Fr688/E
/eusMtmr3TYVCXFzEqNuFkqvgzPZ4BzoY6zHjXlHWs9jZ+ENdLwJFovhJyR4akGl
yS9NSe+iYYFFmCGzKtOJlAYYh4GQY/xAF42JNW7FaNVtidMY4gfhn/dfeCSDEcbl
C3fDP8lQJjmciw0Y/jsCAwEAAaOB4DCB3TAdBgNVHQ4EFgQU096oY/RcXY7dU5/X
npAUcdEhiEswgZoGA1UdIwSBkjCBj4AUuahSX5EbKiepCpRUBlIvcoaFnnWhbKRq
MGgxCzAJBgNVBAYTAlVTMRMwEQYDVQQIEwpDYWxpZm9ybmlhMRMwEQYDVQQHEwpN
ZW5sbyBQYXJrMQ0wCwYDVQQKEwRwa2c1MQwwCgYDVQQDEwN0YTQxEjAQBgkqhkiG
9w0BCQEWA3RhNIIJAPzA7pMTQxctMA8GA1UdEwEB/wQFMAMBAf8wDgYDVR0PAQH/
BAQDAgEGMA0GCSqGSIb3DQEBCwUAA4GBAIdtwU2x6q/4INnd2M3hYGJBpVpYHszL
+iOpgv4sVFOG81Ivq40baJ07g+P9Ny+10CTPeJj/CmNHC8lSlk9dlOEo+sTr6hdC
a6IwN7tUrEdFVSowdVTJfwG5mlU7Tb3lKQKpPPC0uMTAkDTNlDCXqBYsJcjazL0O
6lu/3Xt/qvUF
-----END CERTIFICATE-----
