Certificate:
    Data:
        Version: 3 (0x2)
        Serial Number: 34 (0x22)
        Signature Algorithm: sha256WithRSAEncryption
        Issuer: C=US, ST=California, L=Menlo Park, O=pkg5, CN=ta4/emailAddress=ta4
        Validity
            Not Before: Jan 28 02:54:24 2011 GMT
            Not After : Oct 24 02:54:24 2013 GMT
        Subject: C=US, ST=California, L=Menlo Park, O=pkg5, CN=pubCA2_ta4/emailAddress=pubCA2_ta4
        Subject Public Key Info:
            Public Key Algorithm: rsaEncryption
            RSA Public Key: (1024 bit)
                Modulus (1024 bit):
                    00:b4:ad:43:56:c0:47:59:45:17:9b:25:94:a6:3f:
                    07:fa:0d:8c:17:bd:1d:ea:b0:14:73:4f:ab:91:ad:
                    e5:72:15:a8:c3:5d:d2:37:d3:1c:9f:0d:b5:b1:5d:
                    dc:e9:ca:dd:ba:58:de:d7:10:ca:ce:f7:76:4a:da:
                    62:87:04:00:34:ee:d2:2a:32:fa:57:0e:a3:a8:0c:
                    f8:98:65:72:9b:65:2d:90:50:be:c0:a2:2e:33:13:
                    55:2f:17:8f:88:83:2a:e9:e0:a1:e1:6d:43:d1:2f:
                    a7:6b:4c:a9:67:8f:3d:9d:3c:46:91:c8:fc:b8:38:
                    65:16:c5:60:b8:8a:7e:36:e3
                Exponent: 65537 (0x10001)
        X509v3 extensions:
            X509v3 Subject Key Identifier: 
                7E:D7:20:26:1C:A5:29:A9:33:67:3B:8C:F6:91:31:8E:14:D9:C6:D6
            X509v3 Authority Key Identifier: 
                keyid:B9:A8:52:5F:91:1B:2A:27:A9:0A:94:54:06:52:2F:72:86:85:9E:75
                DirName:/C=US/ST=California/L=Menlo Park/O=pkg5/CN=ta4/emailAddress=ta4
                serial:FC:C0:EE:93:13:43:17:2D

            X509v3 Basic Constraints: critical
                CA:TRUE
            X509v3 Key Usage: critical
                Certificate Sign
    Signature Algorithm: sha256WithRSAEncryption
        8a:49:79:6d:e2:18:16:a9:63:8c:a6:4c:78:02:27:7e:2b:99:
        1f:a0:bd:23:93:6e:32:70:f9:4c:fd:c0:9c:78:11:1c:0e:ee:
        3c:35:c6:12:70:c3:4b:4a:25:e1:20:75:9d:a0:37:b2:db:7a:
        62:b2:a2:a6:37:5b:e5:fd:89:ec:bd:23:03:95:38:05:da:92:
        5e:b4:32:b2:a1:0e:c2:cb:8e:62:01:f7:b5:87:c5:39:4a:40:
        11:e4:fe:52:c5:ac:b7:c4:ca:4d:7b:c4:3c:79:f6:6f:a0:bc:
        04:e5:dd:38:a0:e8:86:d5:14:01:bf:f5:01:bb:cc:7a:19:39:
        a8:ff
-----BEGIN CERTIFICATE-----
MIIDNTCCAp6gAwIBAgIBIjANBgkqhkiG9w0BAQsFADBoMQswCQYDVQQGEwJVUzET
MBEGA1UECBMKQ2FsaWZvcm5pYTETMBEGA1UEBxMKTWVubG8gUGFyazENMAsGA1UE
ChMEcGtnNTEMMAoGA1UEAxMDdGE0MRIwEAYJKoZIhvcNAQkBFgN0YTQwHhcNMTEw
MTI4MDI1NDI0WhcNMTMxMDI0MDI1NDI0WjB2MQswCQYDVQQGEwJVUzETMBEGA1UE
CBMKQ2FsaWZvcm5pYTETMBEGA1UEBxMKTWVubG8gUGFyazENMAsGA1UEChMEcGtn
NTETMBEGA1UEAxQKcHViQ0EyX3RhNDEZMBcGCSqGSIb3DQEJARYKcHViQ0EyX3Rh
NDCBnzANBgkqhkiG9w0BAQEFAAOBjQAwgYkCgYEAtK1DVsBHWUUXmyWUpj8H+g2M
F70d6rAUc0+rka3lchWow13SN9Mcnw21sV3c6crdulje1xDKzvd2StpihwQANO7S
KjL6Vw6jqAz4mGVym2UtkFC+wKIuMxNVLxePiIMq6eCh4W1D0S+na0ypZ489nTxG
kcj8uDhlFsVguIp+NuMCAwEAAaOB4DCB3TAdBgNVHQ4EFgQUftcgJhylKakzZzuM
9pExjhTZxtYwgZoGA1UdIwSBkjCBj4AUuahSX5EbKiepCpRUBlIvcoaFnnWhbKRq
MGgxCzAJBgNVBAYTAlVTMRMwEQYDVQQIEwpDYWxpZm9ybmlhMRMwEQYDVQQHEwpN
ZW5sbyBQYXJrMQ0wCwYDVQQKEwRwa2c1MQwwCgYDVQQDEwN0YTQxEjAQBgkqhkiG
9w0BCQEWA3RhNIIJAPzA7pMTQxctMA8GA1UdEwEB/wQFMAMBAf8wDgYDVR0PAQH/
BAQDAgIEMA0GCSqGSIb3DQEBCwUAA4GBAIpJeW3iGBapY4ymTHgCJ34rmR+gvSOT
bjJw+Uz9wJx4ERwO7jw1xhJww0tKJeEgdZ2gN7LbemKyoqY3W+X9iey9IwOVOAXa
kl60MrKhDsLLjmIB97WHxTlKQBHk/lLFrLfEyk17xDx59m+gvATl3Tig6IbVFAG/
9QG7zHoZOaj/
-----END CERTIFICATE-----
