Certificate:
    Data:
        Version: 3 (0x2)
        Serial Number: 36 (0x24)
        Signature Algorithm: sha256WithRSAEncryption
        Issuer: C=US, ST=California, L=Menlo Park, O=pkg5, CN=ta5/emailAddress=ta5
        Validity
            Not Before: Jan 28 02:54:25 2011 GMT
            Not After : Oct 24 02:54:25 2013 GMT
        Subject: C=US, ST=California, L=Menlo Park, O=pkg5, CN=pubCA1_ta5/emailAddress=pubCA1_ta5
        Subject Public Key Info:
            Public Key Algorithm: rsaEncryption
            RSA Public Key: (1024 bit)
                Modulus (1024 bit):
                    00:d4:c6:69:11:45:2f:32:b0:20:8d:2d:0f:5c:5e:
                    36:10:ef:63:37:6a:03:b4:62:86:68:8f:fb:72:87:
                    91:15:5f:8e:b5:25:0c:d1:b3:c0:57:28:b5:56:d8:
                    8b:bc:c0:f5:ed:8a:d0:fb:56:45:91:ca:ae:a3:2f:
                    f1:36:bf:54:91:c6:93:04:68:17:27:e5:96:fd:92:
                    af:8f:5b:62:65:f7:2d:6d:5a:dc:2f:05:44:b7:7d:
                    de:49:26:0b:ec:09:71:d0:bd:39:97:5b:0a:c8:80:
                    5b:6b:aa:19:8c:b2:df:73:ea:ce:a3:48:b1:b2:ba:
                    3f:58:3f:75:86:b0:9c:4c:5b
                Exponent: 65537 (0x10001)
        X509v3 extensions:
            X509v3 Subject Key Identifier: 
                52:C8:5D:28:0A:C3:1A:23:E7:52:17:1A:67:EB:EF:0F:BC:9F:0F:A7
            X509v3 Authority Key Identifier: 
                keyid:62:0A:5F:1E:BA:AD:0B:1E:13:7A:CA:B4:5C:12:64:1F:BF:44:C6:B0
                DirName:/C=US/ST=California/L=Menlo Park/O=pkg5/CN=ta5/emailAddress=ta5
                serial:E0:A1:00:60:AE:57:96:B2

            X509v3 Basic Constraints: critical
                CA:TRUE
            X509v3 CRL Distribution Points: 
                URI:http://localhost:12001/file/0/ta5_crl.pem

            X509v3 Key Usage: critical
                Certificate Sign, CRL Sign
    Signature Algorithm: sha256WithRSAEncryption
        97:a5:5a:64:29:bd:24:f5:b1:27:11:83:2f:e7:a9:a5:f3:0b:
        2b:b3:43:1f:74:c8:54:fa:56:5b:4f:7b:a2:3b:bc:db:4d:a6:
        c7:07:fb:52:2d:91:37:6a:fb:f1:c7:2a:54:3d:31:78:85:a5:
        f3:10:bf:05:2e:48:bb:bd:ed:d7:1d:7c:31:b5:4c:41:79:97:
        d6:2e:02:1b:84:77:24:47:57:00:56:a7:89:1c:f5:6d:d3:d8:
        da:69:a3:b9:2b:d2:73:c0:d4:a8:c1:86:4f:ba:04:2b:ea:2f:
        0b:a4:1d:83:71:02:b5:47:87:13:ec:66:bb:87:6a:af:c2:1d:
        07:5d
-----BEGIN CERTIFICATE-----
MIIDczCCAtygAwIBAgIBJDANBgkqhkiG9w0BAQsFADBoMQswCQYDVQQGEwJVUzET
MBEGA1UECBMKQ2FsaWZvcm5pYTETMBEGA1UEBxMKTWVubG8gUGFyazENMAsGA1UE
ChMEcGtnNTEMMAoGA1UEAxMDdGE1MRIwEAYJKoZIhvcNAQkBFgN0YTUwHhcNMTEw
MTI4MDI1NDI1WhcNMTMxMDI0MDI1NDI1WjB2MQswCQYDVQQGEwJVUzETMBEGA1UE
CBMKQ2FsaWZvcm5pYTETMBEGA1UEBxMKTWVubG8gUGFyazENMAsGA1UEChMEcGtn
NTETMBEGA1UEAxQKcHViQ0ExX3RhNTEZMBcGCSqGSIb3DQEJARYKcHViQ0ExX3Rh
NTCBnzANBgkqhkiG9w0BAQEFAAOBjQAwgYkCgYEA1MZpEUUvMrAgjS0PXF42EO9j
N2oDtGKGaI/7coeRFV+OtSUM0bPAVyi1VtiLvMD17YrQ+1ZFkcquoy/xNr9UkcaT
BGgXJ+WW/ZKvj1tiZfctbVrcLwVEt33eSSYL7Alx0L05l1sKyIBba6oZjLLfc+rO
o0ixsro/WD91hrCcTFsCAwEAAaOCAR0wggEZMB0GA1UdDgQWBBRSyF0oCsMaI+dS
Fxpn6+8PvJ8PpzCBmgYDVR0jBIGSMIGPgBRiCl8euq0LHhN6yrRcEmQfv0TGsKFs
pGowaDELMAkGA1UEBhMCVVMxEzARBgNVBAgTCkNhbGlmb3JuaWExEzARBgNVBAcT
Ck1lbmxvIFBhcmsxDTALBgNVBAoTBHBrZzUxDDAKBgNVBAMTA3RhNTESMBAGCSqG
SIb3DQEJARYDdGE1ggkA4KEAYK5XlrIwDwYDVR0TAQH/BAUwAwEB/zA6BgNVHR8E
MzAxMC+gLaArhilodHRwOi8vbG9jYWxob3N0OjEyMDAxL2ZpbGUvMC90YTVfY3Js
LnBlbTAOBgNVHQ8BAf8EBAMCAQYwDQYJKoZIhvcNAQELBQADgYEAl6VaZCm9JPWx
JxGDL+eppfMLK7NDH3TIVPpWW097oju8202mxwf7Ui2RN2r78ccqVD0xeIWl8xC/
BS5Iu73t1x18MbVMQXmX1i4CG4R3JEdXAFaniRz1bdPY2mmjuSvSc8DUqMGGT7oE
K+ovC6Qdg3ECtUeHE+xmu4dqr8IdB10=
-----END CERTIFICATE-----
