Certificate:
    Data:
        Version: 3 (0x2)
        Serial Number: 19 (0x13)
        Signature Algorithm: sha256WithRSAEncryption
        Issuer: C=US, ST=California, L=Menlo Park, O=pkg5, CN=ta3/emailAddress=ta3
        Validity
            Not Before: Jan  1 01:01:01 2009 GMT
            Not After : Jan  2 01:01:01 2009 GMT
        Subject: C=US, ST=California, L=Menlo Park, O=pkg5, CN=pubCA3_ta3/emailAddress=pubCA3_ta3
        Subject Public Key Info:
            Public Key Algorithm: rsaEncryption
            RSA Public Key: (1024 bit)
                Modulus (1024 bit):
                    00:95:a3:85:b5:71:f3:2f:b2:aa:c2:33:ff:4c:70:
                    40:e1:06:44:e8:7c:0f:78:77:21:1d:a6:8a:e7:0c:
                    e7:65:12:f5:cc:99:cf:4a:00:bd:5e:ea:4d:c7:a3:
                    85:93:0c:4c:4a:17:44:49:d9:b9:06:45:b4:99:d0:
                    95:08:aa:f6:c4:07:75:46:a7:26:3a:e5:01:64:26:
                    74:c7:58:73:e9:70:4f:97:15:4e:30:bd:55:8e:cb:
                    43:33:36:8a:f9:cc:57:e6:ee:2a:1b:aa:0e:67:51:
                    c5:52:61:ab:43:5b:f2:d7:2c:20:5c:c1:72:a4:3a:
                    bb:b0:a2:3b:b4:6e:e3:b9:df
                Exponent: 65537 (0x10001)
        X509v3 extensions:
            X509v3 Subject Key Identifier: 
                E9:26:60:80:D1:41:FF:4A:A4:0C:14:05:C0:6B:5D:84:C5:F0:15:04
            X509v3 Authority Key Identifier: 
                keyid:E0:CE:66:66:57:70:37:16:AF:EB:65:B6:15:DC:2D:2C:B7:B4:49:4D
                DirName:/C=US/ST=California/L=Menlo Park/O=pkg5/CN=ta3/emailAddress=ta3
                serial:E1:F8:52:2F:AC:F4:00:EE

            X509v3 Basic Constraints: critical
                CA:TRUE
    Signature Algorithm: sha256WithRSAEncryption
        7f:d0:e5:cc:61:28:7a:14:1f:6e:43:f2:1f:98:55:8f:3f:9b:
        f4:8c:1d:2d:4d:c4:c5:08:2f:eb:1a:6d:1d:99:80:57:3b:45:
        d3:4f:71:6f:61:ca:17:83:9f:23:5f:0a:77:7b:25:b2:53:2b:
        ca:e3:3d:ad:28:57:99:b9:3a:d8:f8:d2:3f:55:d8:f4:ef:94:
        81:36:58:4f:98:a0:2b:6b:8d:77:cb:3d:bd:32:9a:5e:dd:1e:
        7f:4f:02:fe:de:35:a8:f0:85:3a:eb:a9:22:5a:dd:9d:ba:dc:
        40:b7:9f:ba:54:f8:84:7d:39:42:ec:87:73:85:11:1d:36:41:
        9f:e7
-----BEGIN CERTIFICATE-----
MIIDJTCCAo6gAwIBAgIBEzANBgkqhkiG9w0BAQsFADBoMQswCQYDVQQGEwJVUzET
MBEGA1UECBMKQ2FsaWZvcm5pYTETMBEGA1UEBxMKTWVubG8gUGFyazENMAsGA1UE
ChMEcGtnNTEMMAoGA1UEAxMDdGEzMRIwEAYJKoZIhvcNAQkBFgN0YTMwHhcNMDkw
MTAxMDEwMTAxWhcNMDkwMTAyMDEwMTAxWjB2MQswCQYDVQQGEwJVUzETMBEGA1UE
CBMKQ2FsaWZvcm5pYTETMBEGA1UEBxMKTWVubG8gUGFyazENMAsGA1UEChMEcGtn
NTETMBEGA1UEAxQKcHViQ0EzX3RhMzEZMBcGCSqGSIb3DQEJARYKcHViQ0EzX3Rh
MzCBnzANBgkqhkiG9w0BAQEFAAOBjQAwgYkCgYEAlaOFtXHzL7KqwjP/THBA4QZE
6HwPeHchHaaK5wznZRL1zJnPSgC9XupNx6OFkwxMShdESdm5BkW0mdCVCKr2xAd1
RqcmOuUBZCZ0x1hz6XBPlxVOML1VjstDMzaK+cxX5u4qG6oOZ1HFUmGrQ1vy1ywg
XMFypDq7sKI7tG7jud8CAwEAAaOB0DCBzTAdBgNVHQ4EFgQU6SZggNFB/0qkDBQF
wGtdhMXwFQQwgZoGA1UdIwSBkjCBj4AU4M5mZldwNxav62W2FdwtLLe0SU2hbKRq
MGgxCzAJBgNVBAYTAlVTMRMwEQYDVQQIEwpDYWxpZm9ybmlhMRMwEQYDVQQHEwpN
ZW5sbyBQYXJrMQ0wCwYDVQQKEwRwa2c1MQwwCgYDVQQDEwN0YTMxEjAQBgkqhkiG
9w0BCQEWA3RhM4IJAOH4Ui+s9ADuMA8GA1UdEwEB/wQFMAMBAf8wDQYJKoZIhvcN
AQELBQADgYEAf9DlzGEoehQfbkPyH5hVjz+b9IwdLU3ExQgv6xptHZmAVztF009x
b2HKF4OfI18Kd3slslMryuM9rShXmbk62PjSP1XY9O+UgTZYT5igK2uNd8s9vTKa
Xt0ef08C/t41qPCFOuupIlrdnbrcQLefulT4hH05QuyHc4URHTZBn+c=
-----END CERTIFICATE-----
