Certificate:
    Data:
        Version: 3 (0x2)
        Serial Number: 28 (0x1c)
        Signature Algorithm: sha256WithRSAEncryption
        Issuer: C=US, ST=California, L=Menlo Park, O=pkg5, CN=ta3/emailAddress=ta3
        Validity
            Not Before: Jan  1 01:01:01 2035 GMT
            Not After : Jan  2 01:01:01 2035 GMT
        Subject: C=US, ST=California, L=Menlo Park, O=pkg5, CN=pubCA5_ta3/emailAddress=pubCA5_ta3
        Subject Public Key Info:
            Public Key Algorithm: rsaEncryption
            RSA Public Key: (1024 bit)
                Modulus (1024 bit):
                    00:c1:7d:e8:01:87:c0:29:55:4f:e7:82:49:3f:d3:
                    58:23:af:60:58:22:68:d9:fe:67:b4:69:9e:48:ee:
                    b9:05:dc:31:85:9d:5e:ba:2f:19:61:97:20:d5:99:
                    d9:84:67:50:ce:bf:1b:ef:86:07:70:0e:fd:3f:22:
                    a9:16:10:d6:2d:f6:30:23:36:54:28:16:33:d5:58:
                    6c:15:fb:79:2e:af:07:43:77:11:bb:54:e9:e3:e5:
                    5c:5b:5a:67:6f:bb:43:08:4e:c3:a8:77:06:25:92:
                    10:cc:cb:1d:4a:7d:07:1e:83:1e:43:59:bc:b5:56:
                    18:f6:2e:8a:4e:52:bf:fe:c1
                Exponent: 65537 (0x10001)
        X509v3 extensions:
            X509v3 Subject Key Identifier: 
                18:C6:4D:FD:87:0A:06:7E:55:86:3A:77:4F:0F:F7:33:67:02:F5:33
            X509v3 Authority Key Identifier: 
                keyid:DF:F1:C3:42:E4:27:21:E0:3B:1D:E0:85:47:1F:16:35:4D:58:F3:1E
                DirName:/C=US/ST=California/L=Menlo Park/O=pkg5/CN=ta3/emailAddress=ta3
                serial:98:29:8D:38:A1:E7:D1:02

            X509v3 Basic Constraints: critical
                CA:TRUE
    Signature Algorithm: sha256WithRSAEncryption
        09:28:d6:10:c6:de:9d:66:c1:a9:d4:83:53:d9:ba:27:a1:64:
        ae:29:c2:07:42:33:b4:3c:1d:e1:8c:0a:c8:38:98:c8:89:d8:
        98:26:41:75:56:b0:fa:30:d3:b8:ad:9f:47:7b:23:ec:da:99:
        ff:8f:a7:18:56:43:13:bf:ee:19:0f:d8:70:c7:fe:4e:0b:1c:
        54:e4:af:d5:01:72:a8:19:5e:21:ed:17:90:a1:fe:51:74:c6:
        ba:29:89:e2:74:16:df:a8:89:7a:b3:ce:50:5f:9d:99:e7:76:
        c0:98:38:03:c2:a5:bb:88:bd:57:bc:4d:59:ce:cd:e0:c6:ad:
        3c:2c
-----BEGIN CERTIFICATE-----
MIIDJTCCAo6gAwIBAgIBHDANBgkqhkiG9w0BAQsFADBoMQswCQYDVQQGEwJVUzET
MBEGA1UECBMKQ2FsaWZvcm5pYTETMBEGA1UEBxMKTWVubG8gUGFyazENMAsGA1UE
ChMEcGtnNTEMMAoGA1UEAxMDdGEzMRIwEAYJKoZIhvcNAQkBFgN0YTMwHhcNMzUw
MTAxMDEwMTAxWhcNMzUwMTAyMDEwMTAxWjB2MQswCQYDVQQGEwJVUzETMBEGA1UE
CBMKQ2FsaWZvcm5pYTETMBEGA1UEBxMKTWVubG8gUGFyazENMAsGA1UEChMEcGtn
NTETMBEGA1UEAxQKcHViQ0E1X3RhMzEZMBcGCSqGSIb3DQEJARYKcHViQ0E1X3Rh
MzCBnzANBgkqhkiG9w0BAQEFAAOBjQAwgYkCgYEAwX3oAYfAKVVP54JJP9NYI69g
WCJo2f5ntGmeSO65BdwxhZ1eui8ZYZcg1ZnZhGdQzr8b74YHcA79PyKpFhDWLfYw
IzZUKBYz1VhsFft5Lq8HQ3cRu1Tp4+VcW1pnb7tDCE7DqHcGJZIQzMsdSn0HHoMe
Q1m8tVYY9i6KTlK//sECAwEAAaOB0DCBzTAdBgNVHQ4EFgQUGMZN/YcKBn5Vhjp3
Tw/3M2cC9TMwgZoGA1UdIwSBkjCBj4AU3/HDQuQnIeA7HeCFRx8WNU1Y8x6hbKRq
MGgxCzAJBgNVBAYTAlVTMRMwEQYDVQQIEwpDYWxpZm9ybmlhMRMwEQYDVQQHEwpN
ZW5sbyBQYXJrMQ0wCwYDVQQKEwRwa2c1MQwwCgYDVQQDEwN0YTMxEjAQBgkqhkiG
9w0BCQEWA3RhM4IJAJgpjTih59ECMA8GA1UdEwEB/wQFMAMBAf8wDQYJKoZIhvcN
AQELBQADgYEACSjWEMbenWbBqdSDU9m6J6FkrinCB0IztDwd4YwKyDiYyInYmCZB
dVaw+jDTuK2fR3sj7NqZ/4+nGFZDE7/uGQ/YcMf+TgscVOSv1QFyqBleIe0XkKH+
UXTGuimJ4nQW36iJerPOUF+dmed2wJg4A8Klu4i9V7xNWc7N4MatPCw=
-----END CERTIFICATE-----
