Certificate:
    Data:
        Version: 3 (0x2)
        Serial Number: 23 (0x17)
        Signature Algorithm: sha256WithRSAEncryption
        Issuer: C=US, ST=California, L=Menlo Park, O=pkg5, CN=ta4/emailAddress=ta4
        Validity
            Not Before: Aug  4 20:59:28 2010 GMT
            Not After : Apr 30 20:59:28 2013 GMT
        Subject: C=US, ST=California, L=Menlo Park, O=pkg5, CN=pubCA1_ta4/emailAddress=pubCA1_ta4
        Subject Public Key Info:
            Public Key Algorithm: rsaEncryption
            RSA Public Key: (1024 bit)
                Modulus (1024 bit):
                    00:b4:f4:b1:9f:49:97:92:18:a9:fa:94:37:f9:45:
                    5f:31:c4:2d:f6:19:fe:9a:ac:4d:bb:da:7d:99:0c:
                    e1:f0:b2:0f:9b:b8:c5:ba:58:f8:3e:52:7d:83:17:
                    c2:7a:f9:ae:f6:26:75:9f:17:9a:8a:0b:a0:2c:38:
                    d4:fc:ac:02:7f:1b:2e:c9:92:da:79:21:10:5b:7c:
                    56:3c:de:7e:64:52:73:42:5c:1b:44:94:8b:16:de:
                    ab:eb:b3:6d:8a:41:11:c7:7e:06:93:fa:a6:9b:00:
                    1d:ec:d4:cd:07:69:46:4b:7e:60:7f:4b:93:f6:8d:
                    c5:07:fe:0b:44:a8:3c:db:a5
                Exponent: 65537 (0x10001)
        X509v3 extensions:
            X509v3 Subject Key Identifier: 
                EE:8D:78:53:11:FE:07:CB:C8:55:4B:EF:A6:2F:E1:83:72:BB:BA:21
            X509v3 Authority Key Identifier: 
                keyid:FE:14:53:EF:9C:0B:AB:ED:96:22:70:11:C2:E6:7D:2E:40:B7:7F:B5
                DirName:/C=US/ST=California/L=Menlo Park/O=pkg5/CN=ta4/emailAddress=ta4
                serial:C0:C8:77:B4:4C:49:4F:AB

            X509v3 Basic Constraints: critical
                CA:TRUE
    Signature Algorithm: sha256WithRSAEncryption
        5c:2c:f2:7c:8d:72:aa:d1:e2:20:a2:c6:76:84:44:b9:6e:54:
        2c:39:95:99:a9:50:bb:1c:b9:9e:8e:04:92:b5:b6:95:17:92:
        a8:0b:09:3e:f5:5a:10:99:5a:27:2f:0f:03:4b:ea:bd:2b:bb:
        b5:1e:51:5b:2f:7f:67:15:88:4a:e0:38:53:50:91:8c:4f:fb:
        38:bd:52:43:37:19:3f:5b:c0:db:ed:68:90:a7:6e:28:82:2b:
        6a:a3:08:01:23:4b:1b:3e:b0:4e:02:a6:9b:6f:f4:57:c9:41:
        7d:66:d9:00:c1:8d:1c:73:96:01:61:b6:92:2b:ac:e8:42:8f:
        79:29
-----BEGIN CERTIFICATE-----
MIIDJTCCAo6gAwIBAgIBFzANBgkqhkiG9w0BAQsFADBoMQswCQYDVQQGEwJVUzET
MBEGA1UECBMKQ2FsaWZvcm5pYTETMBEGA1UEBxMKTWVubG8gUGFyazENMAsGA1UE
ChMEcGtnNTEMMAoGA1UEAxMDdGE0MRIwEAYJKoZIhvcNAQkBFgN0YTQwHhcNMTAw
ODA0MjA1OTI4WhcNMTMwNDMwMjA1OTI4WjB2MQswCQYDVQQGEwJVUzETMBEGA1UE
CBMKQ2FsaWZvcm5pYTETMBEGA1UEBxMKTWVubG8gUGFyazENMAsGA1UEChMEcGtn
NTETMBEGA1UEAxQKcHViQ0ExX3RhNDEZMBcGCSqGSIb3DQEJARYKcHViQ0ExX3Rh
NDCBnzANBgkqhkiG9w0BAQEFAAOBjQAwgYkCgYEAtPSxn0mXkhip+pQ3+UVfMcQt
9hn+mqxNu9p9mQzh8LIPm7jFulj4PlJ9gxfCevmu9iZ1nxeaigugLDjU/KwCfxsu
yZLaeSEQW3xWPN5+ZFJzQlwbRJSLFt6r67NtikERx34Gk/qmmwAd7NTNB2lGS35g
f0uT9o3FB/4LRKg826UCAwEAAaOB0DCBzTAdBgNVHQ4EFgQU7o14UxH+B8vIVUvv
pi/hg3K7uiEwgZoGA1UdIwSBkjCBj4AU/hRT75wLq+2WInARwuZ9LkC3f7WhbKRq
MGgxCzAJBgNVBAYTAlVTMRMwEQYDVQQIEwpDYWxpZm9ybmlhMRMwEQYDVQQHEwpN
ZW5sbyBQYXJrMQ0wCwYDVQQKEwRwa2c1MQwwCgYDVQQDEwN0YTQxEjAQBgkqhkiG
9w0BCQEWA3RhNIIJAMDId7RMSU+rMA8GA1UdEwEB/wQFMAMBAf8wDQYJKoZIhvcN
AQELBQADgYEAXCzyfI1yqtHiIKLGdoREuW5ULDmVmalQuxy5no4EkrW2lReSqAsJ
PvVaEJlaJy8PA0vqvSu7tR5RWy9/ZxWISuA4U1CRjE/7OL1SQzcZP1vA2+1okKdu
KIIraqMIASNLGz6wTgKmm2/0V8lBfWbZAMGNHHOWAWG2kius6EKPeSk=
-----END CERTIFICATE-----
