Certificate:
    Data:
        Version: 3 (0x2)
        Serial Number:
            86:f1:45:12:31:c7:2b:2a
        Signature Algorithm: sha256WithRSAEncryption
        Issuer: C=US, ST=California, L=Menlo Park, O=pkg5, OU=ta10, CN=localhost/emailAddress=ta10
        Validity
            Not Before: Apr 11 22:37:55 2011 GMT
            Not After : Jan  5 22:37:55 2014 GMT
        Subject: C=US, ST=California, L=Menlo Park, O=pkg5, OU=ta10, CN=localhost/emailAddress=ta10
        Subject Public Key Info:
            Public Key Algorithm: rsaEncryption
            RSA Public Key: (1024 bit)
                Modulus (1024 bit):
                    00:b6:50:43:73:64:12:40:26:54:0c:f9:67:e4:6a:
                    ed:1f:18:e5:73:89:13:0f:c9:5f:6e:6e:c6:05:ad:
                    2c:be:e4:6b:fd:c6:4f:ea:f3:6f:0d:f4:1a:34:7f:
                    03:97:b0:a4:d1:6e:98:d2:36:fa:33:5d:51:37:de:
                    8f:5b:3d:a0:07:52:c8:b7:71:30:71:fb:c3:a7:fa:
                    61:f6:b4:28:be:9e:da:8b:8b:70:dd:8e:d0:a5:1a:
                    00:70:1c:39:e1:cf:64:f8:ec:b4:83:b9:2b:67:fa:
                    4d:ae:30:84:2f:2c:9d:6c:77:7e:09:95:43:77:6b:
                    e1:9d:2b:c9:89:d9:a9:e5:8f
                Exponent: 65537 (0x10001)
        X509v3 extensions:
            X509v3 Subject Key Identifier: 
                B7:F0:DB:5F:BA:CC:10:6D:A6:64:62:10:84:A5:C9:39:4C:3C:27:86
            X509v3 Authority Key Identifier: 
                keyid:B7:F0:DB:5F:BA:CC:10:6D:A6:64:62:10:84:A5:C9:39:4C:3C:27:86
                DirName:/C=US/ST=California/L=Menlo Park/O=pkg5/OU=ta10/CN=localhost/emailAddress=ta10
                serial:86:F1:45:12:31:C7:2B:2A

            X509v3 Basic Constraints: 
                CA:TRUE
    Signature Algorithm: sha256WithRSAEncryption
        5b:6d:71:b8:4e:e3:27:06:d9:2a:47:ab:21:a3:df:94:a9:d8:
        62:f1:6a:97:33:cc:1c:52:55:9a:f8:ec:6d:b4:91:17:4d:2a:
        0e:03:b4:4b:00:83:10:8e:12:c1:05:67:56:9a:30:90:91:ad:
        8b:dc:0a:eb:3f:28:5d:f9:d4:87:0d:f7:3a:5a:f6:47:52:9e:
        af:4e:21:d4:2f:b8:40:4f:7f:81:1f:93:ca:bc:e6:04:c5:18:
        65:5e:b1:dd:0b:3c:5e:3a:6f:48:e3:fc:b2:c8:37:8d:9f:14:
        1b:a7:12:79:bb:2d:b9:fc:7a:01:ef:66:c6:d4:c2:44:01:49:
        23:a9
-----BEGIN CERTIFICATE-----
MIIDYDCCAsmgAwIBAgIJAIbxRRIxxysqMA0GCSqGSIb3DQEBCwUAMH4xCzAJBgNV
BAYTAlVTMRMwEQYDVQQIEwpDYWxpZm9ybmlhMRMwEQYDVQQHEwpNZW5sbyBQYXJr
MQ0wCwYDVQQKEwRwa2c1MQ0wCwYDVQQLEwR0YTEwMRIwEAYDVQQDEwlsb2NhbGhv
c3QxEzARBgkqhkiG9w0BCQEWBHRhMTAwHhcNMTEwNDExMjIzNzU1WhcNMTQwMTA1
MjIzNzU1WjB+MQswCQYDVQQGEwJVUzETMBEGA1UECBMKQ2FsaWZvcm5pYTETMBEG
A1UEBxMKTWVubG8gUGFyazENMAsGA1UEChMEcGtnNTENMAsGA1UECxMEdGExMDES
MBAGA1UEAxMJbG9jYWxob3N0MRMwEQYJKoZIhvcNAQkBFgR0YTEwMIGfMA0GCSqG
SIb3DQEBAQUAA4GNADCBiQKBgQC2UENzZBJAJlQM+Wfkau0fGOVziRMPyV9ubsYF
rSy+5Gv9xk/q828N9Bo0fwOXsKTRbpjSNvozXVE33o9bPaAHUsi3cTBx+8On+mH2
tCi+ntqLi3DdjtClGgBwHDnhz2T47LSDuStn+k2uMIQvLJ1sd34JlUN3a+GdK8mJ
2anljwIDAQABo4HlMIHiMB0GA1UdDgQWBBS38NtfuswQbaZkYhCEpck5TDwnhjCB
sgYDVR0jBIGqMIGngBS38NtfuswQbaZkYhCEpck5TDwnhqGBg6SBgDB+MQswCQYD
VQQGEwJVUzETMBEGA1UECBMKQ2FsaWZvcm5pYTETMBEGA1UEBxMKTWVubG8gUGFy
azENMAsGA1UEChMEcGtnNTENMAsGA1UECxMEdGExMDESMBAGA1UEAxMJbG9jYWxo
b3N0MRMwEQYJKoZIhvcNAQkBFgR0YTEwggkAhvFFEjHHKyowDAYDVR0TBAUwAwEB
/zANBgkqhkiG9w0BAQsFAAOBgQBbbXG4TuMnBtkqR6sho9+Uqdhi8WqXM8wcUlWa
+OxttJEXTSoOA7RLAIMQjhLBBWdWmjCQka2L3ArrPyhd+dSHDfc6WvZHUp6vTiHU
L7hAT3+BH5PKvOYExRhlXrHdCzxeOm9I4/yyyDeNnxQbpxJ5uy25/HoB72bG1MJE
AUkjqQ==
-----END CERTIFICATE-----
