Certificate:
    Data:
        Version: 3 (0x2)
        Serial Number: 9711796497956498587 (0x86c73b75a7946c9b)
    Signature Algorithm: sha256WithRSAEncryption
        Issuer: C=US, ST=California, L=Santa Clara, O=pkg5, OU=ta10, CN=localhost/emailAddress=ta10
        Validity
            Not Before: Dec 13 00:13:39 2013 GMT
            Not After : Sep  8 00:13:39 2016 GMT
        Subject: C=US, ST=California, L=Santa Clara, O=pkg5, OU=ta10, CN=localhost/emailAddress=ta10
        Subject Public Key Info:
            Public Key Algorithm: rsaEncryption
                Public-Key: (1024 bit)
                Modulus:
                    00:ab:08:de:44:e1:7d:cf:87:e5:0d:f9:b6:66:79:
                    45:4b:18:3f:c4:c3:bc:3c:4e:10:1c:23:36:0b:17:
                    8e:53:e9:1d:52:c0:d3:78:ce:74:30:13:d9:3e:98:
                    8e:08:94:fe:76:94:55:7a:d9:73:87:01:5e:dd:c7:
                    7b:5e:56:94:a6:5d:e6:8a:ab:22:03:cf:e1:7a:1c:
                    7e:fb:16:c2:7c:f4:a3:6c:46:28:0b:15:15:e9:92:
                    4f:50:a3:e3:04:25:91:6d:d0:71:2f:66:b3:20:64:
                    db:f1:60:8d:3f:52:94:13:f1:f1:00:93:0b:20:be:
                    f3:98:7d:c8:58:e3:f0:e9:c5
                Exponent: 65537 (0x10001)
        X509v3 extensions:
            X509v3 Subject Key Identifier: 
                61:D2:DF:69:D2:65:98:6E:36:8B:4E:A5:34:33:A7:EF:84:5D:DE:F4
            X509v3 Authority Key Identifier: 
                keyid:61:D2:DF:69:D2:65:98:6E:36:8B:4E:A5:34:33:A7:EF:84:5D:DE:F4

            X509v3 Basic Constraints: 
                CA:TRUE
    Signature Algorithm: sha256WithRSAEncryption
         48:43:2e:21:5e:c5:85:b1:97:37:72:7a:4a:a3:c0:db:5f:c4:
         42:51:d0:3e:f5:20:43:f6:72:61:b3:fb:8f:13:71:36:0e:8e:
         33:8c:14:7d:c2:39:ed:36:a9:55:db:bd:24:de:96:2c:b2:61:
         d5:95:36:97:e4:b6:17:d3:a5:6c:8c:96:1a:89:54:ab:43:f0:
         76:b1:f6:f1:4a:0d:69:79:ea:95:38:76:c8:5b:cc:99:ca:ba:
         0d:71:7d:0f:d0:31:8c:94:a9:2d:7b:91:56:98:a1:ea:75:08:
         ea:fe:03:e0:23:09:32:00:88:1e:83:f6:fe:df:40:3c:78:25:
         ae:e5
-----BEGIN CERTIFICATE-----
MIICzDCCAjWgAwIBAgIJAIbHO3WnlGybMA0GCSqGSIb3DQEBCwUAMH8xCzAJBgNV
BAYTAlVTMRMwEQYDVQQIDApDYWxpZm9ybmlhMRQwEgYDVQQHDAtTYW50YSBDbGFy
YTENMAsGA1UECgwEcGtnNTENMAsGA1UECwwEdGExMDESMBAGA1UEAwwJbG9jYWxo
b3N0MRMwEQYJKoZIhvcNAQkBFgR0YTEwMB4XDTEzMTIxMzAwMTMzOVoXDTE2MDkw
ODAwMTMzOVowfzELMAkGA1UEBhMCVVMxEzARBgNVBAgMCkNhbGlmb3JuaWExFDAS
BgNVBAcMC1NhbnRhIENsYXJhMQ0wCwYDVQQKDARwa2c1MQ0wCwYDVQQLDAR0YTEw
MRIwEAYDVQQDDAlsb2NhbGhvc3QxEzARBgkqhkiG9w0BCQEWBHRhMTAwgZ8wDQYJ
KoZIhvcNAQEBBQADgY0AMIGJAoGBAKsI3kThfc+H5Q35tmZ5RUsYP8TDvDxOEBwj
NgsXjlPpHVLA03jOdDAT2T6YjgiU/naUVXrZc4cBXt3He15WlKZd5oqrIgPP4Xoc
fvsWwnz0o2xGKAsVFemST1Cj4wQlkW3QcS9msyBk2/FgjT9SlBPx8QCTCyC+85h9
yFjj8OnFAgMBAAGjUDBOMB0GA1UdDgQWBBRh0t9p0mWYbjaLTqU0M6fvhF3e9DAf
BgNVHSMEGDAWgBRh0t9p0mWYbjaLTqU0M6fvhF3e9DAMBgNVHRMEBTADAQH/MA0G
CSqGSIb3DQEBCwUAA4GBAEhDLiFexYWxlzdyekqjwNtfxEJR0D71IEP2cmGz+48T
cTYOjjOMFH3COe02qVXbvSTeliyyYdWVNpfkthfTpWyMlhqJVKtD8Hax9vFKDWl5
6pU4dshbzJnKug1xfQ/QMYyUqS17kVaYoep1COr+A+AjCTIAiB6D9v7fQDx4Ja7l
-----END CERTIFICATE-----
