Certificate:
    Data:
        Version: 3 (0x2)
        Serial Number:
            4d:a6:fa:56:c0:90:95:3b:57:3a:14:27:c7:13:76:d1:64:07:4f:0f
        Signature Algorithm: sha256WithRSAEncryption
        Issuer: C = US, ST = California, L = Santa Clara, O = pkg5, OU = ta10, CN = localhost, emailAddress = ta10
        Validity
            Not Before: Mar 18 08:51:49 2026 GMT
            Not After : Dec 12 08:51:49 2028 GMT
        Subject: C = US, ST = California, L = Santa Clara, O = pkg5, OU = ta10, CN = localhost, emailAddress = ta10
        Subject Public Key Info:
            Public Key Algorithm: rsaEncryption
                Public-Key: (2048 bit)
                Modulus:
                    00:d4:06:cc:c6:0c:bf:05:7c:bd:d4:da:87:b1:3f:
                    b2:0d:4c:58:48:c7:b1:ce:1b:6f:9f:ea:dc:23:46:
                    5e:80:87:41:fa:63:c3:24:c4:f5:52:fa:f7:bd:27:
                    e3:7c:77:31:5e:09:da:5c:ab:88:8a:12:d7:d8:21:
                    c8:e7:53:7e:5e:82:a3:66:18:fe:80:8f:ec:c2:54:
                    48:11:d5:d2:34:3d:58:45:6b:85:cd:d4:cc:a7:a5:
                    cd:e6:cb:12:12:45:93:bd:58:60:8f:3d:e6:cf:21:
                    f3:b9:5e:2f:1d:b3:ba:52:fd:51:a3:8f:13:ac:c8:
                    00:f2:04:4b:2c:45:55:1c:54:20:d3:38:ea:d3:4e:
                    91:53:87:1e:a5:ee:91:b0:5a:81:ab:d6:0e:8e:48:
                    42:66:75:51:c4:c8:b7:cc:e3:35:a7:4e:8b:b7:fa:
                    f5:cb:c9:6a:5e:3e:f3:90:7c:3f:ae:2b:3a:c6:66:
                    f1:2d:a7:2a:7e:44:d9:18:c3:59:6f:27:04:de:ea:
                    1f:7c:01:5f:15:3a:a3:ed:8b:8c:f2:e7:ca:a5:9f:
                    a4:05:4e:9f:f9:d5:c2:82:ea:8c:b9:ab:fe:63:69:
                    b3:ca:ea:5a:94:46:a4:a1:54:45:ca:e2:a6:e2:e5:
                    d3:fc:f5:f8:d7:a1:fb:9d:1f:fa:23:f0:09:3b:53:
                    ba:f1
                Exponent: 65537 (0x10001)
        X509v3 extensions:
            X509v3 Subject Key Identifier: 
                9C:77:50:9D:21:AD:40:6D:4E:94:A4:55:B0:89:EF:1C:E6:CA:9C:00
            X509v3 Authority Key Identifier: 
                9C:77:50:9D:21:AD:40:6D:4E:94:A4:55:B0:89:EF:1C:E6:CA:9C:00
            X509v3 Basic Constraints: critical
                CA:TRUE
    Signature Algorithm: sha256WithRSAEncryption
    Signature Value:
        c5:24:d0:91:26:fa:fb:2a:ea:85:ad:8e:76:82:d0:a7:2a:34:
        68:a8:e7:16:5c:12:fa:45:95:f3:9c:0a:e3:89:a8:82:87:3c:
        95:1a:02:32:e6:48:8e:13:a5:b4:6b:1c:38:1e:66:6e:ad:6f:
        81:d5:7f:f5:5e:d6:88:df:2a:55:e5:03:93:9d:21:7f:cf:3a:
        47:20:73:ce:f8:ad:57:b3:1e:1f:87:68:12:a4:c9:43:ad:d5:
        fb:65:59:31:1e:88:25:de:f5:3d:41:79:7c:52:45:50:25:35:
        e3:7e:63:85:d3:b3:b4:89:35:e5:45:cb:ab:56:6e:cf:6f:05:
        95:20:02:86:f5:25:59:d9:aa:0c:69:47:8c:1f:f2:9c:ba:a5:
        18:e0:c3:84:a2:95:3b:9f:5b:74:83:cd:c6:6f:d7:6c:0d:2d:
        4b:88:41:03:14:8c:6b:fe:19:29:59:06:46:9c:eb:df:ca:d2:
        1e:7b:37:82:13:eb:09:bf:87:75:f6:97:5b:cd:35:75:00:06:
        0c:9c:7e:c3:5f:50:db:82:ed:d8:a2:58:08:5f:ee:4e:cb:f2:
        26:00:62:64:f3:a3:99:a9:5e:91:9a:92:0c:ce:f7:e5:8c:7f:
        9a:3e:04:68:ea:c8:c3:ff:c0:1d:35:fa:fd:71:fb:6d:6f:4c:
        e6:0a:e4:b1
-----BEGIN CERTIFICATE-----
MIID3zCCAsegAwIBAgIUTab6VsCQlTtXOhQnxxN20WQHTw8wDQYJKoZIhvcNAQEL
BQAwfzELMAkGA1UEBhMCVVMxEzARBgNVBAgMCkNhbGlmb3JuaWExFDASBgNVBAcM
C1NhbnRhIENsYXJhMQ0wCwYDVQQKDARwa2c1MQ0wCwYDVQQLDAR0YTEwMRIwEAYD
VQQDDAlsb2NhbGhvc3QxEzARBgkqhkiG9w0BCQEWBHRhMTAwHhcNMjYwMzE4MDg1
MTQ5WhcNMjgxMjEyMDg1MTQ5WjB/MQswCQYDVQQGEwJVUzETMBEGA1UECAwKQ2Fs
aWZvcm5pYTEUMBIGA1UEBwwLU2FudGEgQ2xhcmExDTALBgNVBAoMBHBrZzUxDTAL
BgNVBAsMBHRhMTAxEjAQBgNVBAMMCWxvY2FsaG9zdDETMBEGCSqGSIb3DQEJARYE
dGExMDCCASIwDQYJKoZIhvcNAQEBBQADggEPADCCAQoCggEBANQGzMYMvwV8vdTa
h7E/sg1MWEjHsc4bb5/q3CNGXoCHQfpjwyTE9VL6970n43x3MV4J2lyriIoS19gh
yOdTfl6Co2YY/oCP7MJUSBHV0jQ9WEVrhc3UzKelzebLEhJFk71YYI895s8h87le
Lx2zulL9UaOPE6zIAPIESyxFVRxUINM46tNOkVOHHqXukbBagavWDo5IQmZ1UcTI
t8zjNadOi7f69cvJal4+85B8P64rOsZm8S2nKn5E2RjDWW8nBN7qH3wBXxU6o+2L
jPLnyqWfpAVOn/nVwoLqjLmr/mNps8rqWpRGpKFURcripuLl0/z1+Neh+50f+iPw
CTtTuvECAwEAAaNTMFEwHQYDVR0OBBYEFJx3UJ0hrUBtTpSkVbCJ7xzmypwAMB8G
A1UdIwQYMBaAFJx3UJ0hrUBtTpSkVbCJ7xzmypwAMA8GA1UdEwEB/wQFMAMBAf8w
DQYJKoZIhvcNAQELBQADggEBAMUk0JEm+vsq6oWtjnaC0KcqNGio5xZcEvpFlfOc
CuOJqIKHPJUaAjLmSI4TpbRrHDgeZm6tb4HVf/Ve1ojfKlXlA5OdIX/POkcgc874
rVezHh+HaBKkyUOt1ftlWTEeiCXe9T1BeXxSRVAlNeN+Y4XTs7SJNeVFy6tWbs9v
BZUgAob1JVnZqgxpR4wf8py6pRjgw4SilTufW3SDzcZv12wNLUuIQQMUjGv+GSlZ
Bkac69/K0h57N4IT6wm/h3X2l1vNNXUABgycfsNfUNuC7diiWAhf7k7L8iYAYmTz
o5mpXpGakgzO9+WMf5o+BGjqyMP/wB01+v1x+21vTOYK5LE=
-----END CERTIFICATE-----
