Certificate:
    Data:
        Version: 3 (0x2)
        Serial Number: 10111560406944601325 (0x8c537a9de4d654ed)
    Signature Algorithm: sha256WithRSAEncryption
        Issuer: C=US, ST=California, L=Santa Clara, O=pkg5, OU=ta11, CN=localhost/emailAddress=ta11
        Validity
            Not Before: Dec 13 00:13:39 2013 GMT
            Not After : Sep  8 00:13:39 2016 GMT
        Subject: C=US, ST=California, L=Santa Clara, O=pkg5, OU=ta11, CN=localhost/emailAddress=ta11
        Subject Public Key Info:
            Public Key Algorithm: rsaEncryption
                Public-Key: (1024 bit)
                Modulus:
                    00:f3:d5:2f:b4:3e:12:ee:e5:01:6a:41:a4:09:1b:
                    12:5f:f3:d5:a2:7e:3c:d8:6f:6f:a7:30:af:72:3d:
                    f4:f4:31:30:94:b9:09:d8:2f:36:ba:12:61:56:8c:
                    87:f9:52:6f:8b:b5:28:d1:23:93:f3:20:d4:b5:2d:
                    ca:29:10:f5:10:7b:ad:d6:ee:de:40:22:d9:10:32:
                    30:93:27:22:6d:87:f9:ed:85:16:c2:6d:da:24:51:
                    db:1a:00:53:2b:65:4a:ce:24:0f:cf:57:f1:c0:51:
                    9e:0c:ac:2f:17:5d:72:c1:f4:8d:83:20:41:d3:10:
                    5f:f2:e0:2d:9f:ec:da:97:7d
                Exponent: 65537 (0x10001)
        X509v3 extensions:
            X509v3 Subject Key Identifier: 
                BD:98:0D:A4:4D:61:87:11:83:C8:53:D1:C9:62:9D:ED:45:61:DD:42
            X509v3 Authority Key Identifier: 
                keyid:BD:98:0D:A4:4D:61:87:11:83:C8:53:D1:C9:62:9D:ED:45:61:DD:42

            X509v3 Basic Constraints: 
                CA:TRUE
    Signature Algorithm: sha256WithRSAEncryption
         36:46:25:95:5e:65:37:e1:c4:14:31:7a:2a:a8:16:c0:bf:77:
         ae:6a:17:f6:f2:dc:7c:0c:84:52:bb:07:4c:cb:1c:4e:80:b3:
         55:74:15:69:40:a2:54:e9:e5:f8:2e:2f:b2:c9:37:ef:3d:7f:
         87:64:02:e3:7c:f2:ec:97:77:b4:63:77:80:c1:61:25:fb:d5:
         e0:26:c1:89:f0:0e:5d:65:d4:ba:d7:55:7b:ce:af:77:55:65:
         96:7a:8d:7d:e5:79:a0:88:13:7a:cf:cf:4e:4d:a8:34:2d:3b:
         f3:b2:44:f9:8b:c9:91:44:36:0f:94:eb:45:dd:2d:03:68:3e:
         38:2e
-----BEGIN CERTIFICATE-----
MIICzDCCAjWgAwIBAgIJAIxTep3k1lTtMA0GCSqGSIb3DQEBCwUAMH8xCzAJBgNV
BAYTAlVTMRMwEQYDVQQIDApDYWxpZm9ybmlhMRQwEgYDVQQHDAtTYW50YSBDbGFy
YTENMAsGA1UECgwEcGtnNTENMAsGA1UECwwEdGExMTESMBAGA1UEAwwJbG9jYWxo
b3N0MRMwEQYJKoZIhvcNAQkBFgR0YTExMB4XDTEzMTIxMzAwMTMzOVoXDTE2MDkw
ODAwMTMzOVowfzELMAkGA1UEBhMCVVMxEzARBgNVBAgMCkNhbGlmb3JuaWExFDAS
BgNVBAcMC1NhbnRhIENsYXJhMQ0wCwYDVQQKDARwa2c1MQ0wCwYDVQQLDAR0YTEx
MRIwEAYDVQQDDAlsb2NhbGhvc3QxEzARBgkqhkiG9w0BCQEWBHRhMTEwgZ8wDQYJ
KoZIhvcNAQEBBQADgY0AMIGJAoGBAPPVL7Q+Eu7lAWpBpAkbEl/z1aJ+PNhvb6cw
r3I99PQxMJS5CdgvNroSYVaMh/lSb4u1KNEjk/Mg1LUtyikQ9RB7rdbu3kAi2RAy
MJMnIm2H+e2FFsJt2iRR2xoAUytlSs4kD89X8cBRngysLxddcsH0jYMgQdMQX/Lg
LZ/s2pd9AgMBAAGjUDBOMB0GA1UdDgQWBBS9mA2kTWGHEYPIU9HJYp3tRWHdQjAf
BgNVHSMEGDAWgBS9mA2kTWGHEYPIU9HJYp3tRWHdQjAMBgNVHRMEBTADAQH/MA0G
CSqGSIb3DQEBCwUAA4GBADZGJZVeZTfhxBQxeiqoFsC/d65qF/by3HwMhFK7B0zL
HE6As1V0FWlAolTp5fguL7LJN+89f4dkAuN88uyXd7Rjd4DBYSX71eAmwYnwDl1l
1LrXVXvOr3dVZZZ6jX3leaCIE3rPz05NqDQtO/OyRPmLyZFENg+U60XdLQNoPjgu
-----END CERTIFICATE-----
