Certificate:
    Data:
        Version: 3 (0x2)
        Serial Number: 11538474728423483423 (0xa020e5a1cd80e81f)
    Signature Algorithm: sha256WithRSAEncryption
        Issuer: C=US, ST=California, L=Santa Clara, O=pkg5, OU=ta11, CN=localhost/emailAddress=ta11
        Validity
            Not Before: Jan 22 01:58:02 2016 GMT
            Not After : Oct 18 01:58:02 2018 GMT
        Subject: C=US, ST=California, L=Santa Clara, O=pkg5, OU=ta11, CN=localhost/emailAddress=ta11
        Subject Public Key Info:
            Public Key Algorithm: rsaEncryption
                Public-Key: (2048 bit)
                Modulus:
                    00:d4:7c:eb:92:70:fd:12:c6:4a:82:f7:e8:7b:29:
                    75:fc:49:79:29:3f:82:26:5e:8f:f9:b2:ee:6a:a2:
                    9b:75:40:f3:3e:91:54:ca:a3:35:04:50:bf:88:03:
                    fe:dd:5d:b1:ba:95:c1:27:b7:26:88:e9:33:e6:c1:
                    45:bc:d3:a9:0a:2d:48:7a:eb:54:db:11:94:32:89:
                    52:e6:be:d1:bd:71:aa:1e:e5:e4:fc:78:46:6b:a9:
                    78:74:d5:a6:d5:2b:1a:38:3b:f9:95:8b:85:c4:07:
                    07:31:95:95:98:6a:5d:42:64:38:21:14:de:ca:49:
                    5d:f3:11:e3:09:26:ab:22:be:ba:68:8d:48:39:af:
                    db:9b:8d:30:d9:1d:65:12:e0:4d:ed:35:5b:93:12:
                    53:1d:33:58:e9:77:b4:b8:5b:ea:39:6c:9c:94:eb:
                    02:55:41:15:2c:e5:7c:f6:5c:10:89:dc:83:15:99:
                    17:bb:ee:0d:64:f1:6a:f8:9c:3b:14:bd:45:d6:0b:
                    2a:e6:ee:a9:b8:47:31:c1:a8:5e:0d:13:90:77:8a:
                    eb:e5:3a:f3:e3:0b:9f:95:7f:8d:ea:35:e1:b7:22:
                    02:4e:44:d4:eb:6c:37:82:f2:20:ed:3a:3b:48:be:
                    f7:77:d9:9f:7f:3f:0e:5b:1b:d3:d1:b1:5c:4c:c5:
                    5d:7b
                Exponent: 65537 (0x10001)
        X509v3 extensions:
            X509v3 Subject Key Identifier: 
                EC:2A:27:F4:D2:31:C8:60:E5:32:AC:BC:13:50:27:6E:E4:59:F9:3C
            X509v3 Authority Key Identifier: 
                keyid:EC:2A:27:F4:D2:31:C8:60:E5:32:AC:BC:13:50:27:6E:E4:59:F9:3C

            X509v3 Basic Constraints: 
                CA:TRUE
    Signature Algorithm: sha256WithRSAEncryption
         8b:e3:71:05:f5:33:69:fd:f9:97:c0:a9:3c:8e:33:9c:2a:03:
         1f:0a:5c:62:f5:3a:48:9a:cd:49:6f:18:29:bf:69:94:d0:94:
         64:e2:99:8a:c4:28:88:b0:31:bb:85:f2:35:8a:c8:85:84:9a:
         45:87:78:bc:1e:ff:0c:f1:d8:dd:16:3e:65:ae:f7:10:48:21:
         6c:b7:d1:95:db:ef:5f:33:23:8d:3d:4b:cb:4a:af:91:31:ee:
         d1:62:ee:85:e0:fa:48:bf:bf:22:fe:1d:50:ea:12:d6:1e:ad:
         56:40:85:ab:ce:02:a1:2e:7c:ce:ff:8b:45:b4:78:53:d2:a5:
         73:72:7c:3a:81:d7:d3:9e:1b:e6:22:14:53:28:f9:c9:bc:02:
         14:8b:45:1c:16:9e:43:b4:8b:8c:23:89:79:2f:81:70:56:6e:
         58:4a:7f:77:6b:b0:ec:0b:5d:15:ff:12:ce:94:55:eb:23:08:
         3d:0f:90:68:be:c8:85:f8:9e:fb:fe:4b:c1:5f:8b:36:ae:31:
         56:cb:ed:0c:88:df:d0:dc:9b:62:e9:68:3f:39:6f:17:e3:2a:
         eb:3c:85:f0:90:b6:d5:54:90:17:16:b1:7c:30:88:1c:91:83:
         fc:81:3f:77:26:3d:af:48:11:34:19:6a:f7:83:fb:47:a4:2e:
         f0:a8:e2:c6
-----BEGIN CERTIFICATE-----
MIID0TCCArmgAwIBAgIJAKAg5aHNgOgfMA0GCSqGSIb3DQEBCwUAMH8xCzAJBgNV
BAYTAlVTMRMwEQYDVQQIDApDYWxpZm9ybmlhMRQwEgYDVQQHDAtTYW50YSBDbGFy
YTENMAsGA1UECgwEcGtnNTENMAsGA1UECwwEdGExMTESMBAGA1UEAwwJbG9jYWxo
b3N0MRMwEQYJKoZIhvcNAQkBFgR0YTExMB4XDTE2MDEyMjAxNTgwMloXDTE4MTAx
ODAxNTgwMlowfzELMAkGA1UEBhMCVVMxEzARBgNVBAgMCkNhbGlmb3JuaWExFDAS
BgNVBAcMC1NhbnRhIENsYXJhMQ0wCwYDVQQKDARwa2c1MQ0wCwYDVQQLDAR0YTEx
MRIwEAYDVQQDDAlsb2NhbGhvc3QxEzARBgkqhkiG9w0BCQEWBHRhMTEwggEiMA0G
CSqGSIb3DQEBAQUAA4IBDwAwggEKAoIBAQDUfOuScP0SxkqC9+h7KXX8SXkpP4Im
Xo/5su5qopt1QPM+kVTKozUEUL+IA/7dXbG6lcEntyaI6TPmwUW806kKLUh661Tb
EZQyiVLmvtG9caoe5eT8eEZrqXh01abVKxo4O/mVi4XEBwcxlZWYal1CZDghFN7K
SV3zEeMJJqsivrpojUg5r9ubjTDZHWUS4E3tNVuTElMdM1jpd7S4W+o5bJyU6wJV
QRUs5Xz2XBCJ3IMVmRe77g1k8Wr4nDsUvUXWCyrm7qm4RzHBqF4NE5B3iuvlOvPj
C5+Vf43qNeG3IgJORNTrbDeC8iDtOjtIvvd32Z9/Pw5bG9PRsVxMxV17AgMBAAGj
UDBOMB0GA1UdDgQWBBTsKif00jHIYOUyrLwTUCdu5Fn5PDAfBgNVHSMEGDAWgBTs
Kif00jHIYOUyrLwTUCdu5Fn5PDAMBgNVHRMEBTADAQH/MA0GCSqGSIb3DQEBCwUA
A4IBAQCL43EF9TNp/fmXwKk8jjOcKgMfClxi9TpIms1Jbxgpv2mU0JRk4pmKxCiI
sDG7hfI1isiFhJpFh3i8Hv8M8djdFj5lrvcQSCFst9GV2+9fMyONPUvLSq+RMe7R
Yu6F4PpIv78i/h1Q6hLWHq1WQIWrzgKhLnzO/4tFtHhT0qVzcnw6gdfTnhvmIhRT
KPnJvAIUi0UcFp5DtIuMI4l5L4FwVm5YSn93a7DsC10V/xLOlFXrIwg9D5BovsiF
+J77/kvBX4s2rjFWy+0MiN/Q3Jti6Wg/OW8X4yrrPIXwkLbVVJAXFrF8MIgckYP8
gT93Jj2vSBE0GWr3g/tHpC7wqOLG
-----END CERTIFICATE-----
