Certificate:
    Data:
        Version: 3 (0x2)
        Serial Number:
            d7:f1:84:58:4b:42:ce:33
        Signature Algorithm: sha256WithRSAEncryption
        Issuer: C=US, ST=California, L=Menlo Park, O=pkg5, OU=ta11, CN=localhost/emailAddress=ta11
        Validity
            Not Before: Apr 11 22:37:55 2011 GMT
            Not After : Jan  5 22:37:55 2014 GMT
        Subject: C=US, ST=California, L=Menlo Park, O=pkg5, OU=ta11, CN=localhost/emailAddress=ta11
        Subject Public Key Info:
            Public Key Algorithm: rsaEncryption
            RSA Public Key: (1024 bit)
                Modulus (1024 bit):
                    00:a3:c5:d4:23:f8:e8:a4:02:1f:38:cd:53:dc:7c:
                    e8:3c:49:bd:14:c1:c7:a2:b7:00:7a:d2:d1:c8:01:
                    7c:9b:f7:78:50:95:07:69:90:a0:7a:25:0f:55:55:
                    f7:b2:33:ae:ae:66:64:5c:4c:86:66:e0:28:e2:63:
                    8c:11:5f:ee:a4:af:77:86:c2:c0:18:0d:24:18:5f:
                    26:ff:67:cc:f4:f9:7d:0c:e7:d7:0c:01:e8:85:57:
                    f4:a8:d8:2c:f1:ec:2f:c7:8c:34:d4:3d:d3:1b:5c:
                    2d:44:bd:d1:a6:35:d2:21:36:f9:31:ac:24:cb:ec:
                    7b:70:c8:10:97:c8:8e:37:19
                Exponent: 65537 (0x10001)
        X509v3 extensions:
            X509v3 Subject Key Identifier: 
                CE:A0:CF:69:A4:17:A0:54:BE:C3:CB:28:70:86:6A:BD:3B:DE:E4:CC
            X509v3 Authority Key Identifier: 
                keyid:CE:A0:CF:69:A4:17:A0:54:BE:C3:CB:28:70:86:6A:BD:3B:DE:E4:CC
                DirName:/C=US/ST=California/L=Menlo Park/O=pkg5/OU=ta11/CN=localhost/emailAddress=ta11
                serial:D7:F1:84:58:4B:42:CE:33

            X509v3 Basic Constraints: 
                CA:TRUE
    Signature Algorithm: sha256WithRSAEncryption
        89:34:9b:f9:55:53:63:83:82:0e:d0:f1:e5:0c:e3:4e:4b:2f:
        54:20:2b:70:00:56:08:b4:18:88:59:e2:66:3e:5c:b6:0a:74:
        16:bc:43:61:35:1e:df:e5:f6:f6:7e:de:87:18:61:b7:70:b0:
        93:e8:5a:19:1d:01:a7:43:ca:38:ea:d2:e2:75:0e:3e:d2:b5:
        91:57:1e:30:29:aa:2a:26:53:1b:9e:56:ad:61:41:3c:04:bb:
        a5:af:da:75:63:5e:bb:31:21:f9:4c:dc:d0:c2:4c:90:07:45:
        ed:32:0d:c0:c8:e9:6f:72:b5:ae:19:f2:88:9e:50:5c:5a:34:
        47:a9
-----BEGIN CERTIFICATE-----
MIIDYDCCAsmgAwIBAgIJANfxhFhLQs4zMA0GCSqGSIb3DQEBCwUAMH4xCzAJBgNV
BAYTAlVTMRMwEQYDVQQIEwpDYWxpZm9ybmlhMRMwEQYDVQQHEwpNZW5sbyBQYXJr
MQ0wCwYDVQQKEwRwa2c1MQ0wCwYDVQQLEwR0YTExMRIwEAYDVQQDEwlsb2NhbGhv
c3QxEzARBgkqhkiG9w0BCQEWBHRhMTEwHhcNMTEwNDExMjIzNzU1WhcNMTQwMTA1
MjIzNzU1WjB+MQswCQYDVQQGEwJVUzETMBEGA1UECBMKQ2FsaWZvcm5pYTETMBEG
A1UEBxMKTWVubG8gUGFyazENMAsGA1UEChMEcGtnNTENMAsGA1UECxMEdGExMTES
MBAGA1UEAxMJbG9jYWxob3N0MRMwEQYJKoZIhvcNAQkBFgR0YTExMIGfMA0GCSqG
SIb3DQEBAQUAA4GNADCBiQKBgQCjxdQj+OikAh84zVPcfOg8Sb0UwceitwB60tHI
AXyb93hQlQdpkKB6JQ9VVfeyM66uZmRcTIZm4CjiY4wRX+6kr3eGwsAYDSQYXyb/
Z8z0+X0M59cMAeiFV/So2Czx7C/HjDTUPdMbXC1EvdGmNdIhNvkxrCTL7HtwyBCX
yI43GQIDAQABo4HlMIHiMB0GA1UdDgQWBBTOoM9ppBegVL7Dyyhwhmq9O97kzDCB
sgYDVR0jBIGqMIGngBTOoM9ppBegVL7Dyyhwhmq9O97kzKGBg6SBgDB+MQswCQYD
VQQGEwJVUzETMBEGA1UECBMKQ2FsaWZvcm5pYTETMBEGA1UEBxMKTWVubG8gUGFy
azENMAsGA1UEChMEcGtnNTENMAsGA1UECxMEdGExMTESMBAGA1UEAxMJbG9jYWxo
b3N0MRMwEQYJKoZIhvcNAQkBFgR0YTExggkA1/GEWEtCzjMwDAYDVR0TBAUwAwEB
/zANBgkqhkiG9w0BAQsFAAOBgQCJNJv5VVNjg4IO0PHlDONOSy9UICtwAFYItBiI
WeJmPly2CnQWvENhNR7f5fb2ft6HGGG3cLCT6FoZHQGnQ8o46tLidQ4+0rWRVx4w
KaoqJlMbnlatYUE8BLulr9p1Y167MSH5TNzQwkyQB0XtMg3AyOlvcrWuGfKInlBc
WjRHqQ==
-----END CERTIFICATE-----
