Certificate:
    Data:
        Version: 3 (0x2)
        Serial Number: 17773656435948586063 (0xf6a8b65c108d044f)
    Signature Algorithm: sha256WithRSAEncryption
        Issuer: C=US, ST=California, L=Santa Clara, O=pkg5, CN=ta1/emailAddress=ta1
        Validity
            Not Before: Dec 13 00:13:33 2013 GMT
            Not After : Sep  8 00:13:33 2016 GMT
        Subject: C=US, ST=California, L=Santa Clara, O=pkg5, CN=ta1/emailAddress=ta1
        Subject Public Key Info:
            Public Key Algorithm: rsaEncryption
                Public-Key: (1024 bit)
                Modulus:
                    00:c1:11:20:95:9b:6a:49:f5:e0:b3:80:97:37:02:
                    fc:6f:99:6d:70:67:a1:47:66:cf:f7:24:58:55:c8:
                    88:e4:da:89:a8:fc:97:f1:6c:fc:44:60:6b:5c:71:
                    d7:84:22:16:a4:09:77:fb:a3:af:10:24:7b:13:03:
                    b6:b9:c8:f0:03:00:74:a2:ca:10:9f:ad:17:32:e8:
                    cb:fa:56:c1:fa:0c:3f:43:5a:36:ee:6b:94:12:94:
                    48:a9:d9:1c:37:5c:76:6d:d5:ad:6f:37:ad:9f:88:
                    78:50:92:59:d6:4f:2a:22:ba:a5:ec:29:c7:3e:b5:
                    41:9e:ce:9b:9e:9e:d8:58:f7
                Exponent: 65537 (0x10001)
        X509v3 extensions:
            X509v3 Subject Key Identifier: 
                81:54:6B:06:08:DD:44:4F:08:81:21:7A:7C:D5:96:EA:53:2B:E3:0A
            X509v3 Authority Key Identifier: 
                keyid:81:54:6B:06:08:DD:44:4F:08:81:21:7A:7C:D5:96:EA:53:2B:E3:0A

            X509v3 Basic Constraints: 
                CA:TRUE
    Signature Algorithm: sha256WithRSAEncryption
         94:f7:77:15:8b:2a:ab:eb:9a:7f:a2:7d:d9:5b:be:6d:bc:e2:
         49:bf:7d:16:36:0a:72:24:be:72:af:59:2f:9a:cc:d2:da:74:
         fc:03:f5:9e:c2:e8:a4:ea:99:90:30:7e:b2:b0:6f:b6:fe:af:
         fd:d6:f0:51:50:52:99:d2:0c:dc:88:4a:54:3c:09:93:9b:83:
         82:84:64:78:d7:d9:00:90:ee:01:9c:69:05:34:c1:2d:b3:46:
         da:9b:3a:47:65:76:68:63:6c:3d:cb:47:cc:71:05:f2:22:6b:
         bd:66:0b:6a:90:45:5f:60:11:4c:7e:11:32:8c:8b:ec:70:c6:
         f6:b4
-----BEGIN CERTIFICATE-----
MIICoDCCAgmgAwIBAgIJAPaotlwQjQRPMA0GCSqGSIb3DQEBCwUAMGkxCzAJBgNV
BAYTAlVTMRMwEQYDVQQIDApDYWxpZm9ybmlhMRQwEgYDVQQHDAtTYW50YSBDbGFy
YTENMAsGA1UECgwEcGtnNTEMMAoGA1UEAwwDdGExMRIwEAYJKoZIhvcNAQkBFgN0
YTEwHhcNMTMxMjEzMDAxMzMzWhcNMTYwOTA4MDAxMzMzWjBpMQswCQYDVQQGEwJV
UzETMBEGA1UECAwKQ2FsaWZvcm5pYTEUMBIGA1UEBwwLU2FudGEgQ2xhcmExDTAL
BgNVBAoMBHBrZzUxDDAKBgNVBAMMA3RhMTESMBAGCSqGSIb3DQEJARYDdGExMIGf
MA0GCSqGSIb3DQEBAQUAA4GNADCBiQKBgQDBESCVm2pJ9eCzgJc3AvxvmW1wZ6FH
Zs/3JFhVyIjk2omo/JfxbPxEYGtccdeEIhakCXf7o68QJHsTA7a5yPADAHSiyhCf
rRcy6Mv6VsH6DD9DWjbua5QSlEip2Rw3XHZt1a1vN62fiHhQklnWTyoiuqXsKcc+
tUGezpuenthY9wIDAQABo1AwTjAdBgNVHQ4EFgQUgVRrBgjdRE8IgSF6fNWW6lMr
4wowHwYDVR0jBBgwFoAUgVRrBgjdRE8IgSF6fNWW6lMr4wowDAYDVR0TBAUwAwEB
/zANBgkqhkiG9w0BAQsFAAOBgQCU93cViyqr65p/on3ZW75tvOJJv30WNgpyJL5y
r1kvmszS2nT8A/Wewuik6pmQMH6ysG+2/q/91vBRUFKZ0gzciEpUPAmTm4OChGR4
19kAkO4BnGkFNMEts0bamzpHZXZoY2w9y0fMcQXyImu9ZgtqkEVfYBFMfhEyjIvs
cMb2tA==
-----END CERTIFICATE-----
