Certificate:
    Data:
        Version: 3 (0x2)
        Serial Number:
            e7:9e:2c:bd:e7:36:f4:d0
    Signature Algorithm: sha256WithRSAEncryption
        Issuer: C=US, ST=California, L=Santa Clara, O=pkg5, CN=ta1/emailAddress=ta1
        Validity
            Not Before: Jan 22 15:33:05 2019 GMT
            Not After : Oct 18 15:33:05 2021 GMT
        Subject: C=US, ST=California, L=Santa Clara, O=pkg5, CN=ta1/emailAddress=ta1
        Subject Public Key Info:
            Public Key Algorithm: rsaEncryption
                Public-Key: (2048 bit)
                Modulus:
                    00:c6:e3:0f:3f:67:9d:c7:39:76:c2:75:bf:1f:06:
                    50:52:63:d3:fb:65:5f:5e:47:6e:3e:1f:56:3d:af:
                    02:7b:6a:c5:36:e9:ae:57:5a:4d:ca:e7:6f:d7:8e:
                    c3:38:27:2e:d2:36:49:8f:a6:a9:95:ad:a8:ac:8e:
                    10:0c:b2:11:ad:f8:05:dd:35:7a:9d:e0:c1:a5:81:
                    92:c3:d9:00:28:84:71:73:42:1f:c4:0e:e4:89:fa:
                    c4:1c:d3:f7:4a:7e:93:ef:3c:73:59:c7:bb:2d:8e:
                    5b:73:f1:ed:ab:8b:77:69:72:0e:47:06:5d:85:e0:
                    9b:2f:08:1b:3e:bf:6e:8b:4f:39:c3:42:28:df:52:
                    eb:50:af:4e:7a:3d:81:ac:6c:2d:b0:ab:b1:ee:5c:
                    6e:44:34:34:39:82:f0:f9:f0:4d:ff:0c:79:28:bf:
                    2b:42:d3:51:30:44:f1:9e:28:30:a4:1d:6a:97:62:
                    52:8d:a8:8d:a4:d0:3a:4d:a3:18:fa:10:89:40:42:
                    16:a7:5c:e5:28:a7:7a:2b:e4:75:51:11:1e:27:e9:
                    7c:aa:bc:06:32:74:a8:51:4b:47:7e:ea:1f:b6:a0:
                    2e:c6:1a:df:af:83:60:ad:f7:ab:af:31:06:7f:27:
                    e7:a2:36:79:e6:be:59:39:8c:87:c4:e5:ff:e6:fe:
                    c3:e9
                Exponent: 65537 (0x10001)
        X509v3 extensions:
            X509v3 Subject Key Identifier: 
                AC:4B:88:18:9E:55:AA:15:1B:8F:35:B4:96:55:5B:7C:27:F9:99:C7
            X509v3 Authority Key Identifier: 
                keyid:AC:4B:88:18:9E:55:AA:15:1B:8F:35:B4:96:55:5B:7C:27:F9:99:C7

            X509v3 Basic Constraints: 
                CA:TRUE
    Signature Algorithm: sha256WithRSAEncryption
         1d:f1:fb:67:57:33:8e:7d:e5:4c:a3:43:27:0d:b2:38:d5:86:
         5d:19:aa:d9:d0:b8:af:e0:76:11:25:e3:b6:52:dc:a7:56:a3:
         d0:9b:dd:bd:9f:4a:61:7c:f7:23:cb:a9:74:cc:da:6f:3b:f9:
         87:10:e3:c0:cf:82:a1:b0:34:83:2e:6a:99:40:53:d8:54:2c:
         f3:2b:24:72:a8:fd:77:13:50:e2:94:10:5c:78:2b:e5:e1:b6:
         b9:f2:b1:47:21:e0:2c:89:e7:df:ad:0d:9b:00:7c:b7:49:a2:
         2a:42:5c:48:5a:58:4e:6b:df:46:89:1e:e9:b0:e7:85:1c:45:
         71:65:ba:23:a9:d6:1d:db:40:b3:b9:2d:cd:bc:a5:c0:72:13:
         17:88:21:bc:e1:d8:13:a4:e5:9a:0d:d5:54:27:91:4e:89:b6:
         27:60:14:a1:58:70:cf:d9:a8:20:53:0d:ad:31:79:f0:06:05:
         4d:d1:ad:56:32:91:4a:41:69:a0:c4:a1:0b:d2:bd:f3:3e:f7:
         07:ed:f8:38:4b:d8:37:9b:9c:4b:e2:83:9c:13:f6:a3:1d:b0:
         d1:cf:a1:e1:b4:50:1c:ab:7c:6f:50:42:7c:7c:87:25:43:f1:
         aa:da:fa:76:f8:7c:40:b6:85:25:56:a7:ec:91:a7:d0:57:e1:
         77:48:69:24
-----BEGIN CERTIFICATE-----
MIIDpTCCAo2gAwIBAgIJAOeeLL3nNvTQMA0GCSqGSIb3DQEBCwUAMGkxCzAJBgNV
BAYTAlVTMRMwEQYDVQQIDApDYWxpZm9ybmlhMRQwEgYDVQQHDAtTYW50YSBDbGFy
YTENMAsGA1UECgwEcGtnNTEMMAoGA1UEAwwDdGExMRIwEAYJKoZIhvcNAQkBFgN0
YTEwHhcNMTkwMTIyMTUzMzA1WhcNMjExMDE4MTUzMzA1WjBpMQswCQYDVQQGEwJV
UzETMBEGA1UECAwKQ2FsaWZvcm5pYTEUMBIGA1UEBwwLU2FudGEgQ2xhcmExDTAL
BgNVBAoMBHBrZzUxDDAKBgNVBAMMA3RhMTESMBAGCSqGSIb3DQEJARYDdGExMIIB
IjANBgkqhkiG9w0BAQEFAAOCAQ8AMIIBCgKCAQEAxuMPP2edxzl2wnW/HwZQUmPT
+2VfXkduPh9WPa8Ce2rFNumuV1pNyudv147DOCcu0jZJj6apla2orI4QDLIRrfgF
3TV6neDBpYGSw9kAKIRxc0IfxA7kifrEHNP3Sn6T7zxzWce7LY5bc/Htq4t3aXIO
RwZdheCbLwgbPr9ui085w0Io31LrUK9Oej2BrGwtsKux7lxuRDQ0OYLw+fBN/wx5
KL8rQtNRMETxnigwpB1ql2JSjaiNpNA6TaMY+hCJQEIWp1zlKKd6K+R1UREeJ+l8
qrwGMnSoUUtHfuoftqAuxhrfr4NgrferrzEGfyfnojZ55r5ZOYyHxOX/5v7D6QID
AQABo1AwTjAdBgNVHQ4EFgQUrEuIGJ5VqhUbjzW0llVbfCf5mccwHwYDVR0jBBgw
FoAUrEuIGJ5VqhUbjzW0llVbfCf5mccwDAYDVR0TBAUwAwEB/zANBgkqhkiG9w0B
AQsFAAOCAQEAHfH7Z1czjn3lTKNDJw2yONWGXRmq2dC4r+B2ESXjtlLcp1aj0Jvd
vZ9KYXz3I8updMzabzv5hxDjwM+CobA0gy5qmUBT2FQs8yskcqj9dxNQ4pQQXHgr
5eG2ufKxRyHgLInn360NmwB8t0miKkJcSFpYTmvfRoke6bDnhRxFcWW6I6nWHdtA
s7ktzbylwHITF4ghvOHYE6Tlmg3VVCeRTom2J2AUoVhwz9moIFMNrTF58AYFTdGt
VjKRSkFpoMShC9K98z73B+34OEvYN5ucS+KDnBP2ox2w0c+h4bRQHKt8b1BCfHyH
JUPxqtr6dvh8QLaFJVan7JGn0Ffhd0hpJA==
-----END CERTIFICATE-----
