Certificate:
    Data:
        Version: 3 (0x2)
        Serial Number:
            a1:49:ea:78:5a:f4:55:8d
        Signature Algorithm: sha256WithRSAEncryption
        Issuer: C=US, ST=California, L=Menlo Park, O=pkg5, CN=ta1/emailAddress=ta1
        Validity
            Not Before: Apr 11 22:37:38 2011 GMT
            Not After : Jan  5 22:37:38 2014 GMT
        Subject: C=US, ST=California, L=Menlo Park, O=pkg5, CN=ta1/emailAddress=ta1
        Subject Public Key Info:
            Public Key Algorithm: rsaEncryption
            RSA Public Key: (1024 bit)
                Modulus (1024 bit):
                    00:e0:4a:38:c6:48:13:ab:71:ab:ca:6e:6e:ce:e9:
                    fc:2c:68:cd:ee:79:f6:c2:7e:1f:19:ee:5b:75:19:
                    3d:ba:4f:8f:a3:79:f9:5c:eb:dd:0c:30:0f:d0:77:
                    05:0d:ff:b9:28:e4:74:1a:67:b3:ff:36:ea:26:61:
                    ec:51:25:e1:c0:cd:97:58:e0:65:8d:4c:54:bc:93:
                    99:37:2b:f3:87:d3:b8:d7:87:15:d9:cf:1c:b6:87:
                    f4:6d:54:bd:f5:65:53:60:43:b2:04:72:79:b0:bf:
                    71:13:11:fd:bc:45:38:14:82:d9:05:8b:fe:9f:8e:
                    7d:d1:2c:b9:36:61:c0:0a:11
                Exponent: 65537 (0x10001)
        X509v3 extensions:
            X509v3 Subject Key Identifier: 
                75:A9:2B:02:E8:FB:31:09:2A:F2:16:21:24:D8:B2:A5:D0:14:93:5B
            X509v3 Authority Key Identifier: 
                keyid:75:A9:2B:02:E8:FB:31:09:2A:F2:16:21:24:D8:B2:A5:D0:14:93:5B
                DirName:/C=US/ST=California/L=Menlo Park/O=pkg5/CN=ta1/emailAddress=ta1
                serial:A1:49:EA:78:5A:F4:55:8D

            X509v3 Basic Constraints: 
                CA:TRUE
    Signature Algorithm: sha256WithRSAEncryption
        82:9d:88:f6:27:64:f1:c4:9f:18:10:ac:d3:6c:81:b9:25:34:
        f8:74:1c:83:b3:94:65:1f:25:cd:5e:a7:e4:ad:d8:b2:6e:f1:
        43:56:25:75:d5:db:02:d6:f2:7a:3f:12:a3:60:04:77:49:99:
        37:d7:af:60:ff:d7:ee:d0:df:cd:4a:fb:75:ee:05:b0:af:00:
        da:e2:80:6e:85:81:72:75:a5:3b:01:8c:00:3f:bb:8a:21:47:
        0d:d4:bb:51:a5:4c:58:2a:d8:09:1f:fb:b1:e7:56:00:53:a8:
        25:3e:ab:3d:f6:1b:28:7d:ef:76:68:62:be:28:a9:63:44:d1:
        68:6a
-----BEGIN CERTIFICATE-----
MIIDHDCCAoWgAwIBAgIJAKFJ6nha9FWNMA0GCSqGSIb3DQEBCwUAMGgxCzAJBgNV
BAYTAlVTMRMwEQYDVQQIEwpDYWxpZm9ybmlhMRMwEQYDVQQHEwpNZW5sbyBQYXJr
MQ0wCwYDVQQKEwRwa2c1MQwwCgYDVQQDEwN0YTExEjAQBgkqhkiG9w0BCQEWA3Rh
MTAeFw0xMTA0MTEyMjM3MzhaFw0xNDAxMDUyMjM3MzhaMGgxCzAJBgNVBAYTAlVT
MRMwEQYDVQQIEwpDYWxpZm9ybmlhMRMwEQYDVQQHEwpNZW5sbyBQYXJrMQ0wCwYD
VQQKEwRwa2c1MQwwCgYDVQQDEwN0YTExEjAQBgkqhkiG9w0BCQEWA3RhMTCBnzAN
BgkqhkiG9w0BAQEFAAOBjQAwgYkCgYEA4Eo4xkgTq3Grym5uzun8LGjN7nn2wn4f
Ge5bdRk9uk+Po3n5XOvdDDAP0HcFDf+5KOR0Gmez/zbqJmHsUSXhwM2XWOBljUxU
vJOZNyvzh9O414cV2c8ctof0bVS99WVTYEOyBHJ5sL9xExH9vEU4FILZBYv+n459
0Sy5NmHAChECAwEAAaOBzTCByjAdBgNVHQ4EFgQUdakrAuj7MQkq8hYhJNiypdAU
k1swgZoGA1UdIwSBkjCBj4AUdakrAuj7MQkq8hYhJNiypdAUk1uhbKRqMGgxCzAJ
BgNVBAYTAlVTMRMwEQYDVQQIEwpDYWxpZm9ybmlhMRMwEQYDVQQHEwpNZW5sbyBQ
YXJrMQ0wCwYDVQQKEwRwa2c1MQwwCgYDVQQDEwN0YTExEjAQBgkqhkiG9w0BCQEW
A3RhMYIJAKFJ6nha9FWNMAwGA1UdEwQFMAMBAf8wDQYJKoZIhvcNAQELBQADgYEA
gp2I9idk8cSfGBCs02yBuSU0+HQcg7OUZR8lzV6n5K3Ysm7xQ1YlddXbAtbyej8S
o2AEd0mZN9evYP/X7tDfzUr7de4FsK8A2uKAboWBcnWlOwGMAD+7iiFHDdS7UaVM
WCrYCR/7sedWAFOoJT6rPfYbKH3vdmhiviipY0TRaGo=
-----END CERTIFICATE-----
