Certificate:
    Data:
        Version: 3 (0x2)
        Serial Number:
            84:12:cf:af:1f:09:d9:f6
    Signature Algorithm: sha256WithRSAEncryption
        Issuer: C=US, ST=California, L=Santa Clara, O=pkg5, CN=ta1/emailAddress=ta1
        Validity
            Not Before: Sep 22 05:33:13 2021 GMT
            Not After : Jun 18 05:33:13 2024 GMT
        Subject: C=US, ST=California, L=Santa Clara, O=pkg5, CN=ta1/emailAddress=ta1
        Subject Public Key Info:
            Public Key Algorithm: rsaEncryption
                Public-Key: (2048 bit)
                Modulus:
                    00:d8:11:67:2f:ca:8e:7f:47:87:5a:e5:93:df:98:
                    b3:4a:76:b1:42:19:bb:28:e9:fe:8e:86:b2:ad:00:
                    05:15:f4:08:c4:bb:04:a8:67:fd:ba:fd:e3:38:26:
                    85:f9:84:9f:b6:93:2a:1e:93:17:86:cf:0b:b9:d7:
                    5b:54:ea:8a:14:ac:46:a2:bb:fd:97:57:e4:67:55:
                    0b:f2:a1:ac:74:45:8f:0c:ba:76:d0:f1:1e:6b:45:
                    2a:59:3a:fb:a4:fd:cc:d6:8f:0b:e7:03:c8:73:18:
                    ed:c0:1c:9a:52:53:72:80:2d:f6:74:f8:1d:ab:eb:
                    f4:d0:8e:ba:43:61:dd:06:90:3c:68:ef:f0:2b:6e:
                    77:77:9a:09:ef:31:ce:9c:63:be:dc:57:d5:90:b6:
                    de:10:44:bc:a6:d5:d9:12:3c:2a:cb:56:61:a4:9b:
                    01:b2:a5:7a:37:f5:6e:ee:bf:71:8e:ab:5d:85:a5:
                    17:fb:3d:fa:18:6d:f6:42:2f:25:c7:b6:1e:8d:20:
                    a6:2f:ac:a8:e5:3f:94:fe:4f:8a:b2:02:c1:3d:92:
                    8f:72:8e:4e:11:7e:ac:10:80:c7:73:13:96:9f:0c:
                    0e:05:06:ff:19:06:c3:64:af:b7:8d:9f:c3:68:78:
                    c1:1e:51:d0:5f:7f:5e:08:b9:f5:ef:f6:42:4e:c0:
                    2b:e9
                Exponent: 65537 (0x10001)
        X509v3 extensions:
            X509v3 Subject Key Identifier: 
                4A:AA:B3:0B:B4:EA:CC:2F:3E:F1:56:9B:44:A3:B7:6C:9C:E6:D7:06
            X509v3 Authority Key Identifier: 
                keyid:4A:AA:B3:0B:B4:EA:CC:2F:3E:F1:56:9B:44:A3:B7:6C:9C:E6:D7:06

            X509v3 Basic Constraints: 
                CA:TRUE
    Signature Algorithm: sha256WithRSAEncryption
         92:4c:5a:8f:dd:b4:e6:3d:ea:1b:0f:07:3f:e2:e5:de:a0:41:
         c0:b4:24:14:31:37:99:e8:6f:23:af:83:f7:97:b3:11:4c:aa:
         d6:3a:b3:6a:b8:04:c0:6d:61:6e:18:46:c3:9a:de:0e:df:4c:
         b6:f7:3e:e4:4a:80:e9:1c:4f:25:80:49:d4:0a:59:c6:10:30:
         27:25:24:68:08:7c:a2:2b:3e:93:41:9a:3e:a9:ca:69:38:75:
         76:bb:da:62:10:83:c8:a3:78:ff:f7:bc:02:31:97:f3:c3:87:
         16:8b:e6:68:33:41:c8:4d:3e:ee:8b:75:4c:b6:32:26:af:58:
         a9:62:bf:fe:d1:83:79:20:d3:59:05:5d:c3:c1:e8:71:51:dc:
         c4:1c:51:18:d5:fc:d3:df:a5:bc:2c:38:db:2d:39:47:0a:b6:
         e4:54:9b:de:96:c8:7c:ee:ab:72:7e:96:c2:15:4a:5e:dd:ef:
         98:3a:f4:05:fe:ce:c3:ed:14:ab:e9:ca:a2:39:ce:65:13:ff:
         e5:58:d2:91:2b:19:29:ac:58:4c:eb:5d:1e:83:b5:ce:04:2b:
         2b:07:f2:9e:15:06:58:fb:be:66:63:00:b0:ba:ec:72:f3:27:
         fc:8c:8c:5e:03:5f:80:5d:ff:e3:3e:d1:18:c8:cd:d4:a8:26:
         97:77:4a:e7
-----BEGIN CERTIFICATE-----
MIIDpTCCAo2gAwIBAgIJAIQSz68fCdn2MA0GCSqGSIb3DQEBCwUAMGkxCzAJBgNV
BAYTAlVTMRMwEQYDVQQIDApDYWxpZm9ybmlhMRQwEgYDVQQHDAtTYW50YSBDbGFy
YTENMAsGA1UECgwEcGtnNTEMMAoGA1UEAwwDdGExMRIwEAYJKoZIhvcNAQkBFgN0
YTEwHhcNMjEwOTIyMDUzMzEzWhcNMjQwNjE4MDUzMzEzWjBpMQswCQYDVQQGEwJV
UzETMBEGA1UECAwKQ2FsaWZvcm5pYTEUMBIGA1UEBwwLU2FudGEgQ2xhcmExDTAL
BgNVBAoMBHBrZzUxDDAKBgNVBAMMA3RhMTESMBAGCSqGSIb3DQEJARYDdGExMIIB
IjANBgkqhkiG9w0BAQEFAAOCAQ8AMIIBCgKCAQEA2BFnL8qOf0eHWuWT35izSnax
Qhm7KOn+joayrQAFFfQIxLsEqGf9uv3jOCaF+YSftpMqHpMXhs8LuddbVOqKFKxG
orv9l1fkZ1UL8qGsdEWPDLp20PEea0UqWTr7pP3M1o8L5wPIcxjtwByaUlNygC32
dPgdq+v00I66Q2HdBpA8aO/wK253d5oJ7zHOnGO+3FfVkLbeEES8ptXZEjwqy1Zh
pJsBsqV6N/Vu7r9xjqtdhaUX+z36GG32Qi8lx7YejSCmL6yo5T+U/k+KsgLBPZKP
co5OEX6sEIDHcxOWnwwOBQb/GQbDZK+3jZ/DaHjBHlHQX39eCLn17/ZCTsAr6QID
AQABo1AwTjAdBgNVHQ4EFgQUSqqzC7TqzC8+8VabRKO3bJzm1wYwHwYDVR0jBBgw
FoAUSqqzC7TqzC8+8VabRKO3bJzm1wYwDAYDVR0TBAUwAwEB/zANBgkqhkiG9w0B
AQsFAAOCAQEAkkxaj9205j3qGw8HP+Ll3qBBwLQkFDE3mehvI6+D95ezEUyq1jqz
argEwG1hbhhGw5reDt9Mtvc+5EqA6RxPJYBJ1ApZxhAwJyUkaAh8ois+k0GaPqnK
aTh1drvaYhCDyKN4//e8AjGX88OHFovmaDNByE0+7ot1TLYyJq9YqWK//tGDeSDT
WQVdw8HocVHcxBxRGNX809+lvCw42y05Rwq25FSb3pbIfO6rcn6WwhVKXt3vmDr0
Bf7Ow+0Uq+nKojnOZRP/5VjSkSsZKaxYTOtdHoO1zgQrKwfynhUGWPu+ZmMAsLrs
cvMn/IyMXgNfgF3/4z7RGMjN1Kgml3dK5w==
-----END CERTIFICATE-----
