Certificate:
    Data:
        Version: 3 (0x2)
        Serial Number:
            6b:aa:7f:7a:bd:26:f2:39:5d:67:7c:ea:87:ed:02:a7:90:45:cb:bc
        Signature Algorithm: sha256WithRSAEncryption
        Issuer: C = US, ST = California, L = Santa Clara, O = pkg5, CN = ta1, emailAddress = ta1
        Validity
            Not Before: Mar 18 08:51:26 2026 GMT
            Not After : Dec 12 08:51:26 2028 GMT
        Subject: C = US, ST = California, L = Santa Clara, O = pkg5, CN = ta1, emailAddress = ta1
        Subject Public Key Info:
            Public Key Algorithm: rsaEncryption
                Public-Key: (2048 bit)
                Modulus:
                    00:cc:60:bb:1f:67:1f:a4:13:7e:22:d5:d9:db:5f:
                    03:74:25:3a:4d:9c:50:f6:b1:66:1d:35:57:3d:17:
                    1b:0f:91:75:82:f9:86:84:0e:48:ec:e9:50:cc:f7:
                    0c:7a:9f:80:3f:f9:41:7b:78:9c:0f:82:8c:0b:5d:
                    69:e2:d3:7a:ba:53:80:7a:e7:0f:2b:66:57:91:a2:
                    27:21:7f:ac:7f:cc:38:42:e2:6e:8d:8c:31:fe:85:
                    af:93:48:30:31:49:59:c8:ed:b4:fc:bb:5f:9e:1b:
                    6b:fc:d6:13:55:63:56:a2:75:fc:c2:52:f5:27:42:
                    16:51:f3:fc:79:25:42:a9:af:95:2e:7f:b7:4b:25:
                    e6:c6:e6:42:52:6f:95:f3:cf:48:42:16:72:04:67:
                    27:82:e2:7b:ec:42:7d:f6:27:f7:d0:38:7c:6f:0a:
                    2d:c6:a1:35:b7:78:50:4c:75:43:2a:ae:df:af:8b:
                    5a:24:a5:10:24:09:03:1e:30:47:88:76:38:ed:4f:
                    83:93:d0:d5:0a:5c:57:27:5d:66:ef:7b:c8:73:0e:
                    4d:02:04:a4:04:f8:1a:2d:b1:35:16:5e:eb:1a:5a:
                    60:ba:be:60:dd:0d:ea:bb:ea:64:7f:f4:3c:a7:41:
                    10:42:1f:75:ad:1a:19:eb:51:a9:bf:c1:ea:0e:0f:
                    71:97
                Exponent: 65537 (0x10001)
        X509v3 extensions:
            X509v3 Subject Key Identifier: 
                ED:3C:77:CC:47:08:93:9A:61:D1:AA:28:9F:34:EB:11:67:36:30:18
            X509v3 Authority Key Identifier: 
                ED:3C:77:CC:47:08:93:9A:61:D1:AA:28:9F:34:EB:11:67:36:30:18
            X509v3 Basic Constraints: critical
                CA:TRUE
    Signature Algorithm: sha256WithRSAEncryption
    Signature Value:
        12:5d:28:22:ec:9d:52:34:17:50:e9:0c:9e:d9:44:06:27:3f:
        10:13:ca:62:0e:83:de:86:30:66:20:1a:ef:94:a3:73:57:80:
        49:4e:e0:48:b3:55:d3:e2:8c:eb:00:3f:e6:4d:74:10:84:d9:
        e7:f9:9b:24:2f:33:0b:9d:1a:9d:77:84:1b:57:35:8c:d5:de:
        f3:c1:07:b4:a7:b7:69:28:b8:b8:f2:78:50:f7:25:3a:d4:dc:
        3f:be:95:d9:bb:cd:e2:94:d2:69:45:65:b5:32:c6:e3:d6:61:
        d2:5a:81:a0:fc:3c:28:65:9f:4a:9d:9d:1a:14:fd:3d:c8:22:
        bc:84:c5:78:24:8d:33:d6:80:c8:6a:af:d9:06:8a:53:4c:a5:
        72:a3:24:2d:fa:4a:41:4a:4b:de:17:4a:c7:f6:10:2a:c3:46:
        31:bd:3d:e4:88:02:8b:a0:f0:ad:9b:51:28:29:a8:32:d1:f3:
        db:be:d7:d0:c6:67:3f:a1:e9:81:8a:c8:21:23:c8:b6:d7:00:
        92:b9:58:75:a6:95:e6:1d:b2:15:79:0d:0b:41:e0:62:28:86:
        e6:bd:a0:7b:7f:5a:e3:6e:dd:22:4d:31:0c:2a:13:59:cc:fd:
        15:b1:ab:2b:37:d6:c1:70:cc:ae:6d:c7:24:7c:de:18:c0:9e:
        d5:21:85:3a
-----BEGIN CERTIFICATE-----
MIIDszCCApugAwIBAgIUa6p/er0m8jldZ3zqh+0Cp5BFy7wwDQYJKoZIhvcNAQEL
BQAwaTELMAkGA1UEBhMCVVMxEzARBgNVBAgMCkNhbGlmb3JuaWExFDASBgNVBAcM
C1NhbnRhIENsYXJhMQ0wCwYDVQQKDARwa2c1MQwwCgYDVQQDDAN0YTExEjAQBgkq
hkiG9w0BCQEWA3RhMTAeFw0yNjAzMTgwODUxMjZaFw0yODEyMTIwODUxMjZaMGkx
CzAJBgNVBAYTAlVTMRMwEQYDVQQIDApDYWxpZm9ybmlhMRQwEgYDVQQHDAtTYW50
YSBDbGFyYTENMAsGA1UECgwEcGtnNTEMMAoGA1UEAwwDdGExMRIwEAYJKoZIhvcN
AQkBFgN0YTEwggEiMA0GCSqGSIb3DQEBAQUAA4IBDwAwggEKAoIBAQDMYLsfZx+k
E34i1dnbXwN0JTpNnFD2sWYdNVc9FxsPkXWC+YaEDkjs6VDM9wx6n4A/+UF7eJwP
gowLXWni03q6U4B65w8rZleRoichf6x/zDhC4m6NjDH+ha+TSDAxSVnI7bT8u1+e
G2v81hNVY1aidfzCUvUnQhZR8/x5JUKpr5Uuf7dLJebG5kJSb5Xzz0hCFnIEZyeC
4nvsQn32J/fQOHxvCi3GoTW3eFBMdUMqrt+vi1okpRAkCQMeMEeIdjjtT4OT0NUK
XFcnXWbve8hzDk0CBKQE+BotsTUWXusaWmC6vmDdDeq76mR/9DynQRBCH3WtGhnr
Uam/weoOD3GXAgMBAAGjUzBRMB0GA1UdDgQWBBTtPHfMRwiTmmHRqiifNOsRZzYw
GDAfBgNVHSMEGDAWgBTtPHfMRwiTmmHRqiifNOsRZzYwGDAPBgNVHRMBAf8EBTAD
AQH/MA0GCSqGSIb3DQEBCwUAA4IBAQASXSgi7J1SNBdQ6Qye2UQGJz8QE8piDoPe
hjBmIBrvlKNzV4BJTuBIs1XT4ozrAD/mTXQQhNnn+ZskLzMLnRqdd4QbVzWM1d7z
wQe0p7dpKLi48nhQ9yU61Nw/vpXZu83ilNJpRWW1Msbj1mHSWoGg/DwoZZ9KnZ0a
FP09yCK8hMV4JI0z1oDIaq/ZBopTTKVyoyQt+kpBSkveF0rH9hAqw0YxvT3kiAKL
oPCtm1EoKagy0fPbvtfQxmc/oemBisghI8i21wCSuVh1ppXmHbIVeQ0LQeBiKIbm
vaB7f1rjbt0iTTEMKhNZzP0VsasrN9bBcMyubcckfN4YwJ7VIYU6
-----END CERTIFICATE-----
Certificate:
    Data:
        Version: 3 (0x2)
        Serial Number:
            74:e7:12:b5:f0:fd:da:49:31:eb:3b:e1:eb:75:65:b3:79:2d:fc:ff
        Signature Algorithm: sha256WithRSAEncryption
        Issuer: C = US, ST = California, L = Santa Clara, O = pkg5, CN = ta3, emailAddress = ta3
        Validity
            Not Before: Mar 18 08:51:33 2026 GMT
            Not After : Dec 12 08:51:33 2028 GMT
        Subject: C = US, ST = California, L = Santa Clara, O = pkg5, CN = ta3, emailAddress = ta3
        Subject Public Key Info:
            Public Key Algorithm: rsaEncryption
                Public-Key: (2048 bit)
                Modulus:
                    00:b6:d3:4e:8d:2f:88:5d:70:9d:0c:69:99:ae:32:
                    12:5d:f9:e0:08:45:dc:56:1f:39:82:8f:84:53:0f:
                    09:49:76:e5:93:17:7e:62:44:8f:6a:ec:69:ac:eb:
                    8c:47:ba:f9:f7:6e:96:08:e6:23:f4:19:57:67:dd:
                    55:35:f0:5f:cc:2b:c9:b6:37:12:c8:b2:70:14:d9:
                    0f:8a:98:7a:de:7f:13:40:54:fb:a4:e1:b6:19:83:
                    10:66:75:01:20:d5:c5:9d:81:3b:05:15:40:b4:5f:
                    12:c4:b5:dd:92:92:76:ab:24:e3:79:6c:3c:44:f2:
                    65:27:8a:f6:cb:3b:10:c7:12:5f:2d:2d:eb:32:13:
                    77:b1:43:b5:0d:52:34:b8:ef:11:18:a6:9b:ec:47:
                    32:09:c4:6b:de:c0:01:13:89:bd:20:12:d0:53:6d:
                    d0:17:cb:f5:3e:64:cc:d7:4b:96:6f:96:90:66:b8:
                    5e:cf:66:be:b9:6f:c8:50:56:b4:1f:d2:a4:4c:83:
                    a3:1b:32:c4:84:47:0e:6f:f6:30:43:29:73:0e:c1:
                    cc:0f:1e:d0:e5:19:e5:20:92:ed:5a:82:d6:89:27:
                    07:af:cc:53:b9:cd:82:d2:4f:c4:c7:5c:62:f4:fe:
                    51:37:58:96:72:64:59:d6:39:4b:f9:02:83:ae:fc:
                    79:23
                Exponent: 65537 (0x10001)
        X509v3 extensions:
            X509v3 Subject Key Identifier: 
                43:54:28:1A:4B:3C:F9:91:B3:CB:00:A8:B8:90:E4:B7:6F:B6:22:CD
            X509v3 Authority Key Identifier: 
                43:54:28:1A:4B:3C:F9:91:B3:CB:00:A8:B8:90:E4:B7:6F:B6:22:CD
            X509v3 Basic Constraints: critical
                CA:TRUE
    Signature Algorithm: sha256WithRSAEncryption
    Signature Value:
        a3:81:d6:a1:ec:71:0e:52:46:1a:d0:e3:87:8d:a0:5a:46:23:
        4b:35:1f:d7:c5:b4:83:37:0c:f7:24:09:71:54:2f:48:39:a0:
        bd:8a:9d:03:c2:b2:d4:c8:4b:80:f7:6d:9f:15:78:a2:69:84:
        5b:d2:7f:53:7c:b9:61:39:4c:61:58:03:12:9c:26:10:a8:fa:
        59:42:1a:15:5a:d2:d0:b5:f7:92:a3:10:d8:d1:b0:9b:d6:54:
        4f:cf:9d:38:6d:37:22:70:0d:7f:8e:4a:f6:8b:4b:4e:04:96:
        30:47:de:ee:06:df:46:98:b0:8a:b6:67:71:eb:b0:fe:d3:c9:
        3d:f6:6a:d6:c0:e6:17:95:70:c0:1c:3b:0e:15:b5:df:d4:28:
        e6:d3:c1:f5:1d:ea:63:e0:a2:60:67:12:13:73:f4:bc:14:2b:
        90:48:ad:a1:de:9a:3d:f1:09:fc:28:4a:1f:f9:a8:8b:bb:da:
        2c:1f:f4:a1:60:16:5e:9d:1f:ae:8a:3a:07:b0:a4:67:cc:5f:
        05:e3:61:f3:14:82:89:30:c6:06:b5:f0:6a:49:3e:23:bb:f6:
        fc:41:6b:0c:28:83:2a:02:25:ce:76:3a:2a:34:9b:3b:01:e2:
        94:99:26:87:0c:e1:29:91:51:e7:f1:4e:4f:6b:25:12:84:c5:
        a8:0a:2c:f9
-----BEGIN CERTIFICATE-----
MIIDszCCApugAwIBAgIUdOcStfD92kkx6zvh63Vls3kt/P8wDQYJKoZIhvcNAQEL
BQAwaTELMAkGA1UEBhMCVVMxEzARBgNVBAgMCkNhbGlmb3JuaWExFDASBgNVBAcM
C1NhbnRhIENsYXJhMQ0wCwYDVQQKDARwa2c1MQwwCgYDVQQDDAN0YTMxEjAQBgkq
hkiG9w0BCQEWA3RhMzAeFw0yNjAzMTgwODUxMzNaFw0yODEyMTIwODUxMzNaMGkx
CzAJBgNVBAYTAlVTMRMwEQYDVQQIDApDYWxpZm9ybmlhMRQwEgYDVQQHDAtTYW50
YSBDbGFyYTENMAsGA1UECgwEcGtnNTEMMAoGA1UEAwwDdGEzMRIwEAYJKoZIhvcN
AQkBFgN0YTMwggEiMA0GCSqGSIb3DQEBAQUAA4IBDwAwggEKAoIBAQC2006NL4hd
cJ0MaZmuMhJd+eAIRdxWHzmCj4RTDwlJduWTF35iRI9q7Gms64xHuvn3bpYI5iP0
GVdn3VU18F/MK8m2NxLIsnAU2Q+KmHrefxNAVPuk4bYZgxBmdQEg1cWdgTsFFUC0
XxLEtd2SknarJON5bDxE8mUnivbLOxDHEl8tLesyE3exQ7UNUjS47xEYppvsRzIJ
xGvewAETib0gEtBTbdAXy/U+ZMzXS5ZvlpBmuF7PZr65b8hQVrQf0qRMg6MbMsSE
Rw5v9jBDKXMOwcwPHtDlGeUgku1agtaJJwevzFO5zYLST8THXGL0/lE3WJZyZFnW
OUv5AoOu/HkjAgMBAAGjUzBRMB0GA1UdDgQWBBRDVCgaSzz5kbPLAKi4kOS3b7Yi
zTAfBgNVHSMEGDAWgBRDVCgaSzz5kbPLAKi4kOS3b7YizTAPBgNVHRMBAf8EBTAD
AQH/MA0GCSqGSIb3DQEBCwUAA4IBAQCjgdah7HEOUkYa0OOHjaBaRiNLNR/XxbSD
Nwz3JAlxVC9IOaC9ip0DwrLUyEuA922fFXiiaYRb0n9TfLlhOUxhWAMSnCYQqPpZ
QhoVWtLQtfeSoxDY0bCb1lRPz504bTcicA1/jkr2i0tOBJYwR97uBt9GmLCKtmdx
67D+08k99mrWwOYXlXDAHDsOFbXf1Cjm08H1Hepj4KJgZxITc/S8FCuQSK2h3po9
8Qn8KEof+aiLu9osH/ShYBZenR+uijoHsKRnzF8F42HzFIKJMMYGtfBqST4ju/b8
QWsMKIMqAiXOdjoqNJs7AeKUmSaHDOEpkVHn8U5PayUShMWoCiz5
-----END CERTIFICATE-----
