Certificate:
    Data:
        Version: 3 (0x2)
        Serial Number:
            bc:b2:f0:ce:17:d0:c5:f4
    Signature Algorithm: sha256WithRSAEncryption
        Issuer: C=US, ST=California, L=Santa Clara, O=pkg5, CN=ta2/emailAddress=ta2
        Validity
            Not Before: Sep 22 05:33:20 2021 GMT
            Not After : Jun 18 05:33:20 2024 GMT
        Subject: C=US, ST=California, L=Santa Clara, O=pkg5, CN=ta2/emailAddress=ta2
        Subject Public Key Info:
            Public Key Algorithm: rsaEncryption
                Public-Key: (2048 bit)
                Modulus:
                    00:a1:95:41:57:6f:3d:d5:7c:16:1d:b4:b9:4e:ae:
                    26:6e:d8:14:7f:87:f7:88:20:cb:46:77:c2:4d:91:
                    b2:da:a3:10:c5:c4:b7:cc:94:e2:79:fc:f7:20:d8:
                    30:46:79:46:e8:b4:cd:63:de:b9:77:0c:c6:50:2e:
                    9e:b9:2e:74:c1:46:dc:17:fb:b2:ae:2c:1c:3d:b7:
                    60:8c:e7:39:9d:23:59:ea:2b:e9:85:bd:68:e2:8b:
                    bd:bc:8e:7c:89:ee:66:fc:a0:a6:2e:31:40:dd:24:
                    d9:b7:0d:df:d1:99:70:14:6a:13:ba:94:cf:b7:82:
                    9c:de:c2:83:36:46:f1:e2:42:51:34:31:d9:18:cf:
                    34:3e:62:11:b9:fb:72:5e:24:42:0a:2a:d5:f4:8d:
                    5a:7c:23:90:25:a7:3b:75:99:8c:2c:48:66:3c:01:
                    25:a7:9e:36:d6:fc:49:49:35:9a:37:42:b7:85:6f:
                    4f:64:81:ce:ea:6c:16:cd:e0:ad:5b:8a:23:f6:80:
                    61:c2:a3:04:f5:cc:0e:db:6d:b1:e9:7c:e3:b9:a8:
                    ef:ec:3c:ee:40:ec:19:77:be:43:35:d7:71:12:9d:
                    77:da:bd:f7:cd:ee:53:66:03:97:c2:f6:52:5d:8b:
                    45:73:0a:d2:31:61:66:7f:fc:6c:7b:5f:10:d8:5d:
                    b5:23
                Exponent: 65537 (0x10001)
        X509v3 extensions:
            X509v3 Subject Key Identifier: 
                28:C9:20:30:9B:19:67:58:C3:A0:BC:62:B6:8B:D6:BD:FF:77:90:E8
            X509v3 Authority Key Identifier: 
                keyid:28:C9:20:30:9B:19:67:58:C3:A0:BC:62:B6:8B:D6:BD:FF:77:90:E8

            X509v3 Basic Constraints: 
                CA:TRUE
    Signature Algorithm: sha256WithRSAEncryption
         7e:b4:85:11:ab:f8:20:89:a6:50:42:1a:fb:78:38:c3:c1:62:
         cf:67:7d:20:2c:fb:8d:ae:81:1b:6a:89:6c:9b:0f:ff:4e:34:
         0d:f2:e1:24:55:90:3d:fd:38:09:76:8e:c5:74:46:f0:3d:1a:
         1f:6a:e0:c6:51:97:dc:eb:ea:8a:b7:82:56:4c:29:e5:8b:26:
         5d:c3:a2:ad:86:40:36:a4:29:99:7a:c6:20:b8:23:d8:cb:69:
         f3:83:76:1f:ce:c5:41:93:63:6e:17:ff:a6:ab:73:a1:f7:a2:
         db:ba:bf:05:01:3c:a2:0a:0c:ab:72:ce:c1:8d:ab:89:45:7a:
         ba:f6:bd:23:7d:9c:50:3d:ab:74:14:db:fe:2e:f2:28:19:35:
         5d:94:9a:3b:70:1f:fd:ae:b3:e1:e6:e4:61:85:9a:39:e2:74:
         e7:f0:47:15:b4:bf:8c:bd:ae:66:6f:44:fe:2c:2b:31:93:7e:
         09:be:7c:6d:da:c7:d6:b1:7a:cd:9e:62:80:26:43:75:8e:c8:
         d3:63:ec:fa:79:45:7e:cc:2d:14:b9:d1:cf:d2:5c:72:05:0b:
         b9:19:d1:96:1e:f1:15:93:6f:e2:d8:07:41:dc:a5:df:24:ae:
         ef:40:bc:9b:ff:e2:92:72:7e:ec:50:76:aa:df:91:27:54:07:
         d4:c6:e6:07
-----BEGIN CERTIFICATE-----
MIIDpTCCAo2gAwIBAgIJALyy8M4X0MX0MA0GCSqGSIb3DQEBCwUAMGkxCzAJBgNV
BAYTAlVTMRMwEQYDVQQIDApDYWxpZm9ybmlhMRQwEgYDVQQHDAtTYW50YSBDbGFy
YTENMAsGA1UECgwEcGtnNTEMMAoGA1UEAwwDdGEyMRIwEAYJKoZIhvcNAQkBFgN0
YTIwHhcNMjEwOTIyMDUzMzIwWhcNMjQwNjE4MDUzMzIwWjBpMQswCQYDVQQGEwJV
UzETMBEGA1UECAwKQ2FsaWZvcm5pYTEUMBIGA1UEBwwLU2FudGEgQ2xhcmExDTAL
BgNVBAoMBHBrZzUxDDAKBgNVBAMMA3RhMjESMBAGCSqGSIb3DQEJARYDdGEyMIIB
IjANBgkqhkiG9w0BAQEFAAOCAQ8AMIIBCgKCAQEAoZVBV2891XwWHbS5Tq4mbtgU
f4f3iCDLRnfCTZGy2qMQxcS3zJTiefz3INgwRnlG6LTNY965dwzGUC6euS50wUbc
F/uyriwcPbdgjOc5nSNZ6ivphb1o4ou9vI58ie5m/KCmLjFA3STZtw3f0ZlwFGoT
upTPt4Kc3sKDNkbx4kJRNDHZGM80PmIRuftyXiRCCirV9I1afCOQJac7dZmMLEhm
PAElp5421vxJSTWaN0K3hW9PZIHO6mwWzeCtW4oj9oBhwqME9cwO222x6Xzjuajv
7DzuQOwZd75DNddxEp132r33ze5TZgOXwvZSXYtFcwrSMWFmf/xse18Q2F21IwID
AQABo1AwTjAdBgNVHQ4EFgQUKMkgMJsZZ1jDoLxitovWvf93kOgwHwYDVR0jBBgw
FoAUKMkgMJsZZ1jDoLxitovWvf93kOgwDAYDVR0TBAUwAwEB/zANBgkqhkiG9w0B
AQsFAAOCAQEAfrSFEav4IImmUEIa+3g4w8Fiz2d9ICz7ja6BG2qJbJsP/040DfLh
JFWQPf04CXaOxXRG8D0aH2rgxlGX3OvqireCVkwp5YsmXcOirYZANqQpmXrGILgj
2Mtp84N2H87FQZNjbhf/pqtzofei27q/BQE8ogoMq3LOwY2riUV6uva9I32cUD2r
dBTb/i7yKBk1XZSaO3Af/a6z4ebkYYWaOeJ05/BHFbS/jL2uZm9E/iwrMZN+Cb58
bdrH1rF6zZ5igCZDdY7I02Ps+nlFfswtFLnRz9JccgULuRnRlh7xFZNv4tgHQdyl
3ySu70C8m//iknJ+7FB2qt+RJ1QH1MbmBw==
-----END CERTIFICATE-----
