Certificate:
    Data:
        Version: 3 (0x2)
        Serial Number:
            a3:0a:29:bc:c4:1c:d8:4c
        Signature Algorithm: sha256WithRSAEncryption
        Issuer: C=US, ST=California, L=Menlo Park, O=pkg5, CN=ta2/emailAddress=ta2
        Validity
            Not Before: Jan 28 02:54:13 2011 GMT
            Not After : Oct 24 02:54:13 2013 GMT
        Subject: C=US, ST=California, L=Menlo Park, O=pkg5, CN=ta2/emailAddress=ta2
        Subject Public Key Info:
            Public Key Algorithm: rsaEncryption
            RSA Public Key: (1024 bit)
                Modulus (1024 bit):
                    00:d6:3a:84:18:7a:d6:3a:ee:7d:4c:75:0a:18:f4:
                    ce:c0:2c:b5:59:eb:bd:83:0c:3c:59:90:0c:35:b9:
                    c8:55:a4:c1:04:88:41:c4:40:a8:73:4e:f1:e4:db:
                    84:aa:bb:03:7b:e1:5e:5d:91:a0:ee:22:3d:f3:84:
                    35:09:de:a9:07:69:35:e6:8f:65:c4:55:70:52:a6:
                    5f:36:ff:6a:d3:7c:c5:6c:d3:cb:4f:a1:d8:94:68:
                    14:49:32:93:4c:ad:ac:09:25:c5:b4:e5:92:c4:5d:
                    f5:d0:49:54:dc:e6:df:80:6f:c2:86:34:39:0e:e6:
                    a8:9b:6b:32:21:41:ca:7b:ad
                Exponent: 65537 (0x10001)
        X509v3 extensions:
            X509v3 Subject Key Identifier: 
                D5:27:DA:4C:ED:2E:83:84:C3:2A:A9:98:E6:88:24:2A:03:01:CF:D5
            X509v3 Authority Key Identifier: 
                keyid:D5:27:DA:4C:ED:2E:83:84:C3:2A:A9:98:E6:88:24:2A:03:01:CF:D5
                DirName:/C=US/ST=California/L=Menlo Park/O=pkg5/CN=ta2/emailAddress=ta2
                serial:A3:0A:29:BC:C4:1C:D8:4C

            X509v3 Basic Constraints: 
                CA:TRUE
    Signature Algorithm: sha256WithRSAEncryption
        23:44:91:7e:24:18:05:e5:1f:05:7b:e1:ca:e2:a5:b9:f0:16:
        04:b2:2c:7d:1b:a7:7f:eb:9e:71:95:ab:8d:46:65:30:b5:3f:
        af:e5:39:0e:2d:83:30:80:a0:cb:a7:f7:a4:41:5c:7e:d9:41:
        ef:7b:d2:b6:dd:9e:37:d4:d4:ac:c7:ee:06:42:69:02:88:b2:
        97:60:bc:95:c5:ca:c9:59:8a:d6:35:3f:b6:09:58:62:e7:c3:
        a3:f9:f7:4e:10:30:94:05:91:0c:cb:f7:11:17:5e:7d:bf:99:
        ca:1d:ca:08:58:f8:a0:ea:26:0e:44:ce:cc:4a:34:b8:6a:9e:
        88:ac
-----BEGIN CERTIFICATE-----
MIIDHDCCAoWgAwIBAgIJAKMKKbzEHNhMMA0GCSqGSIb3DQEBCwUAMGgxCzAJBgNV
BAYTAlVTMRMwEQYDVQQIEwpDYWxpZm9ybmlhMRMwEQYDVQQHEwpNZW5sbyBQYXJr
MQ0wCwYDVQQKEwRwa2c1MQwwCgYDVQQDEwN0YTIxEjAQBgkqhkiG9w0BCQEWA3Rh
MjAeFw0xMTAxMjgwMjU0MTNaFw0xMzEwMjQwMjU0MTNaMGgxCzAJBgNVBAYTAlVT
MRMwEQYDVQQIEwpDYWxpZm9ybmlhMRMwEQYDVQQHEwpNZW5sbyBQYXJrMQ0wCwYD
VQQKEwRwa2c1MQwwCgYDVQQDEwN0YTIxEjAQBgkqhkiG9w0BCQEWA3RhMjCBnzAN
BgkqhkiG9w0BAQEFAAOBjQAwgYkCgYEA1jqEGHrWOu59THUKGPTOwCy1Weu9gww8
WZAMNbnIVaTBBIhBxECoc07x5NuEqrsDe+FeXZGg7iI984Q1Cd6pB2k15o9lxFVw
UqZfNv9q03zFbNPLT6HYlGgUSTKTTK2sCSXFtOWSxF310ElU3ObfgG/ChjQ5Duao
m2syIUHKe60CAwEAAaOBzTCByjAdBgNVHQ4EFgQU1SfaTO0ug4TDKqmY5ogkKgMB
z9UwgZoGA1UdIwSBkjCBj4AU1SfaTO0ug4TDKqmY5ogkKgMBz9WhbKRqMGgxCzAJ
BgNVBAYTAlVTMRMwEQYDVQQIEwpDYWxpZm9ybmlhMRMwEQYDVQQHEwpNZW5sbyBQ
YXJrMQ0wCwYDVQQKEwRwa2c1MQwwCgYDVQQDEwN0YTIxEjAQBgkqhkiG9w0BCQEW
A3RhMoIJAKMKKbzEHNhMMAwGA1UdEwQFMAMBAf8wDQYJKoZIhvcNAQELBQADgYEA
I0SRfiQYBeUfBXvhyuKlufAWBLIsfRunf+uecZWrjUZlMLU/r+U5Di2DMICgy6f3
pEFcftlB73vStt2eN9TUrMfuBkJpAoiyl2C8lcXKyVmK1jU/tglYYufDo/n3ThAw
lAWRDMv3ERdefb+Zyh3KCFj4oOomDkTOzEo0uGqeiKw=
-----END CERTIFICATE-----
