Certificate:
    Data:
        Version: 3 (0x2)
        Serial Number:
            b0:ef:ff:7c:38:9b:09:88
        Signature Algorithm: sha256WithRSAEncryption
        Issuer: C=US, ST=California, L=Menlo Park, O=pkg5, CN=ta2/emailAddress=ta2
        Validity
            Not Before: Aug  4 20:59:25 2010 GMT
            Not After : Apr 30 20:59:25 2013 GMT
        Subject: C=US, ST=California, L=Menlo Park, O=pkg5, CN=ta2/emailAddress=ta2
        Subject Public Key Info:
            Public Key Algorithm: rsaEncryption
            RSA Public Key: (1024 bit)
                Modulus (1024 bit):
                    00:be:3e:9c:d8:84:82:5e:4b:9f:9c:0e:64:8c:9f:
                    d0:84:d8:e4:ef:5e:0e:c2:83:94:e0:ef:6f:5a:91:
                    3e:c5:b9:1b:cf:a5:8c:d8:39:7f:11:d3:51:1f:b7:
                    7c:79:0e:0f:f4:0e:1d:34:49:70:cc:01:09:34:ff:
                    cb:79:77:84:39:d9:bf:67:2c:e2:15:88:a7:9a:ec:
                    ae:47:67:1a:72:fb:1d:be:60:26:3a:22:8e:b5:26:
                    3d:04:c3:c6:23:87:4d:3c:34:58:5d:9a:f6:a1:a0:
                    61:da:a6:c0:06:3e:c3:6b:db:f4:cb:7a:ef:f7:44:
                    ef:b1:37:e3:86:31:70:fc:9b
                Exponent: 65537 (0x10001)
        X509v3 extensions:
            X509v3 Subject Key Identifier: 
                F2:36:95:27:CB:21:43:55:A4:D6:1D:C0:D5:1C:39:64:1F:7B:59:28
            X509v3 Authority Key Identifier: 
                keyid:F2:36:95:27:CB:21:43:55:A4:D6:1D:C0:D5:1C:39:64:1F:7B:59:28
                DirName:/C=US/ST=California/L=Menlo Park/O=pkg5/CN=ta2/emailAddress=ta2
                serial:B0:EF:FF:7C:38:9B:09:88

            X509v3 Basic Constraints: 
                CA:TRUE
    Signature Algorithm: sha256WithRSAEncryption
        2b:16:de:59:9f:d5:d6:88:9c:0c:10:8b:cd:9e:43:b6:d7:a8:
        cc:4c:12:fb:88:b2:cd:99:f2:a9:d7:0d:2d:fc:48:26:bc:41:
        09:58:14:a2:79:52:41:6d:94:4c:9b:ce:75:6d:14:4d:e8:43:
        4a:7d:27:c9:e9:e0:76:2b:ca:4e:9b:af:12:34:83:0c:d5:15:
        f6:a6:29:89:6e:56:49:ff:27:3c:08:bb:68:29:9e:77:09:f9:
        1a:67:2a:f5:75:c7:f0:4b:1c:c3:6a:0e:06:50:04:e7:65:83:
        f6:81:10:a3:4a:a5:96:ef:90:2f:ef:73:57:86:6d:10:ac:2a:
        34:9d
-----BEGIN CERTIFICATE-----
MIIDHDCCAoWgAwIBAgIJALDv/3w4mwmIMA0GCSqGSIb3DQEBCwUAMGgxCzAJBgNV
BAYTAlVTMRMwEQYDVQQIEwpDYWxpZm9ybmlhMRMwEQYDVQQHEwpNZW5sbyBQYXJr
MQ0wCwYDVQQKEwRwa2c1MQwwCgYDVQQDEwN0YTIxEjAQBgkqhkiG9w0BCQEWA3Rh
MjAeFw0xMDA4MDQyMDU5MjVaFw0xMzA0MzAyMDU5MjVaMGgxCzAJBgNVBAYTAlVT
MRMwEQYDVQQIEwpDYWxpZm9ybmlhMRMwEQYDVQQHEwpNZW5sbyBQYXJrMQ0wCwYD
VQQKEwRwa2c1MQwwCgYDVQQDEwN0YTIxEjAQBgkqhkiG9w0BCQEWA3RhMjCBnzAN
BgkqhkiG9w0BAQEFAAOBjQAwgYkCgYEAvj6c2ISCXkufnA5kjJ/QhNjk714OwoOU
4O9vWpE+xbkbz6WM2Dl/EdNRH7d8eQ4P9A4dNElwzAEJNP/LeXeEOdm/ZyziFYin
muyuR2cacvsdvmAmOiKOtSY9BMPGI4dNPDRYXZr2oaBh2qbABj7Da9v0y3rv90Tv
sTfjhjFw/JsCAwEAAaOBzTCByjAdBgNVHQ4EFgQU8jaVJ8shQ1Wk1h3A1Rw5ZB97
WSgwgZoGA1UdIwSBkjCBj4AU8jaVJ8shQ1Wk1h3A1Rw5ZB97WSihbKRqMGgxCzAJ
BgNVBAYTAlVTMRMwEQYDVQQIEwpDYWxpZm9ybmlhMRMwEQYDVQQHEwpNZW5sbyBQ
YXJrMQ0wCwYDVQQKEwRwa2c1MQwwCgYDVQQDEwN0YTIxEjAQBgkqhkiG9w0BCQEW
A3RhMoIJALDv/3w4mwmIMAwGA1UdEwQFMAMBAf8wDQYJKoZIhvcNAQELBQADgYEA
KxbeWZ/V1oicDBCLzZ5DtteozEwS+4iyzZnyqdcNLfxIJrxBCVgUonlSQW2UTJvO
dW0UTehDSn0nyengdivKTpuvEjSDDNUV9qYpiW5WSf8nPAi7aCmedwn5Gmcq9XXH
8Escw2oOBlAE52WD9oEQo0qllu+QL+9zV4ZtEKwqNJ0=
-----END CERTIFICATE-----
