Certificate:
    Data:
        Version: 3 (0x2)
        Serial Number: 14037481157086320985 (0xc2cf26bd155e9959)
    Signature Algorithm: sha256WithRSAEncryption
        Issuer: C=US, ST=California, L=Santa Clara, O=pkg5, CN=ta2/emailAddress=ta2
        Validity
            Not Before: Jan 22 01:57:55 2016 GMT
            Not After : Oct 18 01:57:55 2018 GMT
        Subject: C=US, ST=California, L=Santa Clara, O=pkg5, CN=ta2/emailAddress=ta2
        Subject Public Key Info:
            Public Key Algorithm: rsaEncryption
                Public-Key: (2048 bit)
                Modulus:
                    00:f8:5b:ff:2a:97:8b:88:f0:02:a9:4f:65:50:a2:
                    cd:aa:f4:1c:29:98:f7:e9:6e:29:60:2a:3a:f2:f6:
                    5f:f6:46:70:1a:d6:ae:89:38:93:d5:53:6f:5e:cb:
                    e2:88:c1:e5:94:c7:b8:e4:45:80:5e:04:6f:6f:09:
                    cf:d6:22:61:6a:dc:64:0f:b5:ea:e8:52:77:e2:fe:
                    7f:ed:8a:c8:da:90:39:08:79:c4:06:05:37:7a:a6:
                    85:55:d6:ac:e5:dd:a6:44:fa:26:6b:e7:36:53:7c:
                    7e:8a:c5:b4:e1:90:5f:46:b3:ff:16:d2:cf:d3:be:
                    e9:f8:64:e5:5c:3d:83:1e:42:d7:fb:ff:ba:d5:41:
                    2d:b0:d4:5b:a8:d4:87:e6:10:8e:27:46:bf:50:a8:
                    d2:89:88:11:5c:61:11:6c:0e:f2:8b:24:97:ed:64:
                    cb:33:15:bb:73:2e:c1:27:a9:fb:2d:94:ce:ef:cd:
                    b7:f2:f8:5b:cb:a0:82:cb:88:3f:c0:db:82:ba:81:
                    b8:28:17:49:6c:ba:5e:67:59:9b:a4:c4:74:d9:ac:
                    0b:01:48:73:21:d9:70:5a:d9:c7:7b:d0:11:45:b6:
                    59:7a:45:b9:b6:75:86:73:4b:86:94:14:35:d9:cc:
                    a4:fc:d9:8f:f3:cb:4e:97:57:9b:bb:e5:41:64:10:
                    70:a5
                Exponent: 65537 (0x10001)
        X509v3 extensions:
            X509v3 Subject Key Identifier: 
                57:64:C5:AD:5A:0B:B3:1B:B5:0C:AD:7A:A4:1B:D6:06:33:72:B9:B9
            X509v3 Authority Key Identifier: 
                keyid:57:64:C5:AD:5A:0B:B3:1B:B5:0C:AD:7A:A4:1B:D6:06:33:72:B9:B9

            X509v3 Basic Constraints: 
                CA:TRUE
    Signature Algorithm: sha256WithRSAEncryption
         e3:cb:29:b4:e6:7b:26:39:35:bf:1b:dd:40:40:6d:1a:66:10:
         b6:3d:2a:6c:2b:ff:c7:d3:e8:f4:55:e6:bd:f9:a0:e6:9f:30:
         b2:c9:61:14:2c:c8:39:ab:1a:5e:32:2d:51:81:23:46:9a:27:
         6d:37:dd:d7:a7:a9:3c:28:ed:9e:e9:97:1b:24:18:fc:8c:93:
         c5:69:ea:9d:1e:69:d7:65:a3:d8:68:fc:ab:79:33:76:10:18:
         2d:76:0e:c0:c3:62:93:60:3c:96:fc:0d:07:c8:85:15:87:04:
         b8:8f:ca:48:7c:c6:6f:7f:f8:44:61:c4:c2:94:88:53:1e:4f:
         ef:a7:14:7e:ec:a0:50:dc:f1:f9:7f:4d:77:d5:c2:50:05:26:
         77:ec:18:8e:0b:b3:f3:7e:31:61:73:30:b5:5e:64:eb:13:8a:
         89:25:bc:b1:f2:af:ba:7c:aa:e9:89:45:ad:18:ab:25:a9:d0:
         d8:b5:94:8f:d0:ea:58:37:28:34:a5:b5:cf:cc:5b:cf:f5:c2:
         6d:67:43:e4:f0:ea:40:ff:7a:8d:2e:55:2c:54:5c:23:00:e5:
         52:52:21:db:58:c6:ca:71:ef:47:97:0e:5a:ab:20:98:4d:60:
         26:29:ed:03:5c:0b:d1:b6:e7:bd:a9:43:72:95:dc:83:98:fe:
         a6:1b:51:f1
-----BEGIN CERTIFICATE-----
MIIDpTCCAo2gAwIBAgIJAMLPJr0VXplZMA0GCSqGSIb3DQEBCwUAMGkxCzAJBgNV
BAYTAlVTMRMwEQYDVQQIDApDYWxpZm9ybmlhMRQwEgYDVQQHDAtTYW50YSBDbGFy
YTENMAsGA1UECgwEcGtnNTEMMAoGA1UEAwwDdGEyMRIwEAYJKoZIhvcNAQkBFgN0
YTIwHhcNMTYwMTIyMDE1NzU1WhcNMTgxMDE4MDE1NzU1WjBpMQswCQYDVQQGEwJV
UzETMBEGA1UECAwKQ2FsaWZvcm5pYTEUMBIGA1UEBwwLU2FudGEgQ2xhcmExDTAL
BgNVBAoMBHBrZzUxDDAKBgNVBAMMA3RhMjESMBAGCSqGSIb3DQEJARYDdGEyMIIB
IjANBgkqhkiG9w0BAQEFAAOCAQ8AMIIBCgKCAQEA+Fv/KpeLiPACqU9lUKLNqvQc
KZj36W4pYCo68vZf9kZwGtauiTiT1VNvXsviiMHllMe45EWAXgRvbwnP1iJhatxk
D7Xq6FJ34v5/7YrI2pA5CHnEBgU3eqaFVdas5d2mRPoma+c2U3x+isW04ZBfRrP/
FtLP077p+GTlXD2DHkLX+/+61UEtsNRbqNSH5hCOJ0a/UKjSiYgRXGERbA7yiySX
7WTLMxW7cy7BJ6n7LZTO78238vhby6CCy4g/wNuCuoG4KBdJbLpeZ1mbpMR02awL
AUhzIdlwWtnHe9ARRbZZekW5tnWGc0uGlBQ12cyk/NmP88tOl1ebu+VBZBBwpQID
AQABo1AwTjAdBgNVHQ4EFgQUV2TFrVoLsxu1DK16pBvWBjNyubkwHwYDVR0jBBgw
FoAUV2TFrVoLsxu1DK16pBvWBjNyubkwDAYDVR0TBAUwAwEB/zANBgkqhkiG9w0B
AQsFAAOCAQEA48sptOZ7Jjk1vxvdQEBtGmYQtj0qbCv/x9Po9FXmvfmg5p8wsslh
FCzIOasaXjItUYEjRponbTfd16epPCjtnumXGyQY/IyTxWnqnR5p12Wj2Gj8q3kz
dhAYLXYOwMNik2A8lvwNB8iFFYcEuI/KSHzGb3/4RGHEwpSIUx5P76cUfuygUNzx
+X9Nd9XCUAUmd+wYjguz834xYXMwtV5k6xOKiSW8sfKvunyq6YlFrRirJanQ2LWU
j9DqWDcoNKW1z8xbz/XCbWdD5PDqQP96jS5VLFRcIwDlUlIh21jGynHvR5cOWqsg
mE1gJintA1wL0bbnvalDcpXcg5j+phtR8Q==
-----END CERTIFICATE-----
