Certificate:
    Data:
        Version: 3 (0x2)
        Serial Number: 17668597499765822237 (0xf53377d054e5931d)
    Signature Algorithm: sha256WithRSAEncryption
        Issuer: C=US, ST=California, L=Santa Clara, O=pkg5, CN=ta2/emailAddress=ta2
        Validity
            Not Before: Dec 13 00:13:35 2013 GMT
            Not After : Sep  8 00:13:35 2016 GMT
        Subject: C=US, ST=California, L=Santa Clara, O=pkg5, CN=ta2/emailAddress=ta2
        Subject Public Key Info:
            Public Key Algorithm: rsaEncryption
                Public-Key: (1024 bit)
                Modulus:
                    00:ca:34:f6:15:9c:de:7d:a0:37:35:0b:50:e2:d8:
                    5b:71:aa:30:27:c3:fb:b2:54:24:b2:7d:cc:52:a5:
                    3d:90:1e:1c:38:d4:b4:f0:f4:b6:63:db:dc:25:c2:
                    ab:b2:6a:b6:90:85:85:aa:5f:ed:0f:53:53:82:5c:
                    19:63:d5:bb:fb:b3:d8:cc:3c:9b:4b:99:f1:55:58:
                    bb:36:5d:71:6b:96:1a:2f:11:c9:8e:1e:49:bd:66:
                    39:3f:4e:9d:30:f9:5e:7d:40:05:8f:2e:33:04:75:
                    00:7b:dc:54:4d:b7:37:68:72:e6:f3:b7:3d:29:58:
                    84:01:6b:98:29:ba:4c:2b:c1
                Exponent: 65537 (0x10001)
        X509v3 extensions:
            X509v3 Subject Key Identifier: 
                D2:63:03:4B:B8:08:98:F2:25:62:95:57:75:A2:F1:AA:83:E9:0B:5F
            X509v3 Authority Key Identifier: 
                keyid:D2:63:03:4B:B8:08:98:F2:25:62:95:57:75:A2:F1:AA:83:E9:0B:5F

            X509v3 Basic Constraints: 
                CA:TRUE
    Signature Algorithm: sha256WithRSAEncryption
         40:4c:5f:92:42:4b:a1:21:e1:76:e1:87:1c:42:1f:15:bd:08:
         4b:bd:ec:a8:8d:6f:d8:f4:2a:df:5d:f8:4c:df:6a:ea:5f:07:
         ce:00:0a:06:88:60:9c:32:13:4f:e5:99:99:90:56:bc:91:7a:
         5b:e2:2f:f6:90:e9:97:11:6c:ff:7c:aa:32:37:60:95:0b:b5:
         b1:99:ec:1d:62:26:51:2f:b9:a2:f1:d2:ed:89:e4:52:c7:fa:
         9b:62:d3:92:c4:33:c7:95:cb:4c:23:02:2d:af:bf:0e:58:26:
         24:b7:b7:1c:f2:f4:88:3a:12:36:40:e5:58:5a:25:db:24:f0:
         dd:9d
-----BEGIN CERTIFICATE-----
MIICoDCCAgmgAwIBAgIJAPUzd9BU5ZMdMA0GCSqGSIb3DQEBCwUAMGkxCzAJBgNV
BAYTAlVTMRMwEQYDVQQIDApDYWxpZm9ybmlhMRQwEgYDVQQHDAtTYW50YSBDbGFy
YTENMAsGA1UECgwEcGtnNTEMMAoGA1UEAwwDdGEyMRIwEAYJKoZIhvcNAQkBFgN0
YTIwHhcNMTMxMjEzMDAxMzM1WhcNMTYwOTA4MDAxMzM1WjBpMQswCQYDVQQGEwJV
UzETMBEGA1UECAwKQ2FsaWZvcm5pYTEUMBIGA1UEBwwLU2FudGEgQ2xhcmExDTAL
BgNVBAoMBHBrZzUxDDAKBgNVBAMMA3RhMjESMBAGCSqGSIb3DQEJARYDdGEyMIGf
MA0GCSqGSIb3DQEBAQUAA4GNADCBiQKBgQDKNPYVnN59oDc1C1Di2FtxqjAnw/uy
VCSyfcxSpT2QHhw41LTw9LZj29wlwquyaraQhYWqX+0PU1OCXBlj1bv7s9jMPJtL
mfFVWLs2XXFrlhovEcmOHkm9Zjk/Tp0w+V59QAWPLjMEdQB73FRNtzdocubztz0p
WIQBa5gpukwrwQIDAQABo1AwTjAdBgNVHQ4EFgQU0mMDS7gImPIlYpVXdaLxqoPp
C18wHwYDVR0jBBgwFoAU0mMDS7gImPIlYpVXdaLxqoPpC18wDAYDVR0TBAUwAwEB
/zANBgkqhkiG9w0BAQsFAAOBgQBATF+SQkuhIeF24YccQh8VvQhLveyojW/Y9Crf
XfhM32rqXwfOAAoGiGCcMhNP5ZmZkFa8kXpb4i/2kOmXEWz/fKoyN2CVC7Wxmewd
YiZRL7mi8dLtieRSx/qbYtOSxDPHlctMIwItr78OWCYkt7cc8vSIOhI2QOVYWiXb
JPDdnQ==
-----END CERTIFICATE-----
