Certificate:
    Data:
        Version: 3 (0x2)
        Serial Number:
            e4:2c:84:25:53:01:eb:e0
        Signature Algorithm: sha256WithRSAEncryption
        Issuer: C=US, ST=California, L=Menlo Park, O=pkg5, CN=ta2/emailAddress=ta2
        Validity
            Not Before: Apr 11 22:37:43 2011 GMT
            Not After : Jan  5 22:37:43 2014 GMT
        Subject: C=US, ST=California, L=Menlo Park, O=pkg5, CN=ta2/emailAddress=ta2
        Subject Public Key Info:
            Public Key Algorithm: rsaEncryption
            RSA Public Key: (1024 bit)
                Modulus (1024 bit):
                    00:e3:75:e1:44:6d:68:b1:dc:64:6b:a3:06:0a:3b:
                    91:ad:10:ce:45:99:f3:ea:32:3c:92:bc:b1:85:d5:
                    c5:62:a6:fd:3e:33:64:fb:84:6e:09:e1:c6:76:34:
                    43:63:7f:7b:93:bc:6c:0e:31:58:b0:c0:c8:c7:b4:
                    6e:aa:db:40:86:67:b0:2c:79:82:fb:31:1f:71:6c:
                    10:a4:b9:0b:dd:d8:78:e4:b3:a3:af:de:c6:0f:21:
                    fd:5c:e6:01:b6:87:82:9b:04:16:6e:42:a5:57:39:
                    fe:85:e3:57:58:cd:fe:90:c7:d3:35:7d:91:13:bf:
                    05:f2:21:ac:42:e7:0f:e4:e3
                Exponent: 65537 (0x10001)
        X509v3 extensions:
            X509v3 Subject Key Identifier: 
                41:D6:E0:DA:6C:87:A3:44:65:CC:AB:12:C8:6C:0C:72:3A:39:90:2E
            X509v3 Authority Key Identifier: 
                keyid:41:D6:E0:DA:6C:87:A3:44:65:CC:AB:12:C8:6C:0C:72:3A:39:90:2E
                DirName:/C=US/ST=California/L=Menlo Park/O=pkg5/CN=ta2/emailAddress=ta2
                serial:E4:2C:84:25:53:01:EB:E0

            X509v3 Basic Constraints: 
                CA:TRUE
    Signature Algorithm: sha256WithRSAEncryption
        b1:c5:14:e7:5f:ca:f0:de:3b:c5:f6:10:7c:5c:8a:63:a1:f6:
        07:4b:9d:9f:53:a9:c8:5c:d7:01:d1:df:6c:20:5c:f5:13:a2:
        bc:5a:65:4a:b2:f9:25:7a:28:1b:4a:03:14:d5:e9:df:36:58:
        e9:2e:d1:48:f9:89:7f:2c:04:a5:80:01:38:b5:b9:68:01:f8:
        78:65:38:af:33:2f:fa:17:61:e4:fd:73:f8:a4:f7:b5:f5:f5:
        d6:b9:94:3a:32:70:37:b1:e8:58:84:58:92:6c:6a:57:da:84:
        a5:f5:a9:7e:c1:10:6d:54:fb:82:f9:59:8a:6b:23:5d:33:3a:
        97:2d
-----BEGIN CERTIFICATE-----
MIIDHDCCAoWgAwIBAgIJAOQshCVTAevgMA0GCSqGSIb3DQEBCwUAMGgxCzAJBgNV
BAYTAlVTMRMwEQYDVQQIEwpDYWxpZm9ybmlhMRMwEQYDVQQHEwpNZW5sbyBQYXJr
MQ0wCwYDVQQKEwRwa2c1MQwwCgYDVQQDEwN0YTIxEjAQBgkqhkiG9w0BCQEWA3Rh
MjAeFw0xMTA0MTEyMjM3NDNaFw0xNDAxMDUyMjM3NDNaMGgxCzAJBgNVBAYTAlVT
MRMwEQYDVQQIEwpDYWxpZm9ybmlhMRMwEQYDVQQHEwpNZW5sbyBQYXJrMQ0wCwYD
VQQKEwRwa2c1MQwwCgYDVQQDEwN0YTIxEjAQBgkqhkiG9w0BCQEWA3RhMjCBnzAN
BgkqhkiG9w0BAQEFAAOBjQAwgYkCgYEA43XhRG1osdxka6MGCjuRrRDORZnz6jI8
kryxhdXFYqb9PjNk+4RuCeHGdjRDY397k7xsDjFYsMDIx7RuqttAhmewLHmC+zEf
cWwQpLkL3dh45LOjr97GDyH9XOYBtoeCmwQWbkKlVzn+heNXWM3+kMfTNX2RE78F
8iGsQucP5OMCAwEAAaOBzTCByjAdBgNVHQ4EFgQUQdbg2myHo0RlzKsSyGwMcjo5
kC4wgZoGA1UdIwSBkjCBj4AUQdbg2myHo0RlzKsSyGwMcjo5kC6hbKRqMGgxCzAJ
BgNVBAYTAlVTMRMwEQYDVQQIEwpDYWxpZm9ybmlhMRMwEQYDVQQHEwpNZW5sbyBQ
YXJrMQ0wCwYDVQQKEwRwa2c1MQwwCgYDVQQDEwN0YTIxEjAQBgkqhkiG9w0BCQEW
A3RhMoIJAOQshCVTAevgMAwGA1UdEwQFMAMBAf8wDQYJKoZIhvcNAQELBQADgYEA
scUU51/K8N47xfYQfFyKY6H2B0udn1OpyFzXAdHfbCBc9ROivFplSrL5JXooG0oD
FNXp3zZY6S7RSPmJfywEpYABOLW5aAH4eGU4rzMv+hdh5P1z+KT3tfX11rmUOjJw
N7HoWIRYkmxqV9qEpfWpfsEQbVT7gvlZimsjXTM6ly0=
-----END CERTIFICATE-----
