Certificate:
    Data:
        Version: 3 (0x2)
        Serial Number:
            c5:bc:47:75:58:6e:3c:5b
    Signature Algorithm: sha256WithRSAEncryption
        Issuer: C=US, ST=California, L=Santa Clara, O=pkg5, CN=ta2/emailAddress=ta2
        Validity
            Not Before: Jul 19 11:35:45 2023 GMT
            Not After : Apr 14 11:35:45 2026 GMT
        Subject: C=US, ST=California, L=Santa Clara, O=pkg5, CN=ta2/emailAddress=ta2
        Subject Public Key Info:
            Public Key Algorithm: rsaEncryption
                Public-Key: (2048 bit)
                Modulus:
                    00:d1:32:87:ee:57:a2:31:73:f5:8d:b3:be:d0:68:
                    18:50:53:33:bb:ce:15:1c:8a:fb:99:4c:e5:15:3d:
                    17:bd:5c:80:33:05:29:23:9b:33:a1:59:69:db:f4:
                    4b:23:b5:ca:a2:66:e0:0b:90:57:31:6b:07:3d:fc:
                    d2:06:b4:35:e4:5a:63:4f:6b:30:59:be:5b:0a:e6:
                    f2:f9:cf:c8:04:17:82:83:c1:58:ce:c2:16:58:c2:
                    6a:fd:ac:f7:6e:5d:c8:97:24:80:bc:af:91:cb:84:
                    a3:3a:b4:bc:2f:b2:05:9d:68:3b:a6:21:32:e2:77:
                    fd:ed:af:5d:e3:fc:35:1e:71:bf:fc:a6:50:e1:c9:
                    32:a1:6b:6d:68:63:35:29:92:1a:17:91:cc:9e:5f:
                    89:70:d2:96:3d:0d:7a:3b:04:06:0b:fa:b3:71:f7:
                    30:03:4a:f0:4b:30:a3:f1:7e:0d:6c:e0:37:32:03:
                    af:7c:cc:43:51:37:57:4b:c0:93:69:75:cc:95:d1:
                    bf:d6:5b:a9:7f:fd:0d:8c:40:92:f9:ad:3e:fe:06:
                    27:77:3e:33:59:06:35:d3:82:19:ef:2f:8d:2a:0a:
                    5f:e2:bd:b2:7e:d6:32:6d:bc:73:7b:5f:f8:c2:7d:
                    62:d7:71:72:75:6f:74:06:19:52:98:79:36:68:03:
                    30:b1
                Exponent: 65537 (0x10001)
        X509v3 extensions:
            X509v3 Subject Key Identifier: 
                48:3C:DE:34:4E:FD:F7:7C:C4:E3:F6:79:3B:9F:32:99:44:1B:79:7C
            X509v3 Authority Key Identifier: 
                keyid:48:3C:DE:34:4E:FD:F7:7C:C4:E3:F6:79:3B:9F:32:99:44:1B:79:7C

            X509v3 Basic Constraints: 
                CA:TRUE
    Signature Algorithm: sha256WithRSAEncryption
         77:10:45:15:85:8c:07:51:e3:13:2f:cc:40:9c:24:b6:84:f9:
         e8:70:cb:6c:44:e7:e7:b6:08:82:f9:aa:ac:48:7d:fc:24:48:
         d1:93:5a:a9:39:ee:f6:84:f6:76:38:40:bf:36:54:9d:e8:17:
         74:73:d6:df:54:d6:21:7f:ee:bf:be:40:e9:1c:23:3a:98:7f:
         84:17:73:7d:29:0c:45:b5:a3:09:19:85:41:25:4e:6c:69:e2:
         70:93:d2:d9:40:eb:24:be:4e:f3:cf:be:ba:62:38:92:b4:75:
         56:d1:fc:0f:01:66:ff:8f:e0:49:31:b1:4a:4b:92:b5:a5:c0:
         5b:5f:13:89:2b:84:b8:25:44:d5:12:3e:31:aa:7f:be:ca:5d:
         57:19:cc:87:04:f5:f9:64:07:94:46:d7:84:19:91:27:aa:b2:
         3e:a2:3f:3d:51:4f:e7:ea:41:64:f4:97:3b:4b:bb:c6:06:dc:
         fc:30:ab:f7:c8:bc:58:07:d1:fa:87:5c:d8:83:e8:41:b5:fe:
         55:cf:01:29:c3:af:fc:73:fc:94:c2:f1:4e:78:82:b1:a6:66:
         06:95:44:f4:2c:90:f9:a9:fb:26:54:8c:cd:11:27:5e:23:a7:
         f8:9d:f4:24:2d:91:28:d4:30:85:42:9b:62:56:6e:72:21:2d:
         45:47:66:86
-----BEGIN CERTIFICATE-----
MIIDpTCCAo2gAwIBAgIJAMW8R3VYbjxbMA0GCSqGSIb3DQEBCwUAMGkxCzAJBgNV
BAYTAlVTMRMwEQYDVQQIDApDYWxpZm9ybmlhMRQwEgYDVQQHDAtTYW50YSBDbGFy
YTENMAsGA1UECgwEcGtnNTEMMAoGA1UEAwwDdGEyMRIwEAYJKoZIhvcNAQkBFgN0
YTIwHhcNMjMwNzE5MTEzNTQ1WhcNMjYwNDE0MTEzNTQ1WjBpMQswCQYDVQQGEwJV
UzETMBEGA1UECAwKQ2FsaWZvcm5pYTEUMBIGA1UEBwwLU2FudGEgQ2xhcmExDTAL
BgNVBAoMBHBrZzUxDDAKBgNVBAMMA3RhMjESMBAGCSqGSIb3DQEJARYDdGEyMIIB
IjANBgkqhkiG9w0BAQEFAAOCAQ8AMIIBCgKCAQEA0TKH7leiMXP1jbO+0GgYUFMz
u84VHIr7mUzlFT0XvVyAMwUpI5szoVlp2/RLI7XKombgC5BXMWsHPfzSBrQ15Fpj
T2swWb5bCuby+c/IBBeCg8FYzsIWWMJq/az3bl3IlySAvK+Ry4SjOrS8L7IFnWg7
piEy4nf97a9d4/w1HnG//KZQ4ckyoWttaGM1KZIaF5HMnl+JcNKWPQ16OwQGC/qz
cfcwA0rwSzCj8X4NbOA3MgOvfMxDUTdXS8CTaXXMldG/1lupf/0NjECS+a0+/gYn
dz4zWQY104IZ7y+NKgpf4r2yftYybbxze1/4wn1i13FydW90BhlSmHk2aAMwsQID
AQABo1AwTjAdBgNVHQ4EFgQUSDzeNE7993zE4/Z5O58ymUQbeXwwHwYDVR0jBBgw
FoAUSDzeNE7993zE4/Z5O58ymUQbeXwwDAYDVR0TBAUwAwEB/zANBgkqhkiG9w0B
AQsFAAOCAQEAdxBFFYWMB1HjEy/MQJwktoT56HDLbETn57YIgvmqrEh9/CRI0ZNa
qTnu9oT2djhAvzZUnegXdHPW31TWIX/uv75A6RwjOph/hBdzfSkMRbWjCRmFQSVO
bGnicJPS2UDrJL5O88++umI4krR1VtH8DwFm/4/gSTGxSkuStaXAW18TiSuEuCVE
1RI+Map/vspdVxnMhwT1+WQHlEbXhBmRJ6qyPqI/PVFP5+pBZPSXO0u7xgbc/DCr
98i8WAfR+odc2IPoQbX+Vc8BKcOv/HP8lMLxTniCsaZmBpVE9CyQ+an7JlSMzREn
XiOn+J30JC2RKNQwhUKbYlZuciEtRUdmhg==
-----END CERTIFICATE-----
