Certificate:
    Data:
        Version: 3 (0x2)
        Serial Number: 13283654237122106572 (0xb85905261ac694cc)
    Signature Algorithm: sha256WithRSAEncryption
        Issuer: C=US, ST=California, L=Santa Clara, O=pkg5, CN=ta3/emailAddress=ta3
        Validity
            Not Before: Mar 18 23:38:20 2016 GMT
            Not After : Dec 13 23:38:20 2018 GMT
        Subject: C=US, ST=California, L=Santa Clara, O=pkg5, CN=ta3/emailAddress=ta3
        Subject Public Key Info:
            Public Key Algorithm: rsaEncryption
                Public-Key: (2048 bit)
                Modulus:
                    00:c9:83:cf:16:e2:65:ae:a3:19:12:39:8a:50:c7:
                    e8:ad:12:9d:d3:c8:5b:71:ab:a8:71:8a:07:3f:c0:
                    f2:02:46:ab:f3:0d:f3:55:ce:16:43:84:e8:8e:74:
                    3b:18:58:81:e7:f1:55:4a:02:2c:7c:11:28:cc:68:
                    d7:53:54:de:23:86:3d:6f:a8:85:b3:d0:f3:45:86:
                    10:dd:d5:72:85:0a:07:ae:78:cd:95:ad:39:08:ce:
                    de:28:96:0e:39:28:98:32:e1:61:3d:15:36:5b:4d:
                    42:f6:b8:13:1b:e7:d4:3a:bd:93:aa:0d:06:61:5a:
                    4f:34:7b:27:dc:89:57:a5:72:24:15:47:6b:57:d4:
                    d9:1e:15:82:b8:d6:c7:85:ad:b0:9d:7a:00:4a:ee:
                    f6:28:13:41:10:50:75:fb:4d:80:11:9c:26:60:1f:
                    8b:48:da:1b:dc:89:bd:8e:40:10:62:a1:8c:77:b5:
                    02:97:ef:82:eb:c9:b5:96:fd:e7:82:ed:85:79:e2:
                    64:5e:0f:66:f3:b5:8c:36:c0:a2:ee:9b:ad:51:c1:
                    79:ac:a9:33:a9:4d:9d:f0:91:5f:99:bd:04:1b:b2:
                    7c:e4:1f:27:83:9d:24:16:7c:96:28:b2:6d:a4:5b:
                    cf:89:a8:77:aa:a7:f0:34:47:6f:a9:64:a8:6a:49:
                    e0:af
                Exponent: 65537 (0x10001)
        X509v3 extensions:
            X509v3 Subject Key Identifier: 
                F1:FE:91:A7:14:72:15:61:A7:C6:93:C7:91:B2:B7:F8:10:65:AA:16
            X509v3 Authority Key Identifier: 
                keyid:F1:FE:91:A7:14:72:15:61:A7:C6:93:C7:91:B2:B7:F8:10:65:AA:16

            X509v3 Basic Constraints: 
                CA:TRUE
    Signature Algorithm: sha256WithRSAEncryption
         2e:b1:5c:69:7d:93:fe:68:09:a8:9d:a2:08:5b:f1:98:90:74:
         4c:84:bd:27:7f:41:e0:06:ca:77:f8:7b:27:46:e8:bd:1a:48:
         73:d4:b0:bf:e6:9b:cd:bc:65:6c:fd:22:aa:2a:50:68:cd:f5:
         6f:3e:65:37:01:39:fe:06:38:ce:7d:c5:d5:c4:5e:b9:1e:c6:
         ae:fd:81:e7:4a:79:d4:4d:eb:99:5d:2b:67:70:a9:6b:dc:19:
         88:8c:44:4e:ce:74:93:86:1e:28:41:92:0e:b3:5c:94:46:fe:
         e1:57:fc:61:12:19:93:97:43:9c:a2:48:85:2c:87:40:21:8c:
         98:1c:36:8d:00:c6:da:cb:2c:c2:ec:36:cc:ed:82:d7:01:6a:
         b0:f7:fa:85:00:4e:9d:ef:57:73:13:ee:d1:f5:b4:d8:20:93:
         8a:c7:5c:e2:6c:ec:bb:5a:d7:39:2c:74:33:6a:ce:e0:de:ec:
         33:00:f7:cb:d7:40:25:e4:64:07:4d:71:5e:25:a5:d5:55:17:
         6f:c5:b9:9d:ec:e4:31:87:ad:67:e9:f5:1f:d7:02:01:57:d3:
         c1:25:c3:22:58:6c:17:97:41:08:51:a4:4d:fd:6b:85:f3:2d:
         3f:9b:ab:e8:24:06:32:91:3c:bd:53:59:ff:bc:8f:f9:df:d6:
         bb:81:64:05
-----BEGIN CERTIFICATE-----
MIIDpTCCAo2gAwIBAgIJALhZBSYaxpTMMA0GCSqGSIb3DQEBCwUAMGkxCzAJBgNV
BAYTAlVTMRMwEQYDVQQIDApDYWxpZm9ybmlhMRQwEgYDVQQHDAtTYW50YSBDbGFy
YTENMAsGA1UECgwEcGtnNTEMMAoGA1UEAwwDdGEzMRIwEAYJKoZIhvcNAQkBFgN0
YTMwHhcNMTYwMzE4MjMzODIwWhcNMTgxMjEzMjMzODIwWjBpMQswCQYDVQQGEwJV
UzETMBEGA1UECAwKQ2FsaWZvcm5pYTEUMBIGA1UEBwwLU2FudGEgQ2xhcmExDTAL
BgNVBAoMBHBrZzUxDDAKBgNVBAMMA3RhMzESMBAGCSqGSIb3DQEJARYDdGEzMIIB
IjANBgkqhkiG9w0BAQEFAAOCAQ8AMIIBCgKCAQEAyYPPFuJlrqMZEjmKUMforRKd
08hbcauocYoHP8DyAkar8w3zVc4WQ4TojnQ7GFiB5/FVSgIsfBEozGjXU1TeI4Y9
b6iFs9DzRYYQ3dVyhQoHrnjNla05CM7eKJYOOSiYMuFhPRU2W01C9rgTG+fUOr2T
qg0GYVpPNHsn3IlXpXIkFUdrV9TZHhWCuNbHha2wnXoASu72KBNBEFB1+02AEZwm
YB+LSNob3Im9jkAQYqGMd7UCl++C68m1lv3ngu2FeeJkXg9m87WMNsCi7putUcF5
rKkzqU2d8JFfmb0EG7J85B8ng50kFnyWKLJtpFvPiah3qqfwNEdvqWSoakngrwID
AQABo1AwTjAdBgNVHQ4EFgQU8f6RpxRyFWGnxpPHkbK3+BBlqhYwHwYDVR0jBBgw
FoAU8f6RpxRyFWGnxpPHkbK3+BBlqhYwDAYDVR0TBAUwAwEB/zANBgkqhkiG9w0B
AQsFAAOCAQEALrFcaX2T/mgJqJ2iCFvxmJB0TIS9J39B4AbKd/h7J0bovRpIc9Sw
v+abzbxlbP0iqipQaM31bz5lNwE5/gY4zn3F1cReuR7Grv2B50p51E3rmV0rZ3Cp
a9wZiIxETs50k4YeKEGSDrNclEb+4Vf8YRIZk5dDnKJIhSyHQCGMmBw2jQDG2sss
wuw2zO2C1wFqsPf6hQBOne9XcxPu0fW02CCTisdc4mzsu1rXOSx0M2rO4N7sMwD3
y9dAJeRkB01xXiWl1VUXb8W5nezkMYetZ+n1H9cCAVfTwSXDIlhsF5dBCFGkTf1r
hfMtP5ur6CQGMpE8vVNZ/7yP+d/Wu4FkBQ==
-----END CERTIFICATE-----
