Certificate:
    Data:
        Version: 3 (0x2)
        Serial Number:
            8d:46:d3:00:c5:00:ee:1c
    Signature Algorithm: sha256WithRSAEncryption
        Issuer: C=US, ST=California, L=Santa Clara, O=pkg5, CN=ta3/emailAddress=ta3
        Validity
            Not Before: Jan 22 15:33:09 2019 GMT
            Not After : Oct 18 15:33:09 2021 GMT
        Subject: C=US, ST=California, L=Santa Clara, O=pkg5, CN=ta3/emailAddress=ta3
        Subject Public Key Info:
            Public Key Algorithm: rsaEncryption
                Public-Key: (2048 bit)
                Modulus:
                    00:a7:2a:ee:57:e4:63:ee:b0:30:99:e5:47:f2:58:
                    ba:48:6a:36:e6:18:cc:6e:17:b9:7d:64:0e:3a:4f:
                    f8:1b:2a:c3:35:26:ac:38:02:d1:9e:fc:77:1b:5e:
                    e8:68:55:b8:a3:f6:82:97:30:9a:ad:4e:85:25:95:
                    d9:9f:c3:c2:62:25:ea:f2:97:27:24:26:a1:6b:bf:
                    48:1f:89:6f:c5:ca:9c:55:ec:84:f8:b2:47:27:0a:
                    4b:76:de:c5:53:e0:b1:82:e8:4d:47:a6:99:5c:b7:
                    77:03:4a:46:e1:6f:59:d4:63:83:90:ce:b4:b1:96:
                    9e:11:e2:9e:ad:1d:9b:3a:cb:9c:2b:9c:2c:3d:9c:
                    2b:10:c1:1d:2f:8c:62:82:82:71:01:82:e8:b7:af:
                    c6:f6:15:f0:76:b0:d0:4f:72:cc:e9:6f:b0:0a:72:
                    66:ea:ff:b3:06:dc:1c:82:9c:d6:d1:72:14:7b:e5:
                    d0:e1:30:7e:c5:c3:ef:bb:ff:b5:9b:95:96:70:51:
                    b6:f8:59:fe:8a:92:0b:76:41:ac:9e:64:71:e5:2d:
                    77:0c:db:37:52:60:ae:9e:f3:ad:c5:0e:43:46:c1:
                    ef:13:f4:39:f9:1f:cc:58:d8:19:d6:77:70:b5:09:
                    dc:6c:51:68:ae:23:b7:c5:ab:ff:57:38:5a:dc:51:
                    b3:f1
                Exponent: 65537 (0x10001)
        X509v3 extensions:
            X509v3 Subject Key Identifier: 
                D4:96:C5:46:89:1A:DF:AE:C8:49:CA:65:E8:A8:C4:8E:10:60:26:1A
            X509v3 Authority Key Identifier: 
                keyid:D4:96:C5:46:89:1A:DF:AE:C8:49:CA:65:E8:A8:C4:8E:10:60:26:1A

            X509v3 Basic Constraints: 
                CA:TRUE
    Signature Algorithm: sha256WithRSAEncryption
         05:64:f5:37:19:0c:d4:09:d5:e9:eb:38:d9:5a:09:d2:69:1e:
         ee:d7:86:de:ef:1e:64:6b:74:cb:92:8d:3e:ca:68:7b:ee:3b:
         dd:fc:93:8f:1f:1b:e3:de:fe:54:97:86:42:17:f4:a2:26:4e:
         22:4d:64:a2:5e:0d:bf:ed:a9:04:f2:7d:7c:81:4e:9b:88:b3:
         da:81:57:4b:db:db:08:d8:78:97:10:f3:93:77:b9:cc:12:f1:
         1c:b1:cf:9f:bd:ff:ee:00:72:24:c2:2a:47:12:cf:a8:a9:3b:
         b6:18:e5:24:d4:18:8b:f0:46:42:9d:55:53:23:8d:f4:48:1d:
         92:c7:32:df:7c:1c:63:38:4d:b5:23:3e:9b:84:6b:4a:66:13:
         5a:ba:8e:9a:fe:cf:69:e8:e5:d3:f5:f3:9c:c8:bb:1b:77:f6:
         2a:c8:f8:ba:40:ff:db:0f:ef:6f:bf:f8:cb:9c:7a:d8:5a:82:
         b2:08:39:5f:b0:a2:2b:f6:ba:55:26:f3:d3:dc:b7:da:41:b1:
         5e:b0:a6:58:5d:a3:55:f2:1d:3f:d5:e3:73:c9:45:86:3a:95:
         60:fa:60:88:45:57:84:07:56:92:17:26:f8:16:20:c5:1a:68:
         be:18:43:cc:63:29:f1:da:3f:77:4e:05:f6:36:ec:b1:6c:4d:
         58:18:bf:5e
-----BEGIN CERTIFICATE-----
MIIDpTCCAo2gAwIBAgIJAI1G0wDFAO4cMA0GCSqGSIb3DQEBCwUAMGkxCzAJBgNV
BAYTAlVTMRMwEQYDVQQIDApDYWxpZm9ybmlhMRQwEgYDVQQHDAtTYW50YSBDbGFy
YTENMAsGA1UECgwEcGtnNTEMMAoGA1UEAwwDdGEzMRIwEAYJKoZIhvcNAQkBFgN0
YTMwHhcNMTkwMTIyMTUzMzA5WhcNMjExMDE4MTUzMzA5WjBpMQswCQYDVQQGEwJV
UzETMBEGA1UECAwKQ2FsaWZvcm5pYTEUMBIGA1UEBwwLU2FudGEgQ2xhcmExDTAL
BgNVBAoMBHBrZzUxDDAKBgNVBAMMA3RhMzESMBAGCSqGSIb3DQEJARYDdGEzMIIB
IjANBgkqhkiG9w0BAQEFAAOCAQ8AMIIBCgKCAQEApyruV+Rj7rAwmeVH8li6SGo2
5hjMbhe5fWQOOk/4GyrDNSasOALRnvx3G17oaFW4o/aClzCarU6FJZXZn8PCYiXq
8pcnJCaha79IH4lvxcqcVeyE+LJHJwpLdt7FU+CxguhNR6aZXLd3A0pG4W9Z1GOD
kM60sZaeEeKerR2bOsucK5wsPZwrEMEdL4xigoJxAYLot6/G9hXwdrDQT3LM6W+w
CnJm6v+zBtwcgpzW0XIUe+XQ4TB+xcPvu/+1m5WWcFG2+Fn+ipILdkGsnmRx5S13
DNs3UmCunvOtxQ5DRsHvE/Q5+R/MWNgZ1ndwtQncbFForiO3xav/Vzha3FGz8QID
AQABo1AwTjAdBgNVHQ4EFgQU1JbFRoka367IScpl6KjEjhBgJhowHwYDVR0jBBgw
FoAU1JbFRoka367IScpl6KjEjhBgJhowDAYDVR0TBAUwAwEB/zANBgkqhkiG9w0B
AQsFAAOCAQEABWT1NxkM1AnV6es42VoJ0mke7teG3u8eZGt0y5KNPspoe+473fyT
jx8b497+VJeGQhf0oiZOIk1kol4Nv+2pBPJ9fIFOm4iz2oFXS9vbCNh4lxDzk3e5
zBLxHLHPn73/7gByJMIqRxLPqKk7thjlJNQYi/BGQp1VUyON9Egdkscy33wcYzhN
tSM+m4RrSmYTWrqOmv7Paejl0/XznMi7G3f2Ksj4ukD/2w/vb7/4y5x62FqCsgg5
X7CiK/a6VSbz09y32kGxXrCmWF2jVfIdP9Xjc8lFhjqVYPpgiEVXhAdWkhcm+BYg
xRpovhhDzGMp8do/d04F9jbssWxNWBi/Xg==
-----END CERTIFICATE-----
