Certificate:
    Data:
        Version: 3 (0x2)
        Serial Number:
            e1:f8:52:2f:ac:f4:00:ee
        Signature Algorithm: sha256WithRSAEncryption
        Issuer: C=US, ST=California, L=Menlo Park, O=pkg5, CN=ta3/emailAddress=ta3
        Validity
            Not Before: Aug  4 20:59:25 2010 GMT
            Not After : Apr 30 20:59:25 2013 GMT
        Subject: C=US, ST=California, L=Menlo Park, O=pkg5, CN=ta3/emailAddress=ta3
        Subject Public Key Info:
            Public Key Algorithm: rsaEncryption
            RSA Public Key: (1024 bit)
                Modulus (1024 bit):
                    00:cc:32:e7:d2:0d:be:82:1f:48:cb:d7:74:53:c9:
                    7a:84:99:2a:d2:d0:01:ac:e2:26:a3:8c:02:ac:d8:
                    51:13:31:1d:c6:4c:93:74:84:9d:e7:32:87:aa:88:
                    db:ed:41:69:ee:5d:cd:71:bf:3b:c3:45:58:c2:c7:
                    38:3e:e6:8e:a3:7e:d7:d0:57:fb:53:a9:c3:9d:51:
                    6b:49:43:73:ea:69:18:9f:3a:f2:42:9c:3c:7b:13:
                    21:f5:b8:b4:9c:58:fc:ea:a7:bd:3f:53:45:89:64:
                    8d:56:13:3b:4e:26:d1:f9:ca:3a:8d:5e:73:ce:7f:
                    0d:b1:8d:c2:e1:96:04:33:b1
                Exponent: 65537 (0x10001)
        X509v3 extensions:
            X509v3 Subject Key Identifier: 
                E0:CE:66:66:57:70:37:16:AF:EB:65:B6:15:DC:2D:2C:B7:B4:49:4D
            X509v3 Authority Key Identifier: 
                keyid:E0:CE:66:66:57:70:37:16:AF:EB:65:B6:15:DC:2D:2C:B7:B4:49:4D
                DirName:/C=US/ST=California/L=Menlo Park/O=pkg5/CN=ta3/emailAddress=ta3
                serial:E1:F8:52:2F:AC:F4:00:EE

            X509v3 Basic Constraints: 
                CA:TRUE
    Signature Algorithm: sha256WithRSAEncryption
        b2:f7:78:f6:be:21:e5:91:f2:59:f5:9c:18:a8:3f:02:8b:39:
        f0:80:84:ac:ed:12:70:83:2f:af:49:3a:6f:00:e8:15:e7:f4:
        63:7a:53:08:3f:c1:66:bf:61:e9:a0:99:24:4b:93:62:e0:bd:
        8a:ed:3f:4a:5a:09:6e:51:2e:53:67:f7:02:e0:4a:17:bb:d2:
        a5:be:ab:e3:de:73:73:a3:ef:9d:ab:af:31:9b:bd:3c:01:9d:
        08:14:83:44:07:59:86:96:92:59:fe:97:0c:37:9d:da:a1:af:
        49:77:b4:72:a6:b7:8a:46:9f:ac:f3:db:ff:05:d8:15:4d:46:
        fb:b5
-----BEGIN CERTIFICATE-----
MIIDHDCCAoWgAwIBAgIJAOH4Ui+s9ADuMA0GCSqGSIb3DQEBCwUAMGgxCzAJBgNV
BAYTAlVTMRMwEQYDVQQIEwpDYWxpZm9ybmlhMRMwEQYDVQQHEwpNZW5sbyBQYXJr
MQ0wCwYDVQQKEwRwa2c1MQwwCgYDVQQDEwN0YTMxEjAQBgkqhkiG9w0BCQEWA3Rh
MzAeFw0xMDA4MDQyMDU5MjVaFw0xMzA0MzAyMDU5MjVaMGgxCzAJBgNVBAYTAlVT
MRMwEQYDVQQIEwpDYWxpZm9ybmlhMRMwEQYDVQQHEwpNZW5sbyBQYXJrMQ0wCwYD
VQQKEwRwa2c1MQwwCgYDVQQDEwN0YTMxEjAQBgkqhkiG9w0BCQEWA3RhMzCBnzAN
BgkqhkiG9w0BAQEFAAOBjQAwgYkCgYEAzDLn0g2+gh9Iy9d0U8l6hJkq0tABrOIm
o4wCrNhREzEdxkyTdISd5zKHqojb7UFp7l3Ncb87w0VYwsc4PuaOo37X0Ff7U6nD
nVFrSUNz6mkYnzryQpw8exMh9bi0nFj86qe9P1NFiWSNVhM7TibR+co6jV5zzn8N
sY3C4ZYEM7ECAwEAAaOBzTCByjAdBgNVHQ4EFgQU4M5mZldwNxav62W2FdwtLLe0
SU0wgZoGA1UdIwSBkjCBj4AU4M5mZldwNxav62W2FdwtLLe0SU2hbKRqMGgxCzAJ
BgNVBAYTAlVTMRMwEQYDVQQIEwpDYWxpZm9ybmlhMRMwEQYDVQQHEwpNZW5sbyBQ
YXJrMQ0wCwYDVQQKEwRwa2c1MQwwCgYDVQQDEwN0YTMxEjAQBgkqhkiG9w0BCQEW
A3RhM4IJAOH4Ui+s9ADuMAwGA1UdEwQFMAMBAf8wDQYJKoZIhvcNAQELBQADgYEA
svd49r4h5ZHyWfWcGKg/Aos58ICErO0ScIMvr0k6bwDoFef0Y3pTCD/BZr9h6aCZ
JEuTYuC9iu0/SloJblEuU2f3AuBKF7vSpb6r495zc6PvnauvMZu9PAGdCBSDRAdZ
hpaSWf6XDDed2qGvSXe0cqa3ikafrPPb/wXYFU1G+7U=
-----END CERTIFICATE-----
