Certificate:
    Data:
        Version: 3 (0x2)
        Serial Number: 9949897849350864516 (0x8a1523608dfb3e84)
    Signature Algorithm: sha256WithRSAEncryption
        Issuer: C=US, ST=California, L=Santa Clara, O=pkg5, CN=ta3/emailAddress=ta3
        Validity
            Not Before: Jan 22 01:57:56 2016 GMT
            Not After : Oct 18 01:57:56 2018 GMT
        Subject: C=US, ST=California, L=Santa Clara, O=pkg5, CN=ta3/emailAddress=ta3
        Subject Public Key Info:
            Public Key Algorithm: rsaEncryption
                Public-Key: (2048 bit)
                Modulus:
                    00:98:d7:49:7a:3f:07:dd:b1:5c:80:8e:92:2e:dc:
                    4f:66:3c:7a:dd:51:ba:c0:a4:64:46:6e:d2:16:6f:
                    93:51:be:89:44:64:b2:f8:cf:b4:e6:82:d5:4e:f2:
                    3a:8b:20:76:a2:a4:4e:7f:12:1c:ff:2d:66:93:fc:
                    2b:d5:b1:13:aa:91:9c:12:84:6c:a8:1d:d2:12:8e:
                    34:56:3c:5a:74:6a:42:74:55:ca:a2:ac:60:5f:33:
                    f1:b7:56:fc:44:d7:e3:26:94:08:18:05:47:b3:49:
                    64:f2:73:a0:5c:fa:38:2f:ea:87:4d:42:30:2c:9b:
                    b9:03:db:9c:07:7a:a1:d2:b6:bf:5a:9a:b8:d0:9b:
                    a5:fb:94:e3:64:b3:a1:95:ae:8d:de:50:37:bb:89:
                    14:7d:8a:8d:46:30:92:3a:01:f8:57:db:a4:6f:ba:
                    7b:f8:2a:03:72:2e:03:29:b2:33:0c:cf:65:28:a7:
                    25:ef:a4:00:c8:f2:40:d7:d9:f8:16:8c:44:4c:d4:
                    9e:8e:da:41:72:84:b5:02:03:b2:6c:77:07:7f:08:
                    3f:08:79:73:f2:56:7c:b9:1d:c5:75:c1:5f:bc:d2:
                    36:66:b4:4d:cb:dd:9d:2c:84:cc:2f:78:27:c0:88:
                    5a:6d:1b:9f:19:6b:9d:af:9f:05:0f:35:22:09:a4:
                    ee:d9
                Exponent: 65537 (0x10001)
        X509v3 extensions:
            X509v3 Subject Key Identifier: 
                29:6E:FA:0C:C3:3A:D4:13:5F:93:39:0F:10:08:27:C7:BF:62:56:E5
            X509v3 Authority Key Identifier: 
                keyid:29:6E:FA:0C:C3:3A:D4:13:5F:93:39:0F:10:08:27:C7:BF:62:56:E5

            X509v3 Basic Constraints: 
                CA:TRUE
    Signature Algorithm: sha256WithRSAEncryption
         20:0c:2d:f2:b0:de:d6:bf:a0:f3:45:fa:12:6d:42:9c:fa:31:
         2f:4e:85:3c:76:2f:07:19:51:91:c6:92:4d:95:06:97:8d:9c:
         c3:a5:d3:84:f9:ad:46:ec:35:b6:25:3e:04:fb:ff:15:3e:38:
         ad:af:86:ac:69:17:8f:79:57:c4:59:fb:f5:2c:02:46:1c:14:
         10:78:7f:6f:73:d9:21:ed:d4:c3:29:20:d6:60:04:f2:f7:92:
         73:5f:38:63:60:8b:9f:cb:8f:53:e5:25:9a:11:83:e7:b0:cf:
         10:c0:98:3a:20:0a:a6:49:d3:65:7f:cf:9f:20:ad:d6:1d:c2:
         24:a7:31:df:93:5b:94:83:79:f4:b6:da:b8:78:ea:4f:81:00:
         5e:6b:8d:26:b9:a9:e7:aa:a3:c9:f3:12:ab:ab:56:42:f2:7c:
         14:ee:87:7f:9e:1a:bc:70:47:39:a1:24:96:3c:8b:cc:61:22:
         23:9d:17:24:2d:ec:ac:12:81:dc:e2:48:9c:1e:d2:b7:8a:84:
         27:39:2e:db:b1:6b:c5:5d:e0:37:f6:c1:04:9d:a8:7f:6c:ae:
         8a:ad:eb:f9:01:43:53:e9:58:5d:11:8e:08:fb:8f:cc:2b:ce:
         b6:81:18:42:13:14:27:bf:af:98:0e:0e:76:8d:d6:d5:19:1d:
         68:b3:cd:95
-----BEGIN CERTIFICATE-----
MIIDpTCCAo2gAwIBAgIJAIoVI2CN+z6EMA0GCSqGSIb3DQEBCwUAMGkxCzAJBgNV
BAYTAlVTMRMwEQYDVQQIDApDYWxpZm9ybmlhMRQwEgYDVQQHDAtTYW50YSBDbGFy
YTENMAsGA1UECgwEcGtnNTEMMAoGA1UEAwwDdGEzMRIwEAYJKoZIhvcNAQkBFgN0
YTMwHhcNMTYwMTIyMDE1NzU2WhcNMTgxMDE4MDE1NzU2WjBpMQswCQYDVQQGEwJV
UzETMBEGA1UECAwKQ2FsaWZvcm5pYTEUMBIGA1UEBwwLU2FudGEgQ2xhcmExDTAL
BgNVBAoMBHBrZzUxDDAKBgNVBAMMA3RhMzESMBAGCSqGSIb3DQEJARYDdGEzMIIB
IjANBgkqhkiG9w0BAQEFAAOCAQ8AMIIBCgKCAQEAmNdJej8H3bFcgI6SLtxPZjx6
3VG6wKRkRm7SFm+TUb6JRGSy+M+05oLVTvI6iyB2oqROfxIc/y1mk/wr1bETqpGc
EoRsqB3SEo40VjxadGpCdFXKoqxgXzPxt1b8RNfjJpQIGAVHs0lk8nOgXPo4L+qH
TUIwLJu5A9ucB3qh0ra/Wpq40Jul+5TjZLOhla6N3lA3u4kUfYqNRjCSOgH4V9uk
b7p7+CoDci4DKbIzDM9lKKcl76QAyPJA19n4FoxETNSejtpBcoS1AgOybHcHfwg/
CHlz8lZ8uR3FdcFfvNI2ZrRNy92dLITML3gnwIhabRufGWudr58FDzUiCaTu2QID
AQABo1AwTjAdBgNVHQ4EFgQUKW76DMM61BNfkzkPEAgnx79iVuUwHwYDVR0jBBgw
FoAUKW76DMM61BNfkzkPEAgnx79iVuUwDAYDVR0TBAUwAwEB/zANBgkqhkiG9w0B
AQsFAAOCAQEAIAwt8rDe1r+g80X6Em1CnPoxL06FPHYvBxlRkcaSTZUGl42cw6XT
hPmtRuw1tiU+BPv/FT44ra+GrGkXj3lXxFn79SwCRhwUEHh/b3PZIe3Uwykg1mAE
8veSc184Y2CLn8uPU+UlmhGD57DPEMCYOiAKpknTZX/PnyCt1h3CJKcx35NblIN5
9LbauHjqT4EAXmuNJrmp56qjyfMSq6tWQvJ8FO6Hf54avHBHOaEkljyLzGEiI50X
JC3srBKB3OJInB7St4qEJzku27FrxV3gN/bBBJ2of2yuiq3r+QFDU+lYXRGOCPuP
zCvOtoEYQhMUJ7+vmA4Odo3W1RkdaLPNlQ==
-----END CERTIFICATE-----
