Certificate:
    Data:
        Version: 3 (0x2)
        Serial Number:
            f3:7d:d2:b8:8f:c0:94:19
    Signature Algorithm: sha256WithRSAEncryption
        Issuer: C=US, ST=California, L=Santa Clara, O=pkg5, CN=ta3/emailAddress=ta3
        Validity
            Not Before: Sep 22 05:33:21 2021 GMT
            Not After : Jun 18 05:33:21 2024 GMT
        Subject: C=US, ST=California, L=Santa Clara, O=pkg5, CN=ta3/emailAddress=ta3
        Subject Public Key Info:
            Public Key Algorithm: rsaEncryption
                Public-Key: (2048 bit)
                Modulus:
                    00:c1:87:88:96:7b:cf:27:39:ef:ef:25:e6:c3:dd:
                    c0:79:c8:73:4f:2e:99:57:f0:5c:57:ea:12:5e:64:
                    58:23:a4:8b:72:95:5d:6a:aa:60:22:f0:8b:b9:59:
                    dd:14:d2:29:65:d2:15:64:79:10:d2:fc:13:fb:29:
                    44:77:e7:a9:0d:1f:51:3a:eb:b8:74:3d:02:52:86:
                    f6:ce:3a:0d:05:d2:aa:65:88:75:c0:79:eb:60:3f:
                    52:d3:16:79:51:09:f2:42:d4:7b:55:46:64:66:42:
                    e1:eb:5a:af:de:ef:ea:d7:39:d8:7e:25:54:9c:55:
                    af:d1:7f:78:51:7c:60:f0:81:23:d5:55:c5:9c:b1:
                    bc:bb:de:42:8d:19:30:48:02:8b:89:c2:34:4b:ec:
                    ff:0f:a4:a6:74:e5:c2:24:d2:1f:b8:ff:71:c8:49:
                    c2:d7:67:e6:ae:71:2d:93:09:d1:c7:51:f0:b5:5c:
                    30:3c:35:00:31:3a:03:0f:c5:34:ac:51:f9:6c:7d:
                    ae:44:ec:04:b5:5b:ba:55:14:f4:24:ff:2a:50:e8:
                    35:2a:09:0b:9b:14:a4:46:8b:d9:60:f9:7d:a9:21:
                    d0:48:7c:4d:58:4f:e0:26:60:e7:dd:f5:15:fb:58:
                    d5:04:11:de:e9:19:21:ed:83:95:84:db:db:61:38:
                    d2:3d
                Exponent: 65537 (0x10001)
        X509v3 extensions:
            X509v3 Subject Key Identifier: 
                CB:9F:D9:B5:D9:C8:81:12:9B:8E:95:9D:97:1F:DB:47:09:05:39:09
            X509v3 Authority Key Identifier: 
                keyid:CB:9F:D9:B5:D9:C8:81:12:9B:8E:95:9D:97:1F:DB:47:09:05:39:09

            X509v3 Basic Constraints: 
                CA:TRUE
    Signature Algorithm: sha256WithRSAEncryption
         9b:d2:22:d0:39:0d:97:2b:42:fc:44:ed:a5:86:2e:1a:2c:42:
         e2:63:53:b1:09:72:6a:67:8a:74:de:16:3b:41:6b:18:35:bf:
         6d:36:29:f5:fe:38:3b:81:51:f8:ba:d0:46:f9:cd:69:0b:f6:
         2c:ff:ba:51:8b:de:b8:b6:a5:0a:60:1c:b2:85:22:c5:90:c2:
         03:61:3f:2c:f6:02:9f:11:86:22:f3:2c:77:e5:69:90:f4:67:
         82:e5:04:21:24:26:0b:17:2b:7c:eb:31:81:c3:21:fd:23:d0:
         e1:6e:dc:67:e8:0d:84:35:fa:ab:fe:ec:10:0b:85:9a:99:12:
         fc:a2:b0:f4:9e:3e:a2:ed:85:9a:31:df:85:dd:5f:da:dc:da:
         12:1e:2f:89:74:f4:a5:ba:6f:83:11:64:d5:ae:11:29:31:c9:
         bc:ac:9d:08:39:20:f1:41:9c:71:6e:6d:d3:12:41:6e:ff:1a:
         60:d1:49:b2:10:a8:a9:b7:70:ee:c3:d7:b2:5d:4e:d5:c8:84:
         b0:b4:1d:80:62:a2:14:7b:df:bb:23:da:1f:11:8b:49:6c:ad:
         59:07:70:58:eb:d0:1a:e0:eb:94:4f:53:1d:67:a0:e1:e6:30:
         51:41:84:2a:ec:fb:1a:ff:45:81:14:6d:5e:64:aa:3b:e6:83:
         29:1b:6f:23
-----BEGIN CERTIFICATE-----
MIIDpTCCAo2gAwIBAgIJAPN90riPwJQZMA0GCSqGSIb3DQEBCwUAMGkxCzAJBgNV
BAYTAlVTMRMwEQYDVQQIDApDYWxpZm9ybmlhMRQwEgYDVQQHDAtTYW50YSBDbGFy
YTENMAsGA1UECgwEcGtnNTEMMAoGA1UEAwwDdGEzMRIwEAYJKoZIhvcNAQkBFgN0
YTMwHhcNMjEwOTIyMDUzMzIxWhcNMjQwNjE4MDUzMzIxWjBpMQswCQYDVQQGEwJV
UzETMBEGA1UECAwKQ2FsaWZvcm5pYTEUMBIGA1UEBwwLU2FudGEgQ2xhcmExDTAL
BgNVBAoMBHBrZzUxDDAKBgNVBAMMA3RhMzESMBAGCSqGSIb3DQEJARYDdGEzMIIB
IjANBgkqhkiG9w0BAQEFAAOCAQ8AMIIBCgKCAQEAwYeIlnvPJznv7yXmw93Aechz
Ty6ZV/BcV+oSXmRYI6SLcpVdaqpgIvCLuVndFNIpZdIVZHkQ0vwT+ylEd+epDR9R
Ouu4dD0CUob2zjoNBdKqZYh1wHnrYD9S0xZ5UQnyQtR7VUZkZkLh61qv3u/q1znY
fiVUnFWv0X94UXxg8IEj1VXFnLG8u95CjRkwSAKLicI0S+z/D6SmdOXCJNIfuP9x
yEnC12fmrnEtkwnRx1HwtVwwPDUAMToDD8U0rFH5bH2uROwEtVu6VRT0JP8qUOg1
KgkLmxSkRovZYPl9qSHQSHxNWE/gJmDn3fUV+1jVBBHe6Rkh7YOVhNvbYTjSPQID
AQABo1AwTjAdBgNVHQ4EFgQUy5/ZtdnIgRKbjpWdlx/bRwkFOQkwHwYDVR0jBBgw
FoAUy5/ZtdnIgRKbjpWdlx/bRwkFOQkwDAYDVR0TBAUwAwEB/zANBgkqhkiG9w0B
AQsFAAOCAQEAm9Ii0DkNlytC/ETtpYYuGixC4mNTsQlyameKdN4WO0FrGDW/bTYp
9f44O4FR+LrQRvnNaQv2LP+6UYveuLalCmAcsoUixZDCA2E/LPYCnxGGIvMsd+Vp
kPRnguUEISQmCxcrfOsxgcMh/SPQ4W7cZ+gNhDX6q/7sEAuFmpkS/KKw9J4+ou2F
mjHfhd1f2tzaEh4viXT0pbpvgxFk1a4RKTHJvKydCDkg8UGccW5t0xJBbv8aYNFJ
shCoqbdw7sPXsl1O1ciEsLQdgGKiFHvfuyPaHxGLSWytWQdwWOvQGuDrlE9THWeg
4eYwUUGEKuz7Gv9FgRRtXmSqO+aDKRtvIw==
-----END CERTIFICATE-----
