Certificate:
    Data:
        Version: 3 (0x2)
        Serial Number:
            0c:1d:83:9d:0b:8c:88:4f:15:33:ab:ef:c3:65:9e:ed:52:63:0e:f3
        Signature Algorithm: sha256WithRSAEncryption
        Issuer: C = US, ST = California, L = Santa Clara, O = pkg5, CN = ta4, emailAddress = ta4
        Validity
            Not Before: Mar 18 08:51:41 2026 GMT
            Not After : Dec 12 08:51:41 2028 GMT
        Subject: C = US, ST = California, L = Santa Clara, O = pkg5, CN = ta4, emailAddress = ta4
        Subject Public Key Info:
            Public Key Algorithm: rsaEncryption
                Public-Key: (2048 bit)
                Modulus:
                    00:d7:76:de:47:d1:47:c0:23:68:be:a8:85:9b:e4:
                    db:8c:04:96:94:32:7e:48:17:36:20:e5:01:9e:79:
                    36:5d:ee:ac:2f:3b:dd:ff:87:2e:0a:72:d9:fc:36:
                    b7:14:18:58:86:18:78:e8:c4:8a:fa:cb:87:cc:b4:
                    5e:fb:77:de:6d:fe:99:92:9e:80:47:cd:3a:0c:80:
                    e8:16:0e:88:a7:6f:e9:ca:b6:87:fc:47:6f:39:c3:
                    1f:6d:8b:b7:4e:34:e3:0c:11:7d:e2:3c:07:fe:c9:
                    d6:c3:66:b6:af:bf:bc:5e:f2:2f:77:61:5b:fc:89:
                    3a:78:a7:93:ad:1b:76:83:91:a8:35:18:fd:cf:02:
                    23:62:14:43:61:77:a4:34:b2:e0:f5:9b:2e:eb:14:
                    9a:80:46:d8:c3:35:53:15:df:99:db:ff:2a:02:3c:
                    d1:91:9b:c9:93:45:f0:f4:12:f6:f0:a4:5f:c7:28:
                    fd:af:50:70:97:f7:2c:b2:29:70:21:fb:45:f4:f6:
                    62:c6:30:e3:df:16:46:c2:ea:9c:18:33:5b:6a:e6:
                    fd:b6:2d:75:e8:75:30:ee:77:0d:5c:8d:8a:56:4a:
                    8d:8f:a4:35:5c:a3:4c:1f:62:48:01:7e:4e:cb:76:
                    a4:bc:5e:8f:ed:ec:c4:89:2a:10:52:5c:86:8e:48:
                    d6:9b
                Exponent: 65537 (0x10001)
        X509v3 extensions:
            X509v3 Subject Key Identifier: 
                64:B7:1E:F6:7E:73:91:48:B5:42:62:BA:40:F7:7C:7C:C4:53:BC:B6
            X509v3 Authority Key Identifier: 
                64:B7:1E:F6:7E:73:91:48:B5:42:62:BA:40:F7:7C:7C:C4:53:BC:B6
            X509v3 Basic Constraints: critical
                CA:TRUE
    Signature Algorithm: sha256WithRSAEncryption
    Signature Value:
        bb:c0:23:95:ac:66:2c:2c:92:21:94:55:38:a0:2e:2b:46:1f:
        39:4b:c1:50:a7:6a:18:88:90:5b:cd:ec:84:9d:a7:e5:f2:5f:
        18:13:dc:0f:7b:d9:6d:d5:e6:e7:1d:f5:eb:67:48:08:9e:42:
        48:ec:d5:33:24:72:44:48:58:c8:d4:0e:45:e0:41:a3:74:36:
        1c:92:c7:29:9c:f2:88:1a:17:05:8e:c4:0f:1a:ab:ba:86:ac:
        ea:ca:86:d9:dc:ed:2d:44:c1:7e:92:f9:25:78:7f:7c:15:5b:
        95:de:fc:ea:21:38:6f:01:95:5c:1f:f5:a6:09:4c:74:d3:d9:
        6e:49:2b:94:00:30:72:b2:c4:18:e9:38:ac:22:b0:46:da:24:
        20:3c:c1:b1:dd:bf:bf:5e:f1:83:5f:c2:7c:25:a0:37:6a:40:
        27:e1:14:70:e1:70:82:ac:ef:bb:15:61:a9:31:cf:7e:fc:17:
        f8:8e:7f:e5:46:8f:9b:f8:a6:86:fb:26:1d:60:5e:ec:a6:75:
        9b:a7:66:63:6a:16:ce:3c:07:9e:08:55:4c:83:22:cb:c4:cc:
        eb:47:03:bd:b7:0d:c3:c4:48:ac:4c:10:86:c1:16:40:11:1c:
        06:63:45:fe:6e:b4:95:61:ad:e9:27:cb:54:f9:aa:ff:ae:7a:
        92:ad:bf:17
-----BEGIN CERTIFICATE-----
MIIDszCCApugAwIBAgIUDB2DnQuMiE8VM6vvw2We7VJjDvMwDQYJKoZIhvcNAQEL
BQAwaTELMAkGA1UEBhMCVVMxEzARBgNVBAgMCkNhbGlmb3JuaWExFDASBgNVBAcM
C1NhbnRhIENsYXJhMQ0wCwYDVQQKDARwa2c1MQwwCgYDVQQDDAN0YTQxEjAQBgkq
hkiG9w0BCQEWA3RhNDAeFw0yNjAzMTgwODUxNDFaFw0yODEyMTIwODUxNDFaMGkx
CzAJBgNVBAYTAlVTMRMwEQYDVQQIDApDYWxpZm9ybmlhMRQwEgYDVQQHDAtTYW50
YSBDbGFyYTENMAsGA1UECgwEcGtnNTEMMAoGA1UEAwwDdGE0MRIwEAYJKoZIhvcN
AQkBFgN0YTQwggEiMA0GCSqGSIb3DQEBAQUAA4IBDwAwggEKAoIBAQDXdt5H0UfA
I2i+qIWb5NuMBJaUMn5IFzYg5QGeeTZd7qwvO93/hy4Kctn8NrcUGFiGGHjoxIr6
y4fMtF77d95t/pmSnoBHzToMgOgWDoinb+nKtof8R285wx9ti7dONOMMEX3iPAf+
ydbDZravv7xe8i93YVv8iTp4p5OtG3aDkag1GP3PAiNiFENhd6Q0suD1my7rFJqA
RtjDNVMV35nb/yoCPNGRm8mTRfD0EvbwpF/HKP2vUHCX9yyyKXAh+0X09mLGMOPf
FkbC6pwYM1tq5v22LXXodTDudw1cjYpWSo2PpDVco0wfYkgBfk7LdqS8Xo/t7MSJ
KhBSXIaOSNabAgMBAAGjUzBRMB0GA1UdDgQWBBRktx72fnORSLVCYrpA93x8xFO8
tjAfBgNVHSMEGDAWgBRktx72fnORSLVCYrpA93x8xFO8tjAPBgNVHRMBAf8EBTAD
AQH/MA0GCSqGSIb3DQEBCwUAA4IBAQC7wCOVrGYsLJIhlFU4oC4rRh85S8FQp2oY
iJBbzeyEnafl8l8YE9wPe9lt1ebnHfXrZ0gInkJI7NUzJHJESFjI1A5F4EGjdDYc
kscpnPKIGhcFjsQPGqu6hqzqyobZ3O0tRMF+kvkleH98FVuV3vzqIThvAZVcH/Wm
CUx009luSSuUADByssQY6TisIrBG2iQgPMGx3b+/XvGDX8J8JaA3akAn4RRw4XCC
rO+7FWGpMc9+/Bf4jn/lRo+b+KaG+yYdYF7spnWbp2ZjahbOPAeeCFVMgyLLxMzr
RwO9tw3DxEisTBCGwRZAERwGY0X+brSVYa3pJ8tU+ar/rnqSrb8X
-----END CERTIFICATE-----
