Certificate:
    Data:
        Version: 3 (0x2)
        Serial Number:
            ff:36:9c:81:ad:98:a1:9e
    Signature Algorithm: sha256WithRSAEncryption
        Issuer: C=US, ST=California, L=Santa Clara, O=pkg5, CN=ta4/emailAddress=ta4
        Validity
            Not Before: Jan 22 15:33:12 2019 GMT
            Not After : Oct 18 15:33:12 2021 GMT
        Subject: C=US, ST=California, L=Santa Clara, O=pkg5, CN=ta4/emailAddress=ta4
        Subject Public Key Info:
            Public Key Algorithm: rsaEncryption
                Public-Key: (2048 bit)
                Modulus:
                    00:e4:2e:42:3e:7d:e6:24:5e:ac:fc:8d:dd:9c:45:
                    9e:89:e0:b7:76:ef:43:22:d7:b6:4b:d5:2e:81:e8:
                    54:5d:3e:70:70:cb:f6:16:6c:a4:c6:a1:4e:70:3c:
                    bb:f2:98:37:53:9e:13:2c:79:73:f4:5b:d9:c4:a0:
                    31:c2:27:6d:1f:53:6d:09:ef:e3:07:07:9b:21:9b:
                    fe:c0:fb:6c:3c:a7:68:e3:99:0d:09:fb:a8:33:61:
                    79:a3:91:a8:fe:73:9d:2c:68:5e:a5:d3:ae:0e:17:
                    70:2d:fa:14:87:5d:b4:ee:9a:64:6a:0f:f1:ca:c8:
                    ba:92:b4:79:3c:05:d8:04:fd:0f:de:4c:ea:2d:46:
                    5e:ac:bd:f3:2a:2b:fd:59:ad:67:b8:bd:a1:c3:58:
                    34:4d:9f:fc:6d:56:08:99:0c:0d:04:fc:0c:bc:0a:
                    ac:ef:93:52:c3:03:ef:7f:42:a0:06:a6:77:b4:f6:
                    16:30:65:e5:69:ef:2b:64:71:0d:12:66:01:55:dc:
                    65:a9:2c:02:88:b3:fe:0f:4f:bc:2b:f0:4b:db:76:
                    68:dd:d0:ab:4c:38:26:49:33:c1:60:ff:35:1a:fe:
                    6f:94:5a:db:88:57:bd:7a:d5:af:ba:62:6e:b7:a2:
                    da:b9:35:46:80:02:62:7f:ab:4f:3a:41:e1:44:eb:
                    dd:8f
                Exponent: 65537 (0x10001)
        X509v3 extensions:
            X509v3 Subject Key Identifier: 
                1F:94:7A:35:0B:E4:7C:8F:CA:58:E2:00:E6:0C:64:F3:5B:DD:04:AD
            X509v3 Authority Key Identifier: 
                keyid:1F:94:7A:35:0B:E4:7C:8F:CA:58:E2:00:E6:0C:64:F3:5B:DD:04:AD

            X509v3 Basic Constraints: 
                CA:TRUE
    Signature Algorithm: sha256WithRSAEncryption
         55:8b:ae:81:68:59:3a:7f:2f:e7:31:e8:9a:11:2f:76:4d:ce:
         0c:08:91:15:35:a5:cd:d5:c7:98:2d:cb:f2:5e:11:9c:06:df:
         a6:12:a4:51:38:e7:2c:b8:b4:d8:d0:86:72:6e:8b:50:4d:b1:
         7c:9a:a9:32:0a:61:6d:11:95:6b:b2:6b:3e:64:1b:4d:13:3d:
         96:0e:6a:f2:f1:17:26:60:7f:e3:fa:81:ca:de:5a:72:29:d4:
         30:43:ce:f9:19:11:8d:82:89:3a:15:01:5e:0e:5d:7b:c2:02:
         e3:0b:19:a8:91:8f:0e:80:3c:b2:f5:82:f2:c7:b8:21:a8:42:
         96:24:80:d1:27:ac:e5:39:4a:e8:48:3c:d6:8b:a8:86:50:9b:
         99:1b:09:3f:9a:dd:b9:02:ef:7d:a3:a1:be:2d:f0:05:13:6f:
         eb:21:f0:f8:60:17:cb:b0:74:e9:60:0a:7e:65:f6:1a:e2:19:
         02:1c:c4:03:56:fe:46:63:aa:4f:f2:3a:ab:62:ef:f3:69:81:
         7d:10:13:3c:ca:b1:45:5b:94:87:28:bb:51:3a:7d:33:50:63:
         0d:aa:42:0c:0f:09:ee:88:aa:27:9a:94:84:5d:87:20:1e:ad:
         41:a6:74:26:5b:91:b8:af:cb:b2:e1:47:18:1c:d1:84:f2:60:
         eb:bd:cc:68
-----BEGIN CERTIFICATE-----
MIIDpTCCAo2gAwIBAgIJAP82nIGtmKGeMA0GCSqGSIb3DQEBCwUAMGkxCzAJBgNV
BAYTAlVTMRMwEQYDVQQIDApDYWxpZm9ybmlhMRQwEgYDVQQHDAtTYW50YSBDbGFy
YTENMAsGA1UECgwEcGtnNTEMMAoGA1UEAwwDdGE0MRIwEAYJKoZIhvcNAQkBFgN0
YTQwHhcNMTkwMTIyMTUzMzEyWhcNMjExMDE4MTUzMzEyWjBpMQswCQYDVQQGEwJV
UzETMBEGA1UECAwKQ2FsaWZvcm5pYTEUMBIGA1UEBwwLU2FudGEgQ2xhcmExDTAL
BgNVBAoMBHBrZzUxDDAKBgNVBAMMA3RhNDESMBAGCSqGSIb3DQEJARYDdGE0MIIB
IjANBgkqhkiG9w0BAQEFAAOCAQ8AMIIBCgKCAQEA5C5CPn3mJF6s/I3dnEWeieC3
du9DIte2S9UugehUXT5wcMv2FmykxqFOcDy78pg3U54TLHlz9FvZxKAxwidtH1Nt
Ce/jBwebIZv+wPtsPKdo45kNCfuoM2F5o5Go/nOdLGhepdOuDhdwLfoUh1207ppk
ag/xysi6krR5PAXYBP0P3kzqLUZerL3zKiv9Wa1nuL2hw1g0TZ/8bVYImQwNBPwM
vAqs75NSwwPvf0KgBqZ3tPYWMGXlae8rZHENEmYBVdxlqSwCiLP+D0+8K/BL23Zo
3dCrTDgmSTPBYP81Gv5vlFrbiFe9etWvumJut6LauTVGgAJif6tPOkHhROvdjwID
AQABo1AwTjAdBgNVHQ4EFgQUH5R6NQvkfI/KWOIA5gxk81vdBK0wHwYDVR0jBBgw
FoAUH5R6NQvkfI/KWOIA5gxk81vdBK0wDAYDVR0TBAUwAwEB/zANBgkqhkiG9w0B
AQsFAAOCAQEAVYuugWhZOn8v5zHomhEvdk3ODAiRFTWlzdXHmC3L8l4RnAbfphKk
UTjnLLi02NCGcm6LUE2xfJqpMgphbRGVa7JrPmQbTRM9lg5q8vEXJmB/4/qByt5a
cinUMEPO+RkRjYKJOhUBXg5de8IC4wsZqJGPDoA8svWC8se4IahCliSA0Ses5TlK
6Eg81ouohlCbmRsJP5rduQLvfaOhvi3wBRNv6yHw+GAXy7B06WAKfmX2GuIZAhzE
A1b+RmOqT/I6q2Lv82mBfRATPMqxRVuUhyi7UTp9M1BjDapCDA8J7oiqJ5qUhF2H
IB6tQaZ0JluRuK/LsuFHGBzRhPJg673MaA==
-----END CERTIFICATE-----
