Certificate:
    Data:
        Version: 3 (0x2)
        Serial Number:
            c0:c8:77:b4:4c:49:4f:ab
        Signature Algorithm: sha256WithRSAEncryption
        Issuer: C=US, ST=California, L=Menlo Park, O=pkg5, CN=ta4/emailAddress=ta4
        Validity
            Not Before: Aug  4 20:59:28 2010 GMT
            Not After : Apr 30 20:59:28 2013 GMT
        Subject: C=US, ST=California, L=Menlo Park, O=pkg5, CN=ta4/emailAddress=ta4
        Subject Public Key Info:
            Public Key Algorithm: rsaEncryption
            RSA Public Key: (1024 bit)
                Modulus (1024 bit):
                    00:9f:46:1a:e5:09:98:a6:bd:cf:b6:5c:20:fc:82:
                    d7:86:d2:d0:97:20:c6:12:a5:5f:6c:7a:2c:9a:68:
                    4c:ba:75:32:09:fe:d5:b3:5b:6a:d4:fb:95:aa:bf:
                    5a:36:c3:2e:57:3d:d1:f4:87:4c:8a:66:10:89:39:
                    d8:b9:2f:1a:3f:37:fa:06:d0:e2:5d:3f:06:8b:a4:
                    6e:85:4f:64:8f:72:05:fb:fe:aa:07:f5:ad:b0:49:
                    c5:36:ee:96:c0:49:58:88:f5:a2:2f:3b:90:7d:b8:
                    1e:d7:b0:67:cd:b9:38:05:8d:a7:94:8c:40:33:0b:
                    1f:7d:03:dc:99:c1:55:49:59
                Exponent: 65537 (0x10001)
        X509v3 extensions:
            X509v3 Subject Key Identifier: 
                FE:14:53:EF:9C:0B:AB:ED:96:22:70:11:C2:E6:7D:2E:40:B7:7F:B5
            X509v3 Authority Key Identifier: 
                keyid:FE:14:53:EF:9C:0B:AB:ED:96:22:70:11:C2:E6:7D:2E:40:B7:7F:B5
                DirName:/C=US/ST=California/L=Menlo Park/O=pkg5/CN=ta4/emailAddress=ta4
                serial:C0:C8:77:B4:4C:49:4F:AB

            X509v3 Basic Constraints: 
                CA:TRUE
    Signature Algorithm: sha256WithRSAEncryption
        42:b3:66:1a:56:fd:34:a0:2c:92:6d:ee:3f:e0:c1:c2:c6:8b:
        e0:d5:dd:31:9b:e2:7b:9d:fd:e4:b2:71:72:fd:32:8d:59:a1:
        36:ea:6a:45:d5:80:d4:79:75:4f:fc:50:34:8c:c1:5b:15:0e:
        39:fd:40:99:fd:37:12:fa:d2:6a:1a:b9:66:db:7c:a0:54:e0:
        fa:e3:03:c6:40:cf:71:4e:e4:e9:c2:cb:db:31:3a:a7:0a:5c:
        97:0a:78:e5:50:03:ac:6d:e3:df:07:11:cd:73:5a:75:95:a7:
        40:c0:51:28:9b:f1:a6:1a:1c:db:9e:1b:0a:e0:74:3a:8e:69:
        5b:55
-----BEGIN CERTIFICATE-----
MIIDHDCCAoWgAwIBAgIJAMDId7RMSU+rMA0GCSqGSIb3DQEBCwUAMGgxCzAJBgNV
BAYTAlVTMRMwEQYDVQQIEwpDYWxpZm9ybmlhMRMwEQYDVQQHEwpNZW5sbyBQYXJr
MQ0wCwYDVQQKEwRwa2c1MQwwCgYDVQQDEwN0YTQxEjAQBgkqhkiG9w0BCQEWA3Rh
NDAeFw0xMDA4MDQyMDU5MjhaFw0xMzA0MzAyMDU5MjhaMGgxCzAJBgNVBAYTAlVT
MRMwEQYDVQQIEwpDYWxpZm9ybmlhMRMwEQYDVQQHEwpNZW5sbyBQYXJrMQ0wCwYD
VQQKEwRwa2c1MQwwCgYDVQQDEwN0YTQxEjAQBgkqhkiG9w0BCQEWA3RhNDCBnzAN
BgkqhkiG9w0BAQEFAAOBjQAwgYkCgYEAn0Ya5QmYpr3Ptlwg/ILXhtLQlyDGEqVf
bHosmmhMunUyCf7Vs1tq1PuVqr9aNsMuVz3R9IdMimYQiTnYuS8aPzf6BtDiXT8G
i6RuhU9kj3IF+/6qB/WtsEnFNu6WwElYiPWiLzuQfbge17Bnzbk4BY2nlIxAMwsf
fQPcmcFVSVkCAwEAAaOBzTCByjAdBgNVHQ4EFgQU/hRT75wLq+2WInARwuZ9LkC3
f7UwgZoGA1UdIwSBkjCBj4AU/hRT75wLq+2WInARwuZ9LkC3f7WhbKRqMGgxCzAJ
BgNVBAYTAlVTMRMwEQYDVQQIEwpDYWxpZm9ybmlhMRMwEQYDVQQHEwpNZW5sbyBQ
YXJrMQ0wCwYDVQQKEwRwa2c1MQwwCgYDVQQDEwN0YTQxEjAQBgkqhkiG9w0BCQEW
A3RhNIIJAMDId7RMSU+rMAwGA1UdEwQFMAMBAf8wDQYJKoZIhvcNAQELBQADgYEA
QrNmGlb9NKAskm3uP+DBwsaL4NXdMZvie5395LJxcv0yjVmhNupqRdWA1Hl1T/xQ
NIzBWxUOOf1Amf03EvrSahq5Ztt8oFTg+uMDxkDPcU7k6cLL2zE6pwpclwp45VAD
rG3j3wcRzXNadZWnQMBRKJvxphoc254bCuB0Oo5pW1U=
-----END CERTIFICATE-----
