Certificate:
    Data:
        Version: 3 (0x2)
        Serial Number:
            f7:ff:21:62:21:ae:e0:5a
    Signature Algorithm: sha256WithRSAEncryption
        Issuer: C=US, ST=California, L=Santa Clara, O=pkg5, CN=ta4/emailAddress=ta4
        Validity
            Not Before: Jul 19 11:35:50 2023 GMT
            Not After : Apr 14 11:35:50 2026 GMT
        Subject: C=US, ST=California, L=Santa Clara, O=pkg5, CN=ta4/emailAddress=ta4
        Subject Public Key Info:
            Public Key Algorithm: rsaEncryption
                Public-Key: (2048 bit)
                Modulus:
                    00:ef:a1:bf:c5:a8:2c:27:37:cf:25:70:66:bd:60:
                    d8:66:5c:c0:5a:6d:22:13:b3:15:84:cd:dc:ac:53:
                    b6:71:37:da:da:08:23:6d:4a:a8:ae:32:3a:99:bd:
                    13:e0:f1:3d:38:34:da:77:fc:4a:24:51:b2:53:58:
                    dc:d3:4f:03:de:5a:9a:0d:cc:84:36:c6:ae:23:69:
                    4f:db:ee:c2:9d:e4:ce:be:71:4f:c1:0e:af:75:7c:
                    80:af:a7:1e:f1:29:1e:8a:2c:e9:bf:ba:30:a5:25:
                    29:2d:76:e8:2c:e9:50:ca:31:18:bc:6d:92:35:7c:
                    3a:8a:aa:50:d5:51:55:68:4f:7d:88:b0:3d:20:a0:
                    51:d0:49:45:a3:aa:cc:0b:92:04:77:af:36:8d:02:
                    19:c4:29:a0:58:ab:5b:f0:bc:00:54:7f:75:37:37:
                    95:47:df:98:a7:92:e9:65:c1:b3:f8:f0:1d:02:6a:
                    d5:62:03:47:9a:f8:fc:2a:d1:60:73:f5:9b:bf:b1:
                    a1:da:2d:39:f5:4f:84:18:e8:6f:56:7d:86:71:1a:
                    c4:76:b3:53:c9:48:8d:ff:59:fd:f1:80:8f:cb:42:
                    53:80:4a:01:f3:fb:0b:a0:5c:33:4d:a8:73:a4:15:
                    03:8f:4b:0c:57:03:0f:f8:7c:54:07:73:54:49:3c:
                    8b:8d
                Exponent: 65537 (0x10001)
        X509v3 extensions:
            X509v3 Subject Key Identifier: 
                C7:F9:33:32:3E:5A:3A:94:13:F4:B9:F2:DC:1F:5F:19:A3:34:3B:41
            X509v3 Authority Key Identifier: 
                keyid:C7:F9:33:32:3E:5A:3A:94:13:F4:B9:F2:DC:1F:5F:19:A3:34:3B:41

            X509v3 Basic Constraints: 
                CA:TRUE
    Signature Algorithm: sha256WithRSAEncryption
         24:27:3a:29:6f:9d:fd:21:fa:f0:2c:6a:b0:93:65:cf:62:a2:
         37:9e:7d:89:2f:81:44:f9:2f:86:64:3c:bc:bb:b5:f0:ea:59:
         39:f4:9d:57:f5:80:24:26:67:5a:e4:af:4a:fe:81:55:8d:50:
         6d:83:d6:e6:62:2b:34:78:13:09:fe:69:7b:8f:61:bc:2c:86:
         56:bd:58:97:71:63:31:e7:19:54:82:c7:48:fd:27:95:e7:5d:
         42:20:7d:fd:a1:a9:18:d1:0c:33:b0:ae:e8:e8:71:74:bb:f0:
         96:3a:af:69:6a:55:6d:e5:05:aa:f1:d3:e9:b1:1c:a4:45:d7:
         ba:fd:f8:c9:de:d0:d6:31:5c:84:08:48:ba:2b:a2:1a:fb:95:
         24:cd:37:20:8c:a7:f7:80:15:af:e3:98:b3:2a:17:13:57:ef:
         23:1d:2b:c5:f8:1c:30:93:d4:f7:ea:bd:3e:70:5c:58:94:ad:
         91:31:f3:f5:5a:8f:1a:12:39:7a:5a:1d:6e:74:b5:17:bf:04:
         9a:96:ec:10:0f:8f:60:6d:0b:4c:4d:5d:d8:53:44:d8:66:29:
         1b:f4:cc:a4:01:c9:4b:9d:7c:84:7c:75:c2:75:3a:cd:9e:ce:
         db:21:f6:9a:a6:75:70:f2:98:fb:ef:37:48:db:34:9b:04:6b:
         c1:3f:43:02
-----BEGIN CERTIFICATE-----
MIIDpTCCAo2gAwIBAgIJAPf/IWIhruBaMA0GCSqGSIb3DQEBCwUAMGkxCzAJBgNV
BAYTAlVTMRMwEQYDVQQIDApDYWxpZm9ybmlhMRQwEgYDVQQHDAtTYW50YSBDbGFy
YTENMAsGA1UECgwEcGtnNTEMMAoGA1UEAwwDdGE0MRIwEAYJKoZIhvcNAQkBFgN0
YTQwHhcNMjMwNzE5MTEzNTUwWhcNMjYwNDE0MTEzNTUwWjBpMQswCQYDVQQGEwJV
UzETMBEGA1UECAwKQ2FsaWZvcm5pYTEUMBIGA1UEBwwLU2FudGEgQ2xhcmExDTAL
BgNVBAoMBHBrZzUxDDAKBgNVBAMMA3RhNDESMBAGCSqGSIb3DQEJARYDdGE0MIIB
IjANBgkqhkiG9w0BAQEFAAOCAQ8AMIIBCgKCAQEA76G/xagsJzfPJXBmvWDYZlzA
Wm0iE7MVhM3crFO2cTfa2ggjbUqorjI6mb0T4PE9ODTad/xKJFGyU1jc008D3lqa
DcyENsauI2lP2+7CneTOvnFPwQ6vdXyAr6ce8Skeiizpv7owpSUpLXboLOlQyjEY
vG2SNXw6iqpQ1VFVaE99iLA9IKBR0ElFo6rMC5IEd682jQIZxCmgWKtb8LwAVH91
NzeVR9+Yp5LpZcGz+PAdAmrVYgNHmvj8KtFgc/Wbv7Gh2i059U+EGOhvVn2GcRrE
drNTyUiN/1n98YCPy0JTgEoB8/sLoFwzTahzpBUDj0sMVwMP+HxUB3NUSTyLjQID
AQABo1AwTjAdBgNVHQ4EFgQUx/kzMj5aOpQT9Lny3B9fGaM0O0EwHwYDVR0jBBgw
FoAUx/kzMj5aOpQT9Lny3B9fGaM0O0EwDAYDVR0TBAUwAwEB/zANBgkqhkiG9w0B
AQsFAAOCAQEAJCc6KW+d/SH68CxqsJNlz2KiN559iS+BRPkvhmQ8vLu18OpZOfSd
V/WAJCZnWuSvSv6BVY1QbYPW5mIrNHgTCf5pe49hvCyGVr1Yl3FjMecZVILHSP0n
leddQiB9/aGpGNEMM7Cu6OhxdLvwljqvaWpVbeUFqvHT6bEcpEXXuv34yd7Q1jFc
hAhIuiuiGvuVJM03IIyn94AVr+OYsyoXE1fvIx0rxfgcMJPU9+q9PnBcWJStkTHz
9VqPGhI5elodbnS1F78EmpbsEA+PYG0LTE1d2FNE2GYpG/TMpAHJS518hHx1wnU6
zZ7O2yH2mqZ1cPKY++83SNs0mwRrwT9DAg==
-----END CERTIFICATE-----
