Certificate:
    Data:
        Version: 3 (0x2)
        Serial Number:
            dc:6b:80:25:5f:c8:03:d6
    Signature Algorithm: sha256WithRSAEncryption
        Issuer: C=US, ST=California, L=Santa Clara, O=pkg5, CN=ta5/emailAddress=ta5
        Validity
            Not Before: Jul 19 11:35:51 2023 GMT
            Not After : Apr 14 11:35:51 2026 GMT
        Subject: C=US, ST=California, L=Santa Clara, O=pkg5, CN=ta5/emailAddress=ta5
        Subject Public Key Info:
            Public Key Algorithm: rsaEncryption
                Public-Key: (2048 bit)
                Modulus:
                    00:c5:24:ef:b5:48:9d:cb:e1:20:a7:c1:c0:50:20:
                    97:3a:12:94:cd:b4:a9:c7:8c:27:47:73:ba:ee:eb:
                    db:b0:87:9d:f4:96:12:22:28:cd:2f:be:13:2a:12:
                    e2:0e:31:4e:a0:ee:4e:ce:37:7d:d6:e5:aa:20:52:
                    2d:00:2d:3a:1a:e7:9c:80:db:6c:30:cf:b3:7e:ef:
                    6a:e8:c2:20:ac:37:3f:e2:3f:8d:57:ab:a8:bb:35:
                    cb:52:97:61:a5:19:e8:1c:75:4d:5d:51:5e:30:72:
                    ca:fd:41:c3:18:a8:69:5b:21:6f:1a:31:41:d3:f6:
                    c2:3f:53:2c:e5:46:96:34:59:fc:82:32:5d:e4:00:
                    e1:d8:db:c6:df:a5:96:7d:e1:56:4c:3a:fe:bd:13:
                    eb:e0:bd:6a:c7:d1:9c:15:ad:ab:eb:0d:3a:6c:7e:
                    7c:66:ec:9e:61:05:9f:76:f8:5a:ca:7a:32:1b:91:
                    e7:84:b1:da:cf:eb:e9:6a:aa:7b:ed:fc:23:4e:f9:
                    de:16:6a:a6:11:92:e4:96:0d:ab:39:8c:10:21:14:
                    57:f1:f7:52:3d:51:c3:9e:c1:c3:76:ef:8d:6a:11:
                    d7:4d:e5:fa:3e:73:ad:49:6f:9a:d1:bd:25:ba:41:
                    34:04:2d:e9:17:f2:9b:48:e6:20:3d:38:7a:5b:b4:
                    8f:6d
                Exponent: 65537 (0x10001)
        X509v3 extensions:
            X509v3 Subject Key Identifier: 
                AD:A6:93:C3:29:9D:84:C4:AE:A7:10:46:CF:E5:CD:5A:68:AA:60:A8
            X509v3 Authority Key Identifier: 
                keyid:AD:A6:93:C3:29:9D:84:C4:AE:A7:10:46:CF:E5:CD:5A:68:AA:60:A8

            X509v3 Basic Constraints: 
                CA:TRUE
    Signature Algorithm: sha256WithRSAEncryption
         24:94:57:27:ee:d4:34:8e:67:4f:9e:36:ea:17:3c:81:9f:7c:
         ea:f9:b2:4c:f6:28:de:2e:80:b1:e9:c0:9f:82:4f:b3:a8:30:
         22:a6:2b:b5:b6:d3:0b:46:0f:a7:e2:a3:2f:53:37:a2:0a:27:
         fe:66:4b:bd:93:07:3a:1f:ad:c6:41:5b:dd:8c:9f:7b:57:29:
         3c:2a:01:51:76:b7:29:e5:2f:5c:15:b5:01:e6:59:a0:c9:40:
         da:db:77:c6:f2:7f:b8:bf:ea:df:d3:8c:c5:27:23:c1:48:30:
         a3:a4:14:95:35:3c:fb:cc:e1:20:c8:37:30:72:0d:c4:60:1b:
         ec:c2:30:ee:05:93:be:f7:5b:61:1c:1f:dc:b5:23:30:6b:57:
         f3:18:cd:e7:26:54:ac:4e:90:6f:cc:04:4a:86:f7:ba:e4:c1:
         f6:65:6e:44:fd:fd:6f:51:dd:10:83:95:a1:f0:30:81:d1:8f:
         06:58:d0:37:5d:94:d8:ec:ff:73:8c:96:f0:a5:5a:7c:aa:a4:
         e0:d3:d7:a5:43:59:3d:30:7a:f0:77:4d:3f:d8:7b:8a:9e:69:
         c7:f6:ba:26:2d:c8:47:f5:b1:a9:f1:d4:3b:73:5c:24:cb:4a:
         30:f2:81:ad:a3:ce:13:70:a9:bf:8e:d8:ba:71:99:d5:a0:e3:
         e6:c8:8a:09
-----BEGIN CERTIFICATE-----
MIIDpTCCAo2gAwIBAgIJANxrgCVfyAPWMA0GCSqGSIb3DQEBCwUAMGkxCzAJBgNV
BAYTAlVTMRMwEQYDVQQIDApDYWxpZm9ybmlhMRQwEgYDVQQHDAtTYW50YSBDbGFy
YTENMAsGA1UECgwEcGtnNTEMMAoGA1UEAwwDdGE1MRIwEAYJKoZIhvcNAQkBFgN0
YTUwHhcNMjMwNzE5MTEzNTUxWhcNMjYwNDE0MTEzNTUxWjBpMQswCQYDVQQGEwJV
UzETMBEGA1UECAwKQ2FsaWZvcm5pYTEUMBIGA1UEBwwLU2FudGEgQ2xhcmExDTAL
BgNVBAoMBHBrZzUxDDAKBgNVBAMMA3RhNTESMBAGCSqGSIb3DQEJARYDdGE1MIIB
IjANBgkqhkiG9w0BAQEFAAOCAQ8AMIIBCgKCAQEAxSTvtUidy+Egp8HAUCCXOhKU
zbSpx4wnR3O67uvbsIed9JYSIijNL74TKhLiDjFOoO5Ozjd91uWqIFItAC06Guec
gNtsMM+zfu9q6MIgrDc/4j+NV6uouzXLUpdhpRnoHHVNXVFeMHLK/UHDGKhpWyFv
GjFB0/bCP1Ms5UaWNFn8gjJd5ADh2NvG36WWfeFWTDr+vRPr4L1qx9GcFa2r6w06
bH58ZuyeYQWfdvhaynoyG5HnhLHaz+vpaqp77fwjTvneFmqmEZLklg2rOYwQIRRX
8fdSPVHDnsHDdu+NahHXTeX6PnOtSW+a0b0lukE0BC3pF/KbSOYgPTh6W7SPbQID
AQABo1AwTjAdBgNVHQ4EFgQUraaTwymdhMSupxBGz+XNWmiqYKgwHwYDVR0jBBgw
FoAUraaTwymdhMSupxBGz+XNWmiqYKgwDAYDVR0TBAUwAwEB/zANBgkqhkiG9w0B
AQsFAAOCAQEAJJRXJ+7UNI5nT5426hc8gZ986vmyTPYo3i6AsenAn4JPs6gwIqYr
tbbTC0YPp+KjL1M3ogon/mZLvZMHOh+txkFb3Yyfe1cpPCoBUXa3KeUvXBW1AeZZ
oMlA2tt3xvJ/uL/q39OMxScjwUgwo6QUlTU8+8zhIMg3MHINxGAb7MIw7gWTvvdb
YRwf3LUjMGtX8xjN5yZUrE6Qb8wESob3uuTB9mVuRP39b1HdEIOVofAwgdGPBljQ
N12U2Oz/c4yW8KVafKqk4NPXpUNZPTB68HdNP9h7ip5px/a6Ji3IR/WxqfHUO3Nc
JMtKMPKBraPOE3Cpv47YunGZ1aDj5siKCQ==
-----END CERTIFICATE-----
