Certificate:
    Data:
        Version: 3 (0x2)
        Serial Number:
            9c:19:39:11:06:1a:55:91
        Signature Algorithm: sha256WithRSAEncryption
        Issuer: C=US, ST=California, L=Menlo Park, O=pkg5, CN=ta5/emailAddress=ta5
        Validity
            Not Before: Apr 11 22:37:52 2011 GMT
            Not After : Jan  5 22:37:52 2014 GMT
        Subject: C=US, ST=California, L=Menlo Park, O=pkg5, CN=ta5/emailAddress=ta5
        Subject Public Key Info:
            Public Key Algorithm: rsaEncryption
            RSA Public Key: (1024 bit)
                Modulus (1024 bit):
                    00:c4:65:70:7a:0e:03:ae:85:f3:d6:03:6f:f9:a2:
                    af:4e:ae:cd:d4:99:b6:6d:14:a4:12:62:54:1f:8b:
                    c6:d3:8c:e8:7e:85:82:a5:f5:c9:03:66:f6:dd:48:
                    58:5a:7a:20:c6:1d:7b:47:78:52:64:3f:0a:67:d0:
                    cc:03:aa:2b:00:b5:89:7b:b1:50:fb:79:e1:d5:32:
                    8c:c3:49:df:ba:2a:21:43:cb:c5:39:39:12:bd:3a:
                    ba:7b:29:f2:48:32:37:84:c6:af:66:db:a2:a4:00:
                    ec:40:08:c1:a8:36:0c:b6:48:c6:39:b1:fd:be:e2:
                    60:a4:3d:c6:b6:b1:a8:be:55
                Exponent: 65537 (0x10001)
        X509v3 extensions:
            X509v3 Subject Key Identifier: 
                E7:E6:72:5B:A0:5F:2C:A6:40:45:1A:66:E4:45:A5:0F:1D:67:5D:93
            X509v3 Authority Key Identifier: 
                keyid:E7:E6:72:5B:A0:5F:2C:A6:40:45:1A:66:E4:45:A5:0F:1D:67:5D:93
                DirName:/C=US/ST=California/L=Menlo Park/O=pkg5/CN=ta5/emailAddress=ta5
                serial:9C:19:39:11:06:1A:55:91

            X509v3 Basic Constraints: 
                CA:TRUE
    Signature Algorithm: sha256WithRSAEncryption
        89:2d:87:d4:a5:2a:63:ce:4d:12:6f:ca:94:d3:e9:ac:3e:93:
        30:f3:1a:20:05:9d:8c:72:7c:70:ea:00:c9:b6:39:d8:5a:d1:
        87:1e:57:8f:2f:61:f1:ec:a8:f2:b9:2b:03:d5:0c:07:e4:f5:
        01:8d:00:95:fd:9c:12:d0:86:3f:8d:cf:3a:5b:ae:2d:a2:6f:
        2d:ee:a6:10:6f:f0:d0:5f:dd:78:02:3e:1f:0d:f3:ae:a2:fa:
        c5:9d:96:ae:31:a8:a3:ba:a4:78:a8:ec:db:e7:61:de:d3:5c:
        c4:c2:4d:5c:b4:cb:f8:27:6e:53:06:11:e0:e7:aa:41:7f:bd:
        9a:8a
-----BEGIN CERTIFICATE-----
MIIDHDCCAoWgAwIBAgIJAJwZOREGGlWRMA0GCSqGSIb3DQEBCwUAMGgxCzAJBgNV
BAYTAlVTMRMwEQYDVQQIEwpDYWxpZm9ybmlhMRMwEQYDVQQHEwpNZW5sbyBQYXJr
MQ0wCwYDVQQKEwRwa2c1MQwwCgYDVQQDEwN0YTUxEjAQBgkqhkiG9w0BCQEWA3Rh
NTAeFw0xMTA0MTEyMjM3NTJaFw0xNDAxMDUyMjM3NTJaMGgxCzAJBgNVBAYTAlVT
MRMwEQYDVQQIEwpDYWxpZm9ybmlhMRMwEQYDVQQHEwpNZW5sbyBQYXJrMQ0wCwYD
VQQKEwRwa2c1MQwwCgYDVQQDEwN0YTUxEjAQBgkqhkiG9w0BCQEWA3RhNTCBnzAN
BgkqhkiG9w0BAQEFAAOBjQAwgYkCgYEAxGVweg4DroXz1gNv+aKvTq7N1Jm2bRSk
EmJUH4vG04zofoWCpfXJA2b23UhYWnogxh17R3hSZD8KZ9DMA6orALWJe7FQ+3nh
1TKMw0nfuiohQ8vFOTkSvTq6eynySDI3hMavZtuipADsQAjBqDYMtkjGObH9vuJg
pD3GtrGovlUCAwEAAaOBzTCByjAdBgNVHQ4EFgQU5+ZyW6BfLKZARRpm5EWlDx1n
XZMwgZoGA1UdIwSBkjCBj4AU5+ZyW6BfLKZARRpm5EWlDx1nXZOhbKRqMGgxCzAJ
BgNVBAYTAlVTMRMwEQYDVQQIEwpDYWxpZm9ybmlhMRMwEQYDVQQHEwpNZW5sbyBQ
YXJrMQ0wCwYDVQQKEwRwa2c1MQwwCgYDVQQDEwN0YTUxEjAQBgkqhkiG9w0BCQEW
A3RhNYIJAJwZOREGGlWRMAwGA1UdEwQFMAMBAf8wDQYJKoZIhvcNAQELBQADgYEA
iS2H1KUqY85NEm/KlNPprD6TMPMaIAWdjHJ8cOoAybY52FrRhx5Xjy9h8eyo8rkr
A9UMB+T1AY0Alf2cEtCGP43POluuLaJvLe6mEG/w0F/deAI+Hw3zrqL6xZ2WrjGo
o7qkeKjs2+dh3tNcxMJNXLTL+CduUwYR4OeqQX+9moo=
-----END CERTIFICATE-----
