Certificate:
    Data:
        Version: 3 (0x2)
        Serial Number:
            e0:a1:00:60:ae:57:96:b2
        Signature Algorithm: sha256WithRSAEncryption
        Issuer: C=US, ST=California, L=Menlo Park, O=pkg5, CN=ta5/emailAddress=ta5
        Validity
            Not Before: Jan 28 02:54:25 2011 GMT
            Not After : Oct 24 02:54:25 2013 GMT
        Subject: C=US, ST=California, L=Menlo Park, O=pkg5, CN=ta5/emailAddress=ta5
        Subject Public Key Info:
            Public Key Algorithm: rsaEncryption
            RSA Public Key: (1024 bit)
                Modulus (1024 bit):
                    00:ab:ce:85:a0:8e:f0:46:60:75:e2:b8:90:39:ef:
                    03:a8:47:a0:d7:75:a3:09:de:dd:a6:b2:ca:e1:3a:
                    e1:fb:bb:59:36:43:85:e2:97:89:23:82:8e:6e:93:
                    b5:76:aa:67:56:28:37:1a:8a:f3:4f:50:f7:59:50:
                    3d:52:9d:b2:b3:28:36:b5:b1:c4:cf:92:56:d4:14:
                    95:3d:c7:04:79:cd:88:ae:72:9e:9a:6f:49:7a:c2:
                    a1:be:e5:38:c2:fc:62:ef:65:ab:20:7a:02:74:56:
                    0d:09:8b:86:b2:6b:86:97:03:04:02:58:7c:01:12:
                    1d:e4:27:0c:60:34:23:f7:35
                Exponent: 65537 (0x10001)
        X509v3 extensions:
            X509v3 Subject Key Identifier: 
                62:0A:5F:1E:BA:AD:0B:1E:13:7A:CA:B4:5C:12:64:1F:BF:44:C6:B0
            X509v3 Authority Key Identifier: 
                keyid:62:0A:5F:1E:BA:AD:0B:1E:13:7A:CA:B4:5C:12:64:1F:BF:44:C6:B0
                DirName:/C=US/ST=California/L=Menlo Park/O=pkg5/CN=ta5/emailAddress=ta5
                serial:E0:A1:00:60:AE:57:96:B2

            X509v3 Basic Constraints: 
                CA:TRUE
    Signature Algorithm: sha256WithRSAEncryption
        99:ed:98:00:f9:46:27:4d:de:ec:2f:4f:87:33:18:e6:25:e5:
        45:ef:67:56:5d:24:42:b3:93:fd:3b:18:19:93:71:3c:24:88:
        c2:84:6c:e6:91:a8:42:9a:a0:7d:3c:96:0f:50:89:2c:25:ad:
        a0:d9:ee:d1:3c:37:da:75:17:6b:99:39:bc:5f:d4:82:7d:f0:
        cf:d5:02:5a:e7:26:8c:47:c0:33:8d:1b:9e:70:d3:99:71:38:
        1e:1e:05:54:aa:26:5b:f7:6d:4a:b5:e0:0c:db:e1:af:52:7e:
        66:7c:5f:a5:4e:19:e4:77:9c:65:10:ad:cf:97:d6:78:26:fc:
        1c:c2
-----BEGIN CERTIFICATE-----
MIIDHDCCAoWgAwIBAgIJAOChAGCuV5ayMA0GCSqGSIb3DQEBCwUAMGgxCzAJBgNV
BAYTAlVTMRMwEQYDVQQIEwpDYWxpZm9ybmlhMRMwEQYDVQQHEwpNZW5sbyBQYXJr
MQ0wCwYDVQQKEwRwa2c1MQwwCgYDVQQDEwN0YTUxEjAQBgkqhkiG9w0BCQEWA3Rh
NTAeFw0xMTAxMjgwMjU0MjVaFw0xMzEwMjQwMjU0MjVaMGgxCzAJBgNVBAYTAlVT
MRMwEQYDVQQIEwpDYWxpZm9ybmlhMRMwEQYDVQQHEwpNZW5sbyBQYXJrMQ0wCwYD
VQQKEwRwa2c1MQwwCgYDVQQDEwN0YTUxEjAQBgkqhkiG9w0BCQEWA3RhNTCBnzAN
BgkqhkiG9w0BAQEFAAOBjQAwgYkCgYEAq86FoI7wRmB14riQOe8DqEeg13WjCd7d
prLK4Trh+7tZNkOF4peJI4KObpO1dqpnVig3GorzT1D3WVA9Up2ysyg2tbHEz5JW
1BSVPccEec2IrnKemm9JesKhvuU4wvxi72WrIHoCdFYNCYuGsmuGlwMEAlh8ARId
5CcMYDQj9zUCAwEAAaOBzTCByjAdBgNVHQ4EFgQUYgpfHrqtCx4Tesq0XBJkH79E
xrAwgZoGA1UdIwSBkjCBj4AUYgpfHrqtCx4Tesq0XBJkH79ExrChbKRqMGgxCzAJ
BgNVBAYTAlVTMRMwEQYDVQQIEwpDYWxpZm9ybmlhMRMwEQYDVQQHEwpNZW5sbyBQ
YXJrMQ0wCwYDVQQKEwRwa2c1MQwwCgYDVQQDEwN0YTUxEjAQBgkqhkiG9w0BCQEW
A3RhNYIJAOChAGCuV5ayMAwGA1UdEwQFMAMBAf8wDQYJKoZIhvcNAQELBQADgYEA
me2YAPlGJ03e7C9PhzMY5iXlRe9nVl0kQrOT/TsYGZNxPCSIwoRs5pGoQpqgfTyW
D1CJLCWtoNnu0Tw32nUXa5k5vF/Ugn3wz9UCWucmjEfAM40bnnDTmXE4Hh4FVKom
W/dtSrXgDNvhr1J+ZnxfpU4Z5HecZRCtz5fWeCb8HMI=
-----END CERTIFICATE-----
