Certificate:
    Data:
        Version: 3 (0x2)
        Serial Number:
            1b:23:d1:58:30:58:05:14:5d:78:d0:9d:ea:4d:d6:3d:18:37:4b:23
        Signature Algorithm: sha256WithRSAEncryption
        Issuer: C = US, ST = California, L = Santa Clara, O = pkg5, CN = ta5, emailAddress = ta5
        Validity
            Not Before: Mar 18 08:51:44 2026 GMT
            Not After : Dec 12 08:51:44 2028 GMT
        Subject: C = US, ST = California, L = Santa Clara, O = pkg5, CN = ta5, emailAddress = ta5
        Subject Public Key Info:
            Public Key Algorithm: rsaEncryption
                Public-Key: (2048 bit)
                Modulus:
                    00:bc:2f:e2:3b:5c:d6:e0:2d:a9:67:1d:fd:80:16:
                    8e:47:01:00:7e:4d:2b:6e:7c:7a:67:75:65:aa:04:
                    95:b1:27:29:1b:bd:76:93:d7:f6:bd:9c:27:2c:f5:
                    87:fd:d0:72:72:21:ec:76:4a:34:63:4c:51:de:f2:
                    86:74:5f:d9:ed:18:cd:07:b8:6c:3f:53:8f:50:26:
                    dc:d7:f7:e2:e6:15:11:f9:c4:d9:ff:82:a6:b8:21:
                    90:7d:d8:4f:dc:df:e3:d0:08:12:be:56:65:72:5a:
                    a7:91:06:bd:08:e8:09:62:40:44:01:0c:a0:c7:d9:
                    fb:ab:8d:be:d9:59:77:ad:f2:1b:1c:24:c6:4f:8d:
                    11:b9:0a:88:f7:4c:79:2e:01:4c:50:0a:1f:f8:41:
                    c3:83:fc:78:77:a8:e4:f1:c7:16:d3:42:73:d7:2b:
                    a9:59:da:24:11:5e:b2:74:75:c6:92:2e:79:1f:6d:
                    c8:5a:5d:f5:68:2f:b4:2e:da:88:5c:e3:c5:40:43:
                    30:05:09:ae:38:3b:c9:16:c8:10:eb:17:9c:7d:b5:
                    ed:8c:ba:5e:d8:f6:d3:a0:1c:d5:84:87:f4:4d:b5:
                    0b:5a:29:11:ce:12:84:c6:8f:d9:0a:9d:fe:29:2c:
                    7d:c8:b1:13:7a:93:96:ba:4a:8e:48:dd:b4:6d:b2:
                    7d:27
                Exponent: 65537 (0x10001)
        X509v3 extensions:
            X509v3 Subject Key Identifier: 
                DB:89:BF:4E:E5:6A:61:78:61:3A:ED:F3:A3:80:AC:AB:A9:7C:2A:DA
            X509v3 Authority Key Identifier: 
                DB:89:BF:4E:E5:6A:61:78:61:3A:ED:F3:A3:80:AC:AB:A9:7C:2A:DA
            X509v3 Basic Constraints: critical
                CA:TRUE
    Signature Algorithm: sha256WithRSAEncryption
    Signature Value:
        61:1c:e3:5b:90:1c:d0:b1:fc:71:2c:80:bc:6f:af:8b:4c:eb:
        f5:69:7d:5d:d4:79:29:7b:68:ad:15:a0:bf:29:de:8a:51:eb:
        00:cd:8a:cb:d9:08:ec:38:b9:ed:a4:b8:d2:ba:21:fb:0d:f4:
        af:99:bc:da:ef:66:74:33:4b:6e:8f:54:17:18:9a:26:7c:6a:
        bd:27:88:8e:44:24:18:db:cd:e1:ed:70:43:8f:b3:b9:d1:26:
        14:38:ef:76:a0:25:cd:19:ab:6a:93:e3:3f:b1:70:98:b7:6c:
        0d:16:a9:c3:e0:84:24:28:b5:74:b6:f8:e5:31:60:da:64:46:
        a0:2e:dd:46:a0:c5:cb:cc:27:ba:4f:8f:aa:bf:8b:9e:e7:7e:
        51:ad:57:bc:a6:60:fc:73:f2:01:67:6e:19:21:a8:19:bd:f2:
        ff:52:58:eb:1d:ae:06:a5:a7:7e:54:8d:0c:be:98:e7:51:0c:
        ce:e4:04:a9:b4:c5:1b:67:26:bd:51:e6:2f:ed:27:ce:a1:21:
        21:b0:fe:5c:0c:cb:d4:99:db:ad:f7:1a:15:0d:51:86:a7:dc:
        f4:79:f2:1a:2b:4c:8d:93:3c:33:76:bc:15:35:f4:5f:9f:c7:
        0c:ee:53:b8:a6:a2:56:fd:84:3f:4f:65:2d:d0:30:b5:97:73:
        c5:27:09:02
-----BEGIN CERTIFICATE-----
MIIDszCCApugAwIBAgIUGyPRWDBYBRRdeNCd6k3WPRg3SyMwDQYJKoZIhvcNAQEL
BQAwaTELMAkGA1UEBhMCVVMxEzARBgNVBAgMCkNhbGlmb3JuaWExFDASBgNVBAcM
C1NhbnRhIENsYXJhMQ0wCwYDVQQKDARwa2c1MQwwCgYDVQQDDAN0YTUxEjAQBgkq
hkiG9w0BCQEWA3RhNTAeFw0yNjAzMTgwODUxNDRaFw0yODEyMTIwODUxNDRaMGkx
CzAJBgNVBAYTAlVTMRMwEQYDVQQIDApDYWxpZm9ybmlhMRQwEgYDVQQHDAtTYW50
YSBDbGFyYTENMAsGA1UECgwEcGtnNTEMMAoGA1UEAwwDdGE1MRIwEAYJKoZIhvcN
AQkBFgN0YTUwggEiMA0GCSqGSIb3DQEBAQUAA4IBDwAwggEKAoIBAQC8L+I7XNbg
LalnHf2AFo5HAQB+TStufHpndWWqBJWxJykbvXaT1/a9nCcs9Yf90HJyIex2SjRj
TFHe8oZ0X9ntGM0HuGw/U49QJtzX9+LmFRH5xNn/gqa4IZB92E/c3+PQCBK+VmVy
WqeRBr0I6AliQEQBDKDH2furjb7ZWXet8hscJMZPjRG5Coj3THkuAUxQCh/4QcOD
/Hh3qOTxxxbTQnPXK6lZ2iQRXrJ0dcaSLnkfbchaXfVoL7Qu2ohc48VAQzAFCa44
O8kWyBDrF5x9te2Mul7Y9tOgHNWEh/RNtQtaKRHOEoTGj9kKnf4pLH3IsRN6k5a6
So5I3bRtsn0nAgMBAAGjUzBRMB0GA1UdDgQWBBTbib9O5WpheGE67fOjgKyrqXwq
2jAfBgNVHSMEGDAWgBTbib9O5WpheGE67fOjgKyrqXwq2jAPBgNVHRMBAf8EBTAD
AQH/MA0GCSqGSIb3DQEBCwUAA4IBAQBhHONbkBzQsfxxLIC8b6+LTOv1aX1d1Hkp
e2itFaC/Kd6KUesAzYrL2QjsOLntpLjSuiH7DfSvmbza72Z0M0tuj1QXGJomfGq9
J4iORCQY283h7XBDj7O50SYUOO92oCXNGatqk+M/sXCYt2wNFqnD4IQkKLV0tvjl
MWDaZEagLt1GoMXLzCe6T4+qv4ue535RrVe8pmD8c/IBZ24ZIagZvfL/UljrHa4G
pad+VI0MvpjnUQzO5ASptMUbZya9UeYv7SfOoSEhsP5cDMvUmdut9xoVDVGGp9z0
efIaK0yNkzwzdrwVNfRfn8cM7lO4pqJW/YQ/T2Ut0DC1l3PFJwkC
-----END CERTIFICATE-----
