Certificate:
    Data:
        Version: 3 (0x2)
        Serial Number:
            c8:e6:0a:19:40:13:e9:35
    Signature Algorithm: sha256WithRSAEncryption
        Issuer: C=US, ST=California, L=Santa Clara, O=pkg5, OU=ta6, CN=localhost/emailAddress=ta6
        Validity
            Not Before: Sep 22 05:33:35 2021 GMT
            Not After : Jun 18 05:33:35 2024 GMT
        Subject: C=US, ST=California, L=Santa Clara, O=pkg5, OU=ta6, CN=localhost/emailAddress=ta6
        Subject Public Key Info:
            Public Key Algorithm: rsaEncryption
                Public-Key: (2048 bit)
                Modulus:
                    00:c6:b6:42:1a:07:63:6f:ed:62:aa:48:97:3f:9a:
                    b1:de:2b:cd:1a:37:eb:d3:aa:0f:f9:68:d3:91:c2:
                    0d:86:ce:f0:d9:0c:7a:2d:41:45:85:9e:18:68:c3:
                    9d:73:01:77:6b:ea:c9:5f:f5:5b:50:68:d9:fe:7b:
                    9b:b4:37:d3:76:de:f0:87:b3:d3:b0:f5:b1:05:97:
                    1c:03:44:1a:53:33:17:8e:07:1a:db:a7:f2:05:2c:
                    5e:3d:2c:ac:f2:f5:42:67:8b:a6:de:8d:e4:3b:f5:
                    5a:95:74:ad:21:58:d8:10:8a:6c:75:42:76:58:ff:
                    79:f1:72:8f:8f:8c:ce:35:3a:d1:8d:19:91:1f:31:
                    09:ee:aa:ba:0a:91:b3:0c:51:ce:77:7b:a0:ca:fc:
                    6e:59:e9:97:72:d9:39:b7:67:51:e4:a5:21:78:d8:
                    b9:bd:e3:56:f0:37:ff:4a:da:13:66:fe:5e:7c:f2:
                    c0:f6:b6:e5:51:62:61:bd:bc:3a:53:7b:00:9c:c8:
                    f8:bf:e1:7c:cb:14:2e:15:e9:36:91:63:de:54:9a:
                    37:e7:06:9d:14:5a:20:99:68:5b:99:42:eb:e2:bf:
                    83:f5:c7:d9:60:b2:76:39:4b:4c:23:34:0e:43:a2:
                    1f:c8:c9:78:f2:5a:68:5a:cf:3c:89:0e:37:ac:14:
                    7e:0b
                Exponent: 65537 (0x10001)
        X509v3 extensions:
            X509v3 Subject Key Identifier: 
                D9:3D:2C:01:58:CF:21:2A:42:E6:32:24:80:F5:5E:E2:9F:7D:31:E9
            X509v3 Authority Key Identifier: 
                keyid:D9:3D:2C:01:58:CF:21:2A:42:E6:32:24:80:F5:5E:E2:9F:7D:31:E9

            X509v3 Basic Constraints: 
                CA:TRUE
    Signature Algorithm: sha256WithRSAEncryption
         23:24:c5:88:41:2b:c7:49:26:e1:78:0a:d3:2e:7a:33:b8:2d:
         9c:99:03:4e:2a:af:72:bd:95:b2:e3:5d:06:d6:c1:fd:a9:35:
         4b:cb:ea:58:a6:a8:95:b6:32:dc:f5:92:78:38:f3:f5:e7:01:
         d1:5b:58:fb:14:83:fb:69:4e:43:ab:bc:82:68:82:d6:6b:1c:
         6a:8b:db:73:85:73:a3:8b:9d:92:09:1c:3f:ce:3f:39:0c:da:
         f5:b5:68:40:0d:61:9a:fd:41:fc:32:91:3a:47:aa:3b:d3:ed:
         d7:ff:a7:04:60:f9:6d:52:82:57:df:d2:ba:a4:b5:3b:14:79:
         60:4f:a7:da:81:dc:87:d1:6a:5b:05:20:e2:c3:d1:5f:ae:f0:
         60:3f:f6:e4:cc:92:e7:a1:a1:ff:66:51:72:17:f6:27:e6:ca:
         0f:ee:68:26:32:cd:39:3e:7a:7c:b7:9e:bd:7c:98:d7:33:84:
         b0:06:fb:c8:37:64:a8:b8:c9:c5:73:09:93:30:97:42:23:4b:
         73:7a:4a:2c:18:a7:a0:ab:c7:fc:27:08:da:eb:fa:cb:98:fa:
         1e:f0:ab:23:f2:55:d7:a9:51:54:34:40:63:ac:cb:57:16:95:
         b3:9d:a6:a7:f3:87:62:fb:b3:d4:39:ea:5b:8c:ed:8b:03:79:
         6d:6b:d1:8d
-----BEGIN CERTIFICATE-----
MIIDzTCCArWgAwIBAgIJAMjmChlAE+k1MA0GCSqGSIb3DQEBCwUAMH0xCzAJBgNV
BAYTAlVTMRMwEQYDVQQIDApDYWxpZm9ybmlhMRQwEgYDVQQHDAtTYW50YSBDbGFy
YTENMAsGA1UECgwEcGtnNTEMMAoGA1UECwwDdGE2MRIwEAYDVQQDDAlsb2NhbGhv
c3QxEjAQBgkqhkiG9w0BCQEWA3RhNjAeFw0yMTA5MjIwNTMzMzVaFw0yNDA2MTgw
NTMzMzVaMH0xCzAJBgNVBAYTAlVTMRMwEQYDVQQIDApDYWxpZm9ybmlhMRQwEgYD
VQQHDAtTYW50YSBDbGFyYTENMAsGA1UECgwEcGtnNTEMMAoGA1UECwwDdGE2MRIw
EAYDVQQDDAlsb2NhbGhvc3QxEjAQBgkqhkiG9w0BCQEWA3RhNjCCASIwDQYJKoZI
hvcNAQEBBQADggEPADCCAQoCggEBAMa2QhoHY2/tYqpIlz+asd4rzRo369OqD/lo
05HCDYbO8NkMei1BRYWeGGjDnXMBd2vqyV/1W1Bo2f57m7Q303be8Iez07D1sQWX
HANEGlMzF44HGtun8gUsXj0srPL1QmeLpt6N5Dv1WpV0rSFY2BCKbHVCdlj/efFy
j4+MzjU60Y0ZkR8xCe6qugqRswxRznd7oMr8blnpl3LZObdnUeSlIXjYub3jVvA3
/0raE2b+XnzywPa25VFiYb28OlN7AJzI+L/hfMsULhXpNpFj3lSaN+cGnRRaIJlo
W5lC6+K/g/XH2WCydjlLTCM0DkOiH8jJePJaaFrPPIkON6wUfgsCAwEAAaNQME4w
HQYDVR0OBBYEFNk9LAFYzyEqQuYyJID1XuKffTHpMB8GA1UdIwQYMBaAFNk9LAFY
zyEqQuYyJID1XuKffTHpMAwGA1UdEwQFMAMBAf8wDQYJKoZIhvcNAQELBQADggEB
ACMkxYhBK8dJJuF4CtMuejO4LZyZA04qr3K9lbLjXQbWwf2pNUvL6limqJW2Mtz1
kng48/XnAdFbWPsUg/tpTkOrvIJogtZrHGqL23OFc6OLnZIJHD/OPzkM2vW1aEAN
YZr9QfwykTpHqjvT7df/pwRg+W1Sglff0rqktTsUeWBPp9qB3IfRalsFIOLD0V+u
8GA/9uTMkuehof9mUXIX9ifmyg/uaCYyzTk+eny3nr18mNczhLAG+8g3ZKi4ycVz
CZMwl0IjS3N6SiwYp6Crx/wnCNrr+suY+h7wqyPyVdepUVQ0QGOsy1cWlbOdpqfz
h2L7s9Q56luM7YsDeW1r0Y0=
-----END CERTIFICATE-----
