Certificate:
    Data:
        Version: 3 (0x2)
        Serial Number:
            93:ae:7e:2d:c9:61:8f:4b
        Signature Algorithm: sha256WithRSAEncryption
        Issuer: C=US, ST=California, L=Menlo Park, O=pkg5, OU=ta6, CN=localhost/emailAddress=ta6
        Validity
            Not Before: Apr 11 22:37:52 2011 GMT
            Not After : Jan  5 22:37:52 2014 GMT
        Subject: C=US, ST=California, L=Menlo Park, O=pkg5, OU=ta6, CN=localhost/emailAddress=ta6
        Subject Public Key Info:
            Public Key Algorithm: rsaEncryption
            RSA Public Key: (1024 bit)
                Modulus (1024 bit):
                    00:c5:41:a2:3d:00:af:e2:71:29:e6:18:c2:73:65:
                    fc:4a:9d:e3:f7:1a:6e:7a:f5:09:81:87:cd:cf:a9:
                    74:a9:e4:47:da:e2:fa:bd:0e:0a:ae:ba:06:e8:1b:
                    66:e3:8a:5e:bb:87:90:5e:d1:38:7d:12:93:72:a0:
                    4b:88:77:dd:ce:02:67:9f:c5:be:49:cb:b7:e8:0e:
                    bd:f0:78:37:55:bb:c5:91:6e:c7:7b:9c:b3:94:a2:
                    24:7d:09:25:74:52:22:6d:4a:34:f8:92:71:b1:e9:
                    74:9b:8e:87:d4:2a:46:f8:fa:8f:86:5c:b5:6b:20:
                    24:d1:37:ea:8a:87:07:e3:ad
                Exponent: 65537 (0x10001)
        X509v3 extensions:
            X509v3 Subject Key Identifier: 
                0C:08:1A:2C:FA:77:26:CE:37:0F:A5:85:98:85:0F:4D:48:BA:83:B3
            X509v3 Authority Key Identifier: 
                keyid:0C:08:1A:2C:FA:77:26:CE:37:0F:A5:85:98:85:0F:4D:48:BA:83:B3
                DirName:/C=US/ST=California/L=Menlo Park/O=pkg5/OU=ta6/CN=localhost/emailAddress=ta6
                serial:93:AE:7E:2D:C9:61:8F:4B

            X509v3 Basic Constraints: 
                CA:TRUE
    Signature Algorithm: sha256WithRSAEncryption
        10:2c:ed:b9:a4:aa:bd:9e:4d:47:dd:02:64:52:a9:7a:73:a7:
        f3:58:45:cf:da:5c:1e:80:30:d9:10:a7:e4:79:d2:eb:85:8b:
        70:4c:39:df:b6:40:fb:7f:11:cd:a8:85:d6:5c:d1:2f:29:9f:
        8d:fa:53:bc:20:f3:c8:97:9b:11:f4:7d:39:9a:2c:a6:6e:1e:
        a4:0d:81:e0:65:59:89:f6:a9:66:65:38:05:44:e7:47:a2:9e:
        a2:e3:82:07:2c:cb:8e:dc:47:a2:e9:cb:01:6a:54:c1:26:14:
        03:e9:c3:ac:fe:98:0e:76:52:f3:5b:67:ea:26:0d:98:6d:e4:
        23:ac
-----BEGIN CERTIFICATE-----
MIIDWTCCAsKgAwIBAgIJAJOufi3JYY9LMA0GCSqGSIb3DQEBCwUAMHwxCzAJBgNV
BAYTAlVTMRMwEQYDVQQIEwpDYWxpZm9ybmlhMRMwEQYDVQQHEwpNZW5sbyBQYXJr
MQ0wCwYDVQQKEwRwa2c1MQwwCgYDVQQLEwN0YTYxEjAQBgNVBAMTCWxvY2FsaG9z
dDESMBAGCSqGSIb3DQEJARYDdGE2MB4XDTExMDQxMTIyMzc1MloXDTE0MDEwNTIy
Mzc1MlowfDELMAkGA1UEBhMCVVMxEzARBgNVBAgTCkNhbGlmb3JuaWExEzARBgNV
BAcTCk1lbmxvIFBhcmsxDTALBgNVBAoTBHBrZzUxDDAKBgNVBAsTA3RhNjESMBAG
A1UEAxMJbG9jYWxob3N0MRIwEAYJKoZIhvcNAQkBFgN0YTYwgZ8wDQYJKoZIhvcN
AQEBBQADgY0AMIGJAoGBAMVBoj0Ar+JxKeYYwnNl/Eqd4/cabnr1CYGHzc+pdKnk
R9ri+r0OCq66BugbZuOKXruHkF7ROH0Sk3KgS4h33c4CZ5/FvknLt+gOvfB4N1W7
xZFux3ucs5SiJH0JJXRSIm1KNPiScbHpdJuOh9QqRvj6j4ZctWsgJNE36oqHB+Ot
AgMBAAGjgeIwgd8wHQYDVR0OBBYEFAwIGiz6dybONw+lhZiFD01IuoOzMIGvBgNV
HSMEgacwgaSAFAwIGiz6dybONw+lhZiFD01IuoOzoYGApH4wfDELMAkGA1UEBhMC
VVMxEzARBgNVBAgTCkNhbGlmb3JuaWExEzARBgNVBAcTCk1lbmxvIFBhcmsxDTAL
BgNVBAoTBHBrZzUxDDAKBgNVBAsTA3RhNjESMBAGA1UEAxMJbG9jYWxob3N0MRIw
EAYJKoZIhvcNAQkBFgN0YTaCCQCTrn4tyWGPSzAMBgNVHRMEBTADAQH/MA0GCSqG
SIb3DQEBCwUAA4GBABAs7bmkqr2eTUfdAmRSqXpzp/NYRc/aXB6AMNkQp+R50uuF
i3BMOd+2QPt/Ec2ohdZc0S8pn436U7wg88iXmxH0fTmaLKZuHqQNgeBlWYn2qWZl
OAVE50einqLjggcsy47cR6LpywFqVMEmFAPpw6z+mA52UvNbZ+omDZht5COs
-----END CERTIFICATE-----
