Certificate:
    Data:
        Version: 3 (0x2)
        Serial Number: 13187868062798498278 (0xb704b8217bd2c9e6)
    Signature Algorithm: sha256WithRSAEncryption
        Issuer: C=US, ST=California, L=Santa Clara, O=pkg5, OU=ta6, CN=localhost/emailAddress=ta6
        Validity
            Not Before: Jan 22 01:58:00 2016 GMT
            Not After : Oct 18 01:58:00 2018 GMT
        Subject: C=US, ST=California, L=Santa Clara, O=pkg5, OU=ta6, CN=localhost/emailAddress=ta6
        Subject Public Key Info:
            Public Key Algorithm: rsaEncryption
                Public-Key: (2048 bit)
                Modulus:
                    00:c1:05:15:35:c7:ec:ea:40:0f:d0:a3:0e:2f:97:
                    bf:41:be:74:1c:5b:55:e1:2f:2d:53:99:32:4d:a4:
                    de:f0:fb:f2:22:a5:a6:e1:0a:fc:39:6b:6b:75:0e:
                    2f:e1:03:dc:30:8b:99:f7:81:63:2a:d6:f3:8f:43:
                    0d:fd:35:2b:7a:d0:91:dc:0e:a2:76:b6:47:47:a5:
                    17:d0:99:d8:ad:9c:79:ab:0f:8b:a2:94:da:5b:22:
                    8f:62:ff:d8:65:be:9f:ba:3a:fb:47:c6:d9:46:4f:
                    94:a8:e6:e0:42:5b:c9:32:85:63:e6:be:c9:e8:fa:
                    c4:88:9a:dc:93:bf:66:a8:73:30:97:b2:78:bc:33:
                    3b:30:2e:16:b4:97:86:cc:12:6b:e4:6f:e9:20:e1:
                    26:a2:3a:1b:8a:88:d1:6b:8c:23:c5:5b:3a:d1:30:
                    3f:bf:60:ce:25:97:0d:09:23:1e:b1:b9:06:cb:56:
                    8e:dc:23:65:85:53:d0:53:51:34:1a:8b:cd:91:f1:
                    57:b8:64:c4:32:9e:4e:b0:44:af:96:65:e9:bc:3f:
                    f2:37:a7:28:0e:15:62:f7:b9:15:90:2a:2a:ef:58:
                    00:7b:d7:ac:8f:b3:82:81:2c:d8:56:da:e3:1b:1b:
                    8a:b3:0d:b2:0e:3d:fe:b6:8e:ca:0e:54:85:89:34:
                    6d:37
                Exponent: 65537 (0x10001)
        X509v3 extensions:
            X509v3 Subject Key Identifier: 
                02:7B:25:8B:55:4F:CE:E5:8B:64:F3:B4:62:11:00:09:0C:D1:7C:C8
            X509v3 Authority Key Identifier: 
                keyid:02:7B:25:8B:55:4F:CE:E5:8B:64:F3:B4:62:11:00:09:0C:D1:7C:C8

            X509v3 Basic Constraints: 
                CA:TRUE
    Signature Algorithm: sha256WithRSAEncryption
         86:5e:b4:d0:53:a8:87:27:68:35:1a:33:f8:b7:f9:c4:c6:cb:
         d1:27:6b:2d:73:63:de:5e:22:94:75:c1:74:b0:28:10:83:15:
         62:d1:ba:79:fa:a1:3a:b2:b8:83:1a:78:d5:c9:6d:05:a5:f7:
         db:50:4f:ac:a3:1a:40:45:d3:46:71:54:b9:3f:63:c1:41:3c:
         8e:07:f9:e0:d9:27:f5:af:82:b3:19:e8:f0:95:b8:b2:6d:0c:
         57:ec:e7:75:05:10:72:57:7e:28:96:fe:88:a6:c8:90:16:32:
         b0:35:a2:3f:e1:22:ee:ec:1e:4d:d3:0a:f1:37:a4:09:c2:0b:
         d4:98:6d:6b:fd:18:aa:28:89:15:34:39:49:88:85:6e:6c:4c:
         72:96:4a:91:a4:f9:5e:0b:dd:86:16:da:ac:af:95:82:59:50:
         4d:af:96:71:7a:87:f7:7f:5d:b7:9b:ea:3e:f0:3b:ff:d6:99:
         0c:ee:68:3f:c8:48:b1:d4:90:63:a4:46:2f:10:12:fb:a6:75:
         47:e8:a1:05:e2:95:bd:01:fd:85:d4:67:78:67:1a:88:f7:6b:
         b4:68:51:8d:55:4e:44:66:a7:15:09:59:78:fc:06:83:75:f2:
         2c:3a:81:eb:8e:21:05:88:cb:7b:55:a1:2b:f9:54:52:34:2f:
         8e:48:9e:6c
-----BEGIN CERTIFICATE-----
MIIDzTCCArWgAwIBAgIJALcEuCF70snmMA0GCSqGSIb3DQEBCwUAMH0xCzAJBgNV
BAYTAlVTMRMwEQYDVQQIDApDYWxpZm9ybmlhMRQwEgYDVQQHDAtTYW50YSBDbGFy
YTENMAsGA1UECgwEcGtnNTEMMAoGA1UECwwDdGE2MRIwEAYDVQQDDAlsb2NhbGhv
c3QxEjAQBgkqhkiG9w0BCQEWA3RhNjAeFw0xNjAxMjIwMTU4MDBaFw0xODEwMTgw
MTU4MDBaMH0xCzAJBgNVBAYTAlVTMRMwEQYDVQQIDApDYWxpZm9ybmlhMRQwEgYD
VQQHDAtTYW50YSBDbGFyYTENMAsGA1UECgwEcGtnNTEMMAoGA1UECwwDdGE2MRIw
EAYDVQQDDAlsb2NhbGhvc3QxEjAQBgkqhkiG9w0BCQEWA3RhNjCCASIwDQYJKoZI
hvcNAQEBBQADggEPADCCAQoCggEBAMEFFTXH7OpAD9CjDi+Xv0G+dBxbVeEvLVOZ
Mk2k3vD78iKlpuEK/Dlra3UOL+ED3DCLmfeBYyrW849DDf01K3rQkdwOona2R0el
F9CZ2K2ceasPi6KU2lsij2L/2GW+n7o6+0fG2UZPlKjm4EJbyTKFY+a+yej6xIia
3JO/ZqhzMJeyeLwzOzAuFrSXhswSa+Rv6SDhJqI6G4qI0WuMI8VbOtEwP79gziWX
DQkjHrG5BstWjtwjZYVT0FNRNBqLzZHxV7hkxDKeTrBEr5Zl6bw/8jenKA4VYve5
FZAqKu9YAHvXrI+zgoEs2Fba4xsbirMNsg49/raOyg5UhYk0bTcCAwEAAaNQME4w
HQYDVR0OBBYEFAJ7JYtVT87li2TztGIRAAkM0XzIMB8GA1UdIwQYMBaAFAJ7JYtV
T87li2TztGIRAAkM0XzIMAwGA1UdEwQFMAMBAf8wDQYJKoZIhvcNAQELBQADggEB
AIZetNBTqIcnaDUaM/i3+cTGy9Enay1zY95eIpR1wXSwKBCDFWLRunn6oTqyuIMa
eNXJbQWl99tQT6yjGkBF00ZxVLk/Y8FBPI4H+eDZJ/WvgrMZ6PCVuLJtDFfs53UF
EHJXfiiW/oimyJAWMrA1oj/hIu7sHk3TCvE3pAnCC9SYbWv9GKooiRU0OUmIhW5s
THKWSpGk+V4L3YYW2qyvlYJZUE2vlnF6h/d/Xbeb6j7wO//WmQzuaD/ISLHUkGOk
Ri8QEvumdUfooQXilb0B/YXUZ3hnGoj3a7RoUY1VTkRmpxUJWXj8BoN18iw6geuO
IQWIy3tVoSv5VFI0L45Inmw=
-----END CERTIFICATE-----
