Certificate:
    Data:
        Version: 3 (0x2)
        Serial Number:
            e2:68:f4:95:eb:49:89:87
        Signature Algorithm: sha256WithRSAEncryption
        Issuer: C=US, ST=California, L=Menlo Park, O=pkg5, OU=ta7, CN=localhost/emailAddress=ta7
        Validity
            Not Before: Apr 11 22:37:54 2011 GMT
            Not After : Jan  5 22:37:54 2014 GMT
        Subject: C=US, ST=California, L=Menlo Park, O=pkg5, OU=ta7, CN=localhost/emailAddress=ta7
        Subject Public Key Info:
            Public Key Algorithm: rsaEncryption
            RSA Public Key: (1024 bit)
                Modulus (1024 bit):
                    00:c8:de:52:36:7b:6e:4b:6d:7a:83:73:ad:41:cd:
                    af:36:02:62:36:3e:f7:55:07:11:24:43:c2:eb:43:
                    e4:6f:1d:3c:ec:73:4b:81:58:a2:2a:7e:e0:c4:f0:
                    9a:ae:04:d8:2a:49:39:bf:9e:e8:ad:f0:96:52:5e:
                    3c:67:71:7f:3d:40:d7:36:e3:1c:25:da:0b:29:e9:
                    8b:81:66:19:bc:34:38:1a:4e:cb:63:f5:30:cf:82:
                    6c:f5:14:cc:df:bb:cc:ed:70:86:e4:ba:6e:db:85:
                    ce:60:d1:69:37:48:e8:0c:c0:76:82:0f:5f:65:09:
                    62:0d:72:c9:5a:b3:49:2c:fd
                Exponent: 65537 (0x10001)
        X509v3 extensions:
            X509v3 Subject Key Identifier: 
                78:FA:1D:E8:35:33:AD:40:EB:A9:B4:3E:87:7A:B0:65:17:CF:36:35
            X509v3 Authority Key Identifier: 
                keyid:78:FA:1D:E8:35:33:AD:40:EB:A9:B4:3E:87:7A:B0:65:17:CF:36:35
                DirName:/C=US/ST=California/L=Menlo Park/O=pkg5/OU=ta7/CN=localhost/emailAddress=ta7
                serial:E2:68:F4:95:EB:49:89:87

            X509v3 Basic Constraints: 
                CA:TRUE
    Signature Algorithm: sha256WithRSAEncryption
        07:20:33:b6:af:9e:b1:49:90:57:19:86:e9:8b:18:8a:e9:7b:
        b1:b4:ff:29:5e:de:df:c9:f9:c8:7d:de:61:0d:36:fc:55:dc:
        e7:51:ff:89:b5:69:07:72:60:b6:19:4e:c4:90:e6:e7:c1:0e:
        56:ba:d6:1c:c7:34:10:38:2d:c5:71:79:8a:de:a6:b2:d6:cf:
        98:dc:9a:3e:df:d3:57:67:bd:15:83:95:00:1c:2d:45:9c:73:
        6d:82:57:9d:ac:57:f1:d8:39:ae:92:3b:ff:36:a1:0e:08:46:
        e6:00:a9:d6:3e:5b:fa:65:7f:8c:c6:ee:4e:84:e0:a8:81:b7:
        3c:a5
-----BEGIN CERTIFICATE-----
MIIDWTCCAsKgAwIBAgIJAOJo9JXrSYmHMA0GCSqGSIb3DQEBCwUAMHwxCzAJBgNV
BAYTAlVTMRMwEQYDVQQIEwpDYWxpZm9ybmlhMRMwEQYDVQQHEwpNZW5sbyBQYXJr
MQ0wCwYDVQQKEwRwa2c1MQwwCgYDVQQLEwN0YTcxEjAQBgNVBAMTCWxvY2FsaG9z
dDESMBAGCSqGSIb3DQEJARYDdGE3MB4XDTExMDQxMTIyMzc1NFoXDTE0MDEwNTIy
Mzc1NFowfDELMAkGA1UEBhMCVVMxEzARBgNVBAgTCkNhbGlmb3JuaWExEzARBgNV
BAcTCk1lbmxvIFBhcmsxDTALBgNVBAoTBHBrZzUxDDAKBgNVBAsTA3RhNzESMBAG
A1UEAxMJbG9jYWxob3N0MRIwEAYJKoZIhvcNAQkBFgN0YTcwgZ8wDQYJKoZIhvcN
AQEBBQADgY0AMIGJAoGBAMjeUjZ7bktteoNzrUHNrzYCYjY+91UHESRDwutD5G8d
POxzS4FYoip+4MTwmq4E2CpJOb+e6K3wllJePGdxfz1A1zbjHCXaCynpi4FmGbw0
OBpOy2P1MM+CbPUUzN+7zO1whuS6btuFzmDRaTdI6AzAdoIPX2UJYg1yyVqzSSz9
AgMBAAGjgeIwgd8wHQYDVR0OBBYEFHj6Heg1M61A66m0Pod6sGUXzzY1MIGvBgNV
HSMEgacwgaSAFHj6Heg1M61A66m0Pod6sGUXzzY1oYGApH4wfDELMAkGA1UEBhMC
VVMxEzARBgNVBAgTCkNhbGlmb3JuaWExEzARBgNVBAcTCk1lbmxvIFBhcmsxDTAL
BgNVBAoTBHBrZzUxDDAKBgNVBAsTA3RhNzESMBAGA1UEAxMJbG9jYWxob3N0MRIw
EAYJKoZIhvcNAQkBFgN0YTeCCQDiaPSV60mJhzAMBgNVHRMEBTADAQH/MA0GCSqG
SIb3DQEBCwUAA4GBAAcgM7avnrFJkFcZhumLGIrpe7G0/yle3t/J+ch93mENNvxV
3OdR/4m1aQdyYLYZTsSQ5ufBDla61hzHNBA4LcVxeYreprLWz5jcmj7f01dnvRWD
lQAcLUWcc22CV52sV/HYOa6SO/82oQ4IRuYAqdY+W/plf4zG7k6E4KiBtzyl
-----END CERTIFICATE-----
