Certificate:
    Data:
        Version: 3 (0x2)
        Serial Number: 17133169234141367739 (0xedc53ea49da5cdbb)
    Signature Algorithm: sha256WithRSAEncryption
        Issuer: C=US, ST=California, L=Santa Clara, O=pkg5, OU=ta7, CN=localhost/emailAddress=ta7
        Validity
            Not Before: Dec 13 00:13:38 2013 GMT
            Not After : Sep  8 00:13:38 2016 GMT
        Subject: C=US, ST=California, L=Santa Clara, O=pkg5, OU=ta7, CN=localhost/emailAddress=ta7
        Subject Public Key Info:
            Public Key Algorithm: rsaEncryption
                Public-Key: (1024 bit)
                Modulus:
                    00:f9:53:0d:ea:ab:4d:2f:d9:fa:75:3c:f6:57:80:
                    d1:92:29:44:be:db:7d:6d:5e:f7:4e:a1:76:83:b3:
                    31:a5:40:3e:44:d0:8e:2e:37:f9:6c:3e:28:4f:1e:
                    52:66:eb:e9:4c:52:e9:7f:94:e3:9f:2c:e4:65:c3:
                    fc:27:9b:2e:42:81:3e:0d:13:bb:58:52:f6:50:b6:
                    f5:ef:2e:ac:94:52:4e:4a:a9:1a:e7:19:0e:2b:4a:
                    46:59:57:de:a4:65:55:43:70:57:52:55:95:e4:17:
                    5d:cf:0d:e4:3b:f7:42:4b:ce:25:9d:21:3e:41:29:
                    30:c1:22:b2:77:85:7a:83:fd
                Exponent: 65537 (0x10001)
        X509v3 extensions:
            X509v3 Subject Key Identifier: 
                45:9D:B1:D7:6F:E2:FD:4F:9C:E9:10:78:EE:E7:33:1A:14:E1:AF:9D
            X509v3 Authority Key Identifier: 
                keyid:45:9D:B1:D7:6F:E2:FD:4F:9C:E9:10:78:EE:E7:33:1A:14:E1:AF:9D

            X509v3 Basic Constraints: 
                CA:TRUE
    Signature Algorithm: sha256WithRSAEncryption
         b3:53:c9:a1:7f:13:e8:4b:ff:f0:81:84:9a:8c:1d:44:ef:3c:
         fb:a8:e6:0d:62:9b:0f:f9:a9:c9:ca:4b:26:2e:51:6d:f3:ac:
         b9:9e:2c:10:96:1c:f7:80:ff:5e:30:4f:a0:67:9b:84:3e:bc:
         b5:6f:78:42:02:12:d9:e6:4f:a3:a0:82:eb:bf:00:44:b3:6f:
         2f:56:c3:36:03:d1:b9:b9:e5:3c:53:3a:17:69:af:42:91:fa:
         b5:91:b2:06:7f:07:88:e7:ac:7a:2b:b7:c3:41:e8:7d:9b:96:
         c9:3d:38:4a:4c:39:45:35:c1:43:05:b2:32:00:99:22:72:2a:
         7c:00
-----BEGIN CERTIFICATE-----
MIICyDCCAjGgAwIBAgIJAO3FPqSdpc27MA0GCSqGSIb3DQEBCwUAMH0xCzAJBgNV
BAYTAlVTMRMwEQYDVQQIDApDYWxpZm9ybmlhMRQwEgYDVQQHDAtTYW50YSBDbGFy
YTENMAsGA1UECgwEcGtnNTEMMAoGA1UECwwDdGE3MRIwEAYDVQQDDAlsb2NhbGhv
c3QxEjAQBgkqhkiG9w0BCQEWA3RhNzAeFw0xMzEyMTMwMDEzMzhaFw0xNjA5MDgw
MDEzMzhaMH0xCzAJBgNVBAYTAlVTMRMwEQYDVQQIDApDYWxpZm9ybmlhMRQwEgYD
VQQHDAtTYW50YSBDbGFyYTENMAsGA1UECgwEcGtnNTEMMAoGA1UECwwDdGE3MRIw
EAYDVQQDDAlsb2NhbGhvc3QxEjAQBgkqhkiG9w0BCQEWA3RhNzCBnzANBgkqhkiG
9w0BAQEFAAOBjQAwgYkCgYEA+VMN6qtNL9n6dTz2V4DRkilEvtt9bV73TqF2g7Mx
pUA+RNCOLjf5bD4oTx5SZuvpTFLpf5TjnyzkZcP8J5suQoE+DRO7WFL2ULb17y6s
lFJOSqka5xkOK0pGWVfepGVVQ3BXUlWV5Bddzw3kO/dCS84lnSE+QSkwwSKyd4V6
g/0CAwEAAaNQME4wHQYDVR0OBBYEFEWdsddv4v1PnOkQeO7nMxoU4a+dMB8GA1Ud
IwQYMBaAFEWdsddv4v1PnOkQeO7nMxoU4a+dMAwGA1UdEwQFMAMBAf8wDQYJKoZI
hvcNAQELBQADgYEAs1PJoX8T6Ev/8IGEmowdRO88+6jmDWKbD/mpycpLJi5RbfOs
uZ4sEJYc94D/XjBPoGebhD68tW94QgIS2eZPo6CC678ARLNvL1bDNgPRubnlPFM6
F2mvQpH6tZGyBn8HiOeseiu3w0HofZuWyT04Skw5RTXBQwWyMgCZInIqfAA=
-----END CERTIFICATE-----
