Certificate:
    Data:
        Version: 3 (0x2)
        Serial Number:
            94:10:ef:bd:ba:1b:4f:6f
    Signature Algorithm: sha256WithRSAEncryption
        Issuer: C=US, ST=California, L=Santa Clara, O=pkg5, OU=ta7, CN=localhost/emailAddress=ta7
        Validity
            Not Before: Jul 19 11:35:52 2023 GMT
            Not After : Apr 14 11:35:52 2026 GMT
        Subject: C=US, ST=California, L=Santa Clara, O=pkg5, OU=ta7, CN=localhost/emailAddress=ta7
        Subject Public Key Info:
            Public Key Algorithm: rsaEncryption
                Public-Key: (2048 bit)
                Modulus:
                    00:b2:c1:0b:f9:90:cd:d5:63:49:c4:6f:97:4a:e1:
                    63:45:0e:b4:5b:35:5b:92:81:53:bd:57:e3:d4:ee:
                    b2:a0:bf:6d:67:2f:c1:24:c9:b0:5d:e1:f7:8a:8b:
                    65:74:a9:88:21:86:fb:8a:8c:1f:01:3d:42:ca:eb:
                    33:e4:7f:92:df:86:ca:10:14:16:0e:a5:8a:11:51:
                    a2:8c:9c:d5:94:c4:82:72:c2:55:a3:24:47:27:0d:
                    cd:b5:90:82:20:e5:e1:f9:25:3a:16:0b:80:fb:f4:
                    d8:05:ab:0c:c6:c4:bc:23:3a:31:2c:77:96:29:ea:
                    bd:70:8b:a8:e1:01:97:71:ea:46:54:28:6e:7c:8c:
                    7b:e2:3c:77:b5:50:5b:c0:ad:89:05:76:de:b9:60:
                    fe:6e:d9:1d:bb:13:6c:a0:64:4e:20:44:be:d6:8e:
                    74:d9:17:f2:48:2a:13:41:a6:13:55:50:e5:04:15:
                    e1:65:15:05:66:89:01:84:d6:9a:c2:f6:a4:42:cf:
                    12:b9:68:f2:21:c1:45:8c:10:8f:bf:16:67:67:bb:
                    1a:8e:45:f7:a5:06:4a:62:ba:85:e8:78:cf:01:df:
                    f6:50:d9:f6:de:c8:82:91:0f:a9:57:f6:d2:c2:d1:
                    45:cf:20:df:ce:90:89:c9:02:54:6f:32:c0:7f:96:
                    ac:83
                Exponent: 65537 (0x10001)
        X509v3 extensions:
            X509v3 Subject Key Identifier: 
                0A:FF:CA:99:C6:79:52:A0:9A:68:1B:B2:70:3B:1B:24:E1:7C:A3:D3
            X509v3 Authority Key Identifier: 
                keyid:0A:FF:CA:99:C6:79:52:A0:9A:68:1B:B2:70:3B:1B:24:E1:7C:A3:D3

            X509v3 Basic Constraints: 
                CA:TRUE
    Signature Algorithm: sha256WithRSAEncryption
         77:6c:1d:cd:c4:52:36:43:dc:5c:50:34:af:d7:34:c4:3a:28:
         68:74:2a:bf:ae:31:80:ed:73:0f:58:0a:b1:08:84:89:ad:16:
         d9:d4:d4:3d:b6:79:0d:80:39:22:a9:79:00:c4:dd:fa:8b:5c:
         dc:e6:b9:69:c2:a2:1d:24:2c:15:5b:13:3f:b6:3a:d2:bb:9b:
         fd:e6:7d:e0:d5:1c:7e:ef:5e:be:5d:96:be:6d:10:13:5a:c8:
         36:0a:f1:5d:c7:bf:35:68:04:cd:52:f8:74:fe:a3:c4:f6:ce:
         fe:83:f3:87:89:02:d8:fc:f7:55:43:0c:ff:32:69:27:d0:58:
         87:78:3d:df:d7:08:6c:c3:dc:de:ed:02:61:cf:a8:5d:e1:c5:
         ea:71:3e:f5:0e:e0:45:40:d3:36:7e:f9:9c:c7:d3:44:aa:24:
         00:cf:2d:c5:b6:1f:4c:56:4e:fa:91:d5:df:30:a9:db:0e:28:
         f8:92:06:a3:31:c8:56:41:4d:ff:d8:18:74:b2:54:52:c5:70:
         ef:d5:17:6b:0a:b7:36:05:ef:0f:52:cf:1a:cc:e8:c5:b0:48:
         1e:29:6e:fe:1e:ef:ad:b9:ff:df:27:8c:50:2f:5a:4d:ae:3b:
         24:6f:6c:02:00:ac:8f:04:ba:9f:d1:b3:35:34:bd:23:9f:95:
         66:6d:5c:51
-----BEGIN CERTIFICATE-----
MIIDzTCCArWgAwIBAgIJAJQQ7726G09vMA0GCSqGSIb3DQEBCwUAMH0xCzAJBgNV
BAYTAlVTMRMwEQYDVQQIDApDYWxpZm9ybmlhMRQwEgYDVQQHDAtTYW50YSBDbGFy
YTENMAsGA1UECgwEcGtnNTEMMAoGA1UECwwDdGE3MRIwEAYDVQQDDAlsb2NhbGhv
c3QxEjAQBgkqhkiG9w0BCQEWA3RhNzAeFw0yMzA3MTkxMTM1NTJaFw0yNjA0MTQx
MTM1NTJaMH0xCzAJBgNVBAYTAlVTMRMwEQYDVQQIDApDYWxpZm9ybmlhMRQwEgYD
VQQHDAtTYW50YSBDbGFyYTENMAsGA1UECgwEcGtnNTEMMAoGA1UECwwDdGE3MRIw
EAYDVQQDDAlsb2NhbGhvc3QxEjAQBgkqhkiG9w0BCQEWA3RhNzCCASIwDQYJKoZI
hvcNAQEBBQADggEPADCCAQoCggEBALLBC/mQzdVjScRvl0rhY0UOtFs1W5KBU71X
49TusqC/bWcvwSTJsF3h94qLZXSpiCGG+4qMHwE9QsrrM+R/kt+GyhAUFg6lihFR
ooyc1ZTEgnLCVaMkRycNzbWQgiDl4fklOhYLgPv02AWrDMbEvCM6MSx3linqvXCL
qOEBl3HqRlQobnyMe+I8d7VQW8CtiQV23rlg/m7ZHbsTbKBkTiBEvtaOdNkX8kgq
E0GmE1VQ5QQV4WUVBWaJAYTWmsL2pELPErlo8iHBRYwQj78WZ2e7Go5F96UGSmK6
heh4zwHf9lDZ9t7IgpEPqVf20sLRRc8g386QickCVG8ywH+WrIMCAwEAAaNQME4w
HQYDVR0OBBYEFAr/ypnGeVKgmmgbsnA7GyThfKPTMB8GA1UdIwQYMBaAFAr/ypnG
eVKgmmgbsnA7GyThfKPTMAwGA1UdEwQFMAMBAf8wDQYJKoZIhvcNAQELBQADggEB
AHdsHc3EUjZD3FxQNK/XNMQ6KGh0Kr+uMYDtcw9YCrEIhImtFtnU1D22eQ2AOSKp
eQDE3fqLXNzmuWnCoh0kLBVbEz+2OtK7m/3mfeDVHH7vXr5dlr5tEBNayDYK8V3H
vzVoBM1S+HT+o8T2zv6D84eJAtj891VDDP8yaSfQWId4Pd/XCGzD3N7tAmHPqF3h
xepxPvUO4EVA0zZ++ZzH00SqJADPLcW2H0xWTvqR1d8wqdsOKPiSBqMxyFZBTf/Y
GHSyVFLFcO/VF2sKtzYF7w9SzxrM6MWwSB4pbv4e7625/98njFAvWk2uOyRvbAIA
rI8Eup/RszU0vSOflWZtXFE=
-----END CERTIFICATE-----
