Certificate:
    Data:
        Version: 3 (0x2)
        Serial Number:
            a1:2d:1a:30:19:d7:8b:bc
    Signature Algorithm: sha256WithRSAEncryption
        Issuer: C=US, ST=California, L=Santa Clara, O=pkg5, OU=ta7, CN=localhost/emailAddress=ta7
        Validity
            Not Before: Jan 22 15:33:15 2019 GMT
            Not After : Oct 18 15:33:15 2021 GMT
        Subject: C=US, ST=California, L=Santa Clara, O=pkg5, OU=ta7, CN=localhost/emailAddress=ta7
        Subject Public Key Info:
            Public Key Algorithm: rsaEncryption
                Public-Key: (2048 bit)
                Modulus:
                    00:95:cf:35:3f:ba:76:84:8d:a9:d6:a4:a0:8e:83:
                    7f:6a:1a:60:25:f3:5e:76:1b:f2:a3:d6:19:63:2f:
                    57:cd:bb:87:fa:7a:23:a2:cd:da:1a:50:e2:71:31:
                    fc:99:68:4b:62:15:13:92:f4:73:4a:d5:9d:27:78:
                    ec:0d:7e:b0:07:11:27:48:fd:4d:15:8d:a1:9d:37:
                    27:2c:81:4a:49:54:47:b6:ec:87:0d:b5:f2:4c:d6:
                    54:dd:d5:df:ea:c0:a9:70:fc:a1:c7:39:05:03:40:
                    2e:d7:ac:21:f5:62:5b:53:e7:ba:fd:17:af:4f:20:
                    ee:b0:04:02:6e:1f:17:29:68:3b:31:00:7e:81:81:
                    4b:27:85:21:00:78:2e:d7:5d:84:42:b6:c6:84:a9:
                    f2:6e:23:2a:d2:24:61:4a:fa:cb:f1:e2:fc:50:7b:
                    02:ab:2c:a4:d1:28:0b:8c:a7:09:56:cf:c9:9b:cb:
                    49:16:12:fe:cc:63:07:4c:ad:f5:2e:00:19:fb:63:
                    d3:96:13:71:54:2f:de:b7:8b:bb:68:f9:a3:23:16:
                    b6:76:e1:20:e5:76:dd:7d:20:0c:72:82:62:a2:2f:
                    46:0a:63:0e:26:ea:ea:bd:8d:25:d6:ec:30:db:88:
                    e1:fe:d4:9c:e1:8e:bd:5c:8e:e2:6c:ac:20:68:ae:
                    38:9f
                Exponent: 65537 (0x10001)
        X509v3 extensions:
            X509v3 Subject Key Identifier: 
                9F:0F:B4:89:B4:45:7F:B6:96:DC:78:66:04:C2:FD:EE:4B:8B:84:C5
            X509v3 Authority Key Identifier: 
                keyid:9F:0F:B4:89:B4:45:7F:B6:96:DC:78:66:04:C2:FD:EE:4B:8B:84:C5

            X509v3 Basic Constraints: 
                CA:TRUE
    Signature Algorithm: sha256WithRSAEncryption
         06:39:19:ab:c3:db:fb:ae:20:03:f0:0a:d8:ad:73:df:e2:2d:
         28:ba:d5:81:5d:dd:f8:42:28:45:15:e9:67:a6:0b:9d:c5:20:
         7c:8b:ef:c5:20:c6:5f:f7:59:0d:d6:6a:97:d5:94:40:87:73:
         a6:d5:84:7c:bc:a5:ba:c4:62:75:2d:18:f5:72:f5:67:69:51:
         e8:12:02:1c:16:6e:61:7d:34:4e:a3:b1:bc:06:84:48:8b:66:
         e2:b8:c0:1c:32:10:3d:25:1a:69:57:90:05:b3:83:7e:b3:9f:
         8a:82:ee:01:64:dc:4f:30:38:02:6c:ab:aa:d7:78:09:13:8c:
         4c:dc:80:df:de:20:8c:b3:dd:71:86:20:a3:1e:aa:0a:27:a8:
         35:b6:3d:4d:07:90:ce:b8:fa:4f:e2:b5:a6:0c:17:99:24:4c:
         c3:c4:7b:df:92:97:84:42:db:7d:30:93:47:05:cb:bf:47:e7:
         1c:bc:9d:7c:24:29:56:33:a0:fb:34:90:16:67:d8:3d:45:29:
         33:72:b6:06:62:1d:83:c8:e4:91:2d:38:ae:9b:67:bf:8b:7d:
         ec:f6:75:02:7c:5e:75:d1:0b:9c:e9:9a:a4:31:b2:da:de:bf:
         1f:6c:73:6b:42:0a:db:2c:28:e1:aa:9a:5e:a9:66:e0:95:aa:
         88:8e:8b:30
-----BEGIN CERTIFICATE-----
MIIDzTCCArWgAwIBAgIJAKEtGjAZ14u8MA0GCSqGSIb3DQEBCwUAMH0xCzAJBgNV
BAYTAlVTMRMwEQYDVQQIDApDYWxpZm9ybmlhMRQwEgYDVQQHDAtTYW50YSBDbGFy
YTENMAsGA1UECgwEcGtnNTEMMAoGA1UECwwDdGE3MRIwEAYDVQQDDAlsb2NhbGhv
c3QxEjAQBgkqhkiG9w0BCQEWA3RhNzAeFw0xOTAxMjIxNTMzMTVaFw0yMTEwMTgx
NTMzMTVaMH0xCzAJBgNVBAYTAlVTMRMwEQYDVQQIDApDYWxpZm9ybmlhMRQwEgYD
VQQHDAtTYW50YSBDbGFyYTENMAsGA1UECgwEcGtnNTEMMAoGA1UECwwDdGE3MRIw
EAYDVQQDDAlsb2NhbGhvc3QxEjAQBgkqhkiG9w0BCQEWA3RhNzCCASIwDQYJKoZI
hvcNAQEBBQADggEPADCCAQoCggEBAJXPNT+6doSNqdakoI6Df2oaYCXzXnYb8qPW
GWMvV827h/p6I6LN2hpQ4nEx/JloS2IVE5L0c0rVnSd47A1+sAcRJ0j9TRWNoZ03
JyyBSklUR7bshw218kzWVN3V3+rAqXD8occ5BQNALtesIfViW1Pnuv0Xr08g7rAE
Am4fFyloOzEAfoGBSyeFIQB4LtddhEK2xoSp8m4jKtIkYUr6y/Hi/FB7AqsspNEo
C4ynCVbPyZvLSRYS/sxjB0yt9S4AGftj05YTcVQv3reLu2j5oyMWtnbhIOV23X0g
DHKCYqIvRgpjDibq6r2NJdbsMNuI4f7UnOGOvVyO4mysIGiuOJ8CAwEAAaNQME4w
HQYDVR0OBBYEFJ8PtIm0RX+2ltx4ZgTC/e5Li4TFMB8GA1UdIwQYMBaAFJ8PtIm0
RX+2ltx4ZgTC/e5Li4TFMAwGA1UdEwQFMAMBAf8wDQYJKoZIhvcNAQELBQADggEB
AAY5GavD2/uuIAPwCtitc9/iLSi61YFd3fhCKEUV6WemC53FIHyL78Ugxl/3WQ3W
apfVlECHc6bVhHy8pbrEYnUtGPVy9WdpUegSAhwWbmF9NE6jsbwGhEiLZuK4wBwy
ED0lGmlXkAWzg36zn4qC7gFk3E8wOAJsq6rXeAkTjEzcgN/eIIyz3XGGIKMeqgon
qDW2PU0HkM64+k/itaYMF5kkTMPEe9+Sl4RC230wk0cFy79H5xy8nXwkKVYzoPs0
kBZn2D1FKTNytgZiHYPI5JEtOK6bZ7+Lfez2dQJ8XnXRC5zpmqQxstrevx9sc2tC
CtssKOGqml6pZuCVqoiOizA=
-----END CERTIFICATE-----
