Certificate:
    Data:
        Version: 3 (0x2)
        Serial Number:
            fe:d8:1a:c6:a7:9b:c0:84
    Signature Algorithm: sha256WithRSAEncryption
        Issuer: C=US, ST=California, L=Santa Clara, O=pkg5, OU=ta8, CN=localhost/emailAddress=ta8
        Validity
            Not Before: Sep 22 05:33:37 2021 GMT
            Not After : Jun 18 05:33:37 2024 GMT
        Subject: C=US, ST=California, L=Santa Clara, O=pkg5, OU=ta8, CN=localhost/emailAddress=ta8
        Subject Public Key Info:
            Public Key Algorithm: rsaEncryption
                Public-Key: (2048 bit)
                Modulus:
                    00:a8:8d:4a:f7:a2:f2:25:fa:70:7e:8a:96:10:8d:
                    d8:c3:2e:9b:1b:0a:51:6f:5f:39:0d:e1:b6:75:7f:
                    83:af:bb:ea:88:72:07:d6:a5:d1:b0:77:41:c8:c8:
                    e3:6c:d4:c2:eb:71:db:10:c6:53:0b:ee:61:44:67:
                    0d:45:b8:29:a7:2f:8b:48:50:d4:f2:9d:14:4c:7d:
                    23:00:56:e0:fa:49:d4:69:73:ff:30:39:dd:60:d3:
                    86:9b:07:4d:cf:f8:cf:92:cc:d1:d4:49:23:db:04:
                    04:f0:88:2d:90:45:5b:f3:f7:67:fc:bb:c4:95:46:
                    b4:ff:c9:8a:96:97:07:14:b2:ca:a3:e8:8b:9b:6c:
                    19:f8:47:9c:af:b0:3f:b5:6c:25:c7:20:9a:7a:6c:
                    5a:e3:cb:08:96:c7:e2:b5:6b:4c:8a:61:52:29:9b:
                    89:69:64:52:49:5c:8d:98:d0:62:8b:bb:38:f3:af:
                    7e:a3:06:c3:07:40:60:57:cb:7e:a7:c2:5a:1e:f7:
                    11:bc:9c:45:dc:a9:57:19:f1:f6:17:27:84:4b:b4:
                    6f:76:58:24:1d:91:31:f4:3f:85:a6:34:e5:23:34:
                    63:96:49:99:9c:16:4f:e2:e4:b7:ae:9d:57:49:94:
                    a5:69:83:98:de:44:0c:8a:4d:89:12:eb:14:df:f1:
                    ae:fb
                Exponent: 65537 (0x10001)
        X509v3 extensions:
            X509v3 Subject Key Identifier: 
                4F:3C:A8:A6:2F:3D:EF:BC:99:44:4E:1C:63:43:A1:0A:63:7A:68:74
            X509v3 Authority Key Identifier: 
                keyid:4F:3C:A8:A6:2F:3D:EF:BC:99:44:4E:1C:63:43:A1:0A:63:7A:68:74

            X509v3 Basic Constraints: 
                CA:TRUE
    Signature Algorithm: sha256WithRSAEncryption
         66:95:d2:c3:4d:90:df:6f:52:30:00:91:39:19:57:cf:ed:ce:
         41:e0:50:e9:d2:f2:a3:58:ae:d3:74:7f:c5:ad:cb:6d:48:4c:
         4c:2f:34:d3:8b:66:3f:cd:d4:cc:7b:d1:54:57:28:b0:8b:62:
         b4:db:a4:48:9e:b8:c3:84:e0:49:13:43:d1:ce:06:82:6e:23:
         7c:86:2c:41:9e:30:c4:a1:63:ba:d0:8b:d6:68:77:ac:95:e3:
         4c:b4:67:86:8b:d8:3c:0e:ad:9e:9f:f3:3e:e3:f2:e2:86:38:
         bf:d2:e8:6e:ff:03:20:f0:75:19:dd:31:51:25:79:b5:fc:60:
         cc:06:fd:ee:f2:79:31:a0:91:28:4f:36:54:78:46:9b:fd:74:
         20:74:7a:99:55:88:d0:e8:87:84:be:6b:d2:e5:62:a2:79:2d:
         84:04:65:20:ae:03:da:93:a2:ee:67:43:00:fa:88:17:24:dc:
         8d:ec:83:ff:31:a4:4c:b1:86:f3:c3:bd:dd:50:7d:20:98:9a:
         39:5c:a8:3a:30:f0:27:1d:80:6d:f0:82:a3:1e:6f:03:13:cf:
         e7:f8:64:6d:63:ff:3b:ce:4e:f9:f3:7c:b7:c4:ec:ac:ad:d5:
         85:f3:18:fd:76:af:15:29:fb:61:ce:34:d1:8c:eb:9b:e7:f0:
         1f:9d:bd:97
-----BEGIN CERTIFICATE-----
MIIDzTCCArWgAwIBAgIJAP7YGsanm8CEMA0GCSqGSIb3DQEBCwUAMH0xCzAJBgNV
BAYTAlVTMRMwEQYDVQQIDApDYWxpZm9ybmlhMRQwEgYDVQQHDAtTYW50YSBDbGFy
YTENMAsGA1UECgwEcGtnNTEMMAoGA1UECwwDdGE4MRIwEAYDVQQDDAlsb2NhbGhv
c3QxEjAQBgkqhkiG9w0BCQEWA3RhODAeFw0yMTA5MjIwNTMzMzdaFw0yNDA2MTgw
NTMzMzdaMH0xCzAJBgNVBAYTAlVTMRMwEQYDVQQIDApDYWxpZm9ybmlhMRQwEgYD
VQQHDAtTYW50YSBDbGFyYTENMAsGA1UECgwEcGtnNTEMMAoGA1UECwwDdGE4MRIw
EAYDVQQDDAlsb2NhbGhvc3QxEjAQBgkqhkiG9w0BCQEWA3RhODCCASIwDQYJKoZI
hvcNAQEBBQADggEPADCCAQoCggEBAKiNSvei8iX6cH6KlhCN2MMumxsKUW9fOQ3h
tnV/g6+76ohyB9al0bB3QcjI42zUwutx2xDGUwvuYURnDUW4Kacvi0hQ1PKdFEx9
IwBW4PpJ1Glz/zA53WDThpsHTc/4z5LM0dRJI9sEBPCILZBFW/P3Z/y7xJVGtP/J
ipaXBxSyyqPoi5tsGfhHnK+wP7VsJccgmnpsWuPLCJbH4rVrTIphUimbiWlkUklc
jZjQYou7OPOvfqMGwwdAYFfLfqfCWh73EbycRdypVxnx9hcnhEu0b3ZYJB2RMfQ/
haY05SM0Y5ZJmZwWT+Lkt66dV0mUpWmDmN5EDIpNiRLrFN/xrvsCAwEAAaNQME4w
HQYDVR0OBBYEFE88qKYvPe+8mUROHGNDoQpjemh0MB8GA1UdIwQYMBaAFE88qKYv
Pe+8mUROHGNDoQpjemh0MAwGA1UdEwQFMAMBAf8wDQYJKoZIhvcNAQELBQADggEB
AGaV0sNNkN9vUjAAkTkZV8/tzkHgUOnS8qNYrtN0f8Wty21ITEwvNNOLZj/N1Mx7
0VRXKLCLYrTbpEieuMOE4EkTQ9HOBoJuI3yGLEGeMMShY7rQi9Zod6yV40y0Z4aL
2DwOrZ6f8z7j8uKGOL/S6G7/AyDwdRndMVElebX8YMwG/e7yeTGgkShPNlR4Rpv9
dCB0eplViNDoh4S+a9LlYqJ5LYQEZSCuA9qTou5nQwD6iBck3I3sg/8xpEyxhvPD
vd1QfSCYmjlcqDow8CcdgG3wgqMebwMTz+f4ZG1j/zvOTvnzfLfE7Kyt1YXzGP12
rxUp+2HONNGM65vn8B+dvZc=
-----END CERTIFICATE-----
