Certificate:
    Data:
        Version: 3 (0x2)
        Serial Number:
            9e:f4:ee:a9:f5:21:3a:00
    Signature Algorithm: sha256WithRSAEncryption
        Issuer: C=US, ST=California, L=Santa Clara, O=pkg5, OU=ta8, CN=localhost/emailAddress=ta8
        Validity
            Not Before: Jan 22 15:33:16 2019 GMT
            Not After : Oct 18 15:33:16 2021 GMT
        Subject: C=US, ST=California, L=Santa Clara, O=pkg5, OU=ta8, CN=localhost/emailAddress=ta8
        Subject Public Key Info:
            Public Key Algorithm: rsaEncryption
                Public-Key: (2048 bit)
                Modulus:
                    00:d7:99:d4:ed:96:0f:3d:a3:97:24:e3:6b:86:01:
                    f9:4d:0b:a3:10:91:a8:de:f2:38:38:64:2b:53:70:
                    1e:70:a8:0d:2a:1b:33:e6:7c:3d:5e:e4:f4:2f:21:
                    7c:41:d4:0e:25:75:d9:90:cc:8e:b5:11:63:1a:9c:
                    f3:d0:49:99:35:3a:c9:89:18:50:28:24:9a:49:c2:
                    5b:ea:45:73:81:eb:bc:be:74:9f:03:74:f6:fd:2e:
                    77:99:ef:51:ca:06:4c:43:78:1a:b2:08:f7:9b:c4:
                    44:64:87:58:12:32:c2:6d:9d:27:38:78:e1:5f:2c:
                    96:76:82:b3:64:c2:71:24:50:03:cd:7b:73:db:65:
                    07:70:79:39:0e:4e:a8:79:66:7a:0b:b0:1e:ec:13:
                    dd:5f:f8:f5:8a:6c:47:81:fd:70:4c:e8:ef:9a:bb:
                    2e:e4:ec:1a:ce:db:06:2f:c1:80:8e:38:64:8d:1d:
                    ef:a3:ca:8c:07:45:86:dd:59:89:e3:f9:f4:de:10:
                    a6:32:ac:a4:27:66:27:20:5c:58:6e:b7:27:1d:28:
                    eb:45:a2:b8:d3:9d:01:d1:f8:9e:f0:5e:40:b3:63:
                    d1:e4:c9:08:d3:29:35:10:7b:10:e6:f8:80:f8:80:
                    e9:de:34:2c:4f:b4:e3:e4:29:6f:24:69:28:9b:11:
                    e3:f5
                Exponent: 65537 (0x10001)
        X509v3 extensions:
            X509v3 Subject Key Identifier: 
                EA:98:F5:B8:6B:EC:CA:53:13:61:F3:F7:C0:5F:1C:00:A0:02:05:12
            X509v3 Authority Key Identifier: 
                keyid:EA:98:F5:B8:6B:EC:CA:53:13:61:F3:F7:C0:5F:1C:00:A0:02:05:12

            X509v3 Basic Constraints: 
                CA:TRUE
    Signature Algorithm: sha256WithRSAEncryption
         86:a8:4f:e7:3c:54:75:94:49:f0:40:47:57:d9:10:dc:31:04:
         aa:3e:79:11:dc:c5:3f:3c:05:23:60:00:42:45:7b:6e:28:c3:
         09:48:03:ba:82:de:73:9e:e7:98:2d:c6:67:2c:45:ca:cf:dc:
         cc:4f:ad:a2:79:e7:5e:a8:5f:2e:cb:2c:4c:31:5b:21:2b:ab:
         17:09:5b:1e:75:73:24:a8:86:58:01:8c:9f:41:92:0d:bd:03:
         05:47:a1:60:2c:01:f0:15:5f:46:27:f9:bd:93:66:7f:d1:65:
         c3:91:0a:f5:28:3b:cb:72:9a:e5:05:1b:10:95:dc:86:c9:c5:
         e4:e9:25:85:fe:e0:c4:d1:ab:7e:f4:21:f9:8a:17:d9:49:4e:
         e5:11:f3:80:2f:27:e0:eb:f3:92:7d:8d:83:c9:1d:09:bd:e9:
         d2:4a:a6:ce:55:eb:ba:6b:df:81:9f:a4:87:d9:ab:9a:13:c8:
         24:cd:d7:19:86:10:aa:6e:bc:aa:9e:a3:f8:6c:bc:02:b0:5a:
         0d:17:88:65:ff:c9:92:fb:4a:d6:fe:bd:df:c7:bc:03:4a:4a:
         9b:64:bb:25:08:cd:35:f3:15:1e:7a:f8:67:68:c7:57:1d:87:
         93:56:83:a7:53:05:dd:42:f7:99:c3:19:f1:f8:10:0c:df:61:
         0a:dc:f7:db
-----BEGIN CERTIFICATE-----
MIIDzTCCArWgAwIBAgIJAJ707qn1IToAMA0GCSqGSIb3DQEBCwUAMH0xCzAJBgNV
BAYTAlVTMRMwEQYDVQQIDApDYWxpZm9ybmlhMRQwEgYDVQQHDAtTYW50YSBDbGFy
YTENMAsGA1UECgwEcGtnNTEMMAoGA1UECwwDdGE4MRIwEAYDVQQDDAlsb2NhbGhv
c3QxEjAQBgkqhkiG9w0BCQEWA3RhODAeFw0xOTAxMjIxNTMzMTZaFw0yMTEwMTgx
NTMzMTZaMH0xCzAJBgNVBAYTAlVTMRMwEQYDVQQIDApDYWxpZm9ybmlhMRQwEgYD
VQQHDAtTYW50YSBDbGFyYTENMAsGA1UECgwEcGtnNTEMMAoGA1UECwwDdGE4MRIw
EAYDVQQDDAlsb2NhbGhvc3QxEjAQBgkqhkiG9w0BCQEWA3RhODCCASIwDQYJKoZI
hvcNAQEBBQADggEPADCCAQoCggEBANeZ1O2WDz2jlyTja4YB+U0LoxCRqN7yODhk
K1NwHnCoDSobM+Z8PV7k9C8hfEHUDiV12ZDMjrURYxqc89BJmTU6yYkYUCgkmknC
W+pFc4HrvL50nwN09v0ud5nvUcoGTEN4GrII95vERGSHWBIywm2dJzh44V8slnaC
s2TCcSRQA817c9tlB3B5OQ5OqHlmeguwHuwT3V/49YpsR4H9cEzo75q7LuTsGs7b
Bi/BgI44ZI0d76PKjAdFht1ZieP59N4QpjKspCdmJyBcWG63Jx0o60WiuNOdAdH4
nvBeQLNj0eTJCNMpNRB7EOb4gPiA6d40LE+04+QpbyRpKJsR4/UCAwEAAaNQME4w
HQYDVR0OBBYEFOqY9bhr7MpTE2Hz98BfHACgAgUSMB8GA1UdIwQYMBaAFOqY9bhr
7MpTE2Hz98BfHACgAgUSMAwGA1UdEwQFMAMBAf8wDQYJKoZIhvcNAQELBQADggEB
AIaoT+c8VHWUSfBAR1fZENwxBKo+eRHcxT88BSNgAEJFe24owwlIA7qC3nOe55gt
xmcsRcrP3MxPraJ5516oXy7LLEwxWyErqxcJWx51cySohlgBjJ9Bkg29AwVHoWAs
AfAVX0Yn+b2TZn/RZcORCvUoO8tymuUFGxCV3IbJxeTpJYX+4MTRq370IfmKF9lJ
TuUR84AvJ+Dr85J9jYPJHQm96dJKps5V67pr34GfpIfZq5oTyCTN1xmGEKpuvKqe
o/hsvAKwWg0XiGX/yZL7Stb+vd/HvANKSptkuyUIzTXzFR56+Gdox1cdh5NWg6dT
Bd1C95nDGfH4EAzfYQrc99s=
-----END CERTIFICATE-----
