Certificate:
    Data:
        Version: 3 (0x2)
        Serial Number:
            a1:62:e1:e5:c0:a2:38:0d
        Signature Algorithm: sha256WithRSAEncryption
        Issuer: C=US, ST=California, L=Menlo Park, O=pkg5, OU=ta9, CN=localhost/emailAddress=ta9
        Validity
            Not Before: Apr 11 22:37:54 2011 GMT
            Not After : Jan  5 22:37:54 2014 GMT
        Subject: C=US, ST=California, L=Menlo Park, O=pkg5, OU=ta9, CN=localhost/emailAddress=ta9
        Subject Public Key Info:
            Public Key Algorithm: rsaEncryption
            RSA Public Key: (1024 bit)
                Modulus (1024 bit):
                    00:e8:ab:ef:91:ca:05:4a:18:a2:98:c4:d8:93:d0:
                    ce:99:a9:5e:02:8d:5d:5c:e3:f3:84:49:6b:a7:6d:
                    ef:38:77:2e:32:c2:9c:09:1d:f6:be:6c:c6:c4:b1:
                    c8:c3:32:72:2b:84:87:f6:ba:bf:fc:cf:5c:05:c2:
                    4f:62:23:7e:02:3f:ce:6c:c6:b6:95:86:84:d7:97:
                    9f:1c:87:70:29:62:6a:29:7c:06:a3:b7:18:12:67:
                    07:3a:89:aa:f0:99:fe:df:46:00:b1:2f:aa:30:1e:
                    a2:1e:f8:2b:37:99:21:b8:85:53:42:98:4a:bd:c5:
                    f9:b4:61:60:0a:73:bc:0e:d1
                Exponent: 65537 (0x10001)
        X509v3 extensions:
            X509v3 Subject Key Identifier: 
                A6:CF:35:00:96:15:AD:B4:24:DE:1D:5A:B9:56:A2:6E:B4:2D:46:C5
            X509v3 Authority Key Identifier: 
                keyid:A6:CF:35:00:96:15:AD:B4:24:DE:1D:5A:B9:56:A2:6E:B4:2D:46:C5
                DirName:/C=US/ST=California/L=Menlo Park/O=pkg5/OU=ta9/CN=localhost/emailAddress=ta9
                serial:A1:62:E1:E5:C0:A2:38:0D

            X509v3 Basic Constraints: 
                CA:TRUE
    Signature Algorithm: sha256WithRSAEncryption
        44:02:da:cf:c3:07:27:84:e4:06:22:ff:fc:7e:c9:47:7a:79:
        e1:9f:6a:84:68:a8:fb:48:18:80:58:0f:b0:5e:ef:43:bf:3a:
        69:23:b2:18:3e:78:3a:8e:ff:c5:d8:76:4c:99:d5:9f:be:8a:
        fd:0e:79:b9:7e:62:c4:c2:4b:6f:78:01:e7:52:19:ff:08:86:
        a7:b2:17:0c:11:03:ef:42:1f:b5:5b:40:0a:3a:9f:2a:4f:57:
        31:3d:b1:dd:a8:51:e1:2f:b2:e4:5b:2e:1b:9f:a7:d6:b7:6b:
        76:68:f9:2e:b1:38:6f:11:21:0e:81:a2:32:01:7b:bc:c3:1f:
        82:4e
-----BEGIN CERTIFICATE-----
MIIDWTCCAsKgAwIBAgIJAKFi4eXAojgNMA0GCSqGSIb3DQEBCwUAMHwxCzAJBgNV
BAYTAlVTMRMwEQYDVQQIEwpDYWxpZm9ybmlhMRMwEQYDVQQHEwpNZW5sbyBQYXJr
MQ0wCwYDVQQKEwRwa2c1MQwwCgYDVQQLEwN0YTkxEjAQBgNVBAMTCWxvY2FsaG9z
dDESMBAGCSqGSIb3DQEJARYDdGE5MB4XDTExMDQxMTIyMzc1NFoXDTE0MDEwNTIy
Mzc1NFowfDELMAkGA1UEBhMCVVMxEzARBgNVBAgTCkNhbGlmb3JuaWExEzARBgNV
BAcTCk1lbmxvIFBhcmsxDTALBgNVBAoTBHBrZzUxDDAKBgNVBAsTA3RhOTESMBAG
A1UEAxMJbG9jYWxob3N0MRIwEAYJKoZIhvcNAQkBFgN0YTkwgZ8wDQYJKoZIhvcN
AQEBBQADgY0AMIGJAoGBAOir75HKBUoYopjE2JPQzpmpXgKNXVzj84RJa6dt7zh3
LjLCnAkd9r5sxsSxyMMyciuEh/a6v/zPXAXCT2IjfgI/zmzGtpWGhNeXnxyHcCli
ail8BqO3GBJnBzqJqvCZ/t9GALEvqjAeoh74KzeZIbiFU0KYSr3F+bRhYApzvA7R
AgMBAAGjgeIwgd8wHQYDVR0OBBYEFKbPNQCWFa20JN4dWrlWom60LUbFMIGvBgNV
HSMEgacwgaSAFKbPNQCWFa20JN4dWrlWom60LUbFoYGApH4wfDELMAkGA1UEBhMC
VVMxEzARBgNVBAgTCkNhbGlmb3JuaWExEzARBgNVBAcTCk1lbmxvIFBhcmsxDTAL
BgNVBAoTBHBrZzUxDDAKBgNVBAsTA3RhOTESMBAGA1UEAxMJbG9jYWxob3N0MRIw
EAYJKoZIhvcNAQkBFgN0YTmCCQChYuHlwKI4DTAMBgNVHRMEBTADAQH/MA0GCSqG
SIb3DQEBCwUAA4GBAEQC2s/DByeE5AYi//x+yUd6eeGfaoRoqPtIGIBYD7Be70O/
Omkjshg+eDqO/8XYdkyZ1Z++iv0Oebl+YsTCS294AedSGf8IhqeyFwwRA+9CH7Vb
QAo6nypPVzE9sd2oUeEvsuRbLhufp9a3a3Zo+S6xOG8RIQ6BojIBe7zDH4JO
-----END CERTIFICATE-----
