Certificate:
    Data:
        Version: 3 (0x2)
        Serial Number:
            fe:9c:0f:ac:2f:77:2a:4d
    Signature Algorithm: sha256WithRSAEncryption
        Issuer: C=US, ST=California, L=Santa Clara, O=pkg5, OU=ta9, CN=localhost/emailAddress=ta9
        Validity
            Not Before: Jan 22 15:33:16 2019 GMT
            Not After : Oct 18 15:33:16 2021 GMT
        Subject: C=US, ST=California, L=Santa Clara, O=pkg5, OU=ta9, CN=localhost/emailAddress=ta9
        Subject Public Key Info:
            Public Key Algorithm: rsaEncryption
                Public-Key: (2048 bit)
                Modulus:
                    00:cb:52:a2:d6:7a:98:df:57:eb:06:7f:dd:ba:0c:
                    d2:d3:b1:0d:56:f2:36:8e:e6:5a:89:81:56:d4:2b:
                    70:4b:b9:3a:57:4d:5a:b8:fe:8f:f2:e8:1e:da:ab:
                    19:6a:bb:c4:7d:59:56:60:60:b9:c5:13:30:c3:f4:
                    95:62:c4:84:54:94:91:a9:ae:f2:11:d7:92:fe:80:
                    85:fc:a9:b2:83:5b:6b:23:82:f9:66:04:84:7f:59:
                    13:b1:84:8d:43:e2:a0:53:8e:7f:9b:fd:1d:76:9b:
                    e1:ab:34:eb:df:aa:b1:00:10:89:d1:32:e5:ae:39:
                    ec:3b:22:b1:3d:8b:ca:1d:5e:18:13:c6:95:7d:0d:
                    11:57:cf:88:3d:aa:a3:ba:86:b5:f0:bc:62:e5:85:
                    1e:9a:ff:47:6a:76:5d:d6:ae:ca:e3:6d:34:4a:31:
                    56:70:33:e7:07:db:23:68:23:f3:27:33:aa:a7:b2:
                    c9:22:5f:e7:21:ad:0f:02:46:e7:5f:33:e2:a3:22:
                    7a:3d:c2:e7:16:8d:71:39:90:91:80:8d:c8:5a:53:
                    9f:92:2c:5f:f6:5d:0f:e1:4f:54:97:97:95:d3:1a:
                    c4:5a:7e:ef:cd:22:35:81:69:5d:21:10:f5:d1:45:
                    61:17:d8:2c:cc:51:3d:f1:7c:46:65:af:e4:f1:2b:
                    ec:53
                Exponent: 65537 (0x10001)
        X509v3 extensions:
            X509v3 Subject Key Identifier: 
                32:17:65:DA:07:35:5E:ED:C4:7F:EC:2B:57:7C:06:74:95:FA:3C:F0
            X509v3 Authority Key Identifier: 
                keyid:32:17:65:DA:07:35:5E:ED:C4:7F:EC:2B:57:7C:06:74:95:FA:3C:F0

            X509v3 Basic Constraints: 
                CA:TRUE
    Signature Algorithm: sha256WithRSAEncryption
         4d:a4:6c:40:a0:65:ae:6a:f9:af:cb:fd:25:75:e9:ed:ee:6e:
         fc:63:44:c9:cc:a8:64:ce:8e:20:4c:9f:60:2b:8b:8b:a1:f4:
         1c:ad:1e:a1:23:92:89:d4:28:10:19:2c:ed:c9:00:2b:cd:bc:
         7c:b2:44:f7:85:da:94:42:90:d6:10:16:f2:99:98:b3:e1:e0:
         bf:21:60:79:7f:fe:de:69:06:e2:db:97:95:27:2c:25:0d:17:
         2b:f9:40:81:8b:cb:8f:6f:b2:90:66:fb:f5:39:9b:6c:a5:43:
         3d:8f:b1:50:3a:07:8f:3d:2a:23:0e:d3:08:d7:b7:79:f4:22:
         c7:bd:1e:95:73:b4:46:6f:89:34:53:73:03:2d:02:94:26:55:
         40:a1:24:d0:fb:5c:55:3d:79:20:cc:c0:24:0e:d3:40:fb:88:
         57:1b:9f:fc:4c:42:45:5c:0b:33:a1:82:f3:2b:27:cb:ee:79:
         ec:80:95:ee:4d:c5:0a:a3:e0:a5:21:17:ca:8f:24:41:e5:c1:
         2f:e5:3f:c8:69:72:f2:a1:0f:8d:a6:2a:17:59:4f:de:32:7e:
         cc:a3:b8:49:f7:f6:91:bb:84:9c:3b:82:5a:02:0c:15:ad:ca:
         9c:b4:f2:f2:20:6d:b0:8f:79:c2:0a:a4:ca:87:47:20:97:66:
         9f:df:1d:6a
-----BEGIN CERTIFICATE-----
MIIDzTCCArWgAwIBAgIJAP6cD6wvdypNMA0GCSqGSIb3DQEBCwUAMH0xCzAJBgNV
BAYTAlVTMRMwEQYDVQQIDApDYWxpZm9ybmlhMRQwEgYDVQQHDAtTYW50YSBDbGFy
YTENMAsGA1UECgwEcGtnNTEMMAoGA1UECwwDdGE5MRIwEAYDVQQDDAlsb2NhbGhv
c3QxEjAQBgkqhkiG9w0BCQEWA3RhOTAeFw0xOTAxMjIxNTMzMTZaFw0yMTEwMTgx
NTMzMTZaMH0xCzAJBgNVBAYTAlVTMRMwEQYDVQQIDApDYWxpZm9ybmlhMRQwEgYD
VQQHDAtTYW50YSBDbGFyYTENMAsGA1UECgwEcGtnNTEMMAoGA1UECwwDdGE5MRIw
EAYDVQQDDAlsb2NhbGhvc3QxEjAQBgkqhkiG9w0BCQEWA3RhOTCCASIwDQYJKoZI
hvcNAQEBBQADggEPADCCAQoCggEBAMtSotZ6mN9X6wZ/3boM0tOxDVbyNo7mWomB
VtQrcEu5OldNWrj+j/LoHtqrGWq7xH1ZVmBgucUTMMP0lWLEhFSUkamu8hHXkv6A
hfypsoNbayOC+WYEhH9ZE7GEjUPioFOOf5v9HXab4as069+qsQAQidEy5a457Dsi
sT2Lyh1eGBPGlX0NEVfPiD2qo7qGtfC8YuWFHpr/R2p2XdauyuNtNEoxVnAz5wfb
I2gj8yczqqeyySJf5yGtDwJG518z4qMiej3C5xaNcTmQkYCNyFpTn5IsX/ZdD+FP
VJeXldMaxFp+780iNYFpXSEQ9dFFYRfYLMxRPfF8RmWv5PEr7FMCAwEAAaNQME4w
HQYDVR0OBBYEFDIXZdoHNV7txH/sK1d8BnSV+jzwMB8GA1UdIwQYMBaAFDIXZdoH
NV7txH/sK1d8BnSV+jzwMAwGA1UdEwQFMAMBAf8wDQYJKoZIhvcNAQELBQADggEB
AE2kbECgZa5q+a/L/SV16e3ubvxjRMnMqGTOjiBMn2Ari4uh9BytHqEjkonUKBAZ
LO3JACvNvHyyRPeF2pRCkNYQFvKZmLPh4L8hYHl//t5pBuLbl5UnLCUNFyv5QIGL
y49vspBm+/U5m2ylQz2PsVA6B489KiMO0wjXt3n0Ise9HpVztEZviTRTcwMtApQm
VUChJND7XFU9eSDMwCQO00D7iFcbn/xMQkVcCzOhgvMrJ8vueeyAle5NxQqj4KUh
F8qPJEHlwS/lP8hpcvKhD42mKhdZT94yfsyjuEn39pG7hJw7gloCDBWtypy08vIg
bbCPecIKpMqHRyCXZp/fHWo=
-----END CERTIFICATE-----
