Certificate:
    Data:
        Version: 3 (0x2)
        Serial Number:
            1a:ee:3c:49:09:2f:30:61:b7:da:30:a8:08:e4:4e:2c:f3:2c:8c:bb
        Signature Algorithm: sha256WithRSAEncryption
        Issuer: C = US, ST = California, L = Santa Clara, O = pkg5, OU = ta6, CN = localhost, emailAddress = ta6
        Validity
            Not Before: Mar 18 08:51:45 2026 GMT
            Not After : Dec 12 08:51:45 2028 GMT
        Subject: C = US, ST = California, L = Santa Clara, O = pkg5, OU = ta6, CN = localhost, emailAddress = ta6
        Subject Public Key Info:
            Public Key Algorithm: rsaEncryption
                Public-Key: (2048 bit)
                Modulus:
                    00:94:62:4f:63:ab:2c:3a:81:87:f0:25:33:41:43:
                    d1:e6:a7:6e:67:8c:01:13:eb:2d:03:73:ba:46:20:
                    62:7c:76:d2:8a:14:ab:9f:d4:26:ee:bf:04:d1:b5:
                    a2:f8:9f:1f:9e:08:85:5e:c8:aa:03:ab:96:88:29:
                    93:a1:22:7d:8a:3a:3f:fe:55:45:7a:bd:07:ca:82:
                    d4:e3:32:fe:f4:43:a9:05:bd:f0:df:b7:e7:b4:44:
                    82:7d:6b:ca:1e:43:ee:66:ad:bb:df:01:d0:01:93:
                    08:ab:b5:33:8c:fb:4f:9a:4a:6c:24:9d:82:f6:f2:
                    37:68:38:16:19:15:f5:fd:fa:90:1a:e2:16:1b:74:
                    c5:f6:1d:14:d2:1f:97:ef:be:00:35:65:07:ba:c8:
                    37:8f:29:54:a3:17:9c:40:4e:ce:8f:4c:e1:df:d7:
                    ec:1a:c9:b6:a2:f5:7e:8e:6a:83:84:28:b9:51:cf:
                    e6:3b:49:36:dc:7a:89:70:06:25:6e:f7:b4:51:de:
                    08:5f:b9:f6:67:3a:06:0d:b6:6d:4a:cd:d1:17:d6:
                    de:a7:8a:85:5b:48:eb:c1:05:98:4c:38:e3:aa:88:
                    a0:46:02:b8:0f:83:3b:92:89:7f:18:ce:a1:ce:f5:
                    8d:fd:98:12:ff:eb:4e:ce:d6:54:dd:d5:ae:25:9c:
                    27:c9
                Exponent: 65537 (0x10001)
        X509v3 extensions:
            X509v3 Subject Key Identifier: 
                9D:9A:19:B7:0F:4E:D7:3A:24:87:E6:86:B8:BF:D8:D5:E8:57:09:56
            X509v3 Authority Key Identifier: 
                9D:9A:19:B7:0F:4E:D7:3A:24:87:E6:86:B8:BF:D8:D5:E8:57:09:56
            X509v3 Basic Constraints: critical
                CA:TRUE
    Signature Algorithm: sha256WithRSAEncryption
    Signature Value:
        77:a4:b9:80:09:87:4c:a3:9b:ce:a9:e2:bb:55:c6:79:73:05:
        c4:21:76:bb:32:bc:4e:a6:7d:e5:6b:2b:ec:77:a8:62:b5:3d:
        ec:63:c4:cd:54:99:56:85:fd:f4:8c:23:ac:5d:aa:54:4c:db:
        89:99:79:12:d7:dd:da:13:0e:de:59:6f:34:60:44:48:aa:de:
        3f:a5:60:d7:40:be:c1:5f:79:38:d9:64:1c:14:5a:bd:b4:5f:
        07:5f:6d:7b:b4:4d:56:e0:af:dc:4a:73:9c:45:d6:dc:35:15:
        e5:32:ee:c4:60:b8:c2:4a:72:76:22:cd:3c:7f:4a:ca:9d:27:
        6c:b2:59:6d:10:cd:4b:e5:88:38:29:19:ab:43:8c:2e:8c:e2:
        33:40:59:ef:0a:5c:79:33:23:fd:cc:24:78:99:80:76:6a:86:
        d6:29:48:08:81:4e:9a:1c:0f:9a:f9:21:cb:86:91:42:46:db:
        33:5f:29:4f:af:4b:b4:42:f0:8b:b2:b3:7f:d0:8b:3f:41:c4:
        b7:f4:01:1d:9f:6c:fa:3b:59:f0:eb:d9:62:ba:79:9a:ce:f4:
        eb:7f:bb:ee:1d:c1:02:8d:54:23:75:20:dc:b5:c7:c0:f8:c9:
        96:25:b4:f1:8d:37:f8:53:87:7b:43:d4:ca:e4:1c:77:30:08:
        71:92:19:0b
-----BEGIN CERTIFICATE-----
MIID2zCCAsOgAwIBAgIUGu48SQkvMGG32jCoCOROLPMsjLswDQYJKoZIhvcNAQEL
BQAwfTELMAkGA1UEBhMCVVMxEzARBgNVBAgMCkNhbGlmb3JuaWExFDASBgNVBAcM
C1NhbnRhIENsYXJhMQ0wCwYDVQQKDARwa2c1MQwwCgYDVQQLDAN0YTYxEjAQBgNV
BAMMCWxvY2FsaG9zdDESMBAGCSqGSIb3DQEJARYDdGE2MB4XDTI2MDMxODA4NTE0
NVoXDTI4MTIxMjA4NTE0NVowfTELMAkGA1UEBhMCVVMxEzARBgNVBAgMCkNhbGlm
b3JuaWExFDASBgNVBAcMC1NhbnRhIENsYXJhMQ0wCwYDVQQKDARwa2c1MQwwCgYD
VQQLDAN0YTYxEjAQBgNVBAMMCWxvY2FsaG9zdDESMBAGCSqGSIb3DQEJARYDdGE2
MIIBIjANBgkqhkiG9w0BAQEFAAOCAQ8AMIIBCgKCAQEAlGJPY6ssOoGH8CUzQUPR
5qduZ4wBE+stA3O6RiBifHbSihSrn9Qm7r8E0bWi+J8fngiFXsiqA6uWiCmToSJ9
ijo//lVFer0HyoLU4zL+9EOpBb3w37fntESCfWvKHkPuZq273wHQAZMIq7UzjPtP
mkpsJJ2C9vI3aDgWGRX1/fqQGuIWG3TF9h0U0h+X774ANWUHusg3jylUoxecQE7O
j0zh39fsGsm2ovV+jmqDhCi5Uc/mO0k23HqJcAYlbve0Ud4IX7n2ZzoGDbZtSs3R
F9bep4qFW0jrwQWYTDjjqoigRgK4D4M7kol/GM6hzvWN/ZgS/+tOztZU3dWuJZwn
yQIDAQABo1MwUTAdBgNVHQ4EFgQUnZoZtw9O1zokh+aGuL/Y1ehXCVYwHwYDVR0j
BBgwFoAUnZoZtw9O1zokh+aGuL/Y1ehXCVYwDwYDVR0TAQH/BAUwAwEB/zANBgkq
hkiG9w0BAQsFAAOCAQEAd6S5gAmHTKObzqniu1XGeXMFxCF2uzK8TqZ95Wsr7Heo
YrU97GPEzVSZVoX99IwjrF2qVEzbiZl5Etfd2hMO3llvNGBESKreP6Vg10C+wV95
ONlkHBRavbRfB19te7RNVuCv3EpznEXW3DUV5TLuxGC4wkpydiLNPH9Kyp0nbLJZ
bRDNS+WIOCkZq0OMLoziM0BZ7wpceTMj/cwkeJmAdmqG1ilICIFOmhwPmvkhy4aR
QkbbM18pT69LtELwi7Kzf9CLP0HEt/QBHZ9s+jtZ8OvZYrp5ms7063+77h3BAo1U
I3Ug3LXHwPjJliW08Y03+FOHe0PUyuQcdzAIcZIZCw==
-----END CERTIFICATE-----
Certificate:
    Data:
        Version: 3 (0x2)
        Serial Number:
            7f:fc:19:53:9c:08:a3:b1:c9:7a:a0:16:c7:48:98:60:26:50:e6:fc
        Signature Algorithm: sha256WithRSAEncryption
        Issuer: C = US, ST = California, L = Santa Clara, O = pkg5, OU = ta8, CN = localhost, emailAddress = ta8
        Validity
            Not Before: Mar 18 08:51:47 2026 GMT
            Not After : Dec 12 08:51:47 2028 GMT
        Subject: C = US, ST = California, L = Santa Clara, O = pkg5, OU = ta8, CN = localhost, emailAddress = ta8
        Subject Public Key Info:
            Public Key Algorithm: rsaEncryption
                Public-Key: (2048 bit)
                Modulus:
                    00:e2:9b:5d:32:17:05:b9:24:8d:e3:12:a6:b2:9d:
                    2b:41:94:70:10:4c:87:06:31:e3:a0:24:12:37:0b:
                    ba:7d:43:e0:ea:8f:f2:c0:53:a1:1c:ab:24:bc:9f:
                    31:23:92:a0:83:2b:95:1a:4b:04:ed:f6:ae:21:e6:
                    15:b0:ce:81:97:be:9a:fd:a1:32:78:6b:c2:37:3f:
                    8d:60:3e:51:e4:b2:1c:03:58:9b:5e:66:88:bf:7a:
                    ab:de:09:bd:3d:51:8d:7c:01:11:37:ed:94:71:a9:
                    4b:82:2c:05:4c:f1:48:62:87:f0:2c:9a:28:ef:f1:
                    94:24:70:2a:a8:13:2f:19:c2:10:24:42:4f:86:61:
                    12:fe:29:7c:47:aa:91:27:93:07:0a:22:bb:65:d3:
                    1e:e7:23:42:32:04:65:c0:75:e7:5f:11:3c:db:4b:
                    25:ed:5f:9a:fc:9b:4b:67:8d:e6:b3:7a:3b:9a:4f:
                    9b:1f:10:c5:08:e9:ae:9a:27:d5:71:ab:de:cd:81:
                    85:4e:0a:92:b3:5d:ec:ee:19:31:50:c2:fd:9e:84:
                    24:ae:24:96:bf:a0:9b:e6:b5:e5:6f:21:b5:c8:e8:
                    c3:db:60:92:79:a6:e2:cd:01:8d:38:eb:41:37:21:
                    3f:fc:62:3e:15:39:e6:1f:21:10:aa:77:30:38:20:
                    c8:29
                Exponent: 65537 (0x10001)
        X509v3 extensions:
            X509v3 Subject Key Identifier: 
                FA:83:39:93:D9:2A:9E:B3:3E:4F:0A:CD:2C:56:E8:3C:95:38:AE:91
            X509v3 Authority Key Identifier: 
                FA:83:39:93:D9:2A:9E:B3:3E:4F:0A:CD:2C:56:E8:3C:95:38:AE:91
            X509v3 Basic Constraints: critical
                CA:TRUE
    Signature Algorithm: sha256WithRSAEncryption
    Signature Value:
        55:fc:fb:45:de:de:16:8e:d8:20:7b:ce:14:7a:98:24:f3:e9:
        a3:4b:fc:84:28:87:a3:ed:c5:0c:18:12:77:38:7f:ae:b4:90:
        36:6d:2d:d3:a5:6f:cb:28:5b:e8:7e:8d:e4:e1:e3:43:2e:cc:
        8b:bf:29:8c:9a:fc:25:db:cf:d6:e0:4c:21:22:57:cd:86:1b:
        08:70:e4:4d:62:cb:71:da:de:3c:7b:ba:55:86:ee:c5:38:05:
        5c:be:d7:a3:11:82:90:ad:8b:08:66:9a:59:cc:b4:12:b3:b7:
        b5:30:0b:db:1e:8d:31:c1:02:bd:4a:81:55:16:f0:b2:58:89:
        ed:e5:35:8c:31:33:5b:8c:80:94:69:b0:39:c5:25:fc:95:a7:
        24:61:85:94:6e:d9:82:40:1e:a8:bd:a5:a7:b2:c6:0b:30:9b:
        8c:32:45:cf:df:00:83:c8:4b:d2:2c:b0:0c:a8:2c:01:70:33:
        2c:ac:50:25:65:52:d8:1b:28:ee:a4:dd:19:cc:07:89:92:76:
        ce:d3:75:9e:cd:59:b9:b2:31:75:ea:e0:32:5d:fb:cf:95:6d:
        d9:08:6a:99:c7:4c:e4:97:e0:0a:76:6e:9c:5f:bd:f3:ec:b9:
        3c:7a:df:b4:34:16:d3:b6:d4:fa:ce:79:cc:8e:02:23:aa:a5:
        ef:0a:87:35
-----BEGIN CERTIFICATE-----
MIID2zCCAsOgAwIBAgIUf/wZU5wIo7HJeqAWx0iYYCZQ5vwwDQYJKoZIhvcNAQEL
BQAwfTELMAkGA1UEBhMCVVMxEzARBgNVBAgMCkNhbGlmb3JuaWExFDASBgNVBAcM
C1NhbnRhIENsYXJhMQ0wCwYDVQQKDARwa2c1MQwwCgYDVQQLDAN0YTgxEjAQBgNV
BAMMCWxvY2FsaG9zdDESMBAGCSqGSIb3DQEJARYDdGE4MB4XDTI2MDMxODA4NTE0
N1oXDTI4MTIxMjA4NTE0N1owfTELMAkGA1UEBhMCVVMxEzARBgNVBAgMCkNhbGlm
b3JuaWExFDASBgNVBAcMC1NhbnRhIENsYXJhMQ0wCwYDVQQKDARwa2c1MQwwCgYD
VQQLDAN0YTgxEjAQBgNVBAMMCWxvY2FsaG9zdDESMBAGCSqGSIb3DQEJARYDdGE4
MIIBIjANBgkqhkiG9w0BAQEFAAOCAQ8AMIIBCgKCAQEA4ptdMhcFuSSN4xKmsp0r
QZRwEEyHBjHjoCQSNwu6fUPg6o/ywFOhHKskvJ8xI5KggyuVGksE7fauIeYVsM6B
l76a/aEyeGvCNz+NYD5R5LIcA1ibXmaIv3qr3gm9PVGNfAERN+2UcalLgiwFTPFI
YofwLJoo7/GUJHAqqBMvGcIQJEJPhmES/il8R6qRJ5MHCiK7ZdMe5yNCMgRlwHXn
XxE820sl7V+a/JtLZ43ms3o7mk+bHxDFCOmumifVcavezYGFTgqSs13s7hkxUML9
noQkriSWv6Cb5rXlbyG1yOjD22CSeabizQGNOOtBNyE//GI+FTnmHyEQqncwOCDI
KQIDAQABo1MwUTAdBgNVHQ4EFgQU+oM5k9kqnrM+TwrNLFboPJU4rpEwHwYDVR0j
BBgwFoAU+oM5k9kqnrM+TwrNLFboPJU4rpEwDwYDVR0TAQH/BAUwAwEB/zANBgkq
hkiG9w0BAQsFAAOCAQEAVfz7Rd7eFo7YIHvOFHqYJPPpo0v8hCiHo+3FDBgSdzh/
rrSQNm0t06Vvyyhb6H6N5OHjQy7Mi78pjJr8JdvP1uBMISJXzYYbCHDkTWLLcdre
PHu6VYbuxTgFXL7XoxGCkK2LCGaaWcy0ErO3tTAL2x6NMcECvUqBVRbwsliJ7eU1
jDEzW4yAlGmwOcUl/JWnJGGFlG7ZgkAeqL2lp7LGCzCbjDJFz98Ag8hL0iywDKgs
AXAzLKxQJWVS2Bso7qTdGcwHiZJ2ztN1ns1ZubIxdergMl37z5Vt2QhqmcdM5Jfg
CnZunF+98+y5PHrftDQW07bU+s55zI4CI6ql7wqHNQ==
-----END CERTIFICATE-----
Certificate:
    Data:
        Version: 3 (0x2)
        Serial Number:
            69:8d:0b:21:80:a1:f9:f2:d8:42:a7:e6:0d:7e:2b:c0:3e:e4:50:07
        Signature Algorithm: sha256WithRSAEncryption
        Issuer: C = US, ST = California, L = Santa Clara, O = pkg5, OU = ta9, CN = localhost, emailAddress = ta9
        Validity
            Not Before: Mar 18 08:51:48 2026 GMT
            Not After : Dec 12 08:51:48 2028 GMT
        Subject: C = US, ST = California, L = Santa Clara, O = pkg5, OU = ta9, CN = localhost, emailAddress = ta9
        Subject Public Key Info:
            Public Key Algorithm: rsaEncryption
                Public-Key: (2048 bit)
                Modulus:
                    00:ae:86:51:57:1d:1b:a2:e6:a8:06:e2:a6:be:46:
                    47:d6:f0:b3:67:7b:08:ff:fc:b4:09:de:9c:75:b4:
                    53:85:72:76:3c:35:dc:c8:d3:64:6a:f3:91:05:86:
                    c4:34:2c:f4:54:5b:64:31:90:54:a2:d9:e5:a5:eb:
                    c7:e6:c4:e6:54:9d:84:5e:a3:3a:28:46:48:38:3c:
                    fc:7e:7e:71:8b:44:22:40:a6:91:b8:eb:79:45:58:
                    42:73:35:06:ab:a7:b8:bd:7e:e5:87:d4:92:88:05:
                    ee:86:00:b3:81:78:a7:43:29:5d:58:56:94:58:26:
                    86:f0:60:d9:97:56:d9:3a:45:48:7e:dc:4d:31:bd:
                    f1:c1:af:39:46:b8:ce:5f:b4:29:0b:70:7c:f7:fc:
                    87:d1:06:d7:20:8a:7c:ee:02:8a:9d:69:c6:2d:0f:
                    12:bd:51:6c:3b:09:34:37:6f:16:54:41:17:98:75:
                    a3:dc:9b:b3:18:a0:5a:20:61:6c:5f:ea:03:63:c4:
                    a1:da:62:4d:cc:02:93:9e:2d:d9:ec:70:50:20:a3:
                    9f:f3:cf:8f:aa:d3:a9:1c:64:2a:38:08:b9:33:20:
                    f3:d3:a5:cd:45:6f:88:46:30:0a:4a:bb:32:64:95:
                    04:1b:ed:a5:48:0c:3b:29:d3:e3:c3:4c:64:f2:c8:
                    5a:0b
                Exponent: 65537 (0x10001)
        X509v3 extensions:
            X509v3 Subject Key Identifier: 
                C2:DC:D8:84:D5:67:BB:7D:CA:B9:67:D7:FA:22:D0:78:9E:DD:68:18
            X509v3 Authority Key Identifier: 
                C2:DC:D8:84:D5:67:BB:7D:CA:B9:67:D7:FA:22:D0:78:9E:DD:68:18
            X509v3 Basic Constraints: critical
                CA:TRUE
    Signature Algorithm: sha256WithRSAEncryption
    Signature Value:
        33:15:f6:df:53:fd:08:41:0e:10:cf:31:92:21:b3:42:51:ba:
        2a:95:5e:00:c9:49:99:a3:9e:22:a0:a0:0f:fe:a7:44:c9:1b:
        dc:2e:7b:9c:78:0c:02:45:ec:f9:3d:6d:d1:6a:23:69:bd:92:
        48:a8:5a:12:e2:e0:fa:41:a0:29:31:9f:1e:a5:78:5f:5e:b1:
        5c:1c:86:14:6f:c9:43:48:df:f8:46:a4:13:99:c9:2c:fe:54:
        3e:42:22:29:13:fe:a1:49:b3:b7:09:af:f9:bf:ea:20:97:80:
        dc:c5:e0:72:54:2a:02:ba:25:0c:a6:f4:74:33:d1:c1:10:bf:
        68:96:0b:06:40:72:32:a3:b0:62:4e:1a:7a:6f:80:cf:54:db:
        51:b3:a0:06:6d:0e:99:d2:8b:7f:3b:03:18:73:b7:b2:db:57:
        dc:4d:d9:53:50:63:1a:90:56:8d:cd:a3:4e:b4:aa:ce:1f:10:
        39:31:18:46:69:9f:13:ac:e8:3d:0e:fc:31:67:81:85:6c:d3:
        92:1c:5d:2a:e5:e2:0d:34:3a:73:8d:75:d6:70:33:55:1a:06:
        a9:25:a9:9d:ed:62:06:9e:e4:da:2b:8d:f9:dc:80:a0:4a:4b:
        53:56:4e:73:b4:74:0f:12:ca:51:39:fd:ee:d3:39:82:fa:5f:
        d2:d0:17:66
-----BEGIN CERTIFICATE-----
MIID2zCCAsOgAwIBAgIUaY0LIYCh+fLYQqfmDX4rwD7kUAcwDQYJKoZIhvcNAQEL
BQAwfTELMAkGA1UEBhMCVVMxEzARBgNVBAgMCkNhbGlmb3JuaWExFDASBgNVBAcM
C1NhbnRhIENsYXJhMQ0wCwYDVQQKDARwa2c1MQwwCgYDVQQLDAN0YTkxEjAQBgNV
BAMMCWxvY2FsaG9zdDESMBAGCSqGSIb3DQEJARYDdGE5MB4XDTI2MDMxODA4NTE0
OFoXDTI4MTIxMjA4NTE0OFowfTELMAkGA1UEBhMCVVMxEzARBgNVBAgMCkNhbGlm
b3JuaWExFDASBgNVBAcMC1NhbnRhIENsYXJhMQ0wCwYDVQQKDARwa2c1MQwwCgYD
VQQLDAN0YTkxEjAQBgNVBAMMCWxvY2FsaG9zdDESMBAGCSqGSIb3DQEJARYDdGE5
MIIBIjANBgkqhkiG9w0BAQEFAAOCAQ8AMIIBCgKCAQEAroZRVx0bouaoBuKmvkZH
1vCzZ3sI//y0Cd6cdbRThXJ2PDXcyNNkavORBYbENCz0VFtkMZBUotnlpevH5sTm
VJ2EXqM6KEZIODz8fn5xi0QiQKaRuOt5RVhCczUGq6e4vX7lh9SSiAXuhgCzgXin
QyldWFaUWCaG8GDZl1bZOkVIftxNMb3xwa85RrjOX7QpC3B89/yH0QbXIIp87gKK
nWnGLQ8SvVFsOwk0N28WVEEXmHWj3JuzGKBaIGFsX+oDY8Sh2mJNzAKTni3Z7HBQ
IKOf88+PqtOpHGQqOAi5MyDz06XNRW+IRjAKSrsyZJUEG+2lSAw7KdPjw0xk8sha
CwIDAQABo1MwUTAdBgNVHQ4EFgQUwtzYhNVnu33KuWfX+iLQeJ7daBgwHwYDVR0j
BBgwFoAUwtzYhNVnu33KuWfX+iLQeJ7daBgwDwYDVR0TAQH/BAUwAwEB/zANBgkq
hkiG9w0BAQsFAAOCAQEAMxX231P9CEEOEM8xkiGzQlG6KpVeAMlJmaOeIqCgD/6n
RMkb3C57nHgMAkXs+T1t0Wojab2SSKhaEuLg+kGgKTGfHqV4X16xXByGFG/JQ0jf
+EakE5nJLP5UPkIiKRP+oUmztwmv+b/qIJeA3MXgclQqArolDKb0dDPRwRC/aJYL
BkByMqOwYk4aem+Az1TbUbOgBm0OmdKLfzsDGHO3sttX3E3ZU1BjGpBWjc2jTrSq
zh8QOTEYRmmfE6zoPQ78MWeBhWzTkhxdKuXiDTQ6c4111nAzVRoGqSWpne1iBp7k
2iuN+dyAoEpLU1ZOc7R0DxLKUTn97tM5gvpf0tAXZg==
-----END CERTIFICATE-----
Certificate:
    Data:
        Version: 3 (0x2)
        Serial Number:
            4d:a6:fa:56:c0:90:95:3b:57:3a:14:27:c7:13:76:d1:64:07:4f:0f
        Signature Algorithm: sha256WithRSAEncryption
        Issuer: C = US, ST = California, L = Santa Clara, O = pkg5, OU = ta10, CN = localhost, emailAddress = ta10
        Validity
            Not Before: Mar 18 08:51:49 2026 GMT
            Not After : Dec 12 08:51:49 2028 GMT
        Subject: C = US, ST = California, L = Santa Clara, O = pkg5, OU = ta10, CN = localhost, emailAddress = ta10
        Subject Public Key Info:
            Public Key Algorithm: rsaEncryption
                Public-Key: (2048 bit)
                Modulus:
                    00:d4:06:cc:c6:0c:bf:05:7c:bd:d4:da:87:b1:3f:
                    b2:0d:4c:58:48:c7:b1:ce:1b:6f:9f:ea:dc:23:46:
                    5e:80:87:41:fa:63:c3:24:c4:f5:52:fa:f7:bd:27:
                    e3:7c:77:31:5e:09:da:5c:ab:88:8a:12:d7:d8:21:
                    c8:e7:53:7e:5e:82:a3:66:18:fe:80:8f:ec:c2:54:
                    48:11:d5:d2:34:3d:58:45:6b:85:cd:d4:cc:a7:a5:
                    cd:e6:cb:12:12:45:93:bd:58:60:8f:3d:e6:cf:21:
                    f3:b9:5e:2f:1d:b3:ba:52:fd:51:a3:8f:13:ac:c8:
                    00:f2:04:4b:2c:45:55:1c:54:20:d3:38:ea:d3:4e:
                    91:53:87:1e:a5:ee:91:b0:5a:81:ab:d6:0e:8e:48:
                    42:66:75:51:c4:c8:b7:cc:e3:35:a7:4e:8b:b7:fa:
                    f5:cb:c9:6a:5e:3e:f3:90:7c:3f:ae:2b:3a:c6:66:
                    f1:2d:a7:2a:7e:44:d9:18:c3:59:6f:27:04:de:ea:
                    1f:7c:01:5f:15:3a:a3:ed:8b:8c:f2:e7:ca:a5:9f:
                    a4:05:4e:9f:f9:d5:c2:82:ea:8c:b9:ab:fe:63:69:
                    b3:ca:ea:5a:94:46:a4:a1:54:45:ca:e2:a6:e2:e5:
                    d3:fc:f5:f8:d7:a1:fb:9d:1f:fa:23:f0:09:3b:53:
                    ba:f1
                Exponent: 65537 (0x10001)
        X509v3 extensions:
            X509v3 Subject Key Identifier: 
                9C:77:50:9D:21:AD:40:6D:4E:94:A4:55:B0:89:EF:1C:E6:CA:9C:00
            X509v3 Authority Key Identifier: 
                9C:77:50:9D:21:AD:40:6D:4E:94:A4:55:B0:89:EF:1C:E6:CA:9C:00
            X509v3 Basic Constraints: critical
                CA:TRUE
    Signature Algorithm: sha256WithRSAEncryption
    Signature Value:
        c5:24:d0:91:26:fa:fb:2a:ea:85:ad:8e:76:82:d0:a7:2a:34:
        68:a8:e7:16:5c:12:fa:45:95:f3:9c:0a:e3:89:a8:82:87:3c:
        95:1a:02:32:e6:48:8e:13:a5:b4:6b:1c:38:1e:66:6e:ad:6f:
        81:d5:7f:f5:5e:d6:88:df:2a:55:e5:03:93:9d:21:7f:cf:3a:
        47:20:73:ce:f8:ad:57:b3:1e:1f:87:68:12:a4:c9:43:ad:d5:
        fb:65:59:31:1e:88:25:de:f5:3d:41:79:7c:52:45:50:25:35:
        e3:7e:63:85:d3:b3:b4:89:35:e5:45:cb:ab:56:6e:cf:6f:05:
        95:20:02:86:f5:25:59:d9:aa:0c:69:47:8c:1f:f2:9c:ba:a5:
        18:e0:c3:84:a2:95:3b:9f:5b:74:83:cd:c6:6f:d7:6c:0d:2d:
        4b:88:41:03:14:8c:6b:fe:19:29:59:06:46:9c:eb:df:ca:d2:
        1e:7b:37:82:13:eb:09:bf:87:75:f6:97:5b:cd:35:75:00:06:
        0c:9c:7e:c3:5f:50:db:82:ed:d8:a2:58:08:5f:ee:4e:cb:f2:
        26:00:62:64:f3:a3:99:a9:5e:91:9a:92:0c:ce:f7:e5:8c:7f:
        9a:3e:04:68:ea:c8:c3:ff:c0:1d:35:fa:fd:71:fb:6d:6f:4c:
        e6:0a:e4:b1
-----BEGIN CERTIFICATE-----
MIID3zCCAsegAwIBAgIUTab6VsCQlTtXOhQnxxN20WQHTw8wDQYJKoZIhvcNAQEL
BQAwfzELMAkGA1UEBhMCVVMxEzARBgNVBAgMCkNhbGlmb3JuaWExFDASBgNVBAcM
C1NhbnRhIENsYXJhMQ0wCwYDVQQKDARwa2c1MQ0wCwYDVQQLDAR0YTEwMRIwEAYD
VQQDDAlsb2NhbGhvc3QxEzARBgkqhkiG9w0BCQEWBHRhMTAwHhcNMjYwMzE4MDg1
MTQ5WhcNMjgxMjEyMDg1MTQ5WjB/MQswCQYDVQQGEwJVUzETMBEGA1UECAwKQ2Fs
aWZvcm5pYTEUMBIGA1UEBwwLU2FudGEgQ2xhcmExDTALBgNVBAoMBHBrZzUxDTAL
BgNVBAsMBHRhMTAxEjAQBgNVBAMMCWxvY2FsaG9zdDETMBEGCSqGSIb3DQEJARYE
dGExMDCCASIwDQYJKoZIhvcNAQEBBQADggEPADCCAQoCggEBANQGzMYMvwV8vdTa
h7E/sg1MWEjHsc4bb5/q3CNGXoCHQfpjwyTE9VL6970n43x3MV4J2lyriIoS19gh
yOdTfl6Co2YY/oCP7MJUSBHV0jQ9WEVrhc3UzKelzebLEhJFk71YYI895s8h87le
Lx2zulL9UaOPE6zIAPIESyxFVRxUINM46tNOkVOHHqXukbBagavWDo5IQmZ1UcTI
t8zjNadOi7f69cvJal4+85B8P64rOsZm8S2nKn5E2RjDWW8nBN7qH3wBXxU6o+2L
jPLnyqWfpAVOn/nVwoLqjLmr/mNps8rqWpRGpKFURcripuLl0/z1+Neh+50f+iPw
CTtTuvECAwEAAaNTMFEwHQYDVR0OBBYEFJx3UJ0hrUBtTpSkVbCJ7xzmypwAMB8G
A1UdIwQYMBaAFJx3UJ0hrUBtTpSkVbCJ7xzmypwAMA8GA1UdEwEB/wQFMAMBAf8w
DQYJKoZIhvcNAQELBQADggEBAMUk0JEm+vsq6oWtjnaC0KcqNGio5xZcEvpFlfOc
CuOJqIKHPJUaAjLmSI4TpbRrHDgeZm6tb4HVf/Ve1ojfKlXlA5OdIX/POkcgc874
rVezHh+HaBKkyUOt1ftlWTEeiCXe9T1BeXxSRVAlNeN+Y4XTs7SJNeVFy6tWbs9v
BZUgAob1JVnZqgxpR4wf8py6pRjgw4SilTufW3SDzcZv12wNLUuIQQMUjGv+GSlZ
Bkac69/K0h57N4IT6wm/h3X2l1vNNXUABgycfsNfUNuC7diiWAhf7k7L8iYAYmTz
o5mpXpGakgzO9+WMf5o+BGjqyMP/wB01+v1x+21vTOYK5LE=
-----END CERTIFICATE-----
Certificate:
    Data:
        Version: 3 (0x2)
        Serial Number:
            27:fd:7d:4f:c2:88:db:a6:d8:ed:0d:3b:7b:1e:83:df:52:6d:99:0f
        Signature Algorithm: sha256WithRSAEncryption
        Issuer: C = US, ST = California, L = Santa Clara, O = pkg5, OU = ta11, CN = localhost, emailAddress = ta11
        Validity
            Not Before: Mar 18 08:51:50 2026 GMT
            Not After : Dec 12 08:51:50 2028 GMT
        Subject: C = US, ST = California, L = Santa Clara, O = pkg5, OU = ta11, CN = localhost, emailAddress = ta11
        Subject Public Key Info:
            Public Key Algorithm: rsaEncryption
                Public-Key: (2048 bit)
                Modulus:
                    00:a8:99:3c:40:dc:60:73:04:18:8f:84:2d:db:a4:
                    81:a4:4a:9a:d4:ea:24:0f:72:80:94:d7:1e:00:c2:
                    67:f1:c8:84:52:49:cf:4e:94:67:56:4f:2b:3f:f4:
                    14:9a:b2:70:b0:d1:d6:c5:24:d9:71:25:bf:f4:f2:
                    f4:a2:4c:58:7c:07:9f:a2:0b:0b:59:d3:67:1c:2e:
                    90:3a:a1:a6:a9:ee:45:08:9a:a5:4e:9c:c3:4b:5c:
                    4e:37:2d:75:8b:15:eb:fc:a5:9e:f8:37:72:ad:70:
                    6e:5d:03:d6:22:96:65:7e:d6:9d:b5:44:9c:a3:6d:
                    b4:29:d4:93:37:7d:b7:64:30:75:0e:56:58:23:36:
                    dd:d1:c6:01:18:6f:fe:71:60:f9:75:14:bf:23:b5:
                    7a:73:d0:9d:6c:23:aa:de:cd:f4:76:a0:24:9f:69:
                    8c:ef:7b:77:84:6d:d7:ad:41:86:4e:d9:c8:4e:09:
                    49:f9:f1:5c:a2:8c:04:26:42:cd:fd:e0:6d:72:cc:
                    e7:3f:ed:37:d8:8d:2f:2a:44:b6:ab:36:fc:95:fd:
                    4d:46:81:77:5c:29:31:8e:1f:8a:88:cd:1b:d3:a1:
                    f2:37:b5:d2:39:cc:76:3c:da:e2:f9:54:ab:be:7c:
                    09:ae:b2:b7:b3:10:88:59:72:ed:d8:d7:94:25:4d:
                    01:41
                Exponent: 65537 (0x10001)
        X509v3 extensions:
            X509v3 Subject Key Identifier: 
                43:71:20:B9:64:59:C7:15:ED:59:7D:66:05:42:36:CA:E1:82:64:65
            X509v3 Authority Key Identifier: 
                43:71:20:B9:64:59:C7:15:ED:59:7D:66:05:42:36:CA:E1:82:64:65
            X509v3 Basic Constraints: critical
                CA:TRUE
    Signature Algorithm: sha256WithRSAEncryption
    Signature Value:
        71:db:20:ef:35:51:da:53:c3:b7:f8:4e:29:47:69:a3:af:d9:
        39:0a:4d:a4:b0:68:32:e0:ac:11:a2:02:35:47:a6:9a:f8:6b:
        39:e0:d1:8c:3d:b0:88:61:e2:4a:5b:36:32:eb:76:7f:d1:0e:
        63:91:4a:44:28:34:21:0b:2c:f9:81:90:ce:c4:28:2d:de:1e:
        0f:22:c7:cc:a3:97:93:f7:b7:65:bf:d7:75:9d:0c:a3:b8:28:
        59:1f:07:90:3c:f7:2c:57:e1:79:16:0e:e2:0d:e2:84:0c:fc:
        c8:a8:57:45:21:79:41:66:7d:62:f2:ee:e2:4f:d6:50:8d:7a:
        87:0c:62:57:44:21:bd:d9:85:bd:0b:bb:48:47:6c:3b:40:5e:
        d5:01:35:18:a4:0a:a9:28:c2:89:64:0c:c0:72:84:db:8d:88:
        a8:5a:8c:a7:b8:39:0b:bf:21:11:0d:bc:27:4d:e8:22:ca:54:
        a3:07:95:bf:d0:79:33:f0:d8:b2:e8:2c:da:77:a6:44:9a:cf:
        e8:24:17:c5:51:9f:5d:b1:ab:d6:22:d7:8d:29:da:3c:96:94:
        21:80:42:67:43:82:b3:73:24:f3:de:9d:57:7b:c7:d4:21:bb:
        f4:2c:b7:90:2d:67:ec:6d:2c:14:ed:6d:8a:66:05:44:30:73:
        36:d7:b3:56
-----BEGIN CERTIFICATE-----
MIID3zCCAsegAwIBAgIUJ/19T8KI26bY7Q07ex6D31JtmQ8wDQYJKoZIhvcNAQEL
BQAwfzELMAkGA1UEBhMCVVMxEzARBgNVBAgMCkNhbGlmb3JuaWExFDASBgNVBAcM
C1NhbnRhIENsYXJhMQ0wCwYDVQQKDARwa2c1MQ0wCwYDVQQLDAR0YTExMRIwEAYD
VQQDDAlsb2NhbGhvc3QxEzARBgkqhkiG9w0BCQEWBHRhMTEwHhcNMjYwMzE4MDg1
MTUwWhcNMjgxMjEyMDg1MTUwWjB/MQswCQYDVQQGEwJVUzETMBEGA1UECAwKQ2Fs
aWZvcm5pYTEUMBIGA1UEBwwLU2FudGEgQ2xhcmExDTALBgNVBAoMBHBrZzUxDTAL
BgNVBAsMBHRhMTExEjAQBgNVBAMMCWxvY2FsaG9zdDETMBEGCSqGSIb3DQEJARYE
dGExMTCCASIwDQYJKoZIhvcNAQEBBQADggEPADCCAQoCggEBAKiZPEDcYHMEGI+E
LdukgaRKmtTqJA9ygJTXHgDCZ/HIhFJJz06UZ1ZPKz/0FJqycLDR1sUk2XElv/Ty
9KJMWHwHn6ILC1nTZxwukDqhpqnuRQiapU6cw0tcTjctdYsV6/ylnvg3cq1wbl0D
1iKWZX7WnbVEnKNttCnUkzd9t2QwdQ5WWCM23dHGARhv/nFg+XUUvyO1enPQnWwj
qt7N9HagJJ9pjO97d4Rt161Bhk7ZyE4JSfnxXKKMBCZCzf3gbXLM5z/tN9iNLypE
tqs2/JX9TUaBd1wpMY4fiojNG9Oh8je10jnMdjza4vlUq758Ca6yt7MQiFly7djX
lCVNAUECAwEAAaNTMFEwHQYDVR0OBBYEFENxILlkWccV7Vl9ZgVCNsrhgmRlMB8G
A1UdIwQYMBaAFENxILlkWccV7Vl9ZgVCNsrhgmRlMA8GA1UdEwEB/wQFMAMBAf8w
DQYJKoZIhvcNAQELBQADggEBAHHbIO81UdpTw7f4TilHaaOv2TkKTaSwaDLgrBGi
AjVHppr4azng0Yw9sIhh4kpbNjLrdn/RDmORSkQoNCELLPmBkM7EKC3eHg8ix8yj
l5P3t2W/13WdDKO4KFkfB5A89yxX4XkWDuIN4oQM/MioV0UheUFmfWLy7uJP1lCN
eocMYldEIb3Zhb0Lu0hHbDtAXtUBNRikCqkowolkDMByhNuNiKhajKe4OQu/IREN
vCdN6CLKVKMHlb/QeTPw2LLoLNp3pkSaz+gkF8VRn12xq9Yi140p2jyWlCGAQmdD
grNzJPPenVd7x9Qhu/Qst5AtZ+xtLBTtbYpmBUQwczbXs1Y=
-----END CERTIFICATE-----
