Certificate:
    Data:
        Version: 3 (0x2)
        Serial Number:
            ae:28:d0:e7:7c:c8:ff:c1
    Signature Algorithm: sha256WithRSAEncryption
        Issuer: C=US, ST=California, L=Santa Clara, O=pkg5, OU=ta6, CN=localhost/emailAddress=ta6
        Validity
            Not Before: Jan 22 15:33:15 2019 GMT
            Not After : Oct 18 15:33:15 2021 GMT
        Subject: C=US, ST=California, L=Santa Clara, O=pkg5, OU=ta6, CN=localhost/emailAddress=ta6
        Subject Public Key Info:
            Public Key Algorithm: rsaEncryption
                Public-Key: (2048 bit)
                Modulus:
                    00:b8:e9:d7:a5:9d:42:bc:a2:f8:e1:cd:12:a1:36:
                    17:3d:9d:1b:fa:88:fb:45:1a:50:32:a8:7b:36:3f:
                    f8:59:46:57:22:72:ad:57:7f:84:e8:71:30:a9:ba:
                    b8:fb:ea:42:e0:76:c4:2b:dc:61:34:04:41:1d:1e:
                    7b:ee:1b:bc:bc:52:93:06:45:ef:fc:7e:7f:e4:26:
                    2d:2a:1c:43:81:19:2b:0b:f2:20:af:c6:4d:49:c0:
                    ab:74:2e:9d:0c:2b:60:fa:ca:a6:0c:3f:95:4c:9e:
                    5f:58:fb:8a:a0:72:eb:2e:67:af:20:1b:48:36:1d:
                    ad:d5:d0:8c:3d:f4:b5:41:c1:9a:28:32:72:78:2e:
                    fd:c1:9c:89:fe:cb:1b:b3:5b:29:7f:6c:ba:bb:58:
                    ae:90:83:78:9e:10:6d:f9:78:a0:e9:1b:d3:d8:4b:
                    8c:26:a9:03:b8:82:c2:2a:d9:9b:a6:29:c5:06:1b:
                    11:f3:35:6f:44:52:61:fc:78:a1:1f:36:38:81:fc:
                    4a:6f:0a:f4:0f:42:08:5c:a6:d5:18:c6:a8:bb:df:
                    e4:19:2a:09:f4:8a:fb:b9:20:3c:ad:ef:8f:dd:aa:
                    ee:e5:1b:d7:47:2e:95:aa:d8:b9:c1:8e:07:f0:aa:
                    f4:2f:51:53:5e:63:58:ed:b1:63:31:de:18:52:bf:
                    84:15
                Exponent: 65537 (0x10001)
        X509v3 extensions:
            X509v3 Subject Key Identifier: 
                F3:E7:B0:A5:B3:F6:A0:E2:6A:D2:B5:1D:01:54:29:52:FC:2D:9F:C3
            X509v3 Authority Key Identifier: 
                keyid:F3:E7:B0:A5:B3:F6:A0:E2:6A:D2:B5:1D:01:54:29:52:FC:2D:9F:C3

            X509v3 Basic Constraints: 
                CA:TRUE
    Signature Algorithm: sha256WithRSAEncryption
         6c:33:05:0a:b0:88:77:26:e4:da:a5:36:5e:e9:86:40:fb:cc:
         25:ea:e3:de:f0:72:0d:e6:2f:74:45:11:70:6b:27:87:70:a9:
         0a:95:69:f5:8c:09:4b:43:04:f3:4c:c7:57:dc:d5:0d:8e:26:
         c7:02:63:7b:c5:c5:f3:aa:7b:f3:8b:1c:08:14:a8:50:75:60:
         37:30:68:38:4d:1b:e0:db:da:3a:60:a2:4b:4e:99:3a:24:c5:
         4e:47:92:e9:04:d0:60:4e:e9:57:99:93:8a:af:fd:4f:6c:76:
         94:78:a7:5f:3b:45:c4:4c:90:88:b7:5d:16:9d:67:6b:76:06:
         8c:0c:07:17:f5:b2:99:2c:1e:f0:b4:2d:6b:91:d3:e3:43:ab:
         96:92:a8:ae:b6:f6:2d:27:26:5e:1e:3a:b9:5e:a8:5e:26:bb:
         0a:f7:5d:54:9e:28:60:5b:70:1b:e1:6a:ed:7f:61:b0:58:aa:
         8f:2e:c1:86:57:37:e3:12:6f:ca:1a:b6:97:cd:e8:f8:0a:33:
         d6:fa:f1:3c:3b:1c:a1:eb:bb:56:76:b0:c2:52:59:73:24:41:
         65:f4:5e:46:0c:e3:31:f0:eb:64:cd:70:ed:db:3f:e2:ed:33:
         19:95:a2:ab:f4:ba:8a:c7:a2:7b:4c:5b:c0:41:a9:84:35:e6:
         91:e7:6c:1b
-----BEGIN CERTIFICATE-----
MIIDzTCCArWgAwIBAgIJAK4o0Od8yP/BMA0GCSqGSIb3DQEBCwUAMH0xCzAJBgNV
BAYTAlVTMRMwEQYDVQQIDApDYWxpZm9ybmlhMRQwEgYDVQQHDAtTYW50YSBDbGFy
YTENMAsGA1UECgwEcGtnNTEMMAoGA1UECwwDdGE2MRIwEAYDVQQDDAlsb2NhbGhv
c3QxEjAQBgkqhkiG9w0BCQEWA3RhNjAeFw0xOTAxMjIxNTMzMTVaFw0yMTEwMTgx
NTMzMTVaMH0xCzAJBgNVBAYTAlVTMRMwEQYDVQQIDApDYWxpZm9ybmlhMRQwEgYD
VQQHDAtTYW50YSBDbGFyYTENMAsGA1UECgwEcGtnNTEMMAoGA1UECwwDdGE2MRIw
EAYDVQQDDAlsb2NhbGhvc3QxEjAQBgkqhkiG9w0BCQEWA3RhNjCCASIwDQYJKoZI
hvcNAQEBBQADggEPADCCAQoCggEBALjp16WdQryi+OHNEqE2Fz2dG/qI+0UaUDKo
ezY/+FlGVyJyrVd/hOhxMKm6uPvqQuB2xCvcYTQEQR0ee+4bvLxSkwZF7/x+f+Qm
LSocQ4EZKwvyIK/GTUnAq3QunQwrYPrKpgw/lUyeX1j7iqBy6y5nryAbSDYdrdXQ
jD30tUHBmigycngu/cGcif7LG7NbKX9surtYrpCDeJ4Qbfl4oOkb09hLjCapA7iC
wirZm6YpxQYbEfM1b0RSYfx4oR82OIH8Sm8K9A9CCFym1RjGqLvf5BkqCfSK+7kg
PK3vj92q7uUb10cularYucGOB/Cq9C9RU15jWO2xYzHeGFK/hBUCAwEAAaNQME4w
HQYDVR0OBBYEFPPnsKWz9qDiatK1HQFUKVL8LZ/DMB8GA1UdIwQYMBaAFPPnsKWz
9qDiatK1HQFUKVL8LZ/DMAwGA1UdEwQFMAMBAf8wDQYJKoZIhvcNAQELBQADggEB
AGwzBQqwiHcm5NqlNl7phkD7zCXq497wcg3mL3RFEXBrJ4dwqQqVafWMCUtDBPNM
x1fc1Q2OJscCY3vFxfOqe/OLHAgUqFB1YDcwaDhNG+Db2jpgoktOmTokxU5HkukE
0GBO6VeZk4qv/U9sdpR4p187RcRMkIi3XRadZ2t2BowMBxf1spksHvC0LWuR0+ND
q5aSqK629i0nJl4eOrleqF4muwr3XVSeKGBbcBvhau1/YbBYqo8uwYZXN+MSb8oa
tpfN6PgKM9b68Tw7HKHru1Z2sMJSWXMkQWX0XkYM4zHw62TNcO3bP+LtMxmVoqv0
uorHontMW8BBqYQ15pHnbBs=
-----END CERTIFICATE-----
Certificate:
    Data:
        Version: 3 (0x2)
        Serial Number:
            9e:f4:ee:a9:f5:21:3a:00
    Signature Algorithm: sha256WithRSAEncryption
        Issuer: C=US, ST=California, L=Santa Clara, O=pkg5, OU=ta8, CN=localhost/emailAddress=ta8
        Validity
            Not Before: Jan 22 15:33:16 2019 GMT
            Not After : Oct 18 15:33:16 2021 GMT
        Subject: C=US, ST=California, L=Santa Clara, O=pkg5, OU=ta8, CN=localhost/emailAddress=ta8
        Subject Public Key Info:
            Public Key Algorithm: rsaEncryption
                Public-Key: (2048 bit)
                Modulus:
                    00:d7:99:d4:ed:96:0f:3d:a3:97:24:e3:6b:86:01:
                    f9:4d:0b:a3:10:91:a8:de:f2:38:38:64:2b:53:70:
                    1e:70:a8:0d:2a:1b:33:e6:7c:3d:5e:e4:f4:2f:21:
                    7c:41:d4:0e:25:75:d9:90:cc:8e:b5:11:63:1a:9c:
                    f3:d0:49:99:35:3a:c9:89:18:50:28:24:9a:49:c2:
                    5b:ea:45:73:81:eb:bc:be:74:9f:03:74:f6:fd:2e:
                    77:99:ef:51:ca:06:4c:43:78:1a:b2:08:f7:9b:c4:
                    44:64:87:58:12:32:c2:6d:9d:27:38:78:e1:5f:2c:
                    96:76:82:b3:64:c2:71:24:50:03:cd:7b:73:db:65:
                    07:70:79:39:0e:4e:a8:79:66:7a:0b:b0:1e:ec:13:
                    dd:5f:f8:f5:8a:6c:47:81:fd:70:4c:e8:ef:9a:bb:
                    2e:e4:ec:1a:ce:db:06:2f:c1:80:8e:38:64:8d:1d:
                    ef:a3:ca:8c:07:45:86:dd:59:89:e3:f9:f4:de:10:
                    a6:32:ac:a4:27:66:27:20:5c:58:6e:b7:27:1d:28:
                    eb:45:a2:b8:d3:9d:01:d1:f8:9e:f0:5e:40:b3:63:
                    d1:e4:c9:08:d3:29:35:10:7b:10:e6:f8:80:f8:80:
                    e9:de:34:2c:4f:b4:e3:e4:29:6f:24:69:28:9b:11:
                    e3:f5
                Exponent: 65537 (0x10001)
        X509v3 extensions:
            X509v3 Subject Key Identifier: 
                EA:98:F5:B8:6B:EC:CA:53:13:61:F3:F7:C0:5F:1C:00:A0:02:05:12
            X509v3 Authority Key Identifier: 
                keyid:EA:98:F5:B8:6B:EC:CA:53:13:61:F3:F7:C0:5F:1C:00:A0:02:05:12

            X509v3 Basic Constraints: 
                CA:TRUE
    Signature Algorithm: sha256WithRSAEncryption
         86:a8:4f:e7:3c:54:75:94:49:f0:40:47:57:d9:10:dc:31:04:
         aa:3e:79:11:dc:c5:3f:3c:05:23:60:00:42:45:7b:6e:28:c3:
         09:48:03:ba:82:de:73:9e:e7:98:2d:c6:67:2c:45:ca:cf:dc:
         cc:4f:ad:a2:79:e7:5e:a8:5f:2e:cb:2c:4c:31:5b:21:2b:ab:
         17:09:5b:1e:75:73:24:a8:86:58:01:8c:9f:41:92:0d:bd:03:
         05:47:a1:60:2c:01:f0:15:5f:46:27:f9:bd:93:66:7f:d1:65:
         c3:91:0a:f5:28:3b:cb:72:9a:e5:05:1b:10:95:dc:86:c9:c5:
         e4:e9:25:85:fe:e0:c4:d1:ab:7e:f4:21:f9:8a:17:d9:49:4e:
         e5:11:f3:80:2f:27:e0:eb:f3:92:7d:8d:83:c9:1d:09:bd:e9:
         d2:4a:a6:ce:55:eb:ba:6b:df:81:9f:a4:87:d9:ab:9a:13:c8:
         24:cd:d7:19:86:10:aa:6e:bc:aa:9e:a3:f8:6c:bc:02:b0:5a:
         0d:17:88:65:ff:c9:92:fb:4a:d6:fe:bd:df:c7:bc:03:4a:4a:
         9b:64:bb:25:08:cd:35:f3:15:1e:7a:f8:67:68:c7:57:1d:87:
         93:56:83:a7:53:05:dd:42:f7:99:c3:19:f1:f8:10:0c:df:61:
         0a:dc:f7:db
-----BEGIN CERTIFICATE-----
MIIDzTCCArWgAwIBAgIJAJ707qn1IToAMA0GCSqGSIb3DQEBCwUAMH0xCzAJBgNV
BAYTAlVTMRMwEQYDVQQIDApDYWxpZm9ybmlhMRQwEgYDVQQHDAtTYW50YSBDbGFy
YTENMAsGA1UECgwEcGtnNTEMMAoGA1UECwwDdGE4MRIwEAYDVQQDDAlsb2NhbGhv
c3QxEjAQBgkqhkiG9w0BCQEWA3RhODAeFw0xOTAxMjIxNTMzMTZaFw0yMTEwMTgx
NTMzMTZaMH0xCzAJBgNVBAYTAlVTMRMwEQYDVQQIDApDYWxpZm9ybmlhMRQwEgYD
VQQHDAtTYW50YSBDbGFyYTENMAsGA1UECgwEcGtnNTEMMAoGA1UECwwDdGE4MRIw
EAYDVQQDDAlsb2NhbGhvc3QxEjAQBgkqhkiG9w0BCQEWA3RhODCCASIwDQYJKoZI
hvcNAQEBBQADggEPADCCAQoCggEBANeZ1O2WDz2jlyTja4YB+U0LoxCRqN7yODhk
K1NwHnCoDSobM+Z8PV7k9C8hfEHUDiV12ZDMjrURYxqc89BJmTU6yYkYUCgkmknC
W+pFc4HrvL50nwN09v0ud5nvUcoGTEN4GrII95vERGSHWBIywm2dJzh44V8slnaC
s2TCcSRQA817c9tlB3B5OQ5OqHlmeguwHuwT3V/49YpsR4H9cEzo75q7LuTsGs7b
Bi/BgI44ZI0d76PKjAdFht1ZieP59N4QpjKspCdmJyBcWG63Jx0o60WiuNOdAdH4
nvBeQLNj0eTJCNMpNRB7EOb4gPiA6d40LE+04+QpbyRpKJsR4/UCAwEAAaNQME4w
HQYDVR0OBBYEFOqY9bhr7MpTE2Hz98BfHACgAgUSMB8GA1UdIwQYMBaAFOqY9bhr
7MpTE2Hz98BfHACgAgUSMAwGA1UdEwQFMAMBAf8wDQYJKoZIhvcNAQELBQADggEB
AIaoT+c8VHWUSfBAR1fZENwxBKo+eRHcxT88BSNgAEJFe24owwlIA7qC3nOe55gt
xmcsRcrP3MxPraJ5516oXy7LLEwxWyErqxcJWx51cySohlgBjJ9Bkg29AwVHoWAs
AfAVX0Yn+b2TZn/RZcORCvUoO8tymuUFGxCV3IbJxeTpJYX+4MTRq370IfmKF9lJ
TuUR84AvJ+Dr85J9jYPJHQm96dJKps5V67pr34GfpIfZq5oTyCTN1xmGEKpuvKqe
o/hsvAKwWg0XiGX/yZL7Stb+vd/HvANKSptkuyUIzTXzFR56+Gdox1cdh5NWg6dT
Bd1C95nDGfH4EAzfYQrc99s=
-----END CERTIFICATE-----
Certificate:
    Data:
        Version: 3 (0x2)
        Serial Number:
            fe:9c:0f:ac:2f:77:2a:4d
    Signature Algorithm: sha256WithRSAEncryption
        Issuer: C=US, ST=California, L=Santa Clara, O=pkg5, OU=ta9, CN=localhost/emailAddress=ta9
        Validity
            Not Before: Jan 22 15:33:16 2019 GMT
            Not After : Oct 18 15:33:16 2021 GMT
        Subject: C=US, ST=California, L=Santa Clara, O=pkg5, OU=ta9, CN=localhost/emailAddress=ta9
        Subject Public Key Info:
            Public Key Algorithm: rsaEncryption
                Public-Key: (2048 bit)
                Modulus:
                    00:cb:52:a2:d6:7a:98:df:57:eb:06:7f:dd:ba:0c:
                    d2:d3:b1:0d:56:f2:36:8e:e6:5a:89:81:56:d4:2b:
                    70:4b:b9:3a:57:4d:5a:b8:fe:8f:f2:e8:1e:da:ab:
                    19:6a:bb:c4:7d:59:56:60:60:b9:c5:13:30:c3:f4:
                    95:62:c4:84:54:94:91:a9:ae:f2:11:d7:92:fe:80:
                    85:fc:a9:b2:83:5b:6b:23:82:f9:66:04:84:7f:59:
                    13:b1:84:8d:43:e2:a0:53:8e:7f:9b:fd:1d:76:9b:
                    e1:ab:34:eb:df:aa:b1:00:10:89:d1:32:e5:ae:39:
                    ec:3b:22:b1:3d:8b:ca:1d:5e:18:13:c6:95:7d:0d:
                    11:57:cf:88:3d:aa:a3:ba:86:b5:f0:bc:62:e5:85:
                    1e:9a:ff:47:6a:76:5d:d6:ae:ca:e3:6d:34:4a:31:
                    56:70:33:e7:07:db:23:68:23:f3:27:33:aa:a7:b2:
                    c9:22:5f:e7:21:ad:0f:02:46:e7:5f:33:e2:a3:22:
                    7a:3d:c2:e7:16:8d:71:39:90:91:80:8d:c8:5a:53:
                    9f:92:2c:5f:f6:5d:0f:e1:4f:54:97:97:95:d3:1a:
                    c4:5a:7e:ef:cd:22:35:81:69:5d:21:10:f5:d1:45:
                    61:17:d8:2c:cc:51:3d:f1:7c:46:65:af:e4:f1:2b:
                    ec:53
                Exponent: 65537 (0x10001)
        X509v3 extensions:
            X509v3 Subject Key Identifier: 
                32:17:65:DA:07:35:5E:ED:C4:7F:EC:2B:57:7C:06:74:95:FA:3C:F0
            X509v3 Authority Key Identifier: 
                keyid:32:17:65:DA:07:35:5E:ED:C4:7F:EC:2B:57:7C:06:74:95:FA:3C:F0

            X509v3 Basic Constraints: 
                CA:TRUE
    Signature Algorithm: sha256WithRSAEncryption
         4d:a4:6c:40:a0:65:ae:6a:f9:af:cb:fd:25:75:e9:ed:ee:6e:
         fc:63:44:c9:cc:a8:64:ce:8e:20:4c:9f:60:2b:8b:8b:a1:f4:
         1c:ad:1e:a1:23:92:89:d4:28:10:19:2c:ed:c9:00:2b:cd:bc:
         7c:b2:44:f7:85:da:94:42:90:d6:10:16:f2:99:98:b3:e1:e0:
         bf:21:60:79:7f:fe:de:69:06:e2:db:97:95:27:2c:25:0d:17:
         2b:f9:40:81:8b:cb:8f:6f:b2:90:66:fb:f5:39:9b:6c:a5:43:
         3d:8f:b1:50:3a:07:8f:3d:2a:23:0e:d3:08:d7:b7:79:f4:22:
         c7:bd:1e:95:73:b4:46:6f:89:34:53:73:03:2d:02:94:26:55:
         40:a1:24:d0:fb:5c:55:3d:79:20:cc:c0:24:0e:d3:40:fb:88:
         57:1b:9f:fc:4c:42:45:5c:0b:33:a1:82:f3:2b:27:cb:ee:79:
         ec:80:95:ee:4d:c5:0a:a3:e0:a5:21:17:ca:8f:24:41:e5:c1:
         2f:e5:3f:c8:69:72:f2:a1:0f:8d:a6:2a:17:59:4f:de:32:7e:
         cc:a3:b8:49:f7:f6:91:bb:84:9c:3b:82:5a:02:0c:15:ad:ca:
         9c:b4:f2:f2:20:6d:b0:8f:79:c2:0a:a4:ca:87:47:20:97:66:
         9f:df:1d:6a
-----BEGIN CERTIFICATE-----
MIIDzTCCArWgAwIBAgIJAP6cD6wvdypNMA0GCSqGSIb3DQEBCwUAMH0xCzAJBgNV
BAYTAlVTMRMwEQYDVQQIDApDYWxpZm9ybmlhMRQwEgYDVQQHDAtTYW50YSBDbGFy
YTENMAsGA1UECgwEcGtnNTEMMAoGA1UECwwDdGE5MRIwEAYDVQQDDAlsb2NhbGhv
c3QxEjAQBgkqhkiG9w0BCQEWA3RhOTAeFw0xOTAxMjIxNTMzMTZaFw0yMTEwMTgx
NTMzMTZaMH0xCzAJBgNVBAYTAlVTMRMwEQYDVQQIDApDYWxpZm9ybmlhMRQwEgYD
VQQHDAtTYW50YSBDbGFyYTENMAsGA1UECgwEcGtnNTEMMAoGA1UECwwDdGE5MRIw
EAYDVQQDDAlsb2NhbGhvc3QxEjAQBgkqhkiG9w0BCQEWA3RhOTCCASIwDQYJKoZI
hvcNAQEBBQADggEPADCCAQoCggEBAMtSotZ6mN9X6wZ/3boM0tOxDVbyNo7mWomB
VtQrcEu5OldNWrj+j/LoHtqrGWq7xH1ZVmBgucUTMMP0lWLEhFSUkamu8hHXkv6A
hfypsoNbayOC+WYEhH9ZE7GEjUPioFOOf5v9HXab4as069+qsQAQidEy5a457Dsi
sT2Lyh1eGBPGlX0NEVfPiD2qo7qGtfC8YuWFHpr/R2p2XdauyuNtNEoxVnAz5wfb
I2gj8yczqqeyySJf5yGtDwJG518z4qMiej3C5xaNcTmQkYCNyFpTn5IsX/ZdD+FP
VJeXldMaxFp+780iNYFpXSEQ9dFFYRfYLMxRPfF8RmWv5PEr7FMCAwEAAaNQME4w
HQYDVR0OBBYEFDIXZdoHNV7txH/sK1d8BnSV+jzwMB8GA1UdIwQYMBaAFDIXZdoH
NV7txH/sK1d8BnSV+jzwMAwGA1UdEwQFMAMBAf8wDQYJKoZIhvcNAQELBQADggEB
AE2kbECgZa5q+a/L/SV16e3ubvxjRMnMqGTOjiBMn2Ari4uh9BytHqEjkonUKBAZ
LO3JACvNvHyyRPeF2pRCkNYQFvKZmLPh4L8hYHl//t5pBuLbl5UnLCUNFyv5QIGL
y49vspBm+/U5m2ylQz2PsVA6B489KiMO0wjXt3n0Ise9HpVztEZviTRTcwMtApQm
VUChJND7XFU9eSDMwCQO00D7iFcbn/xMQkVcCzOhgvMrJ8vueeyAle5NxQqj4KUh
F8qPJEHlwS/lP8hpcvKhD42mKhdZT94yfsyjuEn39pG7hJw7gloCDBWtypy08vIg
bbCPecIKpMqHRyCXZp/fHWo=
-----END CERTIFICATE-----
Certificate:
    Data:
        Version: 3 (0x2)
        Serial Number:
            8c:19:1f:7f:98:e4:fa:36
    Signature Algorithm: sha256WithRSAEncryption
        Issuer: C=US, ST=California, L=Santa Clara, O=pkg5, OU=ta10, CN=localhost/emailAddress=ta10
        Validity
            Not Before: Jan 22 15:33:17 2019 GMT
            Not After : Oct 18 15:33:17 2021 GMT
        Subject: C=US, ST=California, L=Santa Clara, O=pkg5, OU=ta10, CN=localhost/emailAddress=ta10
        Subject Public Key Info:
            Public Key Algorithm: rsaEncryption
                Public-Key: (2048 bit)
                Modulus:
                    00:b7:9b:9b:5a:c8:22:3d:ca:48:2b:97:53:df:a6:
                    dd:c0:c5:ad:c8:f5:95:08:44:50:a9:86:eb:a0:47:
                    b5:21:42:cb:2c:e3:d9:bf:4f:df:08:43:99:3c:58:
                    7a:eb:40:02:26:d9:2d:b3:1e:3d:37:c7:35:fc:45:
                    18:29:d7:37:e1:1b:87:3e:db:5d:c4:51:e6:a1:81:
                    c9:9b:3e:4c:bc:b8:fe:60:d1:05:f1:25:29:da:04:
                    f6:a5:aa:17:64:7d:21:a8:73:27:bb:f5:63:bc:28:
                    e4:aa:69:98:c7:e6:b7:ca:3d:e4:d1:90:87:0b:fb:
                    a6:67:66:db:65:e8:a3:97:2e:ce:c8:52:88:55:1d:
                    ff:04:57:42:93:39:c6:fa:40:a3:b7:60:8f:dd:7b:
                    d2:98:0e:b5:a6:d8:85:8b:9c:2b:ff:b6:d0:51:fa:
                    90:fc:74:be:2e:e0:83:50:19:a0:4c:f6:8d:03:82:
                    a2:28:08:57:18:7e:c2:59:16:d6:c6:eb:be:62:64:
                    dd:e5:07:14:24:54:9e:a0:51:f4:ff:f9:7b:eb:3f:
                    98:4d:bd:d1:e5:1a:9c:2b:76:b6:7c:70:22:04:27:
                    f4:2d:20:9b:5c:a6:66:6c:bb:b1:6d:64:ec:f8:63:
                    21:fe:c0:2a:b5:a3:ba:92:0e:6e:62:93:5c:0a:ca:
                    9b:85
                Exponent: 65537 (0x10001)
        X509v3 extensions:
            X509v3 Subject Key Identifier: 
                2A:FF:68:DC:8C:AC:36:46:BD:C8:B6:51:45:8E:26:BA:71:DE:BF:9C
            X509v3 Authority Key Identifier: 
                keyid:2A:FF:68:DC:8C:AC:36:46:BD:C8:B6:51:45:8E:26:BA:71:DE:BF:9C

            X509v3 Basic Constraints: 
                CA:TRUE
    Signature Algorithm: sha256WithRSAEncryption
         36:05:2e:5c:39:6e:5a:39:26:b1:9c:37:fe:a6:1c:90:ac:fd:
         e2:4d:87:c0:4f:4a:b2:60:59:c5:6d:c0:41:d4:13:1e:7b:e0:
         e8:65:f9:67:29:72:f7:83:f5:f5:73:50:5d:3e:9f:4b:4c:90:
         7b:80:34:a0:1e:55:01:6a:cf:52:91:db:24:61:d1:47:4a:34:
         bc:9b:84:25:25:6d:7e:97:1a:1c:d6:fb:f9:46:ba:03:8a:8f:
         dc:c0:3b:ba:ec:34:ac:55:e8:07:03:ea:bd:0c:52:77:27:4c:
         5a:14:44:e7:f9:5f:a5:16:2f:44:07:a1:15:a9:aa:b6:a7:bd:
         06:dd:76:fb:03:c0:49:28:df:bb:c5:01:a9:a3:0f:32:68:e2:
         d4:45:d4:85:e7:fe:df:8b:78:30:3c:36:79:8f:77:c3:8f:35:
         f5:cb:c1:37:93:b3:1e:a7:db:08:38:1e:7b:ad:b5:66:45:13:
         19:a8:48:50:15:f9:e3:3c:10:9b:9e:3a:95:6d:e4:52:21:21:
         ba:fe:30:49:86:a3:33:22:2f:54:c7:4e:fb:cc:af:e7:5d:b8:
         b9:d8:40:98:9f:64:10:f6:fa:93:71:97:33:aa:99:f7:ff:69:
         3c:ba:a8:b2:28:c5:5b:18:3f:70:3a:7c:f1:39:be:13:6d:93:
         8b:bf:5c:d1
-----BEGIN CERTIFICATE-----
MIID0TCCArmgAwIBAgIJAIwZH3+Y5Po2MA0GCSqGSIb3DQEBCwUAMH8xCzAJBgNV
BAYTAlVTMRMwEQYDVQQIDApDYWxpZm9ybmlhMRQwEgYDVQQHDAtTYW50YSBDbGFy
YTENMAsGA1UECgwEcGtnNTENMAsGA1UECwwEdGExMDESMBAGA1UEAwwJbG9jYWxo
b3N0MRMwEQYJKoZIhvcNAQkBFgR0YTEwMB4XDTE5MDEyMjE1MzMxN1oXDTIxMTAx
ODE1MzMxN1owfzELMAkGA1UEBhMCVVMxEzARBgNVBAgMCkNhbGlmb3JuaWExFDAS
BgNVBAcMC1NhbnRhIENsYXJhMQ0wCwYDVQQKDARwa2c1MQ0wCwYDVQQLDAR0YTEw
MRIwEAYDVQQDDAlsb2NhbGhvc3QxEzARBgkqhkiG9w0BCQEWBHRhMTAwggEiMA0G
CSqGSIb3DQEBAQUAA4IBDwAwggEKAoIBAQC3m5tayCI9ykgrl1Pfpt3Axa3I9ZUI
RFCphuugR7UhQsss49m/T98IQ5k8WHrrQAIm2S2zHj03xzX8RRgp1zfhG4c+213E
UeahgcmbPky8uP5g0QXxJSnaBPalqhdkfSGocye79WO8KOSqaZjH5rfKPeTRkIcL
+6ZnZttl6KOXLs7IUohVHf8EV0KTOcb6QKO3YI/de9KYDrWm2IWLnCv/ttBR+pD8
dL4u4INQGaBM9o0DgqIoCFcYfsJZFtbG675iZN3lBxQkVJ6gUfT/+XvrP5hNvdHl
GpwrdrZ8cCIEJ/QtIJtcpmZsu7FtZOz4YyH+wCq1o7qSDm5ik1wKypuFAgMBAAGj
UDBOMB0GA1UdDgQWBBQq/2jcjKw2Rr3ItlFFjia6cd6/nDAfBgNVHSMEGDAWgBQq
/2jcjKw2Rr3ItlFFjia6cd6/nDAMBgNVHRMEBTADAQH/MA0GCSqGSIb3DQEBCwUA
A4IBAQA2BS5cOW5aOSaxnDf+phyQrP3iTYfAT0qyYFnFbcBB1BMee+DoZflnKXL3
g/X1c1BdPp9LTJB7gDSgHlUBas9SkdskYdFHSjS8m4QlJW1+lxoc1vv5RroDio/c
wDu67DSsVegHA+q9DFJ3J0xaFETn+V+lFi9EB6EVqaq2p70G3Xb7A8BJKN+7xQGp
ow8yaOLURdSF5/7fi3gwPDZ5j3fDjzX1y8E3k7Mep9sIOB57rbVmRRMZqEhQFfnj
PBCbnjqVbeRSISG6/jBJhqMzIi9Ux077zK/nXbi52ECYn2QQ9vqTcZczqpn3/2k8
uqiyKMVbGD9wOnzxOb4TbZOLv1zR
-----END CERTIFICATE-----
Certificate:
    Data:
        Version: 3 (0x2)
        Serial Number:
            cd:01:a8:69:e8:cf:ec:14
    Signature Algorithm: sha256WithRSAEncryption
        Issuer: C=US, ST=California, L=Santa Clara, O=pkg5, OU=ta11, CN=localhost/emailAddress=ta11
        Validity
            Not Before: Jan 22 15:33:17 2019 GMT
            Not After : Oct 18 15:33:17 2021 GMT
        Subject: C=US, ST=California, L=Santa Clara, O=pkg5, OU=ta11, CN=localhost/emailAddress=ta11
        Subject Public Key Info:
            Public Key Algorithm: rsaEncryption
                Public-Key: (2048 bit)
                Modulus:
                    00:c3:9c:af:75:00:97:10:f8:74:71:fd:43:c6:ad:
                    17:db:84:0f:67:41:a8:d0:55:2e:96:06:f7:0f:2d:
                    90:c3:2d:52:77:16:0f:4a:94:ae:5f:62:c1:ff:fa:
                    e0:58:2d:b5:e9:2a:5e:a8:40:e8:0f:b5:0e:b5:bf:
                    de:e4:64:a3:63:c1:88:5e:d3:07:70:f6:62:0d:33:
                    fb:38:cc:34:0b:27:14:dd:ac:81:13:7e:2a:99:08:
                    ae:d7:f7:ee:37:d5:46:3e:7b:a6:e5:5b:c6:63:f8:
                    a6:ee:89:12:7c:6e:55:9c:55:7a:05:79:62:1c:76:
                    69:3a:c0:62:98:c3:2e:49:cb:57:34:10:9f:f0:7d:
                    87:ce:85:4f:b7:b3:63:a6:4c:c0:9b:56:f5:15:e6:
                    62:66:b7:e9:0c:d6:d3:65:a2:cd:0d:aa:f6:3a:a1:
                    ec:0b:d4:38:3f:44:6f:eb:50:7d:45:ab:2b:d4:1e:
                    17:15:a6:0e:ad:b5:36:9a:a0:b4:14:ce:0a:73:e7:
                    94:ca:b4:2a:64:14:cc:76:ac:53:a0:86:57:22:c0:
                    a9:3b:2e:73:e9:89:f3:92:6e:29:e0:59:7a:80:8b:
                    c7:c4:9b:be:77:ad:d8:1a:a0:ce:b6:8a:ff:43:fb:
                    42:50:04:7b:ba:0c:b7:95:68:5f:ae:67:0e:74:af:
                    dd:f1
                Exponent: 65537 (0x10001)
        X509v3 extensions:
            X509v3 Subject Key Identifier: 
                BD:E8:3F:11:B1:D5:AC:2D:73:AF:E6:41:B0:7A:3E:AD:16:03:41:58
            X509v3 Authority Key Identifier: 
                keyid:BD:E8:3F:11:B1:D5:AC:2D:73:AF:E6:41:B0:7A:3E:AD:16:03:41:58

            X509v3 Basic Constraints: 
                CA:TRUE
    Signature Algorithm: sha256WithRSAEncryption
         0f:8f:09:0a:91:f8:cb:26:6a:62:f9:5d:6d:f5:6d:f0:8e:e3:
         4f:ed:da:c6:64:e4:cc:0f:56:b2:e6:d2:5a:33:09:4b:a1:5c:
         12:22:0c:ee:0f:91:c1:3f:c3:68:6f:f3:51:cc:9a:4b:e7:a7:
         e8:46:a8:a1:b5:9e:e2:5f:62:62:76:d7:d7:5f:f5:5a:ae:66:
         c1:9b:bb:7f:43:17:28:00:c1:03:75:b3:87:20:d1:c1:f4:83:
         77:07:9d:88:64:c6:9e:29:6d:d0:24:fb:16:80:fc:bc:d9:46:
         4c:03:7d:ad:fe:41:0f:b7:3b:de:4e:6d:6c:13:19:f0:4b:14:
         3c:e8:3b:52:25:fd:63:6c:cb:f3:d0:03:04:87:90:0a:de:f9:
         55:c9:8e:9e:17:f3:2f:72:18:95:cd:a3:57:bd:0e:60:a0:28:
         1a:2d:3b:09:a5:8f:8e:c9:4d:df:9c:27:2c:1b:15:f1:57:84:
         47:21:c1:35:38:87:03:55:5a:db:ad:7e:00:8e:03:2e:59:5c:
         e4:eb:71:9a:1d:4a:dc:e4:52:4e:57:9f:24:c3:78:e1:95:73:
         2e:66:2a:22:46:97:8e:d0:08:f8:5e:10:c9:58:be:73:a8:59:
         d1:bb:c6:60:d2:40:94:5c:b4:0a:94:39:3e:5c:44:f9:f3:88:
         36:6d:6a:b1
-----BEGIN CERTIFICATE-----
MIID0TCCArmgAwIBAgIJAM0BqGnoz+wUMA0GCSqGSIb3DQEBCwUAMH8xCzAJBgNV
BAYTAlVTMRMwEQYDVQQIDApDYWxpZm9ybmlhMRQwEgYDVQQHDAtTYW50YSBDbGFy
YTENMAsGA1UECgwEcGtnNTENMAsGA1UECwwEdGExMTESMBAGA1UEAwwJbG9jYWxo
b3N0MRMwEQYJKoZIhvcNAQkBFgR0YTExMB4XDTE5MDEyMjE1MzMxN1oXDTIxMTAx
ODE1MzMxN1owfzELMAkGA1UEBhMCVVMxEzARBgNVBAgMCkNhbGlmb3JuaWExFDAS
BgNVBAcMC1NhbnRhIENsYXJhMQ0wCwYDVQQKDARwa2c1MQ0wCwYDVQQLDAR0YTEx
MRIwEAYDVQQDDAlsb2NhbGhvc3QxEzARBgkqhkiG9w0BCQEWBHRhMTEwggEiMA0G
CSqGSIb3DQEBAQUAA4IBDwAwggEKAoIBAQDDnK91AJcQ+HRx/UPGrRfbhA9nQajQ
VS6WBvcPLZDDLVJ3Fg9KlK5fYsH/+uBYLbXpKl6oQOgPtQ61v97kZKNjwYhe0wdw
9mINM/s4zDQLJxTdrIETfiqZCK7X9+431UY+e6blW8Zj+KbuiRJ8blWcVXoFeWIc
dmk6wGKYwy5Jy1c0EJ/wfYfOhU+3s2OmTMCbVvUV5mJmt+kM1tNlos0NqvY6oewL
1Dg/RG/rUH1FqyvUHhcVpg6ttTaaoLQUzgpz55TKtCpkFMx2rFOghlciwKk7LnPp
ifOSbingWXqAi8fEm753rdgaoM62iv9D+0JQBHu6DLeVaF+uZw50r93xAgMBAAGj
UDBOMB0GA1UdDgQWBBS96D8RsdWsLXOv5kGwej6tFgNBWDAfBgNVHSMEGDAWgBS9
6D8RsdWsLXOv5kGwej6tFgNBWDAMBgNVHRMEBTADAQH/MA0GCSqGSIb3DQEBCwUA
A4IBAQAPjwkKkfjLJmpi+V1t9W3wjuNP7drGZOTMD1ay5tJaMwlLoVwSIgzuD5HB
P8Nob/NRzJpL56foRqihtZ7iX2JidtfXX/VarmbBm7t/QxcoAMEDdbOHINHB9IN3
B52IZMaeKW3QJPsWgPy82UZMA32t/kEPtzveTm1sExnwSxQ86DtSJf1jbMvz0AME
h5AK3vlVyY6eF/MvchiVzaNXvQ5goCgaLTsJpY+OyU3fnCcsGxXxV4RHIcE1OIcD
VVrbrX4AjgMuWVzk63GaHUrc5FJOV58kw3jhlXMuZioiRpeO0Aj4XhDJWL5zqFnR
u8Zg0kCUXLQKlDk+XET584g2bWqx
-----END CERTIFICATE-----
