Certificate:
    Data:
        Version: 3 (0x2)
        Serial Number:
            d1:b0:ba:4f:8b:62:ad:04
    Signature Algorithm: sha256WithRSAEncryption
        Issuer: C=US, ST=California, L=Santa Clara, O=pkg5, OU=ta6, CN=localhost/emailAddress=ta6
        Validity
            Not Before: Jul 19 11:35:51 2023 GMT
            Not After : Apr 14 11:35:51 2026 GMT
        Subject: C=US, ST=California, L=Santa Clara, O=pkg5, OU=ta6, CN=localhost/emailAddress=ta6
        Subject Public Key Info:
            Public Key Algorithm: rsaEncryption
                Public-Key: (2048 bit)
                Modulus:
                    00:ea:35:70:4a:e2:b2:bc:1d:bb:ee:02:74:8c:2a:
                    e6:18:bf:56:c9:b5:48:19:20:81:4c:79:72:2f:e5:
                    35:53:a2:60:b5:a9:a0:5c:cf:44:a2:f6:92:64:c2:
                    e1:c4:94:d6:fb:a7:43:63:5b:0e:c2:cc:f3:01:61:
                    20:14:ca:ea:9f:a1:26:0e:48:de:94:2d:06:27:f9:
                    50:15:bc:8d:db:c3:be:9e:15:e0:16:0a:14:ab:78:
                    e8:d2:a2:11:45:05:5b:ec:35:74:f6:29:f3:64:88:
                    64:6a:fd:1c:71:45:84:6e:6f:ab:24:87:99:4d:ec:
                    6d:f0:76:cc:7b:37:60:76:eb:02:dc:94:ef:4b:e3:
                    3b:cf:ee:14:0d:4a:1e:6d:b0:1c:3b:ab:0f:5a:1d:
                    ac:5c:b5:7c:e9:04:14:e8:fd:c2:07:9b:eb:d7:dd:
                    f5:4c:1f:bc:78:cb:a8:f5:62:e8:e0:a3:60:1f:c4:
                    78:74:f8:cc:75:46:0a:33:7d:9f:68:ec:f5:9c:c3:
                    c9:2d:f7:2e:46:d9:c6:14:22:84:89:ea:8b:33:a9:
                    6a:41:39:5f:c4:9c:4f:c2:fe:33:f5:a1:65:f1:d0:
                    68:d7:24:d5:9f:39:e6:93:05:e6:01:c4:fd:5e:82:
                    f9:b4:d6:93:5a:a6:bf:5a:3a:c8:e3:6b:f4:4d:ad:
                    e0:19
                Exponent: 65537 (0x10001)
        X509v3 extensions:
            X509v3 Subject Key Identifier: 
                B1:66:86:C1:32:0D:3B:5E:22:51:97:AE:5D:0E:47:81:85:B1:6D:D1
            X509v3 Authority Key Identifier: 
                keyid:B1:66:86:C1:32:0D:3B:5E:22:51:97:AE:5D:0E:47:81:85:B1:6D:D1

            X509v3 Basic Constraints: 
                CA:TRUE
    Signature Algorithm: sha256WithRSAEncryption
         df:84:44:30:10:80:c4:53:0d:1c:5c:d3:8d:b5:a4:40:01:38:
         3b:cc:dd:ad:28:08:74:79:49:69:bd:2f:f5:e4:9d:37:6e:e7:
         af:94:c5:d8:92:5d:af:d7:ac:78:19:84:ce:ef:20:a6:dd:ad:
         56:58:f0:74:86:a9:7d:43:99:1d:19:6c:94:bf:34:0d:65:f2:
         1d:c4:d0:fc:b7:ef:b4:45:88:d4:99:5f:85:78:11:10:06:df:
         9d:3e:03:28:bb:55:b0:85:80:32:75:66:a8:b8:c0:90:6e:52:
         b7:e7:b4:15:c3:52:cc:c8:14:e1:a1:ff:3f:2a:39:e6:10:b1:
         f6:92:52:70:14:4a:12:76:70:56:7b:31:31:36:07:cd:6f:2a:
         cf:f7:3f:44:e4:76:7a:4b:c6:e6:12:9d:44:8b:f1:57:f5:4f:
         d8:55:e5:cf:60:59:dd:e9:0f:3f:5d:3b:41:71:e7:56:46:51:
         f1:c8:91:46:53:3f:37:36:91:7c:24:c4:98:9d:b7:97:7b:26:
         0a:66:70:21:ee:3e:9d:24:d1:96:b2:73:c1:e7:d0:8f:8c:6b:
         e6:52:d4:55:fc:8f:08:f5:87:2f:fe:c1:10:71:ec:8a:5e:e9:
         ec:48:46:e7:5b:b9:7c:31:07:34:eb:d3:48:ef:50:35:c0:48:
         ab:8a:2f:73
-----BEGIN CERTIFICATE-----
MIIDzTCCArWgAwIBAgIJANGwuk+LYq0EMA0GCSqGSIb3DQEBCwUAMH0xCzAJBgNV
BAYTAlVTMRMwEQYDVQQIDApDYWxpZm9ybmlhMRQwEgYDVQQHDAtTYW50YSBDbGFy
YTENMAsGA1UECgwEcGtnNTEMMAoGA1UECwwDdGE2MRIwEAYDVQQDDAlsb2NhbGhv
c3QxEjAQBgkqhkiG9w0BCQEWA3RhNjAeFw0yMzA3MTkxMTM1NTFaFw0yNjA0MTQx
MTM1NTFaMH0xCzAJBgNVBAYTAlVTMRMwEQYDVQQIDApDYWxpZm9ybmlhMRQwEgYD
VQQHDAtTYW50YSBDbGFyYTENMAsGA1UECgwEcGtnNTEMMAoGA1UECwwDdGE2MRIw
EAYDVQQDDAlsb2NhbGhvc3QxEjAQBgkqhkiG9w0BCQEWA3RhNjCCASIwDQYJKoZI
hvcNAQEBBQADggEPADCCAQoCggEBAOo1cErisrwdu+4CdIwq5hi/Vsm1SBkggUx5
ci/lNVOiYLWpoFzPRKL2kmTC4cSU1vunQ2NbDsLM8wFhIBTK6p+hJg5I3pQtBif5
UBW8jdvDvp4V4BYKFKt46NKiEUUFW+w1dPYp82SIZGr9HHFFhG5vqySHmU3sbfB2
zHs3YHbrAtyU70vjO8/uFA1KHm2wHDurD1odrFy1fOkEFOj9wgeb69fd9UwfvHjL
qPVi6OCjYB/EeHT4zHVGCjN9n2js9ZzDyS33LkbZxhQihInqizOpakE5X8ScT8L+
M/WhZfHQaNck1Z855pMF5gHE/V6C+bTWk1qmv1o6yONr9E2t4BkCAwEAAaNQME4w
HQYDVR0OBBYEFLFmhsEyDTteIlGXrl0OR4GFsW3RMB8GA1UdIwQYMBaAFLFmhsEy
DTteIlGXrl0OR4GFsW3RMAwGA1UdEwQFMAMBAf8wDQYJKoZIhvcNAQELBQADggEB
AN+ERDAQgMRTDRxc0421pEABODvM3a0oCHR5SWm9L/XknTdu56+UxdiSXa/XrHgZ
hM7vIKbdrVZY8HSGqX1DmR0ZbJS/NA1l8h3E0Py377RFiNSZX4V4ERAG350+Ayi7
VbCFgDJ1Zqi4wJBuUrfntBXDUszIFOGh/z8qOeYQsfaSUnAUShJ2cFZ7MTE2B81v
Ks/3P0TkdnpLxuYSnUSL8Vf1T9hV5c9gWd3pDz9dO0Fx51ZGUfHIkUZTPzc2kXwk
xJidt5d7JgpmcCHuPp0k0Zayc8Hn0I+Ma+ZS1FX8jwj1hy/+wRBx7Ipe6exIRudb
uXwxBzTr00jvUDXASKuKL3M=
-----END CERTIFICATE-----
Certificate:
    Data:
        Version: 3 (0x2)
        Serial Number:
            95:9f:b5:f6:0d:ba:26:c2
    Signature Algorithm: sha256WithRSAEncryption
        Issuer: C=US, ST=California, L=Santa Clara, O=pkg5, OU=ta8, CN=localhost/emailAddress=ta8
        Validity
            Not Before: Jul 19 11:35:52 2023 GMT
            Not After : Apr 14 11:35:52 2026 GMT
        Subject: C=US, ST=California, L=Santa Clara, O=pkg5, OU=ta8, CN=localhost/emailAddress=ta8
        Subject Public Key Info:
            Public Key Algorithm: rsaEncryption
                Public-Key: (2048 bit)
                Modulus:
                    00:b1:b9:7c:9d:1a:7e:93:cc:54:31:1f:61:16:94:
                    30:10:65:79:b4:a2:73:d8:40:44:f9:9f:1f:b8:92:
                    72:d2:ca:bf:61:0a:24:28:e0:83:36:5c:70:dd:ff:
                    bc:59:8b:9d:84:0f:29:75:b7:31:3c:dc:27:fd:13:
                    4a:15:06:7d:43:b9:4a:56:dd:de:03:af:b8:21:c1:
                    67:c4:f7:b6:c9:66:59:9c:f0:cd:1f:62:40:d1:bc:
                    56:87:37:cc:1f:35:23:27:5f:a0:c5:7b:d2:1f:a1:
                    f9:c5:94:28:0e:9b:09:5c:77:f3:0a:ba:e3:48:8f:
                    6f:89:0e:92:5e:35:32:8f:b4:86:56:3d:e4:c7:d0:
                    17:b8:14:a0:16:db:11:31:03:c7:aa:5d:7e:cb:c9:
                    d3:ab:d3:ea:05:69:62:3d:96:17:75:7d:dd:8e:7f:
                    08:d8:16:fa:98:8c:a8:87:d4:f7:59:3f:b9:b9:11:
                    13:a0:d7:0e:f2:9d:76:fc:f1:95:db:ac:28:b3:e5:
                    87:72:ba:c9:68:a0:6e:f0:41:0f:4b:58:c1:2a:86:
                    cd:75:1d:10:f6:5a:6c:6d:4a:9d:d2:bf:7c:be:1d:
                    ac:7f:92:7f:a7:95:6e:86:12:2c:e4:bc:60:71:e7:
                    bf:83:02:1f:20:b0:18:45:f4:d6:3b:49:88:1a:fc:
                    49:dd
                Exponent: 65537 (0x10001)
        X509v3 extensions:
            X509v3 Subject Key Identifier: 
                B8:A5:C6:6A:25:EC:29:C8:EE:B1:15:67:D7:40:DB:BC:50:24:84:3A
            X509v3 Authority Key Identifier: 
                keyid:B8:A5:C6:6A:25:EC:29:C8:EE:B1:15:67:D7:40:DB:BC:50:24:84:3A

            X509v3 Basic Constraints: 
                CA:TRUE
    Signature Algorithm: sha256WithRSAEncryption
         71:68:ae:57:21:75:b4:a3:e3:01:59:43:d8:71:18:65:18:fa:
         92:bb:ed:74:c5:cc:5e:06:61:b5:95:1b:ad:26:11:c5:ce:e3:
         d4:16:83:c8:db:7c:7c:08:cd:44:db:ef:50:d6:e4:71:6e:47:
         73:25:52:c0:17:fd:cf:cd:00:03:e5:ad:e2:09:87:c5:8b:f5:
         10:5b:f4:cf:d0:d1:67:48:f2:4e:5d:58:10:b1:4a:19:de:11:
         7a:4a:95:66:96:bd:9b:47:ef:08:60:45:2d:dc:83:80:42:d5:
         8e:0a:76:20:94:d5:c3:75:2e:6d:6f:89:e3:21:40:3a:d9:7d:
         7a:9c:0c:63:18:08:10:08:55:d6:cf:b1:d0:ba:de:08:f8:1f:
         04:71:f9:63:02:ab:03:62:83:f7:c1:d9:5a:fc:5e:10:4d:1c:
         25:c9:a0:ac:7e:19:8b:09:9c:23:3f:36:12:1e:33:3a:96:5d:
         c4:39:66:1f:eb:37:c5:b0:49:40:d0:04:d2:9d:d1:d9:24:95:
         db:6e:2f:c3:d2:35:67:06:ea:a9:81:ce:30:5b:d9:c4:01:d8:
         7e:90:03:5a:7c:a4:09:ae:87:5f:d9:5f:60:dc:73:c6:83:84:
         3c:32:82:60:8e:29:54:01:87:0f:8f:19:fa:47:25:51:2e:64:
         c8:55:b8:2d
-----BEGIN CERTIFICATE-----
MIIDzTCCArWgAwIBAgIJAJWftfYNuibCMA0GCSqGSIb3DQEBCwUAMH0xCzAJBgNV
BAYTAlVTMRMwEQYDVQQIDApDYWxpZm9ybmlhMRQwEgYDVQQHDAtTYW50YSBDbGFy
YTENMAsGA1UECgwEcGtnNTEMMAoGA1UECwwDdGE4MRIwEAYDVQQDDAlsb2NhbGhv
c3QxEjAQBgkqhkiG9w0BCQEWA3RhODAeFw0yMzA3MTkxMTM1NTJaFw0yNjA0MTQx
MTM1NTJaMH0xCzAJBgNVBAYTAlVTMRMwEQYDVQQIDApDYWxpZm9ybmlhMRQwEgYD
VQQHDAtTYW50YSBDbGFyYTENMAsGA1UECgwEcGtnNTEMMAoGA1UECwwDdGE4MRIw
EAYDVQQDDAlsb2NhbGhvc3QxEjAQBgkqhkiG9w0BCQEWA3RhODCCASIwDQYJKoZI
hvcNAQEBBQADggEPADCCAQoCggEBALG5fJ0afpPMVDEfYRaUMBBlebSic9hARPmf
H7iSctLKv2EKJCjggzZccN3/vFmLnYQPKXW3MTzcJ/0TShUGfUO5Slbd3gOvuCHB
Z8T3tslmWZzwzR9iQNG8Voc3zB81IydfoMV70h+h+cWUKA6bCVx38wq640iPb4kO
kl41Mo+0hlY95MfQF7gUoBbbETEDx6pdfsvJ06vT6gVpYj2WF3V93Y5/CNgW+piM
qIfU91k/ubkRE6DXDvKddvzxldusKLPlh3K6yWigbvBBD0tYwSqGzXUdEPZabG1K
ndK/fL4drH+Sf6eVboYSLOS8YHHnv4MCHyCwGEX01jtJiBr8Sd0CAwEAAaNQME4w
HQYDVR0OBBYEFLilxmol7CnI7rEVZ9dA27xQJIQ6MB8GA1UdIwQYMBaAFLilxmol
7CnI7rEVZ9dA27xQJIQ6MAwGA1UdEwQFMAMBAf8wDQYJKoZIhvcNAQELBQADggEB
AHForlchdbSj4wFZQ9hxGGUY+pK77XTFzF4GYbWVG60mEcXO49QWg8jbfHwIzUTb
71DW5HFuR3MlUsAX/c/NAAPlreIJh8WL9RBb9M/Q0WdI8k5dWBCxShneEXpKlWaW
vZtH7whgRS3cg4BC1Y4KdiCU1cN1Lm1vieMhQDrZfXqcDGMYCBAIVdbPsdC63gj4
HwRx+WMCqwNig/fB2Vr8XhBNHCXJoKx+GYsJnCM/NhIeMzqWXcQ5Zh/rN8WwSUDQ
BNKd0dkkldtuL8PSNWcG6qmBzjBb2cQB2H6QA1p8pAmuh1/ZX2Dcc8aDhDwygmCO
KVQBhw+PGfpHJVEuZMhVuC0=
-----END CERTIFICATE-----
Certificate:
    Data:
        Version: 3 (0x2)
        Serial Number:
            9e:e5:13:15:31:13:43:af
    Signature Algorithm: sha256WithRSAEncryption
        Issuer: C=US, ST=California, L=Santa Clara, O=pkg5, OU=ta9, CN=localhost/emailAddress=ta9
        Validity
            Not Before: Jul 19 11:35:53 2023 GMT
            Not After : Apr 14 11:35:53 2026 GMT
        Subject: C=US, ST=California, L=Santa Clara, O=pkg5, OU=ta9, CN=localhost/emailAddress=ta9
        Subject Public Key Info:
            Public Key Algorithm: rsaEncryption
                Public-Key: (2048 bit)
                Modulus:
                    00:cd:38:7c:64:a2:47:d0:95:9b:32:e5:17:cd:3c:
                    b1:64:93:d3:1f:45:36:fc:c5:ad:c9:78:5b:f9:2e:
                    89:2a:12:ad:29:05:1a:a3:3f:3e:03:3f:cb:f0:76:
                    8a:34:ae:59:5d:e3:5a:22:fc:34:54:4c:cd:a3:87:
                    99:e0:05:4f:ac:fe:cd:e2:4e:d5:d0:03:57:66:ba:
                    8b:e6:0b:26:2a:44:7b:d9:bf:5d:f7:98:d8:ea:b2:
                    6e:cb:e7:9b:82:7b:89:00:ed:b7:66:68:ef:bf:ea:
                    06:c8:bd:cc:66:61:f8:d6:72:11:ec:d5:ae:80:54:
                    f3:c7:89:fa:d0:e1:f4:ae:34:ea:64:1f:42:a2:ec:
                    89:f2:d0:44:7c:48:7d:66:a3:f5:0b:09:55:c7:a0:
                    cb:74:8b:3b:6c:51:cf:6a:7b:6d:f9:36:a0:dc:87:
                    3f:ce:f8:b3:20:56:a7:c5:cb:12:cd:3c:d8:d7:9f:
                    50:42:ff:c1:5f:5d:ef:f9:8a:e8:da:ba:2c:b6:e6:
                    fc:2c:e0:37:66:54:e3:48:fe:7d:cc:21:c9:91:cd:
                    d7:e1:66:3d:22:ed:6d:25:52:1f:12:a3:62:47:b0:
                    0a:df:c6:63:bb:24:87:b7:51:6a:d5:c5:b7:e6:79:
                    b5:4d:bb:44:2f:6b:f5:b3:ec:27:9a:9a:ce:8a:bf:
                    18:d5
                Exponent: 65537 (0x10001)
        X509v3 extensions:
            X509v3 Subject Key Identifier: 
                55:75:E7:85:63:4E:7F:7D:A2:28:A5:2B:B9:61:3E:78:18:FD:43:8B
            X509v3 Authority Key Identifier: 
                keyid:55:75:E7:85:63:4E:7F:7D:A2:28:A5:2B:B9:61:3E:78:18:FD:43:8B

            X509v3 Basic Constraints: 
                CA:TRUE
    Signature Algorithm: sha256WithRSAEncryption
         93:35:29:98:48:64:e6:c1:93:0f:4e:95:49:a1:a1:3a:2e:50:
         d4:75:72:4b:b0:39:e0:79:db:46:b5:77:7a:79:31:b5:15:4e:
         5f:67:b2:31:71:ff:7d:70:41:41:69:fd:35:06:dd:5f:86:12:
         32:2c:39:a5:b4:92:46:66:e4:5a:92:f7:1f:ef:f8:3f:d5:4d:
         26:e9:95:2e:e7:21:77:bd:75:80:ff:3d:05:a4:6e:9a:d1:0d:
         4e:11:e0:54:14:24:90:9d:f9:dd:23:1a:a3:88:b1:67:16:cc:
         d1:d1:fb:2c:31:7f:99:ee:34:a9:37:65:a7:de:51:b2:08:e5:
         bb:78:a4:a0:96:f6:13:c0:0c:dd:a1:a5:07:7a:b9:bc:7d:7e:
         1a:9e:73:51:f3:df:a9:6d:54:89:eb:30:b4:80:6a:34:d5:1a:
         04:41:74:78:36:7e:cb:4c:6c:b4:35:53:9a:9c:06:83:2b:ce:
         a4:f7:f0:61:56:8d:9c:bb:2a:9a:7c:da:7c:17:c3:ca:79:ff:
         92:f9:8e:cb:33:8a:85:8e:1e:7d:e0:39:46:18:1e:11:5d:8d:
         a8:d5:84:a3:80:88:54:31:94:1e:3e:4d:67:8d:53:36:88:ea:
         69:f3:6b:ec:16:3a:31:ab:a0:ed:88:af:1a:d0:94:3c:6c:c6:
         5b:cc:61:45
-----BEGIN CERTIFICATE-----
MIIDzTCCArWgAwIBAgIJAJ7lExUxE0OvMA0GCSqGSIb3DQEBCwUAMH0xCzAJBgNV
BAYTAlVTMRMwEQYDVQQIDApDYWxpZm9ybmlhMRQwEgYDVQQHDAtTYW50YSBDbGFy
YTENMAsGA1UECgwEcGtnNTEMMAoGA1UECwwDdGE5MRIwEAYDVQQDDAlsb2NhbGhv
c3QxEjAQBgkqhkiG9w0BCQEWA3RhOTAeFw0yMzA3MTkxMTM1NTNaFw0yNjA0MTQx
MTM1NTNaMH0xCzAJBgNVBAYTAlVTMRMwEQYDVQQIDApDYWxpZm9ybmlhMRQwEgYD
VQQHDAtTYW50YSBDbGFyYTENMAsGA1UECgwEcGtnNTEMMAoGA1UECwwDdGE5MRIw
EAYDVQQDDAlsb2NhbGhvc3QxEjAQBgkqhkiG9w0BCQEWA3RhOTCCASIwDQYJKoZI
hvcNAQEBBQADggEPADCCAQoCggEBAM04fGSiR9CVmzLlF808sWST0x9FNvzFrcl4
W/kuiSoSrSkFGqM/PgM/y/B2ijSuWV3jWiL8NFRMzaOHmeAFT6z+zeJO1dADV2a6
i+YLJipEe9m/XfeY2Oqybsvnm4J7iQDtt2Zo77/qBsi9zGZh+NZyEezVroBU88eJ
+tDh9K406mQfQqLsifLQRHxIfWaj9QsJVcegy3SLO2xRz2p7bfk2oNyHP874syBW
p8XLEs082NefUEL/wV9d7/mK6Nq6LLbm/CzgN2ZU40j+fcwhyZHN1+FmPSLtbSVS
HxKjYkewCt/GY7skh7dRatXFt+Z5tU27RC9r9bPsJ5qazoq/GNUCAwEAAaNQME4w
HQYDVR0OBBYEFFV154VjTn99oiilK7lhPngY/UOLMB8GA1UdIwQYMBaAFFV154Vj
Tn99oiilK7lhPngY/UOLMAwGA1UdEwQFMAMBAf8wDQYJKoZIhvcNAQELBQADggEB
AJM1KZhIZObBkw9OlUmhoTouUNR1ckuwOeB520a1d3p5MbUVTl9nsjFx/31wQUFp
/TUG3V+GEjIsOaW0kkZm5FqS9x/v+D/VTSbplS7nIXe9dYD/PQWkbprRDU4R4FQU
JJCd+d0jGqOIsWcWzNHR+ywxf5nuNKk3ZafeUbII5bt4pKCW9hPADN2hpQd6ubx9
fhqec1Hz36ltVInrMLSAajTVGgRBdHg2fstMbLQ1U5qcBoMrzqT38GFWjZy7Kpp8
2nwXw8p5/5L5jsszioWOHn3gOUYYHhFdjajVhKOAiFQxlB4+TWeNUzaI6mnza+wW
OjGroO2IrxrQlDxsxlvMYUU=
-----END CERTIFICATE-----
Certificate:
    Data:
        Version: 3 (0x2)
        Serial Number:
            85:51:1e:52:98:14:10:02
    Signature Algorithm: sha256WithRSAEncryption
        Issuer: C=US, ST=California, L=Santa Clara, O=pkg5, OU=ta10, CN=localhost/emailAddress=ta10
        Validity
            Not Before: Jul 19 11:35:53 2023 GMT
            Not After : Apr 14 11:35:53 2026 GMT
        Subject: C=US, ST=California, L=Santa Clara, O=pkg5, OU=ta10, CN=localhost/emailAddress=ta10
        Subject Public Key Info:
            Public Key Algorithm: rsaEncryption
                Public-Key: (2048 bit)
                Modulus:
                    00:95:ea:47:0c:fd:ad:09:5a:09:1f:ad:fc:80:bc:
                    44:70:be:41:08:d7:59:02:01:20:63:6a:37:de:32:
                    70:0a:2a:d3:0b:79:3d:69:bb:7c:4a:ef:bc:e3:95:
                    1a:0c:56:19:1e:2f:38:74:46:80:8b:b3:2d:c4:61:
                    5c:3d:5e:da:14:e7:f5:91:3c:60:9e:c1:40:e0:1c:
                    65:70:6b:32:17:8a:7e:2b:35:a7:32:54:a6:36:8c:
                    9b:20:8b:4b:88:f4:4d:6f:90:b3:fa:58:e9:9c:7e:
                    78:ea:d1:bc:b9:ed:82:fa:6a:50:a5:8d:9a:4f:4b:
                    9e:50:2a:3f:33:5b:a2:98:66:cf:19:86:22:ee:0b:
                    c3:8b:d9:a9:ab:10:37:de:fb:4f:5c:1b:0b:dc:4b:
                    b9:21:0e:00:1c:ba:b7:89:fd:6c:02:d0:78:b5:6b:
                    77:cb:a3:06:8a:aa:cd:6c:67:f6:a2:fb:8d:f1:8d:
                    94:ca:f8:ca:ba:85:e9:d7:79:5b:65:47:2a:03:46:
                    67:17:85:01:23:2d:ff:bc:e9:72:f7:5e:ab:d6:22:
                    66:25:33:a4:20:1b:8c:01:bf:5b:dd:52:bb:3f:36:
                    b8:71:e9:a0:a1:e4:69:df:28:13:14:83:63:ea:0f:
                    49:34:e2:4a:29:8a:06:68:87:53:d6:19:3a:ff:b6:
                    cb:09
                Exponent: 65537 (0x10001)
        X509v3 extensions:
            X509v3 Subject Key Identifier: 
                47:20:12:2B:10:D6:80:9E:E4:F2:FD:91:4F:4F:20:09:21:D0:6B:C9
            X509v3 Authority Key Identifier: 
                keyid:47:20:12:2B:10:D6:80:9E:E4:F2:FD:91:4F:4F:20:09:21:D0:6B:C9

            X509v3 Basic Constraints: 
                CA:TRUE
    Signature Algorithm: sha256WithRSAEncryption
         2d:24:66:f1:7c:f7:a5:a3:56:62:4f:da:25:5e:ef:93:5b:98:
         24:70:11:99:75:68:ac:94:ac:bb:39:e2:b7:a5:01:2b:1c:97:
         1c:4b:31:4e:fd:dc:c5:fc:f4:92:5c:bd:59:94:81:3e:d6:68:
         8c:53:87:60:20:11:83:62:42:e7:e4:f9:2b:89:89:d5:6c:fc:
         98:5b:58:37:52:f4:61:b6:a6:e3:eb:a9:cb:33:ce:65:5a:31:
         90:cc:33:5c:a3:0d:cb:5b:71:88:b6:d3:a2:47:63:2c:65:37:
         5e:98:c5:f6:b8:83:83:3f:02:fe:72:0e:78:99:47:34:c5:b2:
         27:e0:39:9f:ad:1f:c4:77:65:2c:d3:7a:75:f6:57:26:c5:53:
         9e:96:fc:86:c8:14:64:98:f4:43:7c:7f:f3:0e:11:32:d8:d6:
         b8:7e:b5:83:e0:43:a0:27:91:d2:de:12:31:46:28:4e:19:32:
         26:8f:67:02:19:39:94:31:62:d5:44:77:d9:ec:11:fe:69:f2:
         62:9c:74:c2:9e:7f:2f:71:a9:6c:04:76:e6:1e:0f:0e:ab:92:
         1b:5b:09:59:b0:a8:da:3e:88:c5:3f:84:26:f5:41:f1:aa:9d:
         b0:b2:99:96:89:29:e4:15:e4:0c:d1:ce:96:d2:dc:30:f7:36:
         e9:bf:09:de
-----BEGIN CERTIFICATE-----
MIID0TCCArmgAwIBAgIJAIVRHlKYFBACMA0GCSqGSIb3DQEBCwUAMH8xCzAJBgNV
BAYTAlVTMRMwEQYDVQQIDApDYWxpZm9ybmlhMRQwEgYDVQQHDAtTYW50YSBDbGFy
YTENMAsGA1UECgwEcGtnNTENMAsGA1UECwwEdGExMDESMBAGA1UEAwwJbG9jYWxo
b3N0MRMwEQYJKoZIhvcNAQkBFgR0YTEwMB4XDTIzMDcxOTExMzU1M1oXDTI2MDQx
NDExMzU1M1owfzELMAkGA1UEBhMCVVMxEzARBgNVBAgMCkNhbGlmb3JuaWExFDAS
BgNVBAcMC1NhbnRhIENsYXJhMQ0wCwYDVQQKDARwa2c1MQ0wCwYDVQQLDAR0YTEw
MRIwEAYDVQQDDAlsb2NhbGhvc3QxEzARBgkqhkiG9w0BCQEWBHRhMTAwggEiMA0G
CSqGSIb3DQEBAQUAA4IBDwAwggEKAoIBAQCV6kcM/a0JWgkfrfyAvERwvkEI11kC
ASBjajfeMnAKKtMLeT1pu3xK77zjlRoMVhkeLzh0RoCLsy3EYVw9XtoU5/WRPGCe
wUDgHGVwazIXin4rNacyVKY2jJsgi0uI9E1vkLP6WOmcfnjq0by57YL6alCljZpP
S55QKj8zW6KYZs8ZhiLuC8OL2amrEDfe+09cGwvcS7khDgAcureJ/WwC0Hi1a3fL
owaKqs1sZ/ai+43xjZTK+Mq6henXeVtlRyoDRmcXhQEjLf+86XL3XqvWImYlM6Qg
G4wBv1vdUrs/Nrhx6aCh5GnfKBMUg2PqD0k04kopigZoh1PWGTr/tssJAgMBAAGj
UDBOMB0GA1UdDgQWBBRHIBIrENaAnuTy/ZFPTyAJIdBryTAfBgNVHSMEGDAWgBRH
IBIrENaAnuTy/ZFPTyAJIdBryTAMBgNVHRMEBTADAQH/MA0GCSqGSIb3DQEBCwUA
A4IBAQAtJGbxfPelo1ZiT9olXu+TW5gkcBGZdWislKy7OeK3pQErHJccSzFO/dzF
/PSSXL1ZlIE+1miMU4dgIBGDYkLn5PkriYnVbPyYW1g3UvRhtqbj66nLM85lWjGQ
zDNcow3LW3GIttOiR2MsZTdemMX2uIODPwL+cg54mUc0xbIn4DmfrR/Ed2Us03p1
9lcmxVOelvyGyBRkmPRDfH/zDhEy2Na4frWD4EOgJ5HS3hIxRihOGTImj2cCGTmU
MWLVRHfZ7BH+afJinHTCnn8vcalsBHbmHg8Oq5IbWwlZsKjaPojFP4Qm9UHxqp2w
spmWiSnkFeQM0c6W0tww9zbpvwne
-----END CERTIFICATE-----
Certificate:
    Data:
        Version: 3 (0x2)
        Serial Number:
            e8:bb:a6:cb:8c:04:07:45
    Signature Algorithm: sha256WithRSAEncryption
        Issuer: C=US, ST=California, L=Santa Clara, O=pkg5, OU=ta11, CN=localhost/emailAddress=ta11
        Validity
            Not Before: Jul 19 11:35:53 2023 GMT
            Not After : Apr 14 11:35:53 2026 GMT
        Subject: C=US, ST=California, L=Santa Clara, O=pkg5, OU=ta11, CN=localhost/emailAddress=ta11
        Subject Public Key Info:
            Public Key Algorithm: rsaEncryption
                Public-Key: (2048 bit)
                Modulus:
                    00:d9:b7:fb:88:4c:75:fd:a8:74:fb:58:3e:dc:92:
                    e8:9a:73:cb:96:2e:f9:7d:c7:d3:8f:74:da:c8:a0:
                    f1:4a:26:37:d2:5e:90:f1:1a:52:d8:66:82:38:96:
                    7a:71:11:9f:da:29:67:39:8c:8c:fb:46:f5:f4:1c:
                    36:25:4e:32:9e:17:dd:08:ac:51:3c:cc:03:b3:e7:
                    29:4d:59:a4:49:2f:32:c9:b0:4d:24:4f:a1:c1:17:
                    8d:f3:a9:3d:56:2c:97:1a:b9:ec:ad:78:5d:43:b7:
                    2d:34:b8:34:ac:ba:7a:f6:2b:ac:53:e3:85:35:55:
                    f3:e5:aa:e5:7b:51:e6:1f:da:0c:17:95:9a:60:f7:
                    63:a1:21:91:ad:d3:20:ea:45:c9:21:7a:f6:2c:e1:
                    67:7e:63:4e:2c:97:8c:fc:51:e2:16:10:f4:32:42:
                    1f:42:59:f6:bb:e7:97:7d:f1:1c:1e:1f:13:ef:8e:
                    4c:fb:9d:d8:d4:90:4f:96:dd:2a:7f:f5:a7:f8:0a:
                    da:50:82:26:33:6c:b5:5c:19:b6:02:28:30:5a:63:
                    e0:35:78:87:2e:1d:d9:8d:7d:70:bb:45:91:ff:9c:
                    a8:a7:5d:c5:53:3e:35:f2:46:db:fe:d4:0e:97:6b:
                    74:13:1e:60:f1:0d:d8:7c:7b:71:9c:e3:22:bb:bb:
                    52:1d
                Exponent: 65537 (0x10001)
        X509v3 extensions:
            X509v3 Subject Key Identifier: 
                10:8A:D0:A4:FB:84:FB:E4:F4:A3:79:60:B5:43:CD:86:BB:2D:20:B7
            X509v3 Authority Key Identifier: 
                keyid:10:8A:D0:A4:FB:84:FB:E4:F4:A3:79:60:B5:43:CD:86:BB:2D:20:B7

            X509v3 Basic Constraints: 
                CA:TRUE
    Signature Algorithm: sha256WithRSAEncryption
         3f:dd:84:71:63:96:e2:76:10:45:fd:2d:e3:f4:a9:63:56:23:
         67:05:1d:17:63:4b:87:65:bc:f0:93:06:7a:78:8d:95:31:6d:
         62:3b:66:04:e4:55:bd:48:2e:18:72:ae:46:37:45:0c:9f:51:
         74:29:f9:82:25:0c:7f:a4:c2:8f:08:54:08:f0:b7:c9:99:6d:
         9e:80:df:ff:2b:b8:8b:bc:f6:85:93:a6:b8:2e:a6:e0:93:ba:
         e7:44:47:9a:d2:5f:9a:80:d0:c2:39:4e:c3:aa:a4:74:17:fd:
         30:3b:b3:60:28:68:9a:c0:2f:f5:9f:26:3e:29:98:f6:ae:96:
         cb:af:d0:f7:05:d5:83:29:2c:51:ab:3a:ba:a6:ac:0e:95:11:
         59:a9:b7:96:c0:6c:c9:6d:5f:d0:a2:cb:7d:60:de:27:99:cd:
         93:4f:01:11:cd:0e:39:36:c7:12:77:34:8e:2a:45:28:c3:d3:
         6c:d5:72:df:42:8b:1e:7c:30:5f:f1:78:63:77:25:4a:07:77:
         b1:4f:99:53:56:6d:24:06:d7:3a:db:95:94:4f:67:79:cd:b9:
         97:ba:19:25:ba:df:12:47:0b:e1:f8:8d:c9:08:0d:01:e6:1a:
         23:87:b3:cb:90:fa:7b:d9:ab:77:68:02:f9:fe:71:42:c6:84:
         85:cc:24:6d
-----BEGIN CERTIFICATE-----
MIID0TCCArmgAwIBAgIJAOi7psuMBAdFMA0GCSqGSIb3DQEBCwUAMH8xCzAJBgNV
BAYTAlVTMRMwEQYDVQQIDApDYWxpZm9ybmlhMRQwEgYDVQQHDAtTYW50YSBDbGFy
YTENMAsGA1UECgwEcGtnNTENMAsGA1UECwwEdGExMTESMBAGA1UEAwwJbG9jYWxo
b3N0MRMwEQYJKoZIhvcNAQkBFgR0YTExMB4XDTIzMDcxOTExMzU1M1oXDTI2MDQx
NDExMzU1M1owfzELMAkGA1UEBhMCVVMxEzARBgNVBAgMCkNhbGlmb3JuaWExFDAS
BgNVBAcMC1NhbnRhIENsYXJhMQ0wCwYDVQQKDARwa2c1MQ0wCwYDVQQLDAR0YTEx
MRIwEAYDVQQDDAlsb2NhbGhvc3QxEzARBgkqhkiG9w0BCQEWBHRhMTEwggEiMA0G
CSqGSIb3DQEBAQUAA4IBDwAwggEKAoIBAQDZt/uITHX9qHT7WD7ckuiac8uWLvl9
x9OPdNrIoPFKJjfSXpDxGlLYZoI4lnpxEZ/aKWc5jIz7RvX0HDYlTjKeF90IrFE8
zAOz5ylNWaRJLzLJsE0kT6HBF43zqT1WLJcaueyteF1Dty00uDSsunr2K6xT44U1
VfPlquV7UeYf2gwXlZpg92OhIZGt0yDqRckhevYs4Wd+Y04sl4z8UeIWEPQyQh9C
Wfa755d98RweHxPvjkz7ndjUkE+W3Sp/9af4CtpQgiYzbLVcGbYCKDBaY+A1eIcu
HdmNfXC7RZH/nKinXcVTPjXyRtv+1A6Xa3QTHmDxDdh8e3Gc4yK7u1IdAgMBAAGj
UDBOMB0GA1UdDgQWBBQQitCk+4T75PSjeWC1Q82Guy0gtzAfBgNVHSMEGDAWgBQQ
itCk+4T75PSjeWC1Q82Guy0gtzAMBgNVHRMEBTADAQH/MA0GCSqGSIb3DQEBCwUA
A4IBAQA/3YRxY5bidhBF/S3j9KljViNnBR0XY0uHZbzwkwZ6eI2VMW1iO2YE5FW9
SC4Ycq5GN0UMn1F0KfmCJQx/pMKPCFQI8LfJmW2egN//K7iLvPaFk6a4Lqbgk7rn
REea0l+agNDCOU7DqqR0F/0wO7NgKGiawC/1nyY+KZj2rpbLr9D3BdWDKSxRqzq6
pqwOlRFZqbeWwGzJbV/Qost9YN4nmc2TTwERzQ45NscSdzSOKkUow9Ns1XLfQose
fDBf8XhjdyVKB3exT5lTVm0kBtc625WUT2d5zbmXuhklut8SRwvh+I3JCA0B5hoj
h7PLkPp72at3aAL5/nFCxoSFzCRt
-----END CERTIFICATE-----
