Certificate:
    Data:
        Version: 3 (0x2)
        Serial Number:
            c8:e6:0a:19:40:13:e9:35
    Signature Algorithm: sha256WithRSAEncryption
        Issuer: C=US, ST=California, L=Santa Clara, O=pkg5, OU=ta6, CN=localhost/emailAddress=ta6
        Validity
            Not Before: Sep 22 05:33:35 2021 GMT
            Not After : Jun 18 05:33:35 2024 GMT
        Subject: C=US, ST=California, L=Santa Clara, O=pkg5, OU=ta6, CN=localhost/emailAddress=ta6
        Subject Public Key Info:
            Public Key Algorithm: rsaEncryption
                Public-Key: (2048 bit)
                Modulus:
                    00:c6:b6:42:1a:07:63:6f:ed:62:aa:48:97:3f:9a:
                    b1:de:2b:cd:1a:37:eb:d3:aa:0f:f9:68:d3:91:c2:
                    0d:86:ce:f0:d9:0c:7a:2d:41:45:85:9e:18:68:c3:
                    9d:73:01:77:6b:ea:c9:5f:f5:5b:50:68:d9:fe:7b:
                    9b:b4:37:d3:76:de:f0:87:b3:d3:b0:f5:b1:05:97:
                    1c:03:44:1a:53:33:17:8e:07:1a:db:a7:f2:05:2c:
                    5e:3d:2c:ac:f2:f5:42:67:8b:a6:de:8d:e4:3b:f5:
                    5a:95:74:ad:21:58:d8:10:8a:6c:75:42:76:58:ff:
                    79:f1:72:8f:8f:8c:ce:35:3a:d1:8d:19:91:1f:31:
                    09:ee:aa:ba:0a:91:b3:0c:51:ce:77:7b:a0:ca:fc:
                    6e:59:e9:97:72:d9:39:b7:67:51:e4:a5:21:78:d8:
                    b9:bd:e3:56:f0:37:ff:4a:da:13:66:fe:5e:7c:f2:
                    c0:f6:b6:e5:51:62:61:bd:bc:3a:53:7b:00:9c:c8:
                    f8:bf:e1:7c:cb:14:2e:15:e9:36:91:63:de:54:9a:
                    37:e7:06:9d:14:5a:20:99:68:5b:99:42:eb:e2:bf:
                    83:f5:c7:d9:60:b2:76:39:4b:4c:23:34:0e:43:a2:
                    1f:c8:c9:78:f2:5a:68:5a:cf:3c:89:0e:37:ac:14:
                    7e:0b
                Exponent: 65537 (0x10001)
        X509v3 extensions:
            X509v3 Subject Key Identifier: 
                D9:3D:2C:01:58:CF:21:2A:42:E6:32:24:80:F5:5E:E2:9F:7D:31:E9
            X509v3 Authority Key Identifier: 
                keyid:D9:3D:2C:01:58:CF:21:2A:42:E6:32:24:80:F5:5E:E2:9F:7D:31:E9

            X509v3 Basic Constraints: 
                CA:TRUE
    Signature Algorithm: sha256WithRSAEncryption
         23:24:c5:88:41:2b:c7:49:26:e1:78:0a:d3:2e:7a:33:b8:2d:
         9c:99:03:4e:2a:af:72:bd:95:b2:e3:5d:06:d6:c1:fd:a9:35:
         4b:cb:ea:58:a6:a8:95:b6:32:dc:f5:92:78:38:f3:f5:e7:01:
         d1:5b:58:fb:14:83:fb:69:4e:43:ab:bc:82:68:82:d6:6b:1c:
         6a:8b:db:73:85:73:a3:8b:9d:92:09:1c:3f:ce:3f:39:0c:da:
         f5:b5:68:40:0d:61:9a:fd:41:fc:32:91:3a:47:aa:3b:d3:ed:
         d7:ff:a7:04:60:f9:6d:52:82:57:df:d2:ba:a4:b5:3b:14:79:
         60:4f:a7:da:81:dc:87:d1:6a:5b:05:20:e2:c3:d1:5f:ae:f0:
         60:3f:f6:e4:cc:92:e7:a1:a1:ff:66:51:72:17:f6:27:e6:ca:
         0f:ee:68:26:32:cd:39:3e:7a:7c:b7:9e:bd:7c:98:d7:33:84:
         b0:06:fb:c8:37:64:a8:b8:c9:c5:73:09:93:30:97:42:23:4b:
         73:7a:4a:2c:18:a7:a0:ab:c7:fc:27:08:da:eb:fa:cb:98:fa:
         1e:f0:ab:23:f2:55:d7:a9:51:54:34:40:63:ac:cb:57:16:95:
         b3:9d:a6:a7:f3:87:62:fb:b3:d4:39:ea:5b:8c:ed:8b:03:79:
         6d:6b:d1:8d
-----BEGIN CERTIFICATE-----
MIIDzTCCArWgAwIBAgIJAMjmChlAE+k1MA0GCSqGSIb3DQEBCwUAMH0xCzAJBgNV
BAYTAlVTMRMwEQYDVQQIDApDYWxpZm9ybmlhMRQwEgYDVQQHDAtTYW50YSBDbGFy
YTENMAsGA1UECgwEcGtnNTEMMAoGA1UECwwDdGE2MRIwEAYDVQQDDAlsb2NhbGhv
c3QxEjAQBgkqhkiG9w0BCQEWA3RhNjAeFw0yMTA5MjIwNTMzMzVaFw0yNDA2MTgw
NTMzMzVaMH0xCzAJBgNVBAYTAlVTMRMwEQYDVQQIDApDYWxpZm9ybmlhMRQwEgYD
VQQHDAtTYW50YSBDbGFyYTENMAsGA1UECgwEcGtnNTEMMAoGA1UECwwDdGE2MRIw
EAYDVQQDDAlsb2NhbGhvc3QxEjAQBgkqhkiG9w0BCQEWA3RhNjCCASIwDQYJKoZI
hvcNAQEBBQADggEPADCCAQoCggEBAMa2QhoHY2/tYqpIlz+asd4rzRo369OqD/lo
05HCDYbO8NkMei1BRYWeGGjDnXMBd2vqyV/1W1Bo2f57m7Q303be8Iez07D1sQWX
HANEGlMzF44HGtun8gUsXj0srPL1QmeLpt6N5Dv1WpV0rSFY2BCKbHVCdlj/efFy
j4+MzjU60Y0ZkR8xCe6qugqRswxRznd7oMr8blnpl3LZObdnUeSlIXjYub3jVvA3
/0raE2b+XnzywPa25VFiYb28OlN7AJzI+L/hfMsULhXpNpFj3lSaN+cGnRRaIJlo
W5lC6+K/g/XH2WCydjlLTCM0DkOiH8jJePJaaFrPPIkON6wUfgsCAwEAAaNQME4w
HQYDVR0OBBYEFNk9LAFYzyEqQuYyJID1XuKffTHpMB8GA1UdIwQYMBaAFNk9LAFY
zyEqQuYyJID1XuKffTHpMAwGA1UdEwQFMAMBAf8wDQYJKoZIhvcNAQELBQADggEB
ACMkxYhBK8dJJuF4CtMuejO4LZyZA04qr3K9lbLjXQbWwf2pNUvL6limqJW2Mtz1
kng48/XnAdFbWPsUg/tpTkOrvIJogtZrHGqL23OFc6OLnZIJHD/OPzkM2vW1aEAN
YZr9QfwykTpHqjvT7df/pwRg+W1Sglff0rqktTsUeWBPp9qB3IfRalsFIOLD0V+u
8GA/9uTMkuehof9mUXIX9ifmyg/uaCYyzTk+eny3nr18mNczhLAG+8g3ZKi4ycVz
CZMwl0IjS3N6SiwYp6Crx/wnCNrr+suY+h7wqyPyVdepUVQ0QGOsy1cWlbOdpqfz
h2L7s9Q56luM7YsDeW1r0Y0=
-----END CERTIFICATE-----
Certificate:
    Data:
        Version: 3 (0x2)
        Serial Number:
            fe:d8:1a:c6:a7:9b:c0:84
    Signature Algorithm: sha256WithRSAEncryption
        Issuer: C=US, ST=California, L=Santa Clara, O=pkg5, OU=ta8, CN=localhost/emailAddress=ta8
        Validity
            Not Before: Sep 22 05:33:37 2021 GMT
            Not After : Jun 18 05:33:37 2024 GMT
        Subject: C=US, ST=California, L=Santa Clara, O=pkg5, OU=ta8, CN=localhost/emailAddress=ta8
        Subject Public Key Info:
            Public Key Algorithm: rsaEncryption
                Public-Key: (2048 bit)
                Modulus:
                    00:a8:8d:4a:f7:a2:f2:25:fa:70:7e:8a:96:10:8d:
                    d8:c3:2e:9b:1b:0a:51:6f:5f:39:0d:e1:b6:75:7f:
                    83:af:bb:ea:88:72:07:d6:a5:d1:b0:77:41:c8:c8:
                    e3:6c:d4:c2:eb:71:db:10:c6:53:0b:ee:61:44:67:
                    0d:45:b8:29:a7:2f:8b:48:50:d4:f2:9d:14:4c:7d:
                    23:00:56:e0:fa:49:d4:69:73:ff:30:39:dd:60:d3:
                    86:9b:07:4d:cf:f8:cf:92:cc:d1:d4:49:23:db:04:
                    04:f0:88:2d:90:45:5b:f3:f7:67:fc:bb:c4:95:46:
                    b4:ff:c9:8a:96:97:07:14:b2:ca:a3:e8:8b:9b:6c:
                    19:f8:47:9c:af:b0:3f:b5:6c:25:c7:20:9a:7a:6c:
                    5a:e3:cb:08:96:c7:e2:b5:6b:4c:8a:61:52:29:9b:
                    89:69:64:52:49:5c:8d:98:d0:62:8b:bb:38:f3:af:
                    7e:a3:06:c3:07:40:60:57:cb:7e:a7:c2:5a:1e:f7:
                    11:bc:9c:45:dc:a9:57:19:f1:f6:17:27:84:4b:b4:
                    6f:76:58:24:1d:91:31:f4:3f:85:a6:34:e5:23:34:
                    63:96:49:99:9c:16:4f:e2:e4:b7:ae:9d:57:49:94:
                    a5:69:83:98:de:44:0c:8a:4d:89:12:eb:14:df:f1:
                    ae:fb
                Exponent: 65537 (0x10001)
        X509v3 extensions:
            X509v3 Subject Key Identifier: 
                4F:3C:A8:A6:2F:3D:EF:BC:99:44:4E:1C:63:43:A1:0A:63:7A:68:74
            X509v3 Authority Key Identifier: 
                keyid:4F:3C:A8:A6:2F:3D:EF:BC:99:44:4E:1C:63:43:A1:0A:63:7A:68:74

            X509v3 Basic Constraints: 
                CA:TRUE
    Signature Algorithm: sha256WithRSAEncryption
         66:95:d2:c3:4d:90:df:6f:52:30:00:91:39:19:57:cf:ed:ce:
         41:e0:50:e9:d2:f2:a3:58:ae:d3:74:7f:c5:ad:cb:6d:48:4c:
         4c:2f:34:d3:8b:66:3f:cd:d4:cc:7b:d1:54:57:28:b0:8b:62:
         b4:db:a4:48:9e:b8:c3:84:e0:49:13:43:d1:ce:06:82:6e:23:
         7c:86:2c:41:9e:30:c4:a1:63:ba:d0:8b:d6:68:77:ac:95:e3:
         4c:b4:67:86:8b:d8:3c:0e:ad:9e:9f:f3:3e:e3:f2:e2:86:38:
         bf:d2:e8:6e:ff:03:20:f0:75:19:dd:31:51:25:79:b5:fc:60:
         cc:06:fd:ee:f2:79:31:a0:91:28:4f:36:54:78:46:9b:fd:74:
         20:74:7a:99:55:88:d0:e8:87:84:be:6b:d2:e5:62:a2:79:2d:
         84:04:65:20:ae:03:da:93:a2:ee:67:43:00:fa:88:17:24:dc:
         8d:ec:83:ff:31:a4:4c:b1:86:f3:c3:bd:dd:50:7d:20:98:9a:
         39:5c:a8:3a:30:f0:27:1d:80:6d:f0:82:a3:1e:6f:03:13:cf:
         e7:f8:64:6d:63:ff:3b:ce:4e:f9:f3:7c:b7:c4:ec:ac:ad:d5:
         85:f3:18:fd:76:af:15:29:fb:61:ce:34:d1:8c:eb:9b:e7:f0:
         1f:9d:bd:97
-----BEGIN CERTIFICATE-----
MIIDzTCCArWgAwIBAgIJAP7YGsanm8CEMA0GCSqGSIb3DQEBCwUAMH0xCzAJBgNV
BAYTAlVTMRMwEQYDVQQIDApDYWxpZm9ybmlhMRQwEgYDVQQHDAtTYW50YSBDbGFy
YTENMAsGA1UECgwEcGtnNTEMMAoGA1UECwwDdGE4MRIwEAYDVQQDDAlsb2NhbGhv
c3QxEjAQBgkqhkiG9w0BCQEWA3RhODAeFw0yMTA5MjIwNTMzMzdaFw0yNDA2MTgw
NTMzMzdaMH0xCzAJBgNVBAYTAlVTMRMwEQYDVQQIDApDYWxpZm9ybmlhMRQwEgYD
VQQHDAtTYW50YSBDbGFyYTENMAsGA1UECgwEcGtnNTEMMAoGA1UECwwDdGE4MRIw
EAYDVQQDDAlsb2NhbGhvc3QxEjAQBgkqhkiG9w0BCQEWA3RhODCCASIwDQYJKoZI
hvcNAQEBBQADggEPADCCAQoCggEBAKiNSvei8iX6cH6KlhCN2MMumxsKUW9fOQ3h
tnV/g6+76ohyB9al0bB3QcjI42zUwutx2xDGUwvuYURnDUW4Kacvi0hQ1PKdFEx9
IwBW4PpJ1Glz/zA53WDThpsHTc/4z5LM0dRJI9sEBPCILZBFW/P3Z/y7xJVGtP/J
ipaXBxSyyqPoi5tsGfhHnK+wP7VsJccgmnpsWuPLCJbH4rVrTIphUimbiWlkUklc
jZjQYou7OPOvfqMGwwdAYFfLfqfCWh73EbycRdypVxnx9hcnhEu0b3ZYJB2RMfQ/
haY05SM0Y5ZJmZwWT+Lkt66dV0mUpWmDmN5EDIpNiRLrFN/xrvsCAwEAAaNQME4w
HQYDVR0OBBYEFE88qKYvPe+8mUROHGNDoQpjemh0MB8GA1UdIwQYMBaAFE88qKYv
Pe+8mUROHGNDoQpjemh0MAwGA1UdEwQFMAMBAf8wDQYJKoZIhvcNAQELBQADggEB
AGaV0sNNkN9vUjAAkTkZV8/tzkHgUOnS8qNYrtN0f8Wty21ITEwvNNOLZj/N1Mx7
0VRXKLCLYrTbpEieuMOE4EkTQ9HOBoJuI3yGLEGeMMShY7rQi9Zod6yV40y0Z4aL
2DwOrZ6f8z7j8uKGOL/S6G7/AyDwdRndMVElebX8YMwG/e7yeTGgkShPNlR4Rpv9
dCB0eplViNDoh4S+a9LlYqJ5LYQEZSCuA9qTou5nQwD6iBck3I3sg/8xpEyxhvPD
vd1QfSCYmjlcqDow8CcdgG3wgqMebwMTz+f4ZG1j/zvOTvnzfLfE7Kyt1YXzGP12
rxUp+2HONNGM65vn8B+dvZc=
-----END CERTIFICATE-----
Certificate:
    Data:
        Version: 3 (0x2)
        Serial Number:
            92:34:07:38:50:69:aa:6d
    Signature Algorithm: sha256WithRSAEncryption
        Issuer: C=US, ST=California, L=Santa Clara, O=pkg5, OU=ta9, CN=localhost/emailAddress=ta9
        Validity
            Not Before: Sep 22 05:33:38 2021 GMT
            Not After : Jun 18 05:33:38 2024 GMT
        Subject: C=US, ST=California, L=Santa Clara, O=pkg5, OU=ta9, CN=localhost/emailAddress=ta9
        Subject Public Key Info:
            Public Key Algorithm: rsaEncryption
                Public-Key: (2048 bit)
                Modulus:
                    00:a7:cc:55:c4:06:3c:71:c2:d6:70:75:cb:a4:ab:
                    51:30:4c:06:2e:60:76:67:5c:40:7a:ad:81:31:b7:
                    fb:f1:b5:6d:26:d5:18:8e:c1:b3:4d:3f:bf:f4:41:
                    01:bc:e7:96:0e:7e:0a:85:88:1b:bc:91:97:e4:71:
                    c1:77:78:8b:fb:e7:60:1f:46:ad:6e:74:95:75:10:
                    ea:6b:b7:ec:dd:3b:da:99:ad:03:a3:ad:54:f1:d3:
                    25:7a:3e:7b:95:33:f2:89:6b:72:20:21:34:23:9a:
                    7a:c9:3f:dd:dd:f9:c0:a7:d3:31:60:b8:78:5f:e3:
                    11:53:00:22:dd:9d:b6:85:4f:1d:5b:06:ef:09:eb:
                    c0:79:f7:c8:ac:a5:be:c3:ac:49:6b:d5:21:91:c4:
                    54:74:aa:83:54:89:9b:3f:eb:6e:54:0c:7c:c7:a5:
                    3a:f8:c0:ca:89:1c:f9:ef:9b:bd:9a:d1:3d:94:90:
                    9c:f1:46:d3:52:df:58:6e:f0:5a:16:41:4d:08:c8:
                    f0:40:55:4f:fe:b8:7a:35:90:13:9a:3b:fc:ba:5d:
                    f6:71:3e:ef:0f:ef:7d:72:00:09:b5:0a:35:f8:cf:
                    64:b5:1d:a7:9f:e1:9d:0f:fc:ec:ec:31:de:ef:99:
                    ec:b3:0e:db:bb:2c:d3:cb:bd:23:b1:93:75:b9:0e:
                    8f:09
                Exponent: 65537 (0x10001)
        X509v3 extensions:
            X509v3 Subject Key Identifier: 
                45:FB:E7:13:C0:6F:8D:63:30:BD:33:56:02:E1:A6:A9:55:30:E0:F3
            X509v3 Authority Key Identifier: 
                keyid:45:FB:E7:13:C0:6F:8D:63:30:BD:33:56:02:E1:A6:A9:55:30:E0:F3

            X509v3 Basic Constraints: 
                CA:TRUE
    Signature Algorithm: sha256WithRSAEncryption
         06:aa:5e:b6:29:d6:2d:fb:98:b7:3e:d2:94:dc:1d:d8:1d:a2:
         01:50:14:67:0f:6c:cd:06:b9:49:9b:15:8a:30:4f:bb:de:fd:
         5b:92:f3:40:88:ef:57:7d:57:e2:c6:30:d3:a9:3e:86:83:b1:
         40:bd:ec:51:a5:fd:98:11:51:e7:4a:e0:fe:4f:05:21:88:e8:
         5a:76:92:9a:5e:eb:c1:f6:3d:e2:51:71:02:74:be:98:4b:fe:
         59:af:b6:58:ab:86:3c:d6:32:0d:25:73:b2:2f:72:48:df:0e:
         b6:6c:ec:d5:b0:12:09:20:ec:b6:0a:54:b6:ae:27:53:1f:d6:
         7c:4a:18:ee:8d:4f:bd:d6:ca:11:e6:ea:26:c9:68:68:62:fd:
         60:85:6d:ea:80:91:12:6a:1e:b4:35:81:40:9b:03:45:65:f4:
         ba:c0:06:89:f5:1e:df:4d:ae:15:e0:e4:36:6a:33:a3:b8:9d:
         9c:10:d2:cb:5e:40:3b:55:cb:60:3e:be:f2:1b:db:97:68:2d:
         65:b7:99:f4:f8:10:09:8c:0f:c9:24:82:aa:a5:f5:1d:82:98:
         c5:42:1e:56:7f:80:77:a1:ae:28:2a:fe:60:d4:fb:f2:b8:75:
         c4:3d:d9:2f:cc:63:c2:77:77:54:fb:93:0b:e5:8a:17:02:d2:
         2d:e3:6d:b9
-----BEGIN CERTIFICATE-----
MIIDzTCCArWgAwIBAgIJAJI0BzhQaaptMA0GCSqGSIb3DQEBCwUAMH0xCzAJBgNV
BAYTAlVTMRMwEQYDVQQIDApDYWxpZm9ybmlhMRQwEgYDVQQHDAtTYW50YSBDbGFy
YTENMAsGA1UECgwEcGtnNTEMMAoGA1UECwwDdGE5MRIwEAYDVQQDDAlsb2NhbGhv
c3QxEjAQBgkqhkiG9w0BCQEWA3RhOTAeFw0yMTA5MjIwNTMzMzhaFw0yNDA2MTgw
NTMzMzhaMH0xCzAJBgNVBAYTAlVTMRMwEQYDVQQIDApDYWxpZm9ybmlhMRQwEgYD
VQQHDAtTYW50YSBDbGFyYTENMAsGA1UECgwEcGtnNTEMMAoGA1UECwwDdGE5MRIw
EAYDVQQDDAlsb2NhbGhvc3QxEjAQBgkqhkiG9w0BCQEWA3RhOTCCASIwDQYJKoZI
hvcNAQEBBQADggEPADCCAQoCggEBAKfMVcQGPHHC1nB1y6SrUTBMBi5gdmdcQHqt
gTG3+/G1bSbVGI7Bs00/v/RBAbznlg5+CoWIG7yRl+RxwXd4i/vnYB9GrW50lXUQ
6mu37N072pmtA6OtVPHTJXo+e5Uz8olrciAhNCOaesk/3d35wKfTMWC4eF/jEVMA
It2dtoVPHVsG7wnrwHn3yKylvsOsSWvVIZHEVHSqg1SJmz/rblQMfMelOvjAyokc
+e+bvZrRPZSQnPFG01LfWG7wWhZBTQjI8EBVT/64ejWQE5o7/Lpd9nE+7w/vfXIA
CbUKNfjPZLUdp5/hnQ/87Owx3u+Z7LMO27ss08u9I7GTdbkOjwkCAwEAAaNQME4w
HQYDVR0OBBYEFEX75xPAb41jML0zVgLhpqlVMODzMB8GA1UdIwQYMBaAFEX75xPA
b41jML0zVgLhpqlVMODzMAwGA1UdEwQFMAMBAf8wDQYJKoZIhvcNAQELBQADggEB
AAaqXrYp1i37mLc+0pTcHdgdogFQFGcPbM0GuUmbFYowT7ve/VuS80CI71d9V+LG
MNOpPoaDsUC97FGl/ZgRUedK4P5PBSGI6Fp2kppe68H2PeJRcQJ0vphL/lmvtlir
hjzWMg0lc7IvckjfDrZs7NWwEgkg7LYKVLauJ1Mf1nxKGO6NT73WyhHm6ibJaGhi
/WCFbeqAkRJqHrQ1gUCbA0Vl9LrABon1Ht9NrhXg5DZqM6O4nZwQ0steQDtVy2A+
vvIb25doLWW3mfT4EAmMD8kkgqql9R2CmMVCHlZ/gHehrigq/mDU+/K4dcQ92S/M
Y8J3d1T7kwvlihcC0i3jbbk=
-----END CERTIFICATE-----
Certificate:
    Data:
        Version: 3 (0x2)
        Serial Number:
            8b:66:9c:c5:d3:0a:d2:4e
    Signature Algorithm: sha256WithRSAEncryption
        Issuer: C=US, ST=California, L=Santa Clara, O=pkg5, OU=ta10, CN=localhost/emailAddress=ta10
        Validity
            Not Before: Sep 22 05:33:39 2021 GMT
            Not After : Jun 18 05:33:39 2024 GMT
        Subject: C=US, ST=California, L=Santa Clara, O=pkg5, OU=ta10, CN=localhost/emailAddress=ta10
        Subject Public Key Info:
            Public Key Algorithm: rsaEncryption
                Public-Key: (2048 bit)
                Modulus:
                    00:dc:b7:bd:98:ad:f6:2e:68:f7:81:0a:a2:83:bf:
                    25:cc:4b:43:e2:bc:f4:2c:63:41:6f:85:5e:19:05:
                    53:60:c3:49:6d:43:44:3f:97:c7:d1:a9:71:47:e2:
                    91:3f:4d:4a:90:a3:58:26:9f:12:76:58:a3:d4:53:
                    5a:3d:4e:35:1f:ae:c4:df:47:67:23:79:04:61:31:
                    17:59:02:f4:4b:e5:1b:b1:85:9f:a8:a0:d5:ff:16:
                    c4:e6:b7:f1:94:f7:c5:78:08:78:46:19:7f:45:74:
                    13:2b:ce:2e:5d:84:3d:54:a5:d5:08:f1:b1:f8:3b:
                    4d:57:db:9f:f5:83:06:5f:d0:b5:80:bf:ff:a5:c1:
                    75:e4:f7:c8:f4:c9:f2:3e:f0:e3:4e:a9:14:30:a3:
                    f6:99:7d:8a:ce:1a:96:15:0c:38:6a:cb:76:c9:a7:
                    cc:a4:c3:0c:cf:c3:3b:55:df:b1:41:86:d1:4d:2f:
                    44:fc:db:74:56:87:db:47:61:8a:c9:90:8e:ca:74:
                    e9:c6:16:60:f3:a3:59:ac:7b:aa:9c:37:64:e3:b5:
                    e2:1f:cb:fa:8a:fa:b5:94:16:23:2d:8a:be:98:e5:
                    46:17:5f:7f:b2:70:c2:9b:6b:71:b7:1e:c2:99:dd:
                    a9:1e:77:95:e1:d6:72:64:c6:48:7b:99:d3:20:59:
                    88:c9
                Exponent: 65537 (0x10001)
        X509v3 extensions:
            X509v3 Subject Key Identifier: 
                AB:C4:CE:52:7A:6F:74:93:9B:CF:54:B6:65:4C:5D:E0:15:D5:79:CC
            X509v3 Authority Key Identifier: 
                keyid:AB:C4:CE:52:7A:6F:74:93:9B:CF:54:B6:65:4C:5D:E0:15:D5:79:CC

            X509v3 Basic Constraints: 
                CA:TRUE
    Signature Algorithm: sha256WithRSAEncryption
         22:91:e6:eb:6b:ab:14:20:af:9a:49:e7:5a:b6:ab:d8:cf:79:
         04:96:a3:b9:2f:b8:3e:63:ba:75:b6:00:ef:dc:27:a5:46:db:
         d9:d5:a6:07:82:14:c3:af:ed:bd:6a:16:54:07:bd:f6:ed:1c:
         b8:a9:c2:a4:e5:2e:a2:0b:e5:8c:57:64:da:6e:3b:82:89:95:
         10:47:65:04:6a:18:a8:04:b2:c8:3b:ad:42:32:f6:47:2b:20:
         91:11:0d:c5:5d:cf:7f:99:44:bc:cb:e4:67:99:5d:63:6f:2e:
         06:de:84:43:87:01:71:c1:a4:ad:d3:50:8e:4a:c3:c1:3c:1f:
         99:68:c5:19:47:37:b3:39:87:81:0f:07:8c:a4:0a:f4:c9:ea:
         ba:85:85:01:92:68:dc:e0:b9:f5:d1:3e:d6:f0:cf:38:6f:bb:
         27:f8:3c:81:0a:9a:fb:c7:9e:a9:7c:45:6f:42:5e:3a:15:f7:
         cb:d9:65:d7:6a:61:c6:a8:05:54:45:6c:17:74:90:c5:a7:5b:
         8e:2e:d2:4b:dd:3c:ea:9c:8c:2b:a6:61:0c:ed:5f:79:2e:1e:
         c0:25:56:17:57:e6:c2:19:2d:72:87:a4:67:da:9c:dd:da:e6:
         db:0a:da:da:d9:7d:e1:bd:d2:9d:64:75:fc:bf:57:5e:cd:1b:
         29:6c:0c:03
-----BEGIN CERTIFICATE-----
MIID0TCCArmgAwIBAgIJAItmnMXTCtJOMA0GCSqGSIb3DQEBCwUAMH8xCzAJBgNV
BAYTAlVTMRMwEQYDVQQIDApDYWxpZm9ybmlhMRQwEgYDVQQHDAtTYW50YSBDbGFy
YTENMAsGA1UECgwEcGtnNTENMAsGA1UECwwEdGExMDESMBAGA1UEAwwJbG9jYWxo
b3N0MRMwEQYJKoZIhvcNAQkBFgR0YTEwMB4XDTIxMDkyMjA1MzMzOVoXDTI0MDYx
ODA1MzMzOVowfzELMAkGA1UEBhMCVVMxEzARBgNVBAgMCkNhbGlmb3JuaWExFDAS
BgNVBAcMC1NhbnRhIENsYXJhMQ0wCwYDVQQKDARwa2c1MQ0wCwYDVQQLDAR0YTEw
MRIwEAYDVQQDDAlsb2NhbGhvc3QxEzARBgkqhkiG9w0BCQEWBHRhMTAwggEiMA0G
CSqGSIb3DQEBAQUAA4IBDwAwggEKAoIBAQDct72YrfYuaPeBCqKDvyXMS0PivPQs
Y0FvhV4ZBVNgw0ltQ0Q/l8fRqXFH4pE/TUqQo1gmnxJ2WKPUU1o9TjUfrsTfR2cj
eQRhMRdZAvRL5RuxhZ+ooNX/FsTmt/GU98V4CHhGGX9FdBMrzi5dhD1UpdUI8bH4
O01X25/1gwZf0LWAv/+lwXXk98j0yfI+8ONOqRQwo/aZfYrOGpYVDDhqy3bJp8yk
wwzPwztV37FBhtFNL0T823RWh9tHYYrJkI7KdOnGFmDzo1mse6qcN2TjteIfy/qK
+rWUFiMtir6Y5UYXX3+ycMKba3G3HsKZ3aked5Xh1nJkxkh7mdMgWYjJAgMBAAGj
UDBOMB0GA1UdDgQWBBSrxM5Sem90k5vPVLZlTF3gFdV5zDAfBgNVHSMEGDAWgBSr
xM5Sem90k5vPVLZlTF3gFdV5zDAMBgNVHRMEBTADAQH/MA0GCSqGSIb3DQEBCwUA
A4IBAQAikebra6sUIK+aSedatqvYz3kElqO5L7g+Y7p1tgDv3CelRtvZ1aYHghTD
r+29ahZUB7327Ry4qcKk5S6iC+WMV2TabjuCiZUQR2UEahioBLLIO61CMvZHKyCR
EQ3FXc9/mUS8y+RnmV1jby4G3oRDhwFxwaSt01COSsPBPB+ZaMUZRzezOYeBDweM
pAr0yeq6hYUBkmjc4Ln10T7W8M84b7sn+DyBCpr7x56pfEVvQl46FffL2WXXamHG
qAVURWwXdJDFp1uOLtJL3TzqnIwrpmEM7V95Lh7AJVYXV+bCGS1yh6Rn2pzd2ubb
Ctra2X3hvdKdZHX8v1dezRspbAwD
-----END CERTIFICATE-----
Certificate:
    Data:
        Version: 3 (0x2)
        Serial Number:
            b8:9c:7a:9f:ff:94:77:90
    Signature Algorithm: sha256WithRSAEncryption
        Issuer: C=US, ST=California, L=Santa Clara, O=pkg5, OU=ta11, CN=localhost/emailAddress=ta11
        Validity
            Not Before: Sep 22 05:33:40 2021 GMT
            Not After : Jun 18 05:33:40 2024 GMT
        Subject: C=US, ST=California, L=Santa Clara, O=pkg5, OU=ta11, CN=localhost/emailAddress=ta11
        Subject Public Key Info:
            Public Key Algorithm: rsaEncryption
                Public-Key: (2048 bit)
                Modulus:
                    00:c2:db:16:46:fa:4d:1d:10:ae:20:1e:3c:1c:63:
                    23:d4:1f:b7:52:22:6b:7c:04:20:e9:41:33:22:83:
                    bc:5e:a3:c8:ad:8e:25:98:e6:18:f6:fe:4c:1c:8d:
                    c9:73:bd:81:ea:eb:4a:00:49:a4:50:64:76:bf:73:
                    02:5d:d0:66:7b:99:2e:5c:3a:76:b4:df:d3:38:42:
                    fe:14:e2:57:6f:e8:3f:08:db:3a:a3:89:0c:3c:df:
                    8f:9f:c1:5b:24:d2:91:a9:fa:6e:13:33:b6:75:33:
                    63:41:34:b0:e2:44:34:c7:c7:09:62:ca:8c:e5:9a:
                    dd:92:8a:3d:20:b4:e1:26:45:be:3a:db:af:37:bf:
                    14:b5:9a:27:e6:ea:8c:d7:ee:ad:f7:51:25:3e:bb:
                    6d:34:06:6f:16:ec:85:e9:68:ec:17:ed:c3:f1:dc:
                    51:de:c5:6e:1c:4d:1a:8c:ce:9c:af:67:c0:50:a4:
                    12:1d:f5:c6:b5:b8:94:eb:8e:cc:3d:29:57:d5:76:
                    6e:9b:a1:a6:5d:5d:a8:38:03:57:ff:9f:bd:73:a2:
                    85:ce:e2:90:66:aa:22:0f:24:f3:5e:e7:e7:3d:f5:
                    1f:b9:a1:65:66:fc:50:d5:40:ff:95:ad:c5:58:12:
                    0e:11:2f:03:1b:c6:80:0a:d2:1d:2a:eb:56:eb:81:
                    60:65
                Exponent: 65537 (0x10001)
        X509v3 extensions:
            X509v3 Subject Key Identifier: 
                06:C5:78:F1:62:6C:6B:FC:44:F5:D2:6D:52:0D:8D:BF:18:AD:38:8A
            X509v3 Authority Key Identifier: 
                keyid:06:C5:78:F1:62:6C:6B:FC:44:F5:D2:6D:52:0D:8D:BF:18:AD:38:8A

            X509v3 Basic Constraints: 
                CA:TRUE
    Signature Algorithm: sha256WithRSAEncryption
         ab:5a:1e:27:18:5c:b8:c5:e1:48:74:a0:94:87:10:ba:75:06:
         e0:0f:77:f6:9b:94:ad:33:9a:d5:51:2e:e4:37:2e:30:97:83:
         62:58:1a:52:10:50:a9:7b:27:de:06:7d:b9:3c:97:0a:6e:f7:
         d3:82:82:b3:ff:a6:53:c0:ca:04:b1:48:7f:35:11:4f:d1:37:
         3f:dc:cd:56:fc:3b:ef:87:2d:f9:7c:39:55:1f:11:30:90:d2:
         3b:7e:49:87:66:75:63:d6:e6:40:34:ad:a7:e5:a6:de:24:75:
         59:da:6d:51:f6:5e:92:8d:47:e4:61:57:e4:e2:5f:16:33:3e:
         aa:da:38:03:c4:c9:65:09:b1:75:5f:db:57:2b:71:5f:97:01:
         89:98:23:b0:d3:e3:c7:6e:7b:60:4d:e3:4f:0c:e6:57:a5:21:
         08:3b:d2:24:38:28:57:69:25:e1:e2:07:01:17:40:11:ee:cd:
         88:d3:b4:7e:56:47:d1:9c:0a:8f:d1:aa:32:e6:f8:84:5f:21:
         9f:fc:ea:67:dd:d2:7f:92:73:e3:3d:e9:40:21:45:cf:59:c3:
         32:56:8f:a8:60:87:76:aa:51:75:f2:0e:c7:33:51:50:ad:df:
         04:bc:83:67:fb:6d:47:6e:55:cf:28:60:e3:19:e1:fa:e2:96:
         7f:87:44:ae
-----BEGIN CERTIFICATE-----
MIID0TCCArmgAwIBAgIJALicep//lHeQMA0GCSqGSIb3DQEBCwUAMH8xCzAJBgNV
BAYTAlVTMRMwEQYDVQQIDApDYWxpZm9ybmlhMRQwEgYDVQQHDAtTYW50YSBDbGFy
YTENMAsGA1UECgwEcGtnNTENMAsGA1UECwwEdGExMTESMBAGA1UEAwwJbG9jYWxo
b3N0MRMwEQYJKoZIhvcNAQkBFgR0YTExMB4XDTIxMDkyMjA1MzM0MFoXDTI0MDYx
ODA1MzM0MFowfzELMAkGA1UEBhMCVVMxEzARBgNVBAgMCkNhbGlmb3JuaWExFDAS
BgNVBAcMC1NhbnRhIENsYXJhMQ0wCwYDVQQKDARwa2c1MQ0wCwYDVQQLDAR0YTEx
MRIwEAYDVQQDDAlsb2NhbGhvc3QxEzARBgkqhkiG9w0BCQEWBHRhMTEwggEiMA0G
CSqGSIb3DQEBAQUAA4IBDwAwggEKAoIBAQDC2xZG+k0dEK4gHjwcYyPUH7dSImt8
BCDpQTMig7xeo8itjiWY5hj2/kwcjclzvYHq60oASaRQZHa/cwJd0GZ7mS5cOna0
39M4Qv4U4ldv6D8I2zqjiQw834+fwVsk0pGp+m4TM7Z1M2NBNLDiRDTHxwliyozl
mt2Sij0gtOEmRb462683vxS1mifm6ozX7q33USU+u200Bm8W7IXpaOwX7cPx3FHe
xW4cTRqMzpyvZ8BQpBId9ca1uJTrjsw9KVfVdm6boaZdXag4A1f/n71zooXO4pBm
qiIPJPNe5+c99R+5oWVm/FDVQP+VrcVYEg4RLwMbxoAK0h0q61brgWBlAgMBAAGj
UDBOMB0GA1UdDgQWBBQGxXjxYmxr/ET10m1SDY2/GK04ijAfBgNVHSMEGDAWgBQG
xXjxYmxr/ET10m1SDY2/GK04ijAMBgNVHRMEBTADAQH/MA0GCSqGSIb3DQEBCwUA
A4IBAQCrWh4nGFy4xeFIdKCUhxC6dQbgD3f2m5StM5rVUS7kNy4wl4NiWBpSEFCp
eyfeBn25PJcKbvfTgoKz/6ZTwMoEsUh/NRFP0Tc/3M1W/Dvvhy35fDlVHxEwkNI7
fkmHZnVj1uZANK2n5abeJHVZ2m1R9l6SjUfkYVfk4l8WMz6q2jgDxMllCbF1X9tX
K3FflwGJmCOw0+PHbntgTeNPDOZXpSEIO9IkOChXaSXh4gcBF0AR7s2I07R+VkfR
nAqP0aoy5viEXyGf/Opn3dJ/knPjPelAIUXPWcMyVo+oYId2qlF18g7HM1FQrd8E
vINn+21HblXPKGDjGeH64pZ/h0Su
-----END CERTIFICATE-----
