Certificate:
    Data:
        Version: 3 (0x2)
        Serial Number: 14039479151502690113 (0xc2d63fe768d20741)
    Signature Algorithm: sha256WithRSAEncryption
        Issuer: C=US, ST=California, L=Santa Clara, O=pkg5, OU=ta6, CN=localhost/emailAddress=ta6
        Validity
            Not Before: Dec 13 00:13:38 2013 GMT
            Not After : Sep  8 00:13:38 2016 GMT
        Subject: C=US, ST=California, L=Santa Clara, O=pkg5, OU=ta6, CN=localhost/emailAddress=ta6
        Subject Public Key Info:
            Public Key Algorithm: rsaEncryption
                Public-Key: (1024 bit)
                Modulus:
                    00:c5:43:65:b9:e0:b5:bf:68:f6:d0:67:91:49:1f:
                    53:c8:eb:36:57:b9:76:c9:d7:2d:26:4c:f2:08:38:
                    e6:5d:56:b6:20:af:72:ea:ac:98:de:14:cd:35:ed:
                    f9:b3:fb:e3:c4:1f:06:db:04:77:2a:cd:3e:3e:98:
                    9f:52:f1:9e:27:db:91:ec:f4:de:3e:53:d5:fc:ba:
                    5c:37:98:8b:b7:45:4c:bb:a9:d0:cc:b5:f8:45:a4:
                    0c:58:a0:92:60:05:26:01:96:08:c1:8d:5f:18:e8:
                    84:f1:d0:a2:f1:e3:32:67:20:52:a6:6f:7a:47:39:
                    f1:f0:c0:47:6f:3b:9e:7c:81
                Exponent: 65537 (0x10001)
        X509v3 extensions:
            X509v3 Subject Key Identifier: 
                75:D7:5E:D6:65:E8:AA:54:31:F5:3A:5C:DA:C8:EE:5C:02:46:28:26
            X509v3 Authority Key Identifier: 
                keyid:75:D7:5E:D6:65:E8:AA:54:31:F5:3A:5C:DA:C8:EE:5C:02:46:28:26

            X509v3 Basic Constraints: 
                CA:TRUE
    Signature Algorithm: sha256WithRSAEncryption
         c0:55:58:54:3d:b7:dd:d8:c4:3f:35:a4:d9:25:b3:45:08:f3:
         5b:98:16:46:40:36:01:c9:60:d4:a6:2b:9e:29:6d:89:26:d7:
         4e:69:35:ba:15:b2:d1:1a:5e:97:ad:b3:16:33:c5:5b:4f:4f:
         0e:8d:8e:b3:28:50:00:ad:88:2a:2c:60:d3:66:7c:66:95:f9:
         83:0a:ae:14:8b:d8:42:35:8d:50:7f:b2:23:1f:9b:28:ca:de:
         61:b8:6d:c5:38:4a:e1:60:da:75:42:f3:18:4c:14:ae:b0:5d:
         a9:ab:ae:10:89:09:cc:61:1e:ce:28:95:f0:44:98:33:04:9c:
         db:8f
-----BEGIN CERTIFICATE-----
MIICyDCCAjGgAwIBAgIJAMLWP+do0gdBMA0GCSqGSIb3DQEBCwUAMH0xCzAJBgNV
BAYTAlVTMRMwEQYDVQQIDApDYWxpZm9ybmlhMRQwEgYDVQQHDAtTYW50YSBDbGFy
YTENMAsGA1UECgwEcGtnNTEMMAoGA1UECwwDdGE2MRIwEAYDVQQDDAlsb2NhbGhv
c3QxEjAQBgkqhkiG9w0BCQEWA3RhNjAeFw0xMzEyMTMwMDEzMzhaFw0xNjA5MDgw
MDEzMzhaMH0xCzAJBgNVBAYTAlVTMRMwEQYDVQQIDApDYWxpZm9ybmlhMRQwEgYD
VQQHDAtTYW50YSBDbGFyYTENMAsGA1UECgwEcGtnNTEMMAoGA1UECwwDdGE2MRIw
EAYDVQQDDAlsb2NhbGhvc3QxEjAQBgkqhkiG9w0BCQEWA3RhNjCBnzANBgkqhkiG
9w0BAQEFAAOBjQAwgYkCgYEAxUNlueC1v2j20GeRSR9TyOs2V7l2ydctJkzyCDjm
XVa2IK9y6qyY3hTNNe35s/vjxB8G2wR3Ks0+PpifUvGeJ9uR7PTePlPV/LpcN5iL
t0VMu6nQzLX4RaQMWKCSYAUmAZYIwY1fGOiE8dCi8eMyZyBSpm96Rznx8MBHbzue
fIECAwEAAaNQME4wHQYDVR0OBBYEFHXXXtZl6KpUMfU6XNrI7lwCRigmMB8GA1Ud
IwQYMBaAFHXXXtZl6KpUMfU6XNrI7lwCRigmMAwGA1UdEwQFMAMBAf8wDQYJKoZI
hvcNAQELBQADgYEAwFVYVD233djEPzWk2SWzRQjzW5gWRkA2Aclg1KYrniltiSbX
Tmk1uhWy0Rpel62zFjPFW09PDo2OsyhQAK2IKixg02Z8ZpX5gwquFIvYQjWNUH+y
Ix+bKMreYbhtxThK4WDadULzGEwUrrBdqauuEIkJzGEeziiV8ESYMwSc248=
-----END CERTIFICATE-----
Certificate:
    Data:
        Version: 3 (0x2)
        Serial Number: 16709229305513134148 (0xe7e31b8629a84844)
    Signature Algorithm: sha256WithRSAEncryption
        Issuer: C=US, ST=California, L=Santa Clara, O=pkg5, OU=ta8, CN=localhost/emailAddress=ta8
        Validity
            Not Before: Dec 13 00:13:38 2013 GMT
            Not After : Sep  8 00:13:38 2016 GMT
        Subject: C=US, ST=California, L=Santa Clara, O=pkg5, OU=ta8, CN=localhost/emailAddress=ta8
        Subject Public Key Info:
            Public Key Algorithm: rsaEncryption
                Public-Key: (1024 bit)
                Modulus:
                    00:c6:4d:f7:24:79:d7:8f:a0:93:61:37:d0:a4:5c:
                    61:81:e2:1a:1c:0a:ff:ce:8b:3d:49:15:12:1c:1b:
                    b7:9c:dd:28:f6:c5:5d:2e:63:f7:67:4b:c9:8c:95:
                    5a:1c:e8:97:89:16:83:81:ff:bc:10:26:51:7c:f9:
                    f1:03:f5:51:f4:01:45:da:d4:2f:cf:d9:35:68:0c:
                    ae:11:2d:31:37:5a:73:73:c0:60:13:c8:10:73:3a:
                    7d:c9:96:8c:07:00:b1:41:52:d2:b0:5f:cd:01:06:
                    b8:d7:3f:d8:0f:17:f9:38:39:5d:2d:09:14:99:05:
                    7c:1f:1f:6f:c9:2d:7d:6e:61
                Exponent: 65537 (0x10001)
        X509v3 extensions:
            X509v3 Subject Key Identifier: 
                9E:DE:D5:93:0F:57:31:37:6C:9A:F7:DA:A2:A0:D2:CE:F4:65:EC:86
            X509v3 Authority Key Identifier: 
                keyid:9E:DE:D5:93:0F:57:31:37:6C:9A:F7:DA:A2:A0:D2:CE:F4:65:EC:86

            X509v3 Basic Constraints: 
                CA:TRUE
    Signature Algorithm: sha256WithRSAEncryption
         81:1f:1d:b5:60:85:60:4f:9f:cc:9a:12:99:4a:dc:fb:49:2b:
         70:9d:21:1e:d7:be:fe:a8:b8:eb:fd:49:e2:99:72:ae:0e:be:
         cf:bc:c4:88:11:8e:5b:6c:d5:68:d0:cb:52:1a:7c:65:a2:c1:
         1f:08:7e:31:6e:28:18:fa:04:90:70:d5:96:aa:89:97:9d:61:
         08:47:f5:75:4c:9d:96:c7:37:8f:3e:f2:04:bc:48:a6:89:65:
         25:27:13:70:5a:f7:97:ba:42:61:a5:d9:69:44:08:34:19:4d:
         6e:1c:e7:23:25:1f:c0:f3:ad:fa:56:c2:02:75:ed:c2:51:ca:
         cf:96
-----BEGIN CERTIFICATE-----
MIICyDCCAjGgAwIBAgIJAOfjG4YpqEhEMA0GCSqGSIb3DQEBCwUAMH0xCzAJBgNV
BAYTAlVTMRMwEQYDVQQIDApDYWxpZm9ybmlhMRQwEgYDVQQHDAtTYW50YSBDbGFy
YTENMAsGA1UECgwEcGtnNTEMMAoGA1UECwwDdGE4MRIwEAYDVQQDDAlsb2NhbGhv
c3QxEjAQBgkqhkiG9w0BCQEWA3RhODAeFw0xMzEyMTMwMDEzMzhaFw0xNjA5MDgw
MDEzMzhaMH0xCzAJBgNVBAYTAlVTMRMwEQYDVQQIDApDYWxpZm9ybmlhMRQwEgYD
VQQHDAtTYW50YSBDbGFyYTENMAsGA1UECgwEcGtnNTEMMAoGA1UECwwDdGE4MRIw
EAYDVQQDDAlsb2NhbGhvc3QxEjAQBgkqhkiG9w0BCQEWA3RhODCBnzANBgkqhkiG
9w0BAQEFAAOBjQAwgYkCgYEAxk33JHnXj6CTYTfQpFxhgeIaHAr/zos9SRUSHBu3
nN0o9sVdLmP3Z0vJjJVaHOiXiRaDgf+8ECZRfPnxA/VR9AFF2tQvz9k1aAyuES0x
N1pzc8BgE8gQczp9yZaMBwCxQVLSsF/NAQa41z/YDxf5ODldLQkUmQV8Hx9vyS19
bmECAwEAAaNQME4wHQYDVR0OBBYEFJ7e1ZMPVzE3bJr32qKg0s70ZeyGMB8GA1Ud
IwQYMBaAFJ7e1ZMPVzE3bJr32qKg0s70ZeyGMAwGA1UdEwQFMAMBAf8wDQYJKoZI
hvcNAQELBQADgYEAgR8dtWCFYE+fzJoSmUrc+0krcJ0hHte+/qi46/1J4plyrg6+
z7zEiBGOW2zVaNDLUhp8ZaLBHwh+MW4oGPoEkHDVlqqJl51hCEf1dUydlsc3jz7y
BLxIpollJScTcFr3l7pCYaXZaUQINBlNbhznIyUfwPOt+lbCAnXtwlHKz5Y=
-----END CERTIFICATE-----
Certificate:
    Data:
        Version: 3 (0x2)
        Serial Number: 16519569919148996401 (0xe5414d51291ab731)
    Signature Algorithm: sha256WithRSAEncryption
        Issuer: C=US, ST=California, L=Santa Clara, O=pkg5, OU=ta9, CN=localhost/emailAddress=ta9
        Validity
            Not Before: Dec 13 00:13:38 2013 GMT
            Not After : Sep  8 00:13:38 2016 GMT
        Subject: C=US, ST=California, L=Santa Clara, O=pkg5, OU=ta9, CN=localhost/emailAddress=ta9
        Subject Public Key Info:
            Public Key Algorithm: rsaEncryption
                Public-Key: (1024 bit)
                Modulus:
                    00:c9:8a:2d:0d:53:04:e8:02:bb:bc:27:df:0e:b8:
                    33:25:07:54:61:d0:d9:b6:08:33:5b:c3:eb:4c:a1:
                    1f:9f:51:cc:a9:83:07:16:15:9c:69:0b:48:74:62:
                    35:5f:a3:94:38:37:0f:3f:5f:58:26:9a:36:0b:a2:
                    0f:bb:9b:57:ff:fd:70:01:d6:28:a2:b6:67:ed:a9:
                    c8:90:15:b5:7f:91:60:32:ff:96:13:a4:3f:09:23:
                    70:2f:38:6f:24:54:41:95:2f:91:5a:6e:a5:aa:77:
                    da:6c:50:ee:62:e5:85:8a:67:63:7d:fc:07:30:ba:
                    f3:96:93:6c:5d:5f:9e:2e:07
                Exponent: 65537 (0x10001)
        X509v3 extensions:
            X509v3 Subject Key Identifier: 
                E8:5E:8E:77:D1:61:64:BB:48:AF:38:95:0C:57:16:4E:E3:77:3D:35
            X509v3 Authority Key Identifier: 
                keyid:E8:5E:8E:77:D1:61:64:BB:48:AF:38:95:0C:57:16:4E:E3:77:3D:35

            X509v3 Basic Constraints: 
                CA:TRUE
    Signature Algorithm: sha256WithRSAEncryption
         3e:20:dc:10:1b:b4:83:9a:0a:9a:41:d3:6f:ec:ef:5b:51:0f:
         a7:4a:49:0e:b3:86:f6:0f:c2:84:ea:0f:b2:08:6d:a2:7c:e4:
         24:10:ba:45:c2:c3:9e:07:b9:c3:74:10:f2:74:7f:c7:61:2e:
         0e:45:33:00:c4:19:32:61:2b:58:0a:f4:51:7a:03:66:68:32:
         27:c3:20:27:af:c4:93:64:45:0d:16:0e:ca:2b:86:f6:1c:22:
         13:74:5a:d2:68:fc:45:11:b8:f1:13:26:e1:e4:c2:b7:b5:b8:
         f8:fc:cc:6d:fb:87:3e:5d:53:31:ba:99:16:65:7b:b1:6c:e9:
         78:8a
-----BEGIN CERTIFICATE-----
MIICyDCCAjGgAwIBAgIJAOVBTVEpGrcxMA0GCSqGSIb3DQEBCwUAMH0xCzAJBgNV
BAYTAlVTMRMwEQYDVQQIDApDYWxpZm9ybmlhMRQwEgYDVQQHDAtTYW50YSBDbGFy
YTENMAsGA1UECgwEcGtnNTEMMAoGA1UECwwDdGE5MRIwEAYDVQQDDAlsb2NhbGhv
c3QxEjAQBgkqhkiG9w0BCQEWA3RhOTAeFw0xMzEyMTMwMDEzMzhaFw0xNjA5MDgw
MDEzMzhaMH0xCzAJBgNVBAYTAlVTMRMwEQYDVQQIDApDYWxpZm9ybmlhMRQwEgYD
VQQHDAtTYW50YSBDbGFyYTENMAsGA1UECgwEcGtnNTEMMAoGA1UECwwDdGE5MRIw
EAYDVQQDDAlsb2NhbGhvc3QxEjAQBgkqhkiG9w0BCQEWA3RhOTCBnzANBgkqhkiG
9w0BAQEFAAOBjQAwgYkCgYEAyYotDVME6AK7vCffDrgzJQdUYdDZtggzW8PrTKEf
n1HMqYMHFhWcaQtIdGI1X6OUODcPP19YJpo2C6IPu5tX//1wAdYoorZn7anIkBW1
f5FgMv+WE6Q/CSNwLzhvJFRBlS+RWm6lqnfabFDuYuWFimdjffwHMLrzlpNsXV+e
LgcCAwEAAaNQME4wHQYDVR0OBBYEFOhejnfRYWS7SK84lQxXFk7jdz01MB8GA1Ud
IwQYMBaAFOhejnfRYWS7SK84lQxXFk7jdz01MAwGA1UdEwQFMAMBAf8wDQYJKoZI
hvcNAQELBQADgYEAPiDcEBu0g5oKmkHTb+zvW1EPp0pJDrOG9g/ChOoPsghtonzk
JBC6RcLDnge5w3QQ8nR/x2EuDkUzAMQZMmErWAr0UXoDZmgyJ8MgJ6/Ek2RFDRYO
yiuG9hwiE3Ra0mj8RRG48RMm4eTCt7W4+PzMbfuHPl1TMbqZFmV7sWzpeIo=
-----END CERTIFICATE-----
Certificate:
    Data:
        Version: 3 (0x2)
        Serial Number: 9711796497956498587 (0x86c73b75a7946c9b)
    Signature Algorithm: sha256WithRSAEncryption
        Issuer: C=US, ST=California, L=Santa Clara, O=pkg5, OU=ta10, CN=localhost/emailAddress=ta10
        Validity
            Not Before: Dec 13 00:13:39 2013 GMT
            Not After : Sep  8 00:13:39 2016 GMT
        Subject: C=US, ST=California, L=Santa Clara, O=pkg5, OU=ta10, CN=localhost/emailAddress=ta10
        Subject Public Key Info:
            Public Key Algorithm: rsaEncryption
                Public-Key: (1024 bit)
                Modulus:
                    00:ab:08:de:44:e1:7d:cf:87:e5:0d:f9:b6:66:79:
                    45:4b:18:3f:c4:c3:bc:3c:4e:10:1c:23:36:0b:17:
                    8e:53:e9:1d:52:c0:d3:78:ce:74:30:13:d9:3e:98:
                    8e:08:94:fe:76:94:55:7a:d9:73:87:01:5e:dd:c7:
                    7b:5e:56:94:a6:5d:e6:8a:ab:22:03:cf:e1:7a:1c:
                    7e:fb:16:c2:7c:f4:a3:6c:46:28:0b:15:15:e9:92:
                    4f:50:a3:e3:04:25:91:6d:d0:71:2f:66:b3:20:64:
                    db:f1:60:8d:3f:52:94:13:f1:f1:00:93:0b:20:be:
                    f3:98:7d:c8:58:e3:f0:e9:c5
                Exponent: 65537 (0x10001)
        X509v3 extensions:
            X509v3 Subject Key Identifier: 
                61:D2:DF:69:D2:65:98:6E:36:8B:4E:A5:34:33:A7:EF:84:5D:DE:F4
            X509v3 Authority Key Identifier: 
                keyid:61:D2:DF:69:D2:65:98:6E:36:8B:4E:A5:34:33:A7:EF:84:5D:DE:F4

            X509v3 Basic Constraints: 
                CA:TRUE
    Signature Algorithm: sha256WithRSAEncryption
         48:43:2e:21:5e:c5:85:b1:97:37:72:7a:4a:a3:c0:db:5f:c4:
         42:51:d0:3e:f5:20:43:f6:72:61:b3:fb:8f:13:71:36:0e:8e:
         33:8c:14:7d:c2:39:ed:36:a9:55:db:bd:24:de:96:2c:b2:61:
         d5:95:36:97:e4:b6:17:d3:a5:6c:8c:96:1a:89:54:ab:43:f0:
         76:b1:f6:f1:4a:0d:69:79:ea:95:38:76:c8:5b:cc:99:ca:ba:
         0d:71:7d:0f:d0:31:8c:94:a9:2d:7b:91:56:98:a1:ea:75:08:
         ea:fe:03:e0:23:09:32:00:88:1e:83:f6:fe:df:40:3c:78:25:
         ae:e5
-----BEGIN CERTIFICATE-----
MIICzDCCAjWgAwIBAgIJAIbHO3WnlGybMA0GCSqGSIb3DQEBCwUAMH8xCzAJBgNV
BAYTAlVTMRMwEQYDVQQIDApDYWxpZm9ybmlhMRQwEgYDVQQHDAtTYW50YSBDbGFy
YTENMAsGA1UECgwEcGtnNTENMAsGA1UECwwEdGExMDESMBAGA1UEAwwJbG9jYWxo
b3N0MRMwEQYJKoZIhvcNAQkBFgR0YTEwMB4XDTEzMTIxMzAwMTMzOVoXDTE2MDkw
ODAwMTMzOVowfzELMAkGA1UEBhMCVVMxEzARBgNVBAgMCkNhbGlmb3JuaWExFDAS
BgNVBAcMC1NhbnRhIENsYXJhMQ0wCwYDVQQKDARwa2c1MQ0wCwYDVQQLDAR0YTEw
MRIwEAYDVQQDDAlsb2NhbGhvc3QxEzARBgkqhkiG9w0BCQEWBHRhMTAwgZ8wDQYJ
KoZIhvcNAQEBBQADgY0AMIGJAoGBAKsI3kThfc+H5Q35tmZ5RUsYP8TDvDxOEBwj
NgsXjlPpHVLA03jOdDAT2T6YjgiU/naUVXrZc4cBXt3He15WlKZd5oqrIgPP4Xoc
fvsWwnz0o2xGKAsVFemST1Cj4wQlkW3QcS9msyBk2/FgjT9SlBPx8QCTCyC+85h9
yFjj8OnFAgMBAAGjUDBOMB0GA1UdDgQWBBRh0t9p0mWYbjaLTqU0M6fvhF3e9DAf
BgNVHSMEGDAWgBRh0t9p0mWYbjaLTqU0M6fvhF3e9DAMBgNVHRMEBTADAQH/MA0G
CSqGSIb3DQEBCwUAA4GBAEhDLiFexYWxlzdyekqjwNtfxEJR0D71IEP2cmGz+48T
cTYOjjOMFH3COe02qVXbvSTeliyyYdWVNpfkthfTpWyMlhqJVKtD8Hax9vFKDWl5
6pU4dshbzJnKug1xfQ/QMYyUqS17kVaYoep1COr+A+AjCTIAiB6D9v7fQDx4Ja7l
-----END CERTIFICATE-----
Certificate:
    Data:
        Version: 3 (0x2)
        Serial Number: 10111560406944601325 (0x8c537a9de4d654ed)
    Signature Algorithm: sha256WithRSAEncryption
        Issuer: C=US, ST=California, L=Santa Clara, O=pkg5, OU=ta11, CN=localhost/emailAddress=ta11
        Validity
            Not Before: Dec 13 00:13:39 2013 GMT
            Not After : Sep  8 00:13:39 2016 GMT
        Subject: C=US, ST=California, L=Santa Clara, O=pkg5, OU=ta11, CN=localhost/emailAddress=ta11
        Subject Public Key Info:
            Public Key Algorithm: rsaEncryption
                Public-Key: (1024 bit)
                Modulus:
                    00:f3:d5:2f:b4:3e:12:ee:e5:01:6a:41:a4:09:1b:
                    12:5f:f3:d5:a2:7e:3c:d8:6f:6f:a7:30:af:72:3d:
                    f4:f4:31:30:94:b9:09:d8:2f:36:ba:12:61:56:8c:
                    87:f9:52:6f:8b:b5:28:d1:23:93:f3:20:d4:b5:2d:
                    ca:29:10:f5:10:7b:ad:d6:ee:de:40:22:d9:10:32:
                    30:93:27:22:6d:87:f9:ed:85:16:c2:6d:da:24:51:
                    db:1a:00:53:2b:65:4a:ce:24:0f:cf:57:f1:c0:51:
                    9e:0c:ac:2f:17:5d:72:c1:f4:8d:83:20:41:d3:10:
                    5f:f2:e0:2d:9f:ec:da:97:7d
                Exponent: 65537 (0x10001)
        X509v3 extensions:
            X509v3 Subject Key Identifier: 
                BD:98:0D:A4:4D:61:87:11:83:C8:53:D1:C9:62:9D:ED:45:61:DD:42
            X509v3 Authority Key Identifier: 
                keyid:BD:98:0D:A4:4D:61:87:11:83:C8:53:D1:C9:62:9D:ED:45:61:DD:42

            X509v3 Basic Constraints: 
                CA:TRUE
    Signature Algorithm: sha256WithRSAEncryption
         36:46:25:95:5e:65:37:e1:c4:14:31:7a:2a:a8:16:c0:bf:77:
         ae:6a:17:f6:f2:dc:7c:0c:84:52:bb:07:4c:cb:1c:4e:80:b3:
         55:74:15:69:40:a2:54:e9:e5:f8:2e:2f:b2:c9:37:ef:3d:7f:
         87:64:02:e3:7c:f2:ec:97:77:b4:63:77:80:c1:61:25:fb:d5:
         e0:26:c1:89:f0:0e:5d:65:d4:ba:d7:55:7b:ce:af:77:55:65:
         96:7a:8d:7d:e5:79:a0:88:13:7a:cf:cf:4e:4d:a8:34:2d:3b:
         f3:b2:44:f9:8b:c9:91:44:36:0f:94:eb:45:dd:2d:03:68:3e:
         38:2e
-----BEGIN CERTIFICATE-----
MIICzDCCAjWgAwIBAgIJAIxTep3k1lTtMA0GCSqGSIb3DQEBCwUAMH8xCzAJBgNV
BAYTAlVTMRMwEQYDVQQIDApDYWxpZm9ybmlhMRQwEgYDVQQHDAtTYW50YSBDbGFy
YTENMAsGA1UECgwEcGtnNTENMAsGA1UECwwEdGExMTESMBAGA1UEAwwJbG9jYWxo
b3N0MRMwEQYJKoZIhvcNAQkBFgR0YTExMB4XDTEzMTIxMzAwMTMzOVoXDTE2MDkw
ODAwMTMzOVowfzELMAkGA1UEBhMCVVMxEzARBgNVBAgMCkNhbGlmb3JuaWExFDAS
BgNVBAcMC1NhbnRhIENsYXJhMQ0wCwYDVQQKDARwa2c1MQ0wCwYDVQQLDAR0YTEx
MRIwEAYDVQQDDAlsb2NhbGhvc3QxEzARBgkqhkiG9w0BCQEWBHRhMTEwgZ8wDQYJ
KoZIhvcNAQEBBQADgY0AMIGJAoGBAPPVL7Q+Eu7lAWpBpAkbEl/z1aJ+PNhvb6cw
r3I99PQxMJS5CdgvNroSYVaMh/lSb4u1KNEjk/Mg1LUtyikQ9RB7rdbu3kAi2RAy
MJMnIm2H+e2FFsJt2iRR2xoAUytlSs4kD89X8cBRngysLxddcsH0jYMgQdMQX/Lg
LZ/s2pd9AgMBAAGjUDBOMB0GA1UdDgQWBBS9mA2kTWGHEYPIU9HJYp3tRWHdQjAf
BgNVHSMEGDAWgBS9mA2kTWGHEYPIU9HJYp3tRWHdQjAMBgNVHRMEBTADAQH/MA0G
CSqGSIb3DQEBCwUAA4GBADZGJZVeZTfhxBQxeiqoFsC/d65qF/by3HwMhFK7B0zL
HE6As1V0FWlAolTp5fguL7LJN+89f4dkAuN88uyXd7Rjd4DBYSX71eAmwYnwDl1l
1LrXVXvOr3dVZZZ6jX3leaCIE3rPz05NqDQtO/OyRPmLyZFENg+U60XdLQNoPjgu
-----END CERTIFICATE-----
