Certificate:
    Data:
        Version: 3 (0x2)
        Serial Number:
            93:ae:7e:2d:c9:61:8f:4b
        Signature Algorithm: sha256WithRSAEncryption
        Issuer: C=US, ST=California, L=Menlo Park, O=pkg5, OU=ta6, CN=localhost/emailAddress=ta6
        Validity
            Not Before: Apr 11 22:37:52 2011 GMT
            Not After : Jan  5 22:37:52 2014 GMT
        Subject: C=US, ST=California, L=Menlo Park, O=pkg5, OU=ta6, CN=localhost/emailAddress=ta6
        Subject Public Key Info:
            Public Key Algorithm: rsaEncryption
            RSA Public Key: (1024 bit)
                Modulus (1024 bit):
                    00:c5:41:a2:3d:00:af:e2:71:29:e6:18:c2:73:65:
                    fc:4a:9d:e3:f7:1a:6e:7a:f5:09:81:87:cd:cf:a9:
                    74:a9:e4:47:da:e2:fa:bd:0e:0a:ae:ba:06:e8:1b:
                    66:e3:8a:5e:bb:87:90:5e:d1:38:7d:12:93:72:a0:
                    4b:88:77:dd:ce:02:67:9f:c5:be:49:cb:b7:e8:0e:
                    bd:f0:78:37:55:bb:c5:91:6e:c7:7b:9c:b3:94:a2:
                    24:7d:09:25:74:52:22:6d:4a:34:f8:92:71:b1:e9:
                    74:9b:8e:87:d4:2a:46:f8:fa:8f:86:5c:b5:6b:20:
                    24:d1:37:ea:8a:87:07:e3:ad
                Exponent: 65537 (0x10001)
        X509v3 extensions:
            X509v3 Subject Key Identifier: 
                0C:08:1A:2C:FA:77:26:CE:37:0F:A5:85:98:85:0F:4D:48:BA:83:B3
            X509v3 Authority Key Identifier: 
                keyid:0C:08:1A:2C:FA:77:26:CE:37:0F:A5:85:98:85:0F:4D:48:BA:83:B3
                DirName:/C=US/ST=California/L=Menlo Park/O=pkg5/OU=ta6/CN=localhost/emailAddress=ta6
                serial:93:AE:7E:2D:C9:61:8F:4B

            X509v3 Basic Constraints: 
                CA:TRUE
    Signature Algorithm: sha256WithRSAEncryption
        10:2c:ed:b9:a4:aa:bd:9e:4d:47:dd:02:64:52:a9:7a:73:a7:
        f3:58:45:cf:da:5c:1e:80:30:d9:10:a7:e4:79:d2:eb:85:8b:
        70:4c:39:df:b6:40:fb:7f:11:cd:a8:85:d6:5c:d1:2f:29:9f:
        8d:fa:53:bc:20:f3:c8:97:9b:11:f4:7d:39:9a:2c:a6:6e:1e:
        a4:0d:81:e0:65:59:89:f6:a9:66:65:38:05:44:e7:47:a2:9e:
        a2:e3:82:07:2c:cb:8e:dc:47:a2:e9:cb:01:6a:54:c1:26:14:
        03:e9:c3:ac:fe:98:0e:76:52:f3:5b:67:ea:26:0d:98:6d:e4:
        23:ac
-----BEGIN CERTIFICATE-----
MIIDWTCCAsKgAwIBAgIJAJOufi3JYY9LMA0GCSqGSIb3DQEBCwUAMHwxCzAJBgNV
BAYTAlVTMRMwEQYDVQQIEwpDYWxpZm9ybmlhMRMwEQYDVQQHEwpNZW5sbyBQYXJr
MQ0wCwYDVQQKEwRwa2c1MQwwCgYDVQQLEwN0YTYxEjAQBgNVBAMTCWxvY2FsaG9z
dDESMBAGCSqGSIb3DQEJARYDdGE2MB4XDTExMDQxMTIyMzc1MloXDTE0MDEwNTIy
Mzc1MlowfDELMAkGA1UEBhMCVVMxEzARBgNVBAgTCkNhbGlmb3JuaWExEzARBgNV
BAcTCk1lbmxvIFBhcmsxDTALBgNVBAoTBHBrZzUxDDAKBgNVBAsTA3RhNjESMBAG
A1UEAxMJbG9jYWxob3N0MRIwEAYJKoZIhvcNAQkBFgN0YTYwgZ8wDQYJKoZIhvcN
AQEBBQADgY0AMIGJAoGBAMVBoj0Ar+JxKeYYwnNl/Eqd4/cabnr1CYGHzc+pdKnk
R9ri+r0OCq66BugbZuOKXruHkF7ROH0Sk3KgS4h33c4CZ5/FvknLt+gOvfB4N1W7
xZFux3ucs5SiJH0JJXRSIm1KNPiScbHpdJuOh9QqRvj6j4ZctWsgJNE36oqHB+Ot
AgMBAAGjgeIwgd8wHQYDVR0OBBYEFAwIGiz6dybONw+lhZiFD01IuoOzMIGvBgNV
HSMEgacwgaSAFAwIGiz6dybONw+lhZiFD01IuoOzoYGApH4wfDELMAkGA1UEBhMC
VVMxEzARBgNVBAgTCkNhbGlmb3JuaWExEzARBgNVBAcTCk1lbmxvIFBhcmsxDTAL
BgNVBAoTBHBrZzUxDDAKBgNVBAsTA3RhNjESMBAGA1UEAxMJbG9jYWxob3N0MRIw
EAYJKoZIhvcNAQkBFgN0YTaCCQCTrn4tyWGPSzAMBgNVHRMEBTADAQH/MA0GCSqG
SIb3DQEBCwUAA4GBABAs7bmkqr2eTUfdAmRSqXpzp/NYRc/aXB6AMNkQp+R50uuF
i3BMOd+2QPt/Ec2ohdZc0S8pn436U7wg88iXmxH0fTmaLKZuHqQNgeBlWYn2qWZl
OAVE50einqLjggcsy47cR6LpywFqVMEmFAPpw6z+mA52UvNbZ+omDZht5COs
-----END CERTIFICATE-----
Certificate:
    Data:
        Version: 3 (0x2)
        Serial Number:
            b8:9a:b1:4d:fa:a9:68:23
        Signature Algorithm: sha256WithRSAEncryption
        Issuer: C=US, ST=California, L=Menlo Park, O=pkg5, OU=ta8, CN=localhost/emailAddress=ta8
        Validity
            Not Before: Apr 11 22:37:54 2011 GMT
            Not After : Jan  5 22:37:54 2014 GMT
        Subject: C=US, ST=California, L=Menlo Park, O=pkg5, OU=ta8, CN=localhost/emailAddress=ta8
        Subject Public Key Info:
            Public Key Algorithm: rsaEncryption
            RSA Public Key: (1024 bit)
                Modulus (1024 bit):
                    00:da:5e:85:e0:17:14:35:c1:e8:f4:b6:97:15:d1:
                    f5:c3:36:26:57:85:5c:0c:e8:8e:d7:2b:10:66:b2:
                    61:92:a3:df:a4:4f:61:52:41:9c:3b:2f:0e:bc:bd:
                    92:9b:e2:4c:ec:68:34:76:2c:86:54:e5:8b:9e:ac:
                    2f:7e:4f:07:52:ec:7f:51:31:ed:9e:94:ed:7e:15:
                    da:4f:fb:65:d0:07:85:c2:60:69:ce:ac:74:72:8a:
                    45:31:e4:6c:3e:5e:05:bc:d3:2f:37:56:14:c2:2e:
                    78:78:6b:93:14:e5:61:08:22:ef:4d:f9:bb:1b:1f:
                    31:09:12:7a:ad:e5:cf:18:5b
                Exponent: 65537 (0x10001)
        X509v3 extensions:
            X509v3 Subject Key Identifier: 
                BB:CA:54:46:B9:0F:22:DB:69:82:15:BB:66:36:9D:50:1D:0B:1B:F5
            X509v3 Authority Key Identifier: 
                keyid:BB:CA:54:46:B9:0F:22:DB:69:82:15:BB:66:36:9D:50:1D:0B:1B:F5
                DirName:/C=US/ST=California/L=Menlo Park/O=pkg5/OU=ta8/CN=localhost/emailAddress=ta8
                serial:B8:9A:B1:4D:FA:A9:68:23

            X509v3 Basic Constraints: 
                CA:TRUE
    Signature Algorithm: sha256WithRSAEncryption
        7a:13:83:75:43:35:e1:4d:07:93:8d:1c:fd:4d:8f:5c:24:78:
        f5:01:35:4c:a5:ad:5f:92:f3:23:21:0c:2d:dc:64:a5:7f:c2:
        3c:c9:e3:b0:4e:d8:17:4e:76:4c:4d:71:fb:b9:3d:d9:51:b8:
        fc:e0:91:a6:5c:18:c8:06:55:cc:a9:ba:9e:59:92:c4:5c:04:
        11:e2:d9:99:1d:cb:bd:9d:6c:c2:0e:9e:f0:4c:20:69:6b:b1:
        76:b6:d4:c0:e6:6c:4b:1e:18:cb:71:4a:9b:13:ca:db:c8:a4:
        0e:35:c0:91:70:04:9c:32:bd:15:a2:36:72:97:d0:7b:d0:6c:
        dc:03
-----BEGIN CERTIFICATE-----
MIIDWTCCAsKgAwIBAgIJALiasU36qWgjMA0GCSqGSIb3DQEBCwUAMHwxCzAJBgNV
BAYTAlVTMRMwEQYDVQQIEwpDYWxpZm9ybmlhMRMwEQYDVQQHEwpNZW5sbyBQYXJr
MQ0wCwYDVQQKEwRwa2c1MQwwCgYDVQQLEwN0YTgxEjAQBgNVBAMTCWxvY2FsaG9z
dDESMBAGCSqGSIb3DQEJARYDdGE4MB4XDTExMDQxMTIyMzc1NFoXDTE0MDEwNTIy
Mzc1NFowfDELMAkGA1UEBhMCVVMxEzARBgNVBAgTCkNhbGlmb3JuaWExEzARBgNV
BAcTCk1lbmxvIFBhcmsxDTALBgNVBAoTBHBrZzUxDDAKBgNVBAsTA3RhODESMBAG
A1UEAxMJbG9jYWxob3N0MRIwEAYJKoZIhvcNAQkBFgN0YTgwgZ8wDQYJKoZIhvcN
AQEBBQADgY0AMIGJAoGBANpeheAXFDXB6PS2lxXR9cM2JleFXAzojtcrEGayYZKj
36RPYVJBnDsvDry9kpviTOxoNHYshlTli56sL35PB1Lsf1Ex7Z6U7X4V2k/7ZdAH
hcJgac6sdHKKRTHkbD5eBbzTLzdWFMIueHhrkxTlYQgi7035uxsfMQkSeq3lzxhb
AgMBAAGjgeIwgd8wHQYDVR0OBBYEFLvKVEa5DyLbaYIVu2Y2nVAdCxv1MIGvBgNV
HSMEgacwgaSAFLvKVEa5DyLbaYIVu2Y2nVAdCxv1oYGApH4wfDELMAkGA1UEBhMC
VVMxEzARBgNVBAgTCkNhbGlmb3JuaWExEzARBgNVBAcTCk1lbmxvIFBhcmsxDTAL
BgNVBAoTBHBrZzUxDDAKBgNVBAsTA3RhODESMBAGA1UEAxMJbG9jYWxob3N0MRIw
EAYJKoZIhvcNAQkBFgN0YTiCCQC4mrFN+qloIzAMBgNVHRMEBTADAQH/MA0GCSqG
SIb3DQEBCwUAA4GBAHoTg3VDNeFNB5ONHP1Nj1wkePUBNUylrV+S8yMhDC3cZKV/
wjzJ47BO2BdOdkxNcfu5PdlRuPzgkaZcGMgGVcypup5ZksRcBBHi2Zkdy72dbMIO
nvBMIGlrsXa21MDmbEseGMtxSpsTytvIpA41wJFwBJwyvRWiNnKX0HvQbNwD
-----END CERTIFICATE-----
Certificate:
    Data:
        Version: 3 (0x2)
        Serial Number:
            a1:62:e1:e5:c0:a2:38:0d
        Signature Algorithm: sha256WithRSAEncryption
        Issuer: C=US, ST=California, L=Menlo Park, O=pkg5, OU=ta9, CN=localhost/emailAddress=ta9
        Validity
            Not Before: Apr 11 22:37:54 2011 GMT
            Not After : Jan  5 22:37:54 2014 GMT
        Subject: C=US, ST=California, L=Menlo Park, O=pkg5, OU=ta9, CN=localhost/emailAddress=ta9
        Subject Public Key Info:
            Public Key Algorithm: rsaEncryption
            RSA Public Key: (1024 bit)
                Modulus (1024 bit):
                    00:e8:ab:ef:91:ca:05:4a:18:a2:98:c4:d8:93:d0:
                    ce:99:a9:5e:02:8d:5d:5c:e3:f3:84:49:6b:a7:6d:
                    ef:38:77:2e:32:c2:9c:09:1d:f6:be:6c:c6:c4:b1:
                    c8:c3:32:72:2b:84:87:f6:ba:bf:fc:cf:5c:05:c2:
                    4f:62:23:7e:02:3f:ce:6c:c6:b6:95:86:84:d7:97:
                    9f:1c:87:70:29:62:6a:29:7c:06:a3:b7:18:12:67:
                    07:3a:89:aa:f0:99:fe:df:46:00:b1:2f:aa:30:1e:
                    a2:1e:f8:2b:37:99:21:b8:85:53:42:98:4a:bd:c5:
                    f9:b4:61:60:0a:73:bc:0e:d1
                Exponent: 65537 (0x10001)
        X509v3 extensions:
            X509v3 Subject Key Identifier: 
                A6:CF:35:00:96:15:AD:B4:24:DE:1D:5A:B9:56:A2:6E:B4:2D:46:C5
            X509v3 Authority Key Identifier: 
                keyid:A6:CF:35:00:96:15:AD:B4:24:DE:1D:5A:B9:56:A2:6E:B4:2D:46:C5
                DirName:/C=US/ST=California/L=Menlo Park/O=pkg5/OU=ta9/CN=localhost/emailAddress=ta9
                serial:A1:62:E1:E5:C0:A2:38:0D

            X509v3 Basic Constraints: 
                CA:TRUE
    Signature Algorithm: sha256WithRSAEncryption
        44:02:da:cf:c3:07:27:84:e4:06:22:ff:fc:7e:c9:47:7a:79:
        e1:9f:6a:84:68:a8:fb:48:18:80:58:0f:b0:5e:ef:43:bf:3a:
        69:23:b2:18:3e:78:3a:8e:ff:c5:d8:76:4c:99:d5:9f:be:8a:
        fd:0e:79:b9:7e:62:c4:c2:4b:6f:78:01:e7:52:19:ff:08:86:
        a7:b2:17:0c:11:03:ef:42:1f:b5:5b:40:0a:3a:9f:2a:4f:57:
        31:3d:b1:dd:a8:51:e1:2f:b2:e4:5b:2e:1b:9f:a7:d6:b7:6b:
        76:68:f9:2e:b1:38:6f:11:21:0e:81:a2:32:01:7b:bc:c3:1f:
        82:4e
-----BEGIN CERTIFICATE-----
MIIDWTCCAsKgAwIBAgIJAKFi4eXAojgNMA0GCSqGSIb3DQEBCwUAMHwxCzAJBgNV
BAYTAlVTMRMwEQYDVQQIEwpDYWxpZm9ybmlhMRMwEQYDVQQHEwpNZW5sbyBQYXJr
MQ0wCwYDVQQKEwRwa2c1MQwwCgYDVQQLEwN0YTkxEjAQBgNVBAMTCWxvY2FsaG9z
dDESMBAGCSqGSIb3DQEJARYDdGE5MB4XDTExMDQxMTIyMzc1NFoXDTE0MDEwNTIy
Mzc1NFowfDELMAkGA1UEBhMCVVMxEzARBgNVBAgTCkNhbGlmb3JuaWExEzARBgNV
BAcTCk1lbmxvIFBhcmsxDTALBgNVBAoTBHBrZzUxDDAKBgNVBAsTA3RhOTESMBAG
A1UEAxMJbG9jYWxob3N0MRIwEAYJKoZIhvcNAQkBFgN0YTkwgZ8wDQYJKoZIhvcN
AQEBBQADgY0AMIGJAoGBAOir75HKBUoYopjE2JPQzpmpXgKNXVzj84RJa6dt7zh3
LjLCnAkd9r5sxsSxyMMyciuEh/a6v/zPXAXCT2IjfgI/zmzGtpWGhNeXnxyHcCli
ail8BqO3GBJnBzqJqvCZ/t9GALEvqjAeoh74KzeZIbiFU0KYSr3F+bRhYApzvA7R
AgMBAAGjgeIwgd8wHQYDVR0OBBYEFKbPNQCWFa20JN4dWrlWom60LUbFMIGvBgNV
HSMEgacwgaSAFKbPNQCWFa20JN4dWrlWom60LUbFoYGApH4wfDELMAkGA1UEBhMC
VVMxEzARBgNVBAgTCkNhbGlmb3JuaWExEzARBgNVBAcTCk1lbmxvIFBhcmsxDTAL
BgNVBAoTBHBrZzUxDDAKBgNVBAsTA3RhOTESMBAGA1UEAxMJbG9jYWxob3N0MRIw
EAYJKoZIhvcNAQkBFgN0YTmCCQChYuHlwKI4DTAMBgNVHRMEBTADAQH/MA0GCSqG
SIb3DQEBCwUAA4GBAEQC2s/DByeE5AYi//x+yUd6eeGfaoRoqPtIGIBYD7Be70O/
Omkjshg+eDqO/8XYdkyZ1Z++iv0Oebl+YsTCS294AedSGf8IhqeyFwwRA+9CH7Vb
QAo6nypPVzE9sd2oUeEvsuRbLhufp9a3a3Zo+S6xOG8RIQ6BojIBe7zDH4JO
-----END CERTIFICATE-----
Certificate:
    Data:
        Version: 3 (0x2)
        Serial Number:
            86:f1:45:12:31:c7:2b:2a
        Signature Algorithm: sha256WithRSAEncryption
        Issuer: C=US, ST=California, L=Menlo Park, O=pkg5, OU=ta10, CN=localhost/emailAddress=ta10
        Validity
            Not Before: Apr 11 22:37:55 2011 GMT
            Not After : Jan  5 22:37:55 2014 GMT
        Subject: C=US, ST=California, L=Menlo Park, O=pkg5, OU=ta10, CN=localhost/emailAddress=ta10
        Subject Public Key Info:
            Public Key Algorithm: rsaEncryption
            RSA Public Key: (1024 bit)
                Modulus (1024 bit):
                    00:b6:50:43:73:64:12:40:26:54:0c:f9:67:e4:6a:
                    ed:1f:18:e5:73:89:13:0f:c9:5f:6e:6e:c6:05:ad:
                    2c:be:e4:6b:fd:c6:4f:ea:f3:6f:0d:f4:1a:34:7f:
                    03:97:b0:a4:d1:6e:98:d2:36:fa:33:5d:51:37:de:
                    8f:5b:3d:a0:07:52:c8:b7:71:30:71:fb:c3:a7:fa:
                    61:f6:b4:28:be:9e:da:8b:8b:70:dd:8e:d0:a5:1a:
                    00:70:1c:39:e1:cf:64:f8:ec:b4:83:b9:2b:67:fa:
                    4d:ae:30:84:2f:2c:9d:6c:77:7e:09:95:43:77:6b:
                    e1:9d:2b:c9:89:d9:a9:e5:8f
                Exponent: 65537 (0x10001)
        X509v3 extensions:
            X509v3 Subject Key Identifier: 
                B7:F0:DB:5F:BA:CC:10:6D:A6:64:62:10:84:A5:C9:39:4C:3C:27:86
            X509v3 Authority Key Identifier: 
                keyid:B7:F0:DB:5F:BA:CC:10:6D:A6:64:62:10:84:A5:C9:39:4C:3C:27:86
                DirName:/C=US/ST=California/L=Menlo Park/O=pkg5/OU=ta10/CN=localhost/emailAddress=ta10
                serial:86:F1:45:12:31:C7:2B:2A

            X509v3 Basic Constraints: 
                CA:TRUE
    Signature Algorithm: sha256WithRSAEncryption
        5b:6d:71:b8:4e:e3:27:06:d9:2a:47:ab:21:a3:df:94:a9:d8:
        62:f1:6a:97:33:cc:1c:52:55:9a:f8:ec:6d:b4:91:17:4d:2a:
        0e:03:b4:4b:00:83:10:8e:12:c1:05:67:56:9a:30:90:91:ad:
        8b:dc:0a:eb:3f:28:5d:f9:d4:87:0d:f7:3a:5a:f6:47:52:9e:
        af:4e:21:d4:2f:b8:40:4f:7f:81:1f:93:ca:bc:e6:04:c5:18:
        65:5e:b1:dd:0b:3c:5e:3a:6f:48:e3:fc:b2:c8:37:8d:9f:14:
        1b:a7:12:79:bb:2d:b9:fc:7a:01:ef:66:c6:d4:c2:44:01:49:
        23:a9
-----BEGIN CERTIFICATE-----
MIIDYDCCAsmgAwIBAgIJAIbxRRIxxysqMA0GCSqGSIb3DQEBCwUAMH4xCzAJBgNV
BAYTAlVTMRMwEQYDVQQIEwpDYWxpZm9ybmlhMRMwEQYDVQQHEwpNZW5sbyBQYXJr
MQ0wCwYDVQQKEwRwa2c1MQ0wCwYDVQQLEwR0YTEwMRIwEAYDVQQDEwlsb2NhbGhv
c3QxEzARBgkqhkiG9w0BCQEWBHRhMTAwHhcNMTEwNDExMjIzNzU1WhcNMTQwMTA1
MjIzNzU1WjB+MQswCQYDVQQGEwJVUzETMBEGA1UECBMKQ2FsaWZvcm5pYTETMBEG
A1UEBxMKTWVubG8gUGFyazENMAsGA1UEChMEcGtnNTENMAsGA1UECxMEdGExMDES
MBAGA1UEAxMJbG9jYWxob3N0MRMwEQYJKoZIhvcNAQkBFgR0YTEwMIGfMA0GCSqG
SIb3DQEBAQUAA4GNADCBiQKBgQC2UENzZBJAJlQM+Wfkau0fGOVziRMPyV9ubsYF
rSy+5Gv9xk/q828N9Bo0fwOXsKTRbpjSNvozXVE33o9bPaAHUsi3cTBx+8On+mH2
tCi+ntqLi3DdjtClGgBwHDnhz2T47LSDuStn+k2uMIQvLJ1sd34JlUN3a+GdK8mJ
2anljwIDAQABo4HlMIHiMB0GA1UdDgQWBBS38NtfuswQbaZkYhCEpck5TDwnhjCB
sgYDVR0jBIGqMIGngBS38NtfuswQbaZkYhCEpck5TDwnhqGBg6SBgDB+MQswCQYD
VQQGEwJVUzETMBEGA1UECBMKQ2FsaWZvcm5pYTETMBEGA1UEBxMKTWVubG8gUGFy
azENMAsGA1UEChMEcGtnNTENMAsGA1UECxMEdGExMDESMBAGA1UEAxMJbG9jYWxo
b3N0MRMwEQYJKoZIhvcNAQkBFgR0YTEwggkAhvFFEjHHKyowDAYDVR0TBAUwAwEB
/zANBgkqhkiG9w0BAQsFAAOBgQBbbXG4TuMnBtkqR6sho9+Uqdhi8WqXM8wcUlWa
+OxttJEXTSoOA7RLAIMQjhLBBWdWmjCQka2L3ArrPyhd+dSHDfc6WvZHUp6vTiHU
L7hAT3+BH5PKvOYExRhlXrHdCzxeOm9I4/yyyDeNnxQbpxJ5uy25/HoB72bG1MJE
AUkjqQ==
-----END CERTIFICATE-----
Certificate:
    Data:
        Version: 3 (0x2)
        Serial Number:
            d7:f1:84:58:4b:42:ce:33
        Signature Algorithm: sha256WithRSAEncryption
        Issuer: C=US, ST=California, L=Menlo Park, O=pkg5, OU=ta11, CN=localhost/emailAddress=ta11
        Validity
            Not Before: Apr 11 22:37:55 2011 GMT
            Not After : Jan  5 22:37:55 2014 GMT
        Subject: C=US, ST=California, L=Menlo Park, O=pkg5, OU=ta11, CN=localhost/emailAddress=ta11
        Subject Public Key Info:
            Public Key Algorithm: rsaEncryption
            RSA Public Key: (1024 bit)
                Modulus (1024 bit):
                    00:a3:c5:d4:23:f8:e8:a4:02:1f:38:cd:53:dc:7c:
                    e8:3c:49:bd:14:c1:c7:a2:b7:00:7a:d2:d1:c8:01:
                    7c:9b:f7:78:50:95:07:69:90:a0:7a:25:0f:55:55:
                    f7:b2:33:ae:ae:66:64:5c:4c:86:66:e0:28:e2:63:
                    8c:11:5f:ee:a4:af:77:86:c2:c0:18:0d:24:18:5f:
                    26:ff:67:cc:f4:f9:7d:0c:e7:d7:0c:01:e8:85:57:
                    f4:a8:d8:2c:f1:ec:2f:c7:8c:34:d4:3d:d3:1b:5c:
                    2d:44:bd:d1:a6:35:d2:21:36:f9:31:ac:24:cb:ec:
                    7b:70:c8:10:97:c8:8e:37:19
                Exponent: 65537 (0x10001)
        X509v3 extensions:
            X509v3 Subject Key Identifier: 
                CE:A0:CF:69:A4:17:A0:54:BE:C3:CB:28:70:86:6A:BD:3B:DE:E4:CC
            X509v3 Authority Key Identifier: 
                keyid:CE:A0:CF:69:A4:17:A0:54:BE:C3:CB:28:70:86:6A:BD:3B:DE:E4:CC
                DirName:/C=US/ST=California/L=Menlo Park/O=pkg5/OU=ta11/CN=localhost/emailAddress=ta11
                serial:D7:F1:84:58:4B:42:CE:33

            X509v3 Basic Constraints: 
                CA:TRUE
    Signature Algorithm: sha256WithRSAEncryption
        89:34:9b:f9:55:53:63:83:82:0e:d0:f1:e5:0c:e3:4e:4b:2f:
        54:20:2b:70:00:56:08:b4:18:88:59:e2:66:3e:5c:b6:0a:74:
        16:bc:43:61:35:1e:df:e5:f6:f6:7e:de:87:18:61:b7:70:b0:
        93:e8:5a:19:1d:01:a7:43:ca:38:ea:d2:e2:75:0e:3e:d2:b5:
        91:57:1e:30:29:aa:2a:26:53:1b:9e:56:ad:61:41:3c:04:bb:
        a5:af:da:75:63:5e:bb:31:21:f9:4c:dc:d0:c2:4c:90:07:45:
        ed:32:0d:c0:c8:e9:6f:72:b5:ae:19:f2:88:9e:50:5c:5a:34:
        47:a9
-----BEGIN CERTIFICATE-----
MIIDYDCCAsmgAwIBAgIJANfxhFhLQs4zMA0GCSqGSIb3DQEBCwUAMH4xCzAJBgNV
BAYTAlVTMRMwEQYDVQQIEwpDYWxpZm9ybmlhMRMwEQYDVQQHEwpNZW5sbyBQYXJr
MQ0wCwYDVQQKEwRwa2c1MQ0wCwYDVQQLEwR0YTExMRIwEAYDVQQDEwlsb2NhbGhv
c3QxEzARBgkqhkiG9w0BCQEWBHRhMTEwHhcNMTEwNDExMjIzNzU1WhcNMTQwMTA1
MjIzNzU1WjB+MQswCQYDVQQGEwJVUzETMBEGA1UECBMKQ2FsaWZvcm5pYTETMBEG
A1UEBxMKTWVubG8gUGFyazENMAsGA1UEChMEcGtnNTENMAsGA1UECxMEdGExMTES
MBAGA1UEAxMJbG9jYWxob3N0MRMwEQYJKoZIhvcNAQkBFgR0YTExMIGfMA0GCSqG
SIb3DQEBAQUAA4GNADCBiQKBgQCjxdQj+OikAh84zVPcfOg8Sb0UwceitwB60tHI
AXyb93hQlQdpkKB6JQ9VVfeyM66uZmRcTIZm4CjiY4wRX+6kr3eGwsAYDSQYXyb/
Z8z0+X0M59cMAeiFV/So2Czx7C/HjDTUPdMbXC1EvdGmNdIhNvkxrCTL7HtwyBCX
yI43GQIDAQABo4HlMIHiMB0GA1UdDgQWBBTOoM9ppBegVL7Dyyhwhmq9O97kzDCB
sgYDVR0jBIGqMIGngBTOoM9ppBegVL7Dyyhwhmq9O97kzKGBg6SBgDB+MQswCQYD
VQQGEwJVUzETMBEGA1UECBMKQ2FsaWZvcm5pYTETMBEGA1UEBxMKTWVubG8gUGFy
azENMAsGA1UEChMEcGtnNTENMAsGA1UECxMEdGExMTESMBAGA1UEAxMJbG9jYWxo
b3N0MRMwEQYJKoZIhvcNAQkBFgR0YTExggkA1/GEWEtCzjMwDAYDVR0TBAUwAwEB
/zANBgkqhkiG9w0BAQsFAAOBgQCJNJv5VVNjg4IO0PHlDONOSy9UICtwAFYItBiI
WeJmPly2CnQWvENhNR7f5fb2ft6HGGG3cLCT6FoZHQGnQ8o46tLidQ4+0rWRVx4w
KaoqJlMbnlatYUE8BLulr9p1Y167MSH5TNzQwkyQB0XtMg3AyOlvcrWuGfKInlBc
WjRHqQ==
-----END CERTIFICATE-----
