Certificate:
    Data:
        Version: 3 (0x2)
        Serial Number: 13187868062798498278 (0xb704b8217bd2c9e6)
    Signature Algorithm: sha256WithRSAEncryption
        Issuer: C=US, ST=California, L=Santa Clara, O=pkg5, OU=ta6, CN=localhost/emailAddress=ta6
        Validity
            Not Before: Jan 22 01:58:00 2016 GMT
            Not After : Oct 18 01:58:00 2018 GMT
        Subject: C=US, ST=California, L=Santa Clara, O=pkg5, OU=ta6, CN=localhost/emailAddress=ta6
        Subject Public Key Info:
            Public Key Algorithm: rsaEncryption
                Public-Key: (2048 bit)
                Modulus:
                    00:c1:05:15:35:c7:ec:ea:40:0f:d0:a3:0e:2f:97:
                    bf:41:be:74:1c:5b:55:e1:2f:2d:53:99:32:4d:a4:
                    de:f0:fb:f2:22:a5:a6:e1:0a:fc:39:6b:6b:75:0e:
                    2f:e1:03:dc:30:8b:99:f7:81:63:2a:d6:f3:8f:43:
                    0d:fd:35:2b:7a:d0:91:dc:0e:a2:76:b6:47:47:a5:
                    17:d0:99:d8:ad:9c:79:ab:0f:8b:a2:94:da:5b:22:
                    8f:62:ff:d8:65:be:9f:ba:3a:fb:47:c6:d9:46:4f:
                    94:a8:e6:e0:42:5b:c9:32:85:63:e6:be:c9:e8:fa:
                    c4:88:9a:dc:93:bf:66:a8:73:30:97:b2:78:bc:33:
                    3b:30:2e:16:b4:97:86:cc:12:6b:e4:6f:e9:20:e1:
                    26:a2:3a:1b:8a:88:d1:6b:8c:23:c5:5b:3a:d1:30:
                    3f:bf:60:ce:25:97:0d:09:23:1e:b1:b9:06:cb:56:
                    8e:dc:23:65:85:53:d0:53:51:34:1a:8b:cd:91:f1:
                    57:b8:64:c4:32:9e:4e:b0:44:af:96:65:e9:bc:3f:
                    f2:37:a7:28:0e:15:62:f7:b9:15:90:2a:2a:ef:58:
                    00:7b:d7:ac:8f:b3:82:81:2c:d8:56:da:e3:1b:1b:
                    8a:b3:0d:b2:0e:3d:fe:b6:8e:ca:0e:54:85:89:34:
                    6d:37
                Exponent: 65537 (0x10001)
        X509v3 extensions:
            X509v3 Subject Key Identifier: 
                02:7B:25:8B:55:4F:CE:E5:8B:64:F3:B4:62:11:00:09:0C:D1:7C:C8
            X509v3 Authority Key Identifier: 
                keyid:02:7B:25:8B:55:4F:CE:E5:8B:64:F3:B4:62:11:00:09:0C:D1:7C:C8

            X509v3 Basic Constraints: 
                CA:TRUE
    Signature Algorithm: sha256WithRSAEncryption
         86:5e:b4:d0:53:a8:87:27:68:35:1a:33:f8:b7:f9:c4:c6:cb:
         d1:27:6b:2d:73:63:de:5e:22:94:75:c1:74:b0:28:10:83:15:
         62:d1:ba:79:fa:a1:3a:b2:b8:83:1a:78:d5:c9:6d:05:a5:f7:
         db:50:4f:ac:a3:1a:40:45:d3:46:71:54:b9:3f:63:c1:41:3c:
         8e:07:f9:e0:d9:27:f5:af:82:b3:19:e8:f0:95:b8:b2:6d:0c:
         57:ec:e7:75:05:10:72:57:7e:28:96:fe:88:a6:c8:90:16:32:
         b0:35:a2:3f:e1:22:ee:ec:1e:4d:d3:0a:f1:37:a4:09:c2:0b:
         d4:98:6d:6b:fd:18:aa:28:89:15:34:39:49:88:85:6e:6c:4c:
         72:96:4a:91:a4:f9:5e:0b:dd:86:16:da:ac:af:95:82:59:50:
         4d:af:96:71:7a:87:f7:7f:5d:b7:9b:ea:3e:f0:3b:ff:d6:99:
         0c:ee:68:3f:c8:48:b1:d4:90:63:a4:46:2f:10:12:fb:a6:75:
         47:e8:a1:05:e2:95:bd:01:fd:85:d4:67:78:67:1a:88:f7:6b:
         b4:68:51:8d:55:4e:44:66:a7:15:09:59:78:fc:06:83:75:f2:
         2c:3a:81:eb:8e:21:05:88:cb:7b:55:a1:2b:f9:54:52:34:2f:
         8e:48:9e:6c
-----BEGIN CERTIFICATE-----
MIIDzTCCArWgAwIBAgIJALcEuCF70snmMA0GCSqGSIb3DQEBCwUAMH0xCzAJBgNV
BAYTAlVTMRMwEQYDVQQIDApDYWxpZm9ybmlhMRQwEgYDVQQHDAtTYW50YSBDbGFy
YTENMAsGA1UECgwEcGtnNTEMMAoGA1UECwwDdGE2MRIwEAYDVQQDDAlsb2NhbGhv
c3QxEjAQBgkqhkiG9w0BCQEWA3RhNjAeFw0xNjAxMjIwMTU4MDBaFw0xODEwMTgw
MTU4MDBaMH0xCzAJBgNVBAYTAlVTMRMwEQYDVQQIDApDYWxpZm9ybmlhMRQwEgYD
VQQHDAtTYW50YSBDbGFyYTENMAsGA1UECgwEcGtnNTEMMAoGA1UECwwDdGE2MRIw
EAYDVQQDDAlsb2NhbGhvc3QxEjAQBgkqhkiG9w0BCQEWA3RhNjCCASIwDQYJKoZI
hvcNAQEBBQADggEPADCCAQoCggEBAMEFFTXH7OpAD9CjDi+Xv0G+dBxbVeEvLVOZ
Mk2k3vD78iKlpuEK/Dlra3UOL+ED3DCLmfeBYyrW849DDf01K3rQkdwOona2R0el
F9CZ2K2ceasPi6KU2lsij2L/2GW+n7o6+0fG2UZPlKjm4EJbyTKFY+a+yej6xIia
3JO/ZqhzMJeyeLwzOzAuFrSXhswSa+Rv6SDhJqI6G4qI0WuMI8VbOtEwP79gziWX
DQkjHrG5BstWjtwjZYVT0FNRNBqLzZHxV7hkxDKeTrBEr5Zl6bw/8jenKA4VYve5
FZAqKu9YAHvXrI+zgoEs2Fba4xsbirMNsg49/raOyg5UhYk0bTcCAwEAAaNQME4w
HQYDVR0OBBYEFAJ7JYtVT87li2TztGIRAAkM0XzIMB8GA1UdIwQYMBaAFAJ7JYtV
T87li2TztGIRAAkM0XzIMAwGA1UdEwQFMAMBAf8wDQYJKoZIhvcNAQELBQADggEB
AIZetNBTqIcnaDUaM/i3+cTGy9Enay1zY95eIpR1wXSwKBCDFWLRunn6oTqyuIMa
eNXJbQWl99tQT6yjGkBF00ZxVLk/Y8FBPI4H+eDZJ/WvgrMZ6PCVuLJtDFfs53UF
EHJXfiiW/oimyJAWMrA1oj/hIu7sHk3TCvE3pAnCC9SYbWv9GKooiRU0OUmIhW5s
THKWSpGk+V4L3YYW2qyvlYJZUE2vlnF6h/d/Xbeb6j7wO//WmQzuaD/ISLHUkGOk
Ri8QEvumdUfooQXilb0B/YXUZ3hnGoj3a7RoUY1VTkRmpxUJWXj8BoN18iw6geuO
IQWIy3tVoSv5VFI0L45Inmw=
-----END CERTIFICATE-----
Certificate:
    Data:
        Version: 3 (0x2)
        Serial Number: 16761812160468638874 (0xe89deb5a208e5c9a)
    Signature Algorithm: sha256WithRSAEncryption
        Issuer: C=US, ST=California, L=Santa Clara, O=pkg5, OU=ta8, CN=localhost/emailAddress=ta8
        Validity
            Not Before: Jan 22 01:58:00 2016 GMT
            Not After : Oct 18 01:58:00 2018 GMT
        Subject: C=US, ST=California, L=Santa Clara, O=pkg5, OU=ta8, CN=localhost/emailAddress=ta8
        Subject Public Key Info:
            Public Key Algorithm: rsaEncryption
                Public-Key: (2048 bit)
                Modulus:
                    00:c5:42:89:07:35:25:ca:4f:66:73:50:13:a7:27:
                    62:d2:7e:3b:e3:89:b1:c6:8d:5d:65:30:f3:a8:6a:
                    1f:55:a9:2e:92:86:04:c4:2a:3d:c5:bd:a3:3b:9c:
                    58:ee:63:df:51:b5:bd:d9:22:c6:aa:7e:4b:b4:90:
                    7a:47:89:bf:cc:ff:67:55:1f:1e:da:23:47:bd:ca:
                    05:7e:9b:dc:ac:9e:7c:7f:15:e8:57:0a:32:e0:8a:
                    ad:52:f2:d4:80:93:d9:e5:b9:86:f5:f2:64:21:c1:
                    fc:75:fd:2b:a8:65:e2:6a:a0:29:a9:ad:62:79:04:
                    7c:7f:d7:03:77:7e:6f:ed:59:28:1f:99:61:97:35:
                    a8:67:88:0a:e1:c6:bb:71:40:01:21:b3:a7:82:72:
                    97:8e:bd:5e:a4:b1:a7:dd:02:d0:64:ea:bc:33:f2:
                    06:96:cf:ee:2f:d4:7d:bf:8c:27:40:a4:5d:1f:9f:
                    bd:7a:ff:40:0e:e3:08:50:10:df:8b:fa:0e:e4:bd:
                    23:85:86:53:16:91:66:a1:d9:a1:76:ad:a4:f2:2f:
                    2c:ee:a8:ed:39:20:b7:64:27:ff:02:16:cc:1a:7c:
                    5c:96:96:ef:7c:0e:84:13:b4:c9:c1:ca:02:4e:5b:
                    50:b0:ae:88:24:fe:c2:74:f3:f8:bd:d8:9c:f0:4a:
                    e9:65
                Exponent: 65537 (0x10001)
        X509v3 extensions:
            X509v3 Subject Key Identifier: 
                00:02:CC:9E:81:00:49:08:A7:2F:E8:49:F0:D5:BF:B8:DB:34:03:C6
            X509v3 Authority Key Identifier: 
                keyid:00:02:CC:9E:81:00:49:08:A7:2F:E8:49:F0:D5:BF:B8:DB:34:03:C6

            X509v3 Basic Constraints: 
                CA:TRUE
    Signature Algorithm: sha256WithRSAEncryption
         b0:a5:a5:49:30:2f:06:32:4c:27:9d:05:f3:e4:00:c8:4a:dd:
         dc:f9:40:96:20:83:8e:96:e0:7f:67:21:8b:17:39:b6:87:14:
         50:c4:17:29:d4:0a:7a:75:a2:79:b5:86:7b:48:b9:69:2a:30:
         ac:49:b2:62:0a:64:2c:c4:ba:aa:8c:eb:2b:95:c9:bd:12:bf:
         44:44:9f:01:d0:1e:c3:ee:e0:47:fc:1a:3a:14:15:76:71:a5:
         a9:bb:95:fe:6e:29:00:70:30:18:94:e1:f7:67:44:36:e7:e3:
         3e:68:41:4f:16:12:8a:41:e8:b9:41:aa:d2:0e:c6:c8:8b:0e:
         56:eb:b4:b5:25:4d:7b:03:d5:52:23:de:ee:a2:ef:a1:e7:ea:
         9d:43:09:e8:28:aa:95:5a:a2:ff:b2:4b:b9:46:4f:19:bd:a1:
         b6:3a:49:3a:bd:00:94:b8:ac:55:e7:48:7b:75:e4:39:a6:bc:
         cb:d6:79:69:88:5a:64:14:5c:83:b0:4a:1c:97:5d:d3:44:82:
         40:73:de:5c:e1:c8:68:90:b5:af:eb:d2:9d:0c:93:52:3a:6b:
         31:2a:42:bf:b0:b8:0a:65:2c:db:7a:2f:ad:ae:b5:5d:ad:2a:
         ad:d8:d7:5d:85:a1:c0:23:4f:12:84:4d:e0:77:1e:a1:b7:af:
         08:56:d1:69
-----BEGIN CERTIFICATE-----
MIIDzTCCArWgAwIBAgIJAOid61ogjlyaMA0GCSqGSIb3DQEBCwUAMH0xCzAJBgNV
BAYTAlVTMRMwEQYDVQQIDApDYWxpZm9ybmlhMRQwEgYDVQQHDAtTYW50YSBDbGFy
YTENMAsGA1UECgwEcGtnNTEMMAoGA1UECwwDdGE4MRIwEAYDVQQDDAlsb2NhbGhv
c3QxEjAQBgkqhkiG9w0BCQEWA3RhODAeFw0xNjAxMjIwMTU4MDBaFw0xODEwMTgw
MTU4MDBaMH0xCzAJBgNVBAYTAlVTMRMwEQYDVQQIDApDYWxpZm9ybmlhMRQwEgYD
VQQHDAtTYW50YSBDbGFyYTENMAsGA1UECgwEcGtnNTEMMAoGA1UECwwDdGE4MRIw
EAYDVQQDDAlsb2NhbGhvc3QxEjAQBgkqhkiG9w0BCQEWA3RhODCCASIwDQYJKoZI
hvcNAQEBBQADggEPADCCAQoCggEBAMVCiQc1JcpPZnNQE6cnYtJ+O+OJscaNXWUw
86hqH1WpLpKGBMQqPcW9ozucWO5j31G1vdkixqp+S7SQekeJv8z/Z1UfHtojR73K
BX6b3KyefH8V6FcKMuCKrVLy1ICT2eW5hvXyZCHB/HX9K6hl4mqgKamtYnkEfH/X
A3d+b+1ZKB+ZYZc1qGeICuHGu3FAASGzp4Jyl469XqSxp90C0GTqvDPyBpbP7i/U
fb+MJ0CkXR+fvXr/QA7jCFAQ34v6DuS9I4WGUxaRZqHZoXatpPIvLO6o7Tkgt2Qn
/wIWzBp8XJaW73wOhBO0ycHKAk5bULCuiCT+wnTz+L3YnPBK6WUCAwEAAaNQME4w
HQYDVR0OBBYEFAACzJ6BAEkIpy/oSfDVv7jbNAPGMB8GA1UdIwQYMBaAFAACzJ6B
AEkIpy/oSfDVv7jbNAPGMAwGA1UdEwQFMAMBAf8wDQYJKoZIhvcNAQELBQADggEB
ALClpUkwLwYyTCedBfPkAMhK3dz5QJYgg46W4H9nIYsXObaHFFDEFynUCnp1onm1
hntIuWkqMKxJsmIKZCzEuqqM6yuVyb0Sv0REnwHQHsPu4Ef8GjoUFXZxpam7lf5u
KQBwMBiU4fdnRDbn4z5oQU8WEopB6LlBqtIOxsiLDlbrtLUlTXsD1VIj3u6i76Hn
6p1DCegoqpVaov+yS7lGTxm9obY6STq9AJS4rFXnSHt15DmmvMvWeWmIWmQUXIOw
ShyXXdNEgkBz3lzhyGiQta/r0p0Mk1I6azEqQr+wuAplLNt6L62utV2tKq3Y112F
ocAjTxKETeB3HqG3rwhW0Wk=
-----END CERTIFICATE-----
Certificate:
    Data:
        Version: 3 (0x2)
        Serial Number: 13819296227012453465 (0xbfc800b360f92459)
    Signature Algorithm: sha256WithRSAEncryption
        Issuer: C=US, ST=California, L=Santa Clara, O=pkg5, OU=ta9, CN=localhost/emailAddress=ta9
        Validity
            Not Before: Jan 22 01:58:01 2016 GMT
            Not After : Oct 18 01:58:01 2018 GMT
        Subject: C=US, ST=California, L=Santa Clara, O=pkg5, OU=ta9, CN=localhost/emailAddress=ta9
        Subject Public Key Info:
            Public Key Algorithm: rsaEncryption
                Public-Key: (2048 bit)
                Modulus:
                    00:c5:7a:00:2d:4e:1a:58:df:2f:78:50:e1:83:0b:
                    73:24:2e:25:33:bc:c6:b4:20:12:e1:44:c6:7c:82:
                    9d:4c:5d:27:cf:33:84:76:ae:ae:7a:25:66:99:7f:
                    3b:d0:e7:98:c2:ab:b5:51:8a:37:ea:07:1d:58:6d:
                    39:bd:bc:d4:4e:59:09:98:c6:8a:04:99:f0:a2:24:
                    66:1b:9f:f7:30:4e:4f:cf:06:38:ac:35:72:8a:27:
                    2c:61:0f:1c:73:2d:b8:a0:29:72:b9:a3:40:83:bf:
                    e6:82:f3:8f:61:42:a2:19:a7:dc:48:ce:2e:83:08:
                    5d:ee:63:23:41:ce:a0:f2:f7:6e:ab:23:3f:a6:11:
                    90:41:60:f4:29:fa:06:60:80:05:17:75:98:8d:1f:
                    10:8d:5a:4f:f4:f5:b8:59:d0:b5:b7:3d:8c:3d:3a:
                    d4:65:d8:b3:f0:2f:35:0b:89:bb:90:1c:82:ec:03:
                    0a:46:6e:b8:09:c5:93:9c:5a:c5:74:af:f7:92:b0:
                    5d:17:02:46:99:76:24:1e:9b:1b:56:da:d0:42:f2:
                    d6:32:7c:03:b9:97:13:29:2d:32:d2:3c:34:c0:02:
                    ce:04:e2:8c:ef:63:87:40:f1:ae:ca:c0:97:65:3c:
                    33:7a:2f:72:20:18:5d:15:ff:f4:6d:b0:c3:57:0d:
                    43:b7
                Exponent: 65537 (0x10001)
        X509v3 extensions:
            X509v3 Subject Key Identifier: 
                9C:3C:DD:C3:23:FA:7B:B8:37:CE:9F:A1:59:B3:DF:33:76:2B:FE:2B
            X509v3 Authority Key Identifier: 
                keyid:9C:3C:DD:C3:23:FA:7B:B8:37:CE:9F:A1:59:B3:DF:33:76:2B:FE:2B

            X509v3 Basic Constraints: 
                CA:TRUE
    Signature Algorithm: sha256WithRSAEncryption
         69:d3:7a:52:5c:ef:d8:25:14:69:2a:2e:c8:0d:dc:fe:3c:a1:
         0d:95:21:c6:bf:b5:c3:70:2b:b1:ee:9a:69:3a:aa:c8:b2:53:
         f6:55:0d:6e:1d:39:b4:d9:f3:0e:14:a9:e5:b6:24:f0:6d:56:
         d1:01:40:fa:29:a9:2b:a4:9a:e2:e6:72:c9:47:a4:54:1c:b7:
         f7:92:83:9c:4f:91:56:27:1c:da:d0:ce:a9:9d:01:06:9d:94:
         88:a0:b4:e5:1a:9b:5b:d3:c4:17:f4:4d:58:0c:f9:54:35:0e:
         98:61:8c:27:83:6e:b5:16:d3:d7:8b:71:2a:54:ec:8d:97:91:
         ad:e3:ec:c4:5e:6e:4d:30:83:2a:e0:ad:51:df:69:e9:68:8c:
         0d:fd:9a:9f:ba:15:71:ea:c2:bf:92:9b:e1:d0:62:32:6d:b4:
         e0:5e:de:b0:87:57:92:43:d0:ef:3d:b5:c1:70:86:e9:44:f3:
         e3:48:7f:34:f7:75:16:3e:5f:ef:b3:8a:ea:31:09:bd:4c:f5:
         c0:ea:f2:b6:9a:36:47:e4:0f:63:00:7d:69:c9:9f:f3:f4:d7:
         ce:6e:20:e6:d2:b2:e2:60:1e:f4:b6:17:dd:38:ca:59:1e:1b:
         46:c6:ae:77:aa:77:ff:ea:41:60:70:16:bc:91:9d:a5:ea:3c:
         0c:4c:f2:7e
-----BEGIN CERTIFICATE-----
MIIDzTCCArWgAwIBAgIJAL/IALNg+SRZMA0GCSqGSIb3DQEBCwUAMH0xCzAJBgNV
BAYTAlVTMRMwEQYDVQQIDApDYWxpZm9ybmlhMRQwEgYDVQQHDAtTYW50YSBDbGFy
YTENMAsGA1UECgwEcGtnNTEMMAoGA1UECwwDdGE5MRIwEAYDVQQDDAlsb2NhbGhv
c3QxEjAQBgkqhkiG9w0BCQEWA3RhOTAeFw0xNjAxMjIwMTU4MDFaFw0xODEwMTgw
MTU4MDFaMH0xCzAJBgNVBAYTAlVTMRMwEQYDVQQIDApDYWxpZm9ybmlhMRQwEgYD
VQQHDAtTYW50YSBDbGFyYTENMAsGA1UECgwEcGtnNTEMMAoGA1UECwwDdGE5MRIw
EAYDVQQDDAlsb2NhbGhvc3QxEjAQBgkqhkiG9w0BCQEWA3RhOTCCASIwDQYJKoZI
hvcNAQEBBQADggEPADCCAQoCggEBAMV6AC1OGljfL3hQ4YMLcyQuJTO8xrQgEuFE
xnyCnUxdJ88zhHaurnolZpl/O9DnmMKrtVGKN+oHHVhtOb281E5ZCZjGigSZ8KIk
Zhuf9zBOT88GOKw1coonLGEPHHMtuKApcrmjQIO/5oLzj2FCohmn3EjOLoMIXe5j
I0HOoPL3bqsjP6YRkEFg9Cn6BmCABRd1mI0fEI1aT/T1uFnQtbc9jD061GXYs/Av
NQuJu5AcguwDCkZuuAnFk5xaxXSv95KwXRcCRpl2JB6bG1ba0ELy1jJ8A7mXEykt
MtI8NMACzgTijO9jh0DxrsrAl2U8M3ovciAYXRX/9G2ww1cNQ7cCAwEAAaNQME4w
HQYDVR0OBBYEFJw83cMj+nu4N86foVmz3zN2K/4rMB8GA1UdIwQYMBaAFJw83cMj
+nu4N86foVmz3zN2K/4rMAwGA1UdEwQFMAMBAf8wDQYJKoZIhvcNAQELBQADggEB
AGnTelJc79glFGkqLsgN3P48oQ2VIca/tcNwK7Hummk6qsiyU/ZVDW4dObTZ8w4U
qeW2JPBtVtEBQPopqSukmuLmcslHpFQct/eSg5xPkVYnHNrQzqmdAQadlIigtOUa
m1vTxBf0TVgM+VQ1DphhjCeDbrUW09eLcSpU7I2Xka3j7MRebk0wgyrgrVHfaelo
jA39mp+6FXHqwr+Sm+HQYjJttOBe3rCHV5JD0O89tcFwhulE8+NIfzT3dRY+X++z
iuoxCb1M9cDq8raaNkfkD2MAfWnJn/P0185uIObSsuJgHvS2F904ylkeG0bGrneq
d//qQWBwFryRnaXqPAxM8n4=
-----END CERTIFICATE-----
Certificate:
    Data:
        Version: 3 (0x2)
        Serial Number: 12593192084672623211 (0xaec4017abb2c326b)
    Signature Algorithm: sha256WithRSAEncryption
        Issuer: C=US, ST=California, L=Santa Clara, O=pkg5, OU=ta10, CN=localhost/emailAddress=ta10
        Validity
            Not Before: Jan 22 01:58:01 2016 GMT
            Not After : Oct 18 01:58:01 2018 GMT
        Subject: C=US, ST=California, L=Santa Clara, O=pkg5, OU=ta10, CN=localhost/emailAddress=ta10
        Subject Public Key Info:
            Public Key Algorithm: rsaEncryption
                Public-Key: (2048 bit)
                Modulus:
                    00:bb:8a:29:e2:f5:35:c0:f8:70:32:a3:10:8f:ad:
                    10:64:7c:ae:af:d6:00:8f:68:7c:32:9d:dc:70:24:
                    2a:74:e8:e6:17:10:21:dd:1d:3d:5c:69:e2:93:72:
                    9a:c9:67:7d:4b:00:ec:ef:7b:c5:c4:30:a4:e5:f6:
                    56:3a:4c:24:68:77:4b:cc:27:cd:51:0f:c7:aa:ea:
                    18:e2:7c:c9:91:0d:82:0c:29:66:04:3b:4f:06:30:
                    9e:5c:4b:15:54:95:18:7d:cc:11:08:80:79:61:5d:
                    78:0e:ad:9b:0f:fa:6d:2c:38:24:a1:50:00:eb:47:
                    3e:15:3b:d8:65:c0:ce:15:e5:99:13:0a:75:fb:ca:
                    ee:b2:e8:f3:29:b5:e7:0e:c9:a1:bd:09:ce:de:d6:
                    d8:52:13:ed:17:1e:f1:5d:33:a5:3c:4b:f0:44:0d:
                    ec:5b:b4:5d:e2:ca:4e:56:13:ab:f2:b6:0a:f7:ad:
                    00:11:eb:36:c6:80:b9:07:01:d7:88:09:5f:3d:1a:
                    35:a4:d2:36:0d:94:e8:11:5a:f4:b5:9e:9d:55:db:
                    87:28:f4:8b:ae:8d:a5:62:f3:38:74:b7:98:db:90:
                    61:08:af:4b:4f:5d:4d:98:0d:1b:99:ef:ac:85:d7:
                    3a:bd:09:87:63:9e:17:8a:7b:ea:db:cd:06:07:18:
                    59:9f
                Exponent: 65537 (0x10001)
        X509v3 extensions:
            X509v3 Subject Key Identifier: 
                E7:CA:0D:69:E0:1A:C5:76:E4:55:89:D0:CF:5A:F4:B8:CE:3D:0C:E1
            X509v3 Authority Key Identifier: 
                keyid:E7:CA:0D:69:E0:1A:C5:76:E4:55:89:D0:CF:5A:F4:B8:CE:3D:0C:E1

            X509v3 Basic Constraints: 
                CA:TRUE
    Signature Algorithm: sha256WithRSAEncryption
         22:75:2b:e1:20:a0:76:8b:a6:ff:e1:9d:5e:c0:66:9c:f4:b7:
         2a:90:9c:19:21:ec:3b:24:db:3b:a0:7b:4a:8a:61:d5:fe:d6:
         4a:0d:0c:a5:be:be:bd:0b:98:bd:bf:7a:60:15:aa:9d:0a:a4:
         65:4f:18:85:a5:55:f6:cb:01:8c:72:ad:08:43:cb:01:ee:4b:
         8f:14:d6:f1:42:f6:f4:40:86:67:d0:a3:32:dc:ac:94:94:44:
         bc:93:c5:38:32:46:02:da:46:1b:12:c4:b1:8c:1b:11:7b:df:
         9f:27:ce:1d:65:97:59:cf:e2:0d:4b:4f:23:52:98:19:83:d8:
         b4:b7:9d:a6:2f:a6:7e:a5:8b:ba:cb:28:19:09:1d:5c:19:0d:
         fa:92:59:10:58:f3:1b:11:38:dd:4b:64:f3:98:24:e9:29:3f:
         65:e1:9f:dc:2f:6b:96:c7:d2:2b:63:cb:72:9e:1a:36:5a:6f:
         06:eb:45:a2:f2:70:c2:be:23:a8:03:47:19:e5:03:63:9c:e1:
         e1:ed:91:de:e5:96:ff:25:ee:ef:1b:b3:d7:a1:57:9f:a1:38:
         7d:4e:d8:de:62:e3:60:40:4a:81:d7:65:d4:90:29:57:97:1a:
         13:b5:d9:0c:06:c5:e8:2b:5d:c7:1b:c0:48:6b:d2:c0:5a:8f:
         c0:79:5d:fb
-----BEGIN CERTIFICATE-----
MIID0TCCArmgAwIBAgIJAK7EAXq7LDJrMA0GCSqGSIb3DQEBCwUAMH8xCzAJBgNV
BAYTAlVTMRMwEQYDVQQIDApDYWxpZm9ybmlhMRQwEgYDVQQHDAtTYW50YSBDbGFy
YTENMAsGA1UECgwEcGtnNTENMAsGA1UECwwEdGExMDESMBAGA1UEAwwJbG9jYWxo
b3N0MRMwEQYJKoZIhvcNAQkBFgR0YTEwMB4XDTE2MDEyMjAxNTgwMVoXDTE4MTAx
ODAxNTgwMVowfzELMAkGA1UEBhMCVVMxEzARBgNVBAgMCkNhbGlmb3JuaWExFDAS
BgNVBAcMC1NhbnRhIENsYXJhMQ0wCwYDVQQKDARwa2c1MQ0wCwYDVQQLDAR0YTEw
MRIwEAYDVQQDDAlsb2NhbGhvc3QxEzARBgkqhkiG9w0BCQEWBHRhMTAwggEiMA0G
CSqGSIb3DQEBAQUAA4IBDwAwggEKAoIBAQC7iini9TXA+HAyoxCPrRBkfK6v1gCP
aHwyndxwJCp06OYXECHdHT1caeKTcprJZ31LAOzve8XEMKTl9lY6TCRod0vMJ81R
D8eq6hjifMmRDYIMKWYEO08GMJ5cSxVUlRh9zBEIgHlhXXgOrZsP+m0sOCShUADr
Rz4VO9hlwM4V5ZkTCnX7yu6y6PMptecOyaG9Cc7e1thSE+0XHvFdM6U8S/BEDexb
tF3iyk5WE6vytgr3rQAR6zbGgLkHAdeICV89GjWk0jYNlOgRWvS1np1V24co9Iuu
jaVi8zh0t5jbkGEIr0tPXU2YDRuZ76yF1zq9CYdjnheKe+rbzQYHGFmfAgMBAAGj
UDBOMB0GA1UdDgQWBBTnyg1p4BrFduRVidDPWvS4zj0M4TAfBgNVHSMEGDAWgBTn
yg1p4BrFduRVidDPWvS4zj0M4TAMBgNVHRMEBTADAQH/MA0GCSqGSIb3DQEBCwUA
A4IBAQAidSvhIKB2i6b/4Z1ewGac9LcqkJwZIew7JNs7oHtKimHV/tZKDQylvr69
C5i9v3pgFaqdCqRlTxiFpVX2ywGMcq0IQ8sB7kuPFNbxQvb0QIZn0KMy3KyUlES8
k8U4MkYC2kYbEsSxjBsRe9+fJ84dZZdZz+INS08jUpgZg9i0t52mL6Z+pYu6yygZ
CR1cGQ36klkQWPMbETjdS2TzmCTpKT9l4Z/cL2uWx9IrY8tynho2Wm8G60Wi8nDC
viOoA0cZ5QNjnOHh7ZHe5Zb/Je7vG7PXoVefoTh9TtjeYuNgQEqB12XUkClXlxoT
tdkMBsXoK13HG8BIa9LAWo/AeV37
-----END CERTIFICATE-----
Certificate:
    Data:
        Version: 3 (0x2)
        Serial Number: 11538474728423483423 (0xa020e5a1cd80e81f)
    Signature Algorithm: sha256WithRSAEncryption
        Issuer: C=US, ST=California, L=Santa Clara, O=pkg5, OU=ta11, CN=localhost/emailAddress=ta11
        Validity
            Not Before: Jan 22 01:58:02 2016 GMT
            Not After : Oct 18 01:58:02 2018 GMT
        Subject: C=US, ST=California, L=Santa Clara, O=pkg5, OU=ta11, CN=localhost/emailAddress=ta11
        Subject Public Key Info:
            Public Key Algorithm: rsaEncryption
                Public-Key: (2048 bit)
                Modulus:
                    00:d4:7c:eb:92:70:fd:12:c6:4a:82:f7:e8:7b:29:
                    75:fc:49:79:29:3f:82:26:5e:8f:f9:b2:ee:6a:a2:
                    9b:75:40:f3:3e:91:54:ca:a3:35:04:50:bf:88:03:
                    fe:dd:5d:b1:ba:95:c1:27:b7:26:88:e9:33:e6:c1:
                    45:bc:d3:a9:0a:2d:48:7a:eb:54:db:11:94:32:89:
                    52:e6:be:d1:bd:71:aa:1e:e5:e4:fc:78:46:6b:a9:
                    78:74:d5:a6:d5:2b:1a:38:3b:f9:95:8b:85:c4:07:
                    07:31:95:95:98:6a:5d:42:64:38:21:14:de:ca:49:
                    5d:f3:11:e3:09:26:ab:22:be:ba:68:8d:48:39:af:
                    db:9b:8d:30:d9:1d:65:12:e0:4d:ed:35:5b:93:12:
                    53:1d:33:58:e9:77:b4:b8:5b:ea:39:6c:9c:94:eb:
                    02:55:41:15:2c:e5:7c:f6:5c:10:89:dc:83:15:99:
                    17:bb:ee:0d:64:f1:6a:f8:9c:3b:14:bd:45:d6:0b:
                    2a:e6:ee:a9:b8:47:31:c1:a8:5e:0d:13:90:77:8a:
                    eb:e5:3a:f3:e3:0b:9f:95:7f:8d:ea:35:e1:b7:22:
                    02:4e:44:d4:eb:6c:37:82:f2:20:ed:3a:3b:48:be:
                    f7:77:d9:9f:7f:3f:0e:5b:1b:d3:d1:b1:5c:4c:c5:
                    5d:7b
                Exponent: 65537 (0x10001)
        X509v3 extensions:
            X509v3 Subject Key Identifier: 
                EC:2A:27:F4:D2:31:C8:60:E5:32:AC:BC:13:50:27:6E:E4:59:F9:3C
            X509v3 Authority Key Identifier: 
                keyid:EC:2A:27:F4:D2:31:C8:60:E5:32:AC:BC:13:50:27:6E:E4:59:F9:3C

            X509v3 Basic Constraints: 
                CA:TRUE
    Signature Algorithm: sha256WithRSAEncryption
         8b:e3:71:05:f5:33:69:fd:f9:97:c0:a9:3c:8e:33:9c:2a:03:
         1f:0a:5c:62:f5:3a:48:9a:cd:49:6f:18:29:bf:69:94:d0:94:
         64:e2:99:8a:c4:28:88:b0:31:bb:85:f2:35:8a:c8:85:84:9a:
         45:87:78:bc:1e:ff:0c:f1:d8:dd:16:3e:65:ae:f7:10:48:21:
         6c:b7:d1:95:db:ef:5f:33:23:8d:3d:4b:cb:4a:af:91:31:ee:
         d1:62:ee:85:e0:fa:48:bf:bf:22:fe:1d:50:ea:12:d6:1e:ad:
         56:40:85:ab:ce:02:a1:2e:7c:ce:ff:8b:45:b4:78:53:d2:a5:
         73:72:7c:3a:81:d7:d3:9e:1b:e6:22:14:53:28:f9:c9:bc:02:
         14:8b:45:1c:16:9e:43:b4:8b:8c:23:89:79:2f:81:70:56:6e:
         58:4a:7f:77:6b:b0:ec:0b:5d:15:ff:12:ce:94:55:eb:23:08:
         3d:0f:90:68:be:c8:85:f8:9e:fb:fe:4b:c1:5f:8b:36:ae:31:
         56:cb:ed:0c:88:df:d0:dc:9b:62:e9:68:3f:39:6f:17:e3:2a:
         eb:3c:85:f0:90:b6:d5:54:90:17:16:b1:7c:30:88:1c:91:83:
         fc:81:3f:77:26:3d:af:48:11:34:19:6a:f7:83:fb:47:a4:2e:
         f0:a8:e2:c6
-----BEGIN CERTIFICATE-----
MIID0TCCArmgAwIBAgIJAKAg5aHNgOgfMA0GCSqGSIb3DQEBCwUAMH8xCzAJBgNV
BAYTAlVTMRMwEQYDVQQIDApDYWxpZm9ybmlhMRQwEgYDVQQHDAtTYW50YSBDbGFy
YTENMAsGA1UECgwEcGtnNTENMAsGA1UECwwEdGExMTESMBAGA1UEAwwJbG9jYWxo
b3N0MRMwEQYJKoZIhvcNAQkBFgR0YTExMB4XDTE2MDEyMjAxNTgwMloXDTE4MTAx
ODAxNTgwMlowfzELMAkGA1UEBhMCVVMxEzARBgNVBAgMCkNhbGlmb3JuaWExFDAS
BgNVBAcMC1NhbnRhIENsYXJhMQ0wCwYDVQQKDARwa2c1MQ0wCwYDVQQLDAR0YTEx
MRIwEAYDVQQDDAlsb2NhbGhvc3QxEzARBgkqhkiG9w0BCQEWBHRhMTEwggEiMA0G
CSqGSIb3DQEBAQUAA4IBDwAwggEKAoIBAQDUfOuScP0SxkqC9+h7KXX8SXkpP4Im
Xo/5su5qopt1QPM+kVTKozUEUL+IA/7dXbG6lcEntyaI6TPmwUW806kKLUh661Tb
EZQyiVLmvtG9caoe5eT8eEZrqXh01abVKxo4O/mVi4XEBwcxlZWYal1CZDghFN7K
SV3zEeMJJqsivrpojUg5r9ubjTDZHWUS4E3tNVuTElMdM1jpd7S4W+o5bJyU6wJV
QRUs5Xz2XBCJ3IMVmRe77g1k8Wr4nDsUvUXWCyrm7qm4RzHBqF4NE5B3iuvlOvPj
C5+Vf43qNeG3IgJORNTrbDeC8iDtOjtIvvd32Z9/Pw5bG9PRsVxMxV17AgMBAAGj
UDBOMB0GA1UdDgQWBBTsKif00jHIYOUyrLwTUCdu5Fn5PDAfBgNVHSMEGDAWgBTs
Kif00jHIYOUyrLwTUCdu5Fn5PDAMBgNVHRMEBTADAQH/MA0GCSqGSIb3DQEBCwUA
A4IBAQCL43EF9TNp/fmXwKk8jjOcKgMfClxi9TpIms1Jbxgpv2mU0JRk4pmKxCiI
sDG7hfI1isiFhJpFh3i8Hv8M8djdFj5lrvcQSCFst9GV2+9fMyONPUvLSq+RMe7R
Yu6F4PpIv78i/h1Q6hLWHq1WQIWrzgKhLnzO/4tFtHhT0qVzcnw6gdfTnhvmIhRT
KPnJvAIUi0UcFp5DtIuMI4l5L4FwVm5YSn93a7DsC10V/xLOlFXrIwg9D5BovsiF
+J77/kvBX4s2rjFWy+0MiN/Q3Jti6Wg/OW8X4yrrPIXwkLbVVJAXFrF8MIgckYP8
gT93Jj2vSBE0GWr3g/tHpC7wqOLG
-----END CERTIFICATE-----
