Certificate:
    Data:
        Version: 3 (0x2)
        Serial Number:
            cb:2a:36:97:17:4f:60:24
        Signature Algorithm: sha256WithRSAEncryption
        Issuer: C=US, ST=California, L=Menlo Park, O=pkg5, CN=ta5/emailAddress=ta5
        Validity
            Not Before: Aug  4 20:59:29 2010 GMT
            Not After : Apr 30 20:59:29 2013 GMT
        Subject: C=US, ST=California, L=Menlo Park, O=pkg5, CN=ta5/emailAddress=ta5
        Subject Public Key Info:
            Public Key Algorithm: rsaEncryption
            RSA Public Key: (1024 bit)
                Modulus (1024 bit):
                    00:c0:be:12:dc:dd:d4:41:ab:8e:9c:fa:63:2c:b7:
                    36:6a:7a:bb:71:4e:5e:7a:70:50:e6:37:b4:57:75:
                    74:21:46:48:ee:2d:9b:42:a4:3f:4f:16:05:da:b7:
                    73:4a:4c:ab:c1:64:b2:a8:9c:fe:b7:82:d3:ec:de:
                    83:b0:f0:26:86:c0:da:39:ca:97:b0:ce:3c:6f:16:
                    c3:07:26:47:2e:39:94:8f:a3:05:21:2c:c5:15:29:
                    9b:98:23:12:77:38:b8:a9:0f:ae:69:c4:54:a2:dc:
                    03:52:fe:99:28:2e:f0:fc:d1:a6:91:89:9b:b6:0c:
                    c1:9b:48:e0:99:a5:42:e9:0b
                Exponent: 65537 (0x10001)
        X509v3 extensions:
            X509v3 Subject Key Identifier: 
                AA:44:3A:A2:05:A2:04:EB:62:E0:E5:F5:2C:44:CA:3B:CF:4D:B2:74
            X509v3 Authority Key Identifier: 
                keyid:AA:44:3A:A2:05:A2:04:EB:62:E0:E5:F5:2C:44:CA:3B:CF:4D:B2:74
                DirName:/C=US/ST=California/L=Menlo Park/O=pkg5/CN=ta5/emailAddress=ta5
                serial:CB:2A:36:97:17:4F:60:24

            X509v3 Basic Constraints: 
                CA:TRUE
    Signature Algorithm: sha256WithRSAEncryption
        94:d5:b3:0f:11:c7:df:f9:f2:5a:a3:3c:66:f2:bd:8e:06:22:
        d1:bb:f5:33:61:6d:8c:60:c3:4c:f8:b4:ab:1c:83:25:ca:49:
        06:ab:de:23:24:f9:e1:b1:c1:41:4d:c8:19:74:8c:3e:01:17:
        63:4d:c1:93:99:f1:ac:12:37:df:4e:68:8c:42:c3:51:2c:bf:
        de:97:2f:2f:1b:58:c4:6e:35:6c:18:a4:f4:2e:21:2a:9a:bf:
        dd:d8:90:f0:90:de:15:38:8f:c8:91:48:ce:3b:f5:29:c4:26:
        94:a8:f9:21:7f:50:b3:ff:07:b8:88:1d:e5:68:1c:c1:31:40:
        a8:0b
-----BEGIN CERTIFICATE-----
MIIDHDCCAoWgAwIBAgIJAMsqNpcXT2AkMA0GCSqGSIb3DQEBCwUAMGgxCzAJBgNV
BAYTAlVTMRMwEQYDVQQIEwpDYWxpZm9ybmlhMRMwEQYDVQQHEwpNZW5sbyBQYXJr
MQ0wCwYDVQQKEwRwa2c1MQwwCgYDVQQDEwN0YTUxEjAQBgkqhkiG9w0BCQEWA3Rh
NTAeFw0xMDA4MDQyMDU5MjlaFw0xMzA0MzAyMDU5MjlaMGgxCzAJBgNVBAYTAlVT
MRMwEQYDVQQIEwpDYWxpZm9ybmlhMRMwEQYDVQQHEwpNZW5sbyBQYXJrMQ0wCwYD
VQQKEwRwa2c1MQwwCgYDVQQDEwN0YTUxEjAQBgkqhkiG9w0BCQEWA3RhNTCBnzAN
BgkqhkiG9w0BAQEFAAOBjQAwgYkCgYEAwL4S3N3UQauOnPpjLLc2anq7cU5eenBQ
5je0V3V0IUZI7i2bQqQ/TxYF2rdzSkyrwWSyqJz+t4LT7N6DsPAmhsDaOcqXsM48
bxbDByZHLjmUj6MFISzFFSmbmCMSdzi4qQ+uacRUotwDUv6ZKC7w/NGmkYmbtgzB
m0jgmaVC6QsCAwEAAaOBzTCByjAdBgNVHQ4EFgQUqkQ6ogWiBOti4OX1LETKO89N
snQwgZoGA1UdIwSBkjCBj4AUqkQ6ogWiBOti4OX1LETKO89NsnShbKRqMGgxCzAJ
BgNVBAYTAlVTMRMwEQYDVQQIEwpDYWxpZm9ybmlhMRMwEQYDVQQHEwpNZW5sbyBQ
YXJrMQ0wCwYDVQQKEwRwa2c1MQwwCgYDVQQDEwN0YTUxEjAQBgkqhkiG9w0BCQEW
A3RhNYIJAMsqNpcXT2AkMAwGA1UdEwQFMAMBAf8wDQYJKoZIhvcNAQELBQADgYEA
lNWzDxHH3/nyWqM8ZvK9jgYi0bv1M2FtjGDDTPi0qxyDJcpJBqveIyT54bHBQU3I
GXSMPgEXY03Bk5nxrBI3305ojELDUSy/3pcvLxtYxG41bBik9C4hKpq/3diQ8JDe
FTiPyJFIzjv1KcQmlKj5IX9Qs/8HuIgd5WgcwTFAqAs=
-----END CERTIFICATE-----
