Certificate:
    Data:
        Version: 3 (0x2)
        Serial Number: 12239961570819013354 (0xa9dd1432d5197aea)
    Signature Algorithm: sha256WithRSAEncryption
        Issuer: C=US, ST=California, L=Santa Clara, O=pkg5, CN=ta5/emailAddress=ta5
        Validity
            Not Before: Jan 22 01:57:59 2016 GMT
            Not After : Oct 18 01:57:59 2018 GMT
        Subject: C=US, ST=California, L=Santa Clara, O=pkg5, CN=ta5/emailAddress=ta5
        Subject Public Key Info:
            Public Key Algorithm: rsaEncryption
                Public-Key: (2048 bit)
                Modulus:
                    00:cc:68:6e:e4:ef:8b:b9:46:55:cc:39:65:7c:b2:
                    ba:f3:b8:33:2b:90:a8:44:a1:f8:d5:3a:f9:71:f3:
                    52:74:78:11:38:b3:30:ea:2b:ee:7b:20:cc:5c:2d:
                    49:dd:64:69:19:a5:4e:dc:96:46:6c:ad:70:fb:88:
                    c1:09:ca:2a:f6:3a:89:93:f1:0f:ea:06:ba:e0:4f:
                    bb:50:9e:54:d2:7a:3a:08:e2:f1:ab:a4:89:e9:ce:
                    c2:4c:ff:f5:8d:81:53:d8:6d:16:81:bd:b8:9a:8b:
                    a2:c6:00:3e:1b:1c:d8:05:a8:09:a4:92:6f:b4:40:
                    1a:8a:c7:f2:d5:82:f5:92:7a:1e:85:05:2c:32:80:
                    c5:16:bc:86:26:f1:77:3b:d3:22:3d:fe:7d:8a:ec:
                    42:0b:e5:3e:ef:ad:c9:49:80:c9:15:fe:68:cc:d9:
                    85:d1:65:83:b7:20:86:f2:49:21:f5:1a:3f:e3:1a:
                    8b:22:b0:1f:40:2a:9f:79:1f:23:d6:21:5c:cf:7d:
                    40:07:2a:d5:86:8c:a7:05:14:f2:a0:c8:51:7e:7c:
                    8e:f3:da:92:89:d5:11:23:3b:1e:cd:23:9f:d5:b2:
                    14:9f:9e:a0:0b:37:44:8f:70:77:f9:6f:84:dd:28:
                    66:60:fa:70:e6:4e:ec:e5:34:cb:dd:61:bf:27:b3:
                    2f:ef
                Exponent: 65537 (0x10001)
        X509v3 extensions:
            X509v3 Subject Key Identifier: 
                DC:66:15:EE:AB:F6:53:B7:63:E5:B0:CB:B8:F0:D4:61:B5:27:94:3F
            X509v3 Authority Key Identifier: 
                keyid:DC:66:15:EE:AB:F6:53:B7:63:E5:B0:CB:B8:F0:D4:61:B5:27:94:3F

            X509v3 Basic Constraints: 
                CA:TRUE
    Signature Algorithm: sha256WithRSAEncryption
         42:62:4b:25:2a:9f:d1:23:9e:c6:2d:25:8c:ac:e4:6a:7e:b6:
         75:86:e0:9a:b8:e8:b1:45:6f:1d:40:cb:0c:d9:5a:d7:50:0a:
         3c:ad:56:51:f4:8c:d9:90:e9:18:12:31:2f:29:85:ce:2e:f8:
         48:91:9b:17:cb:c4:08:1f:dd:ed:2e:18:d3:71:aa:70:89:d7:
         30:72:85:39:2c:88:48:cc:d5:d0:f9:bb:fc:5e:21:0a:92:66:
         fc:69:85:3c:a8:1f:ca:ba:be:36:89:fa:2e:69:4e:f8:61:7f:
         17:2d:68:7d:bc:f8:d6:91:6f:67:50:a1:70:64:7b:51:04:3f:
         09:f3:3a:62:95:72:00:56:da:68:1d:d5:f7:3b:b2:ec:0b:a7:
         fc:d2:22:a2:50:b2:b3:2c:8e:cd:b6:8c:5e:76:f7:d0:df:67:
         35:11:3f:42:43:98:8f:30:0f:00:af:d7:dc:cc:b9:03:c5:46:
         0e:9f:d1:60:bc:97:be:d1:e5:97:5d:d3:b1:f8:44:73:9e:ed:
         a1:71:b3:0e:53:f5:e8:0d:74:e7:33:18:1c:17:3b:ec:b1:1f:
         d5:28:73:b3:19:8a:74:aa:ce:e2:98:c7:38:f4:93:40:d8:a2:
         d4:ac:cb:2d:16:5f:f5:92:78:b6:0c:66:e9:c2:65:ae:7c:d1:
         20:20:58:3b
-----BEGIN CERTIFICATE-----
MIIDpTCCAo2gAwIBAgIJAKndFDLVGXrqMA0GCSqGSIb3DQEBCwUAMGkxCzAJBgNV
BAYTAlVTMRMwEQYDVQQIDApDYWxpZm9ybmlhMRQwEgYDVQQHDAtTYW50YSBDbGFy
YTENMAsGA1UECgwEcGtnNTEMMAoGA1UEAwwDdGE1MRIwEAYJKoZIhvcNAQkBFgN0
YTUwHhcNMTYwMTIyMDE1NzU5WhcNMTgxMDE4MDE1NzU5WjBpMQswCQYDVQQGEwJV
UzETMBEGA1UECAwKQ2FsaWZvcm5pYTEUMBIGA1UEBwwLU2FudGEgQ2xhcmExDTAL
BgNVBAoMBHBrZzUxDDAKBgNVBAMMA3RhNTESMBAGCSqGSIb3DQEJARYDdGE1MIIB
IjANBgkqhkiG9w0BAQEFAAOCAQ8AMIIBCgKCAQEAzGhu5O+LuUZVzDllfLK687gz
K5CoRKH41Tr5cfNSdHgROLMw6ivueyDMXC1J3WRpGaVO3JZGbK1w+4jBCcoq9jqJ
k/EP6ga64E+7UJ5U0no6COLxq6SJ6c7CTP/1jYFT2G0Wgb24mouixgA+GxzYBagJ
pJJvtEAaisfy1YL1knoehQUsMoDFFryGJvF3O9MiPf59iuxCC+U+763JSYDJFf5o
zNmF0WWDtyCG8kkh9Ro/4xqLIrAfQCqfeR8j1iFcz31AByrVhoynBRTyoMhRfnyO
89qSidURIzsezSOf1bIUn56gCzdEj3B3+W+E3ShmYPpw5k7s5TTL3WG/J7Mv7wID
AQABo1AwTjAdBgNVHQ4EFgQU3GYV7qv2U7dj5bDLuPDUYbUnlD8wHwYDVR0jBBgw
FoAU3GYV7qv2U7dj5bDLuPDUYbUnlD8wDAYDVR0TBAUwAwEB/zANBgkqhkiG9w0B
AQsFAAOCAQEAQmJLJSqf0SOexi0ljKzkan62dYbgmrjosUVvHUDLDNla11AKPK1W
UfSM2ZDpGBIxLymFzi74SJGbF8vECB/d7S4Y03GqcInXMHKFOSyISMzV0Pm7/F4h
CpJm/GmFPKgfyrq+Non6LmlO+GF/Fy1ofbz41pFvZ1ChcGR7UQQ/CfM6YpVyAFba
aB3V9zuy7Aun/NIiolCysyyOzbaMXnb30N9nNRE/QkOYjzAPAK/X3My5A8VGDp/R
YLyXvtHll13TsfhEc57toXGzDlP16A105zMYHBc77LEf1ShzsxmKdKrO4pjHOPST
QNii1KzLLRZf9ZJ4tgxm6cJlrnzRICBYOw==
-----END CERTIFICATE-----
