Certificate:
    Data:
        Version: 3 (0x2)
        Serial Number:
            90:f3:1a:81:94:c1:2a:2b
    Signature Algorithm: sha256WithRSAEncryption
        Issuer: C=US, ST=California, L=Santa Clara, O=pkg5, CN=ta5/emailAddress=ta5
        Validity
            Not Before: Sep 22 05:33:33 2021 GMT
            Not After : Jun 18 05:33:33 2024 GMT
        Subject: C=US, ST=California, L=Santa Clara, O=pkg5, CN=ta5/emailAddress=ta5
        Subject Public Key Info:
            Public Key Algorithm: rsaEncryption
                Public-Key: (2048 bit)
                Modulus:
                    00:c7:73:32:b0:37:67:12:6c:5b:5f:e7:cb:08:d3:
                    f7:d8:93:91:b3:f1:c2:ac:b5:4e:3c:d2:4a:04:07:
                    b0:85:59:a2:8d:e0:f4:92:b3:7f:ed:7d:42:07:94:
                    27:aa:b6:fd:d8:bb:6e:5b:8d:77:bf:f8:a6:95:78:
                    31:42:d6:a3:f0:f5:76:dc:97:91:f9:fb:92:88:9d:
                    fe:12:9a:2f:2e:b6:4d:3d:75:6a:0c:d7:94:8c:40:
                    80:26:1c:77:71:8a:52:23:e3:01:d0:64:c9:68:5c:
                    d1:c8:69:7b:a0:0b:80:a6:c0:65:0e:63:91:34:ef:
                    74:38:1e:3a:83:d2:18:7b:7b:49:33:cd:39:cb:03:
                    59:9b:74:b7:db:ff:49:4e:b5:52:09:9f:b1:b7:c3:
                    24:c3:b2:5b:0d:25:9e:6d:ef:af:a1:0b:80:5c:28:
                    2c:5d:fc:c9:1a:fe:6b:cc:5d:9d:4f:58:54:ec:60:
                    86:65:ef:57:61:f9:c7:a7:42:ee:f3:4d:a6:0c:47:
                    57:dd:b8:1d:02:94:e7:c3:6b:e3:44:a5:02:81:0d:
                    dd:f1:fa:f3:02:14:3a:50:d5:3b:78:5c:c4:b6:4d:
                    af:39:d1:7a:6b:cb:51:fe:ba:8a:23:81:ce:74:25:
                    eb:e3:bc:73:55:c8:e1:24:4e:8e:09:45:c9:d1:cb:
                    e3:6b
                Exponent: 65537 (0x10001)
        X509v3 extensions:
            X509v3 Subject Key Identifier: 
                2D:19:D3:0C:83:98:EF:18:A5:A5:79:DC:00:80:B6:59:21:9F:F3:23
            X509v3 Authority Key Identifier: 
                keyid:2D:19:D3:0C:83:98:EF:18:A5:A5:79:DC:00:80:B6:59:21:9F:F3:23

            X509v3 Basic Constraints: 
                CA:TRUE
    Signature Algorithm: sha256WithRSAEncryption
         a8:69:b1:df:7a:df:3d:fd:1b:c7:6f:7f:ec:d8:1b:87:38:ba:
         8f:82:2e:90:a1:c2:6e:46:42:0c:76:df:eb:b1:0c:76:64:90:
         d3:14:fa:74:cb:03:04:ca:45:1d:fb:22:87:f3:d3:41:35:64:
         24:67:b7:f7:dd:60:d7:32:b0:2e:9c:d5:a4:ad:9a:46:98:47:
         3e:16:0c:74:bf:c6:5d:f0:cc:60:4e:af:12:d7:77:aa:7f:52:
         41:61:ab:3a:65:26:e0:63:66:6c:98:e4:84:92:3c:16:27:42:
         7b:4b:7f:80:a5:31:aa:aa:cb:29:89:a4:e3:61:90:5a:08:a9:
         d5:ee:63:ad:76:c8:17:bf:ac:7d:c5:7d:10:52:a0:28:9c:6a:
         54:d6:51:92:7a:22:41:79:16:17:d0:fc:8e:55:f0:1c:62:f8:
         f7:97:97:7f:a6:d8:a7:48:24:13:a8:da:23:09:3b:20:0f:d4:
         62:a1:3f:a3:40:f5:90:d6:54:f6:d8:9f:a2:2f:cd:e3:a9:27:
         22:35:cb:8d:dc:a5:3e:12:7e:6d:61:ca:fb:5a:22:89:d4:48:
         de:f3:51:93:01:dd:37:0a:32:c9:8c:00:73:32:e3:79:87:0d:
         6a:22:19:9c:b7:34:6c:fd:04:a6:4a:3b:c8:c6:54:d9:cd:4a:
         fa:7c:45:a2
-----BEGIN CERTIFICATE-----
MIIDpTCCAo2gAwIBAgIJAJDzGoGUwSorMA0GCSqGSIb3DQEBCwUAMGkxCzAJBgNV
BAYTAlVTMRMwEQYDVQQIDApDYWxpZm9ybmlhMRQwEgYDVQQHDAtTYW50YSBDbGFy
YTENMAsGA1UECgwEcGtnNTEMMAoGA1UEAwwDdGE1MRIwEAYJKoZIhvcNAQkBFgN0
YTUwHhcNMjEwOTIyMDUzMzMzWhcNMjQwNjE4MDUzMzMzWjBpMQswCQYDVQQGEwJV
UzETMBEGA1UECAwKQ2FsaWZvcm5pYTEUMBIGA1UEBwwLU2FudGEgQ2xhcmExDTAL
BgNVBAoMBHBrZzUxDDAKBgNVBAMMA3RhNTESMBAGCSqGSIb3DQEJARYDdGE1MIIB
IjANBgkqhkiG9w0BAQEFAAOCAQ8AMIIBCgKCAQEAx3MysDdnEmxbX+fLCNP32JOR
s/HCrLVOPNJKBAewhVmijeD0krN/7X1CB5Qnqrb92LtuW413v/imlXgxQtaj8PV2
3JeR+fuSiJ3+EpovLrZNPXVqDNeUjECAJhx3cYpSI+MB0GTJaFzRyGl7oAuApsBl
DmORNO90OB46g9IYe3tJM805ywNZm3S32/9JTrVSCZ+xt8Mkw7JbDSWebe+voQuA
XCgsXfzJGv5rzF2dT1hU7GCGZe9XYfnHp0Lu802mDEdX3bgdApTnw2vjRKUCgQ3d
8frzAhQ6UNU7eFzEtk2vOdF6a8tR/rqKI4HOdCXr47xzVcjhJE6OCUXJ0cvjawID
AQABo1AwTjAdBgNVHQ4EFgQULRnTDIOY7xilpXncAIC2WSGf8yMwHwYDVR0jBBgw
FoAULRnTDIOY7xilpXncAIC2WSGf8yMwDAYDVR0TBAUwAwEB/zANBgkqhkiG9w0B
AQsFAAOCAQEAqGmx33rfPf0bx29/7Ngbhzi6j4IukKHCbkZCDHbf67EMdmSQ0xT6
dMsDBMpFHfsih/PTQTVkJGe3991g1zKwLpzVpK2aRphHPhYMdL/GXfDMYE6vEtd3
qn9SQWGrOmUm4GNmbJjkhJI8FidCe0t/gKUxqqrLKYmk42GQWgip1e5jrXbIF7+s
fcV9EFKgKJxqVNZRknoiQXkWF9D8jlXwHGL495eXf6bYp0gkE6jaIwk7IA/UYqE/
o0D1kNZU9tifoi/N46knIjXLjdylPhJ+bWHK+1oiidRI3vNRkwHdNwoyyYwAczLj
eYcNaiIZnLc0bP0Epko7yMZU2c1K+nxFog==
-----END CERTIFICATE-----
