Certificate:
    Data:
        Version: 3 (0x2)
        Serial Number: 12074133414322946630 (0xa78ff05e6b64c246)
    Signature Algorithm: sha256WithRSAEncryption
        Issuer: C=US, ST=California, L=Santa Clara, O=pkg5, CN=ta5/emailAddress=ta5
        Validity
            Not Before: Dec 13 00:13:38 2013 GMT
            Not After : Sep  8 00:13:38 2016 GMT
        Subject: C=US, ST=California, L=Santa Clara, O=pkg5, CN=ta5/emailAddress=ta5
        Subject Public Key Info:
            Public Key Algorithm: rsaEncryption
                Public-Key: (1024 bit)
                Modulus:
                    00:b7:a8:13:3d:f3:64:60:87:d9:bd:d0:92:59:74:
                    b9:dc:27:f8:40:15:39:9a:30:52:0f:73:5d:45:d8:
                    b9:a1:9a:72:56:e2:85:1a:c0:18:8c:90:56:44:14:
                    e5:50:70:69:e5:36:5b:a2:fb:3c:bf:f9:78:77:27:
                    2d:de:3c:5e:3c:7d:d2:40:02:8b:bc:04:9b:8f:65:
                    0b:74:3a:98:23:4d:e1:0d:4d:c3:42:cb:61:a8:42:
                    bf:b2:1c:83:18:89:4f:b4:cf:cf:34:fd:f3:c7:7e:
                    1b:54:3e:ed:e9:0a:13:8c:c2:56:f6:25:87:42:40:
                    a3:ca:ab:ff:cc:ba:c6:c2:0d
                Exponent: 65537 (0x10001)
        X509v3 extensions:
            X509v3 Subject Key Identifier: 
                29:DA:B1:46:E3:61:51:AC:3C:3E:F6:78:5B:95:7B:6D:B2:F9:17:21
            X509v3 Authority Key Identifier: 
                keyid:29:DA:B1:46:E3:61:51:AC:3C:3E:F6:78:5B:95:7B:6D:B2:F9:17:21

            X509v3 Basic Constraints: 
                CA:TRUE
    Signature Algorithm: sha256WithRSAEncryption
         21:28:62:ac:b3:da:3a:66:ed:13:bc:72:15:0d:44:87:25:c9:
         8e:0d:37:cf:b9:2b:3b:64:30:6f:67:6e:b7:6a:6e:c7:12:f9:
         68:9c:78:cd:de:72:fe:05:bb:59:58:47:93:c3:f7:41:fe:30:
         44:53:57:9a:6c:3e:6c:a4:c9:68:a1:5b:80:b1:3c:e7:e9:c1:
         11:11:99:ad:60:24:0e:ca:17:56:d2:48:db:c5:9a:3f:f1:92:
         01:a7:5a:2a:d0:6e:2e:6c:20:3d:97:ba:2e:b1:00:a1:6f:1b:
         14:83:dd:32:3c:fd:18:c7:b2:85:b8:a6:03:98:fa:eb:d1:45:
         4e:f9
-----BEGIN CERTIFICATE-----
MIICoDCCAgmgAwIBAgIJAKeP8F5rZMJGMA0GCSqGSIb3DQEBCwUAMGkxCzAJBgNV
BAYTAlVTMRMwEQYDVQQIDApDYWxpZm9ybmlhMRQwEgYDVQQHDAtTYW50YSBDbGFy
YTENMAsGA1UECgwEcGtnNTEMMAoGA1UEAwwDdGE1MRIwEAYJKoZIhvcNAQkBFgN0
YTUwHhcNMTMxMjEzMDAxMzM4WhcNMTYwOTA4MDAxMzM4WjBpMQswCQYDVQQGEwJV
UzETMBEGA1UECAwKQ2FsaWZvcm5pYTEUMBIGA1UEBwwLU2FudGEgQ2xhcmExDTAL
BgNVBAoMBHBrZzUxDDAKBgNVBAMMA3RhNTESMBAGCSqGSIb3DQEJARYDdGE1MIGf
MA0GCSqGSIb3DQEBAQUAA4GNADCBiQKBgQC3qBM982Rgh9m90JJZdLncJ/hAFTma
MFIPc11F2LmhmnJW4oUawBiMkFZEFOVQcGnlNlui+zy/+Xh3Jy3ePF48fdJAAou8
BJuPZQt0OpgjTeENTcNCy2GoQr+yHIMYiU+0z880/fPHfhtUPu3pChOMwlb2JYdC
QKPKq//MusbCDQIDAQABo1AwTjAdBgNVHQ4EFgQUKdqxRuNhUaw8PvZ4W5V7bbL5
FyEwHwYDVR0jBBgwFoAUKdqxRuNhUaw8PvZ4W5V7bbL5FyEwDAYDVR0TBAUwAwEB
/zANBgkqhkiG9w0BAQsFAAOBgQAhKGKss9o6Zu0TvHIVDUSHJcmODTfPuSs7ZDBv
Z263am7HEvlonHjN3nL+BbtZWEeTw/dB/jBEU1eabD5spMlooVuAsTzn6cEREZmt
YCQOyhdW0kjbxZo/8ZIBp1oq0G4ubCA9l7ousQChbxsUg90yPP0Yx7KFuKYDmPrr
0UVO+Q==
-----END CERTIFICATE-----
