Certificate:
    Data:
        Version: 3 (0x2)
        Serial Number:
            a9:35:b7:58:6e:2e:7e:8c
    Signature Algorithm: sha256WithRSAEncryption
        Issuer: C=US, ST=California, L=Santa Clara, O=pkg5, CN=ta5/emailAddress=ta5
        Validity
            Not Before: Jan 22 15:33:14 2019 GMT
            Not After : Oct 18 15:33:14 2021 GMT
        Subject: C=US, ST=California, L=Santa Clara, O=pkg5, CN=ta5/emailAddress=ta5
        Subject Public Key Info:
            Public Key Algorithm: rsaEncryption
                Public-Key: (2048 bit)
                Modulus:
                    00:bc:91:5e:e8:3b:72:bf:47:8f:91:3a:9c:fc:52:
                    fa:8a:cf:fe:37:59:11:6f:a0:fd:bd:da:bf:64:b4:
                    d3:01:ce:59:c3:08:16:d4:16:a9:71:1a:9f:99:40:
                    e5:fd:23:1f:5a:94:dc:3e:e1:11:99:9d:3f:c6:00:
                    79:12:7c:a4:45:bf:a7:be:88:6c:d4:fd:fe:28:f5:
                    ae:42:d2:a3:12:8b:18:44:03:11:4d:bc:63:c4:39:
                    b4:72:06:60:23:41:5b:98:b6:fc:d3:e2:80:10:ec:
                    4a:3e:f4:58:d1:84:cf:92:b2:ef:37:77:51:d6:20:
                    6e:4b:57:92:22:73:b2:5b:0b:fd:65:ed:1e:e6:c4:
                    23:b4:6a:6b:37:2e:9f:7b:08:d5:91:4d:42:c1:44:
                    c8:26:ed:8f:f2:dc:90:26:c0:7a:92:ca:72:f4:cc:
                    81:a6:43:c8:fd:d5:07:1e:d2:c3:51:d4:2a:ee:46:
                    58:a1:2d:51:93:b2:23:bd:67:d6:68:40:0f:2c:01:
                    df:70:b7:7e:7b:c6:7c:15:21:1e:09:85:6a:95:3b:
                    72:7b:dc:34:f8:cf:01:a7:f0:8c:d2:f6:86:ad:01:
                    c6:4e:dd:33:96:81:79:c4:f7:32:31:80:a5:eb:fd:
                    2f:fa:eb:cf:4b:56:cf:a6:da:05:15:1a:ae:7b:d5:
                    91:d3
                Exponent: 65537 (0x10001)
        X509v3 extensions:
            X509v3 Subject Key Identifier: 
                57:98:80:77:D2:C5:CC:99:02:C3:DA:37:83:DA:01:73:FD:C4:41:64
            X509v3 Authority Key Identifier: 
                keyid:57:98:80:77:D2:C5:CC:99:02:C3:DA:37:83:DA:01:73:FD:C4:41:64

            X509v3 Basic Constraints: 
                CA:TRUE
    Signature Algorithm: sha256WithRSAEncryption
         13:29:fb:72:3d:21:de:59:47:23:dc:de:96:49:74:0b:42:34:
         5d:49:26:42:7e:5d:69:2c:75:cb:56:96:c3:3c:4d:04:df:92:
         2c:14:ab:2f:98:8f:c8:fb:f1:e1:e6:15:91:d5:6b:f8:18:da:
         86:69:ab:c3:15:7e:b1:e1:fb:b2:97:d1:2a:36:eb:93:91:ff:
         ac:6d:27:96:39:69:3c:3e:c7:71:ec:46:04:59:fd:60:5e:5b:
         d7:b9:04:ec:4e:d6:a1:c6:94:d9:b1:46:50:20:e2:f8:10:34:
         43:9f:91:0d:97:b4:e8:2a:c2:dc:1f:4d:38:e0:ab:e5:22:0c:
         af:c5:d2:10:25:97:2f:2b:4d:6e:09:65:42:77:19:17:60:88:
         52:e3:60:0a:44:01:cd:6c:e0:e5:7b:92:ab:36:e2:82:c9:42:
         c1:b3:ea:8a:a1:2e:cd:3b:ac:5e:9f:ec:9b:9d:79:85:d5:ad:
         96:9a:2c:d3:5f:a7:0a:4a:6e:c9:66:36:b9:c4:31:01:85:75:
         b4:01:bc:6d:8b:6a:37:50:7d:d6:1e:c3:ba:55:23:9f:a4:50:
         fa:7d:05:b6:e4:7a:e7:fb:28:25:b3:36:f0:96:aa:13:25:39:
         9e:a7:98:95:bb:79:c3:b7:90:49:56:ca:a4:36:59:8e:ba:c3:
         79:22:fa:60
-----BEGIN CERTIFICATE-----
MIIDpTCCAo2gAwIBAgIJAKk1t1huLn6MMA0GCSqGSIb3DQEBCwUAMGkxCzAJBgNV
BAYTAlVTMRMwEQYDVQQIDApDYWxpZm9ybmlhMRQwEgYDVQQHDAtTYW50YSBDbGFy
YTENMAsGA1UECgwEcGtnNTEMMAoGA1UEAwwDdGE1MRIwEAYJKoZIhvcNAQkBFgN0
YTUwHhcNMTkwMTIyMTUzMzE0WhcNMjExMDE4MTUzMzE0WjBpMQswCQYDVQQGEwJV
UzETMBEGA1UECAwKQ2FsaWZvcm5pYTEUMBIGA1UEBwwLU2FudGEgQ2xhcmExDTAL
BgNVBAoMBHBrZzUxDDAKBgNVBAMMA3RhNTESMBAGCSqGSIb3DQEJARYDdGE1MIIB
IjANBgkqhkiG9w0BAQEFAAOCAQ8AMIIBCgKCAQEAvJFe6Dtyv0ePkTqc/FL6is/+
N1kRb6D9vdq/ZLTTAc5ZwwgW1BapcRqfmUDl/SMfWpTcPuERmZ0/xgB5EnykRb+n
vohs1P3+KPWuQtKjEosYRAMRTbxjxDm0cgZgI0FbmLb80+KAEOxKPvRY0YTPkrLv
N3dR1iBuS1eSInOyWwv9Ze0e5sQjtGprNy6fewjVkU1CwUTIJu2P8tyQJsB6kspy
9MyBpkPI/dUHHtLDUdQq7kZYoS1Rk7IjvWfWaEAPLAHfcLd+e8Z8FSEeCYVqlTty
e9w0+M8Bp/CM0vaGrQHGTt0zloF5xPcyMYCl6/0v+uvPS1bPptoFFRque9WR0wID
AQABo1AwTjAdBgNVHQ4EFgQUV5iAd9LFzJkCw9o3g9oBc/3EQWQwHwYDVR0jBBgw
FoAUV5iAd9LFzJkCw9o3g9oBc/3EQWQwDAYDVR0TBAUwAwEB/zANBgkqhkiG9w0B
AQsFAAOCAQEAEyn7cj0h3llHI9zelkl0C0I0XUkmQn5daSx1y1aWwzxNBN+SLBSr
L5iPyPvx4eYVkdVr+BjahmmrwxV+seH7spfRKjbrk5H/rG0nljlpPD7HcexGBFn9
YF5b17kE7E7WocaU2bFGUCDi+BA0Q5+RDZe06CrC3B9NOOCr5SIMr8XSECWXLytN
bgllQncZF2CIUuNgCkQBzWzg5XuSqzbigslCwbPqiqEuzTusXp/sm515hdWtlpos
01+nCkpuyWY2ucQxAYV1tAG8bYtqN1B91h7DulUjn6RQ+n0FtuR65/soJbM28Jaq
EyU5nqeYlbt5w7eQSVbKpDZZjrrDeSL6YA==
-----END CERTIFICATE-----
