Certificate:
    Data:
        Version: 3 (0x2)
        Serial Number:
            ec:86:c3:65:f9:7f:14:08
        Signature Algorithm: sha256WithRSAEncryption
        Issuer: C=US, ST=California, L=Menlo Park, O=pkg5, CN=ta5/emailAddress=ta5
        Validity
            Not Before: Mar 21 00:49:34 2011 GMT
            Not After : Dec 15 00:49:34 2013 GMT
        Subject: C=US, ST=California, L=Menlo Park, O=pkg5, CN=ta5/emailAddress=ta5
        Subject Public Key Info:
            Public Key Algorithm: rsaEncryption
            RSA Public Key: (1024 bit)
                Modulus (1024 bit):
                    00:cc:27:b4:c2:c1:88:36:eb:9d:c4:02:79:04:8d:
                    8e:3d:84:72:32:92:7d:77:5e:87:a7:1b:19:7d:09:
                    3e:ff:83:de:de:64:9b:03:c4:95:64:a3:16:ef:b6:
                    33:2b:d7:28:3f:70:8d:81:c3:03:af:4e:04:de:e8:
                    86:51:82:75:81:4e:1f:97:e1:53:76:58:27:61:f2:
                    0c:2f:2e:ba:d2:b7:f5:6a:b1:66:87:81:2c:78:cf:
                    8c:74:92:2c:2e:bd:8d:ee:68:ec:92:e3:0d:73:1b:
                    82:27:3e:44:67:97:1c:42:46:20:65:89:61:ae:1b:
                    07:1f:20:60:3c:c2:16:27:0f
                Exponent: 65537 (0x10001)
        X509v3 extensions:
            X509v3 Subject Key Identifier: 
                8A:83:E9:51:D7:32:B4:6F:3B:85:AF:1A:11:94:5C:B6:21:E5:5D:0F
            X509v3 Authority Key Identifier: 
                keyid:8A:83:E9:51:D7:32:B4:6F:3B:85:AF:1A:11:94:5C:B6:21:E5:5D:0F
                DirName:/C=US/ST=California/L=Menlo Park/O=pkg5/CN=ta5/emailAddress=ta5
                serial:EC:86:C3:65:F9:7F:14:08

            X509v3 Basic Constraints: 
                CA:TRUE
    Signature Algorithm: sha256WithRSAEncryption
        32:f3:a4:fc:a0:a8:a7:64:a5:6a:6d:63:f0:ee:95:2f:2c:93:
        f8:70:c8:d6:f7:ae:98:3a:c8:9b:bd:69:fa:26:87:f5:bd:1e:
        28:80:0b:03:13:33:87:99:33:52:2e:1a:0a:78:be:e5:0a:7a:
        1d:a0:44:1c:1c:7e:93:2e:dc:e6:f5:66:79:27:58:2f:ad:03:
        d4:12:78:fa:d8:d7:f2:25:45:88:cf:ee:2a:c4:8a:f0:f3:8c:
        18:56:eb:4b:d5:58:53:77:24:53:7b:cd:75:fe:8c:1c:e0:d3:
        09:6e:e6:be:43:5c:b1:e5:71:58:65:4d:78:6d:01:bd:68:6c:
        72:64
-----BEGIN CERTIFICATE-----
MIIDHDCCAoWgAwIBAgIJAOyGw2X5fxQIMA0GCSqGSIb3DQEBCwUAMGgxCzAJBgNV
BAYTAlVTMRMwEQYDVQQIEwpDYWxpZm9ybmlhMRMwEQYDVQQHEwpNZW5sbyBQYXJr
MQ0wCwYDVQQKEwRwa2c1MQwwCgYDVQQDEwN0YTUxEjAQBgkqhkiG9w0BCQEWA3Rh
NTAeFw0xMTAzMjEwMDQ5MzRaFw0xMzEyMTUwMDQ5MzRaMGgxCzAJBgNVBAYTAlVT
MRMwEQYDVQQIEwpDYWxpZm9ybmlhMRMwEQYDVQQHEwpNZW5sbyBQYXJrMQ0wCwYD
VQQKEwRwa2c1MQwwCgYDVQQDEwN0YTUxEjAQBgkqhkiG9w0BCQEWA3RhNTCBnzAN
BgkqhkiG9w0BAQEFAAOBjQAwgYkCgYEAzCe0wsGINuudxAJ5BI2OPYRyMpJ9d16H
pxsZfQk+/4Pe3mSbA8SVZKMW77YzK9coP3CNgcMDr04E3uiGUYJ1gU4fl+FTdlgn
YfIMLy660rf1arFmh4EseM+MdJIsLr2N7mjskuMNcxuCJz5EZ5ccQkYgZYlhrhsH
HyBgPMIWJw8CAwEAAaOBzTCByjAdBgNVHQ4EFgQUioPpUdcytG87ha8aEZRctiHl
XQ8wgZoGA1UdIwSBkjCBj4AUioPpUdcytG87ha8aEZRctiHlXQ+hbKRqMGgxCzAJ
BgNVBAYTAlVTMRMwEQYDVQQIEwpDYWxpZm9ybmlhMRMwEQYDVQQHEwpNZW5sbyBQ
YXJrMQ0wCwYDVQQKEwRwa2c1MQwwCgYDVQQDEwN0YTUxEjAQBgkqhkiG9w0BCQEW
A3RhNYIJAOyGw2X5fxQIMAwGA1UdEwQFMAMBAf8wDQYJKoZIhvcNAQELBQADgYEA
MvOk/KCop2Slam1j8O6VLyyT+HDI1veumDrIm71p+iaH9b0eKIALAxMzh5kzUi4a
Cni+5Qp6HaBEHBx+ky7c5vVmeSdYL60D1BJ4+tjX8iVFiM/uKsSK8POMGFbrS9VY
U3ckU3vNdf6MHODTCW7mvkNcseVxWGVNeG0BvWhscmQ=
-----END CERTIFICATE-----
