Certificate:
    Data:
        Version: 3 (0x2)
        Serial Number:
            95:9f:b5:f6:0d:ba:26:c2
    Signature Algorithm: sha256WithRSAEncryption
        Issuer: C=US, ST=California, L=Santa Clara, O=pkg5, OU=ta8, CN=localhost/emailAddress=ta8
        Validity
            Not Before: Jul 19 11:35:52 2023 GMT
            Not After : Apr 14 11:35:52 2026 GMT
        Subject: C=US, ST=California, L=Santa Clara, O=pkg5, OU=ta8, CN=localhost/emailAddress=ta8
        Subject Public Key Info:
            Public Key Algorithm: rsaEncryption
                Public-Key: (2048 bit)
                Modulus:
                    00:b1:b9:7c:9d:1a:7e:93:cc:54:31:1f:61:16:94:
                    30:10:65:79:b4:a2:73:d8:40:44:f9:9f:1f:b8:92:
                    72:d2:ca:bf:61:0a:24:28:e0:83:36:5c:70:dd:ff:
                    bc:59:8b:9d:84:0f:29:75:b7:31:3c:dc:27:fd:13:
                    4a:15:06:7d:43:b9:4a:56:dd:de:03:af:b8:21:c1:
                    67:c4:f7:b6:c9:66:59:9c:f0:cd:1f:62:40:d1:bc:
                    56:87:37:cc:1f:35:23:27:5f:a0:c5:7b:d2:1f:a1:
                    f9:c5:94:28:0e:9b:09:5c:77:f3:0a:ba:e3:48:8f:
                    6f:89:0e:92:5e:35:32:8f:b4:86:56:3d:e4:c7:d0:
                    17:b8:14:a0:16:db:11:31:03:c7:aa:5d:7e:cb:c9:
                    d3:ab:d3:ea:05:69:62:3d:96:17:75:7d:dd:8e:7f:
                    08:d8:16:fa:98:8c:a8:87:d4:f7:59:3f:b9:b9:11:
                    13:a0:d7:0e:f2:9d:76:fc:f1:95:db:ac:28:b3:e5:
                    87:72:ba:c9:68:a0:6e:f0:41:0f:4b:58:c1:2a:86:
                    cd:75:1d:10:f6:5a:6c:6d:4a:9d:d2:bf:7c:be:1d:
                    ac:7f:92:7f:a7:95:6e:86:12:2c:e4:bc:60:71:e7:
                    bf:83:02:1f:20:b0:18:45:f4:d6:3b:49:88:1a:fc:
                    49:dd
                Exponent: 65537 (0x10001)
        X509v3 extensions:
            X509v3 Subject Key Identifier: 
                B8:A5:C6:6A:25:EC:29:C8:EE:B1:15:67:D7:40:DB:BC:50:24:84:3A
            X509v3 Authority Key Identifier: 
                keyid:B8:A5:C6:6A:25:EC:29:C8:EE:B1:15:67:D7:40:DB:BC:50:24:84:3A

            X509v3 Basic Constraints: 
                CA:TRUE
    Signature Algorithm: sha256WithRSAEncryption
         71:68:ae:57:21:75:b4:a3:e3:01:59:43:d8:71:18:65:18:fa:
         92:bb:ed:74:c5:cc:5e:06:61:b5:95:1b:ad:26:11:c5:ce:e3:
         d4:16:83:c8:db:7c:7c:08:cd:44:db:ef:50:d6:e4:71:6e:47:
         73:25:52:c0:17:fd:cf:cd:00:03:e5:ad:e2:09:87:c5:8b:f5:
         10:5b:f4:cf:d0:d1:67:48:f2:4e:5d:58:10:b1:4a:19:de:11:
         7a:4a:95:66:96:bd:9b:47:ef:08:60:45:2d:dc:83:80:42:d5:
         8e:0a:76:20:94:d5:c3:75:2e:6d:6f:89:e3:21:40:3a:d9:7d:
         7a:9c:0c:63:18:08:10:08:55:d6:cf:b1:d0:ba:de:08:f8:1f:
         04:71:f9:63:02:ab:03:62:83:f7:c1:d9:5a:fc:5e:10:4d:1c:
         25:c9:a0:ac:7e:19:8b:09:9c:23:3f:36:12:1e:33:3a:96:5d:
         c4:39:66:1f:eb:37:c5:b0:49:40:d0:04:d2:9d:d1:d9:24:95:
         db:6e:2f:c3:d2:35:67:06:ea:a9:81:ce:30:5b:d9:c4:01:d8:
         7e:90:03:5a:7c:a4:09:ae:87:5f:d9:5f:60:dc:73:c6:83:84:
         3c:32:82:60:8e:29:54:01:87:0f:8f:19:fa:47:25:51:2e:64:
         c8:55:b8:2d
-----BEGIN CERTIFICATE-----
MIIDzTCCArWgAwIBAgIJAJWftfYNuibCMA0GCSqGSIb3DQEBCwUAMH0xCzAJBgNV
BAYTAlVTMRMwEQYDVQQIDApDYWxpZm9ybmlhMRQwEgYDVQQHDAtTYW50YSBDbGFy
YTENMAsGA1UECgwEcGtnNTEMMAoGA1UECwwDdGE4MRIwEAYDVQQDDAlsb2NhbGhv
c3QxEjAQBgkqhkiG9w0BCQEWA3RhODAeFw0yMzA3MTkxMTM1NTJaFw0yNjA0MTQx
MTM1NTJaMH0xCzAJBgNVBAYTAlVTMRMwEQYDVQQIDApDYWxpZm9ybmlhMRQwEgYD
VQQHDAtTYW50YSBDbGFyYTENMAsGA1UECgwEcGtnNTEMMAoGA1UECwwDdGE4MRIw
EAYDVQQDDAlsb2NhbGhvc3QxEjAQBgkqhkiG9w0BCQEWA3RhODCCASIwDQYJKoZI
hvcNAQEBBQADggEPADCCAQoCggEBALG5fJ0afpPMVDEfYRaUMBBlebSic9hARPmf
H7iSctLKv2EKJCjggzZccN3/vFmLnYQPKXW3MTzcJ/0TShUGfUO5Slbd3gOvuCHB
Z8T3tslmWZzwzR9iQNG8Voc3zB81IydfoMV70h+h+cWUKA6bCVx38wq640iPb4kO
kl41Mo+0hlY95MfQF7gUoBbbETEDx6pdfsvJ06vT6gVpYj2WF3V93Y5/CNgW+piM
qIfU91k/ubkRE6DXDvKddvzxldusKLPlh3K6yWigbvBBD0tYwSqGzXUdEPZabG1K
ndK/fL4drH+Sf6eVboYSLOS8YHHnv4MCHyCwGEX01jtJiBr8Sd0CAwEAAaNQME4w
HQYDVR0OBBYEFLilxmol7CnI7rEVZ9dA27xQJIQ6MB8GA1UdIwQYMBaAFLilxmol
7CnI7rEVZ9dA27xQJIQ6MAwGA1UdEwQFMAMBAf8wDQYJKoZIhvcNAQELBQADggEB
AHForlchdbSj4wFZQ9hxGGUY+pK77XTFzF4GYbWVG60mEcXO49QWg8jbfHwIzUTb
71DW5HFuR3MlUsAX/c/NAAPlreIJh8WL9RBb9M/Q0WdI8k5dWBCxShneEXpKlWaW
vZtH7whgRS3cg4BC1Y4KdiCU1cN1Lm1vieMhQDrZfXqcDGMYCBAIVdbPsdC63gj4
HwRx+WMCqwNig/fB2Vr8XhBNHCXJoKx+GYsJnCM/NhIeMzqWXcQ5Zh/rN8WwSUDQ
BNKd0dkkldtuL8PSNWcG6qmBzjBb2cQB2H6QA1p8pAmuh1/ZX2Dcc8aDhDwygmCO
KVQBhw+PGfpHJVEuZMhVuC0=
-----END CERTIFICATE-----
