Certificate:
    Data:
        Version: 3 (0x2)
        Serial Number: 16761812160468638874 (0xe89deb5a208e5c9a)
    Signature Algorithm: sha256WithRSAEncryption
        Issuer: C=US, ST=California, L=Santa Clara, O=pkg5, OU=ta8, CN=localhost/emailAddress=ta8
        Validity
            Not Before: Jan 22 01:58:00 2016 GMT
            Not After : Oct 18 01:58:00 2018 GMT
        Subject: C=US, ST=California, L=Santa Clara, O=pkg5, OU=ta8, CN=localhost/emailAddress=ta8
        Subject Public Key Info:
            Public Key Algorithm: rsaEncryption
                Public-Key: (2048 bit)
                Modulus:
                    00:c5:42:89:07:35:25:ca:4f:66:73:50:13:a7:27:
                    62:d2:7e:3b:e3:89:b1:c6:8d:5d:65:30:f3:a8:6a:
                    1f:55:a9:2e:92:86:04:c4:2a:3d:c5:bd:a3:3b:9c:
                    58:ee:63:df:51:b5:bd:d9:22:c6:aa:7e:4b:b4:90:
                    7a:47:89:bf:cc:ff:67:55:1f:1e:da:23:47:bd:ca:
                    05:7e:9b:dc:ac:9e:7c:7f:15:e8:57:0a:32:e0:8a:
                    ad:52:f2:d4:80:93:d9:e5:b9:86:f5:f2:64:21:c1:
                    fc:75:fd:2b:a8:65:e2:6a:a0:29:a9:ad:62:79:04:
                    7c:7f:d7:03:77:7e:6f:ed:59:28:1f:99:61:97:35:
                    a8:67:88:0a:e1:c6:bb:71:40:01:21:b3:a7:82:72:
                    97:8e:bd:5e:a4:b1:a7:dd:02:d0:64:ea:bc:33:f2:
                    06:96:cf:ee:2f:d4:7d:bf:8c:27:40:a4:5d:1f:9f:
                    bd:7a:ff:40:0e:e3:08:50:10:df:8b:fa:0e:e4:bd:
                    23:85:86:53:16:91:66:a1:d9:a1:76:ad:a4:f2:2f:
                    2c:ee:a8:ed:39:20:b7:64:27:ff:02:16:cc:1a:7c:
                    5c:96:96:ef:7c:0e:84:13:b4:c9:c1:ca:02:4e:5b:
                    50:b0:ae:88:24:fe:c2:74:f3:f8:bd:d8:9c:f0:4a:
                    e9:65
                Exponent: 65537 (0x10001)
        X509v3 extensions:
            X509v3 Subject Key Identifier: 
                00:02:CC:9E:81:00:49:08:A7:2F:E8:49:F0:D5:BF:B8:DB:34:03:C6
            X509v3 Authority Key Identifier: 
                keyid:00:02:CC:9E:81:00:49:08:A7:2F:E8:49:F0:D5:BF:B8:DB:34:03:C6

            X509v3 Basic Constraints: 
                CA:TRUE
    Signature Algorithm: sha256WithRSAEncryption
         b0:a5:a5:49:30:2f:06:32:4c:27:9d:05:f3:e4:00:c8:4a:dd:
         dc:f9:40:96:20:83:8e:96:e0:7f:67:21:8b:17:39:b6:87:14:
         50:c4:17:29:d4:0a:7a:75:a2:79:b5:86:7b:48:b9:69:2a:30:
         ac:49:b2:62:0a:64:2c:c4:ba:aa:8c:eb:2b:95:c9:bd:12:bf:
         44:44:9f:01:d0:1e:c3:ee:e0:47:fc:1a:3a:14:15:76:71:a5:
         a9:bb:95:fe:6e:29:00:70:30:18:94:e1:f7:67:44:36:e7:e3:
         3e:68:41:4f:16:12:8a:41:e8:b9:41:aa:d2:0e:c6:c8:8b:0e:
         56:eb:b4:b5:25:4d:7b:03:d5:52:23:de:ee:a2:ef:a1:e7:ea:
         9d:43:09:e8:28:aa:95:5a:a2:ff:b2:4b:b9:46:4f:19:bd:a1:
         b6:3a:49:3a:bd:00:94:b8:ac:55:e7:48:7b:75:e4:39:a6:bc:
         cb:d6:79:69:88:5a:64:14:5c:83:b0:4a:1c:97:5d:d3:44:82:
         40:73:de:5c:e1:c8:68:90:b5:af:eb:d2:9d:0c:93:52:3a:6b:
         31:2a:42:bf:b0:b8:0a:65:2c:db:7a:2f:ad:ae:b5:5d:ad:2a:
         ad:d8:d7:5d:85:a1:c0:23:4f:12:84:4d:e0:77:1e:a1:b7:af:
         08:56:d1:69
-----BEGIN CERTIFICATE-----
MIIDzTCCArWgAwIBAgIJAOid61ogjlyaMA0GCSqGSIb3DQEBCwUAMH0xCzAJBgNV
BAYTAlVTMRMwEQYDVQQIDApDYWxpZm9ybmlhMRQwEgYDVQQHDAtTYW50YSBDbGFy
YTENMAsGA1UECgwEcGtnNTEMMAoGA1UECwwDdGE4MRIwEAYDVQQDDAlsb2NhbGhv
c3QxEjAQBgkqhkiG9w0BCQEWA3RhODAeFw0xNjAxMjIwMTU4MDBaFw0xODEwMTgw
MTU4MDBaMH0xCzAJBgNVBAYTAlVTMRMwEQYDVQQIDApDYWxpZm9ybmlhMRQwEgYD
VQQHDAtTYW50YSBDbGFyYTENMAsGA1UECgwEcGtnNTEMMAoGA1UECwwDdGE4MRIw
EAYDVQQDDAlsb2NhbGhvc3QxEjAQBgkqhkiG9w0BCQEWA3RhODCCASIwDQYJKoZI
hvcNAQEBBQADggEPADCCAQoCggEBAMVCiQc1JcpPZnNQE6cnYtJ+O+OJscaNXWUw
86hqH1WpLpKGBMQqPcW9ozucWO5j31G1vdkixqp+S7SQekeJv8z/Z1UfHtojR73K
BX6b3KyefH8V6FcKMuCKrVLy1ICT2eW5hvXyZCHB/HX9K6hl4mqgKamtYnkEfH/X
A3d+b+1ZKB+ZYZc1qGeICuHGu3FAASGzp4Jyl469XqSxp90C0GTqvDPyBpbP7i/U
fb+MJ0CkXR+fvXr/QA7jCFAQ34v6DuS9I4WGUxaRZqHZoXatpPIvLO6o7Tkgt2Qn
/wIWzBp8XJaW73wOhBO0ycHKAk5bULCuiCT+wnTz+L3YnPBK6WUCAwEAAaNQME4w
HQYDVR0OBBYEFAACzJ6BAEkIpy/oSfDVv7jbNAPGMB8GA1UdIwQYMBaAFAACzJ6B
AEkIpy/oSfDVv7jbNAPGMAwGA1UdEwQFMAMBAf8wDQYJKoZIhvcNAQELBQADggEB
ALClpUkwLwYyTCedBfPkAMhK3dz5QJYgg46W4H9nIYsXObaHFFDEFynUCnp1onm1
hntIuWkqMKxJsmIKZCzEuqqM6yuVyb0Sv0REnwHQHsPu4Ef8GjoUFXZxpam7lf5u
KQBwMBiU4fdnRDbn4z5oQU8WEopB6LlBqtIOxsiLDlbrtLUlTXsD1VIj3u6i76Hn
6p1DCegoqpVaov+yS7lGTxm9obY6STq9AJS4rFXnSHt15DmmvMvWeWmIWmQUXIOw
ShyXXdNEgkBz3lzhyGiQta/r0p0Mk1I6azEqQr+wuAplLNt6L62utV2tKq3Y112F
ocAjTxKETeB3HqG3rwhW0Wk=
-----END CERTIFICATE-----
