Certificate:
    Data:
        Version: 3 (0x2)
        Serial Number:
            b8:9a:b1:4d:fa:a9:68:23
        Signature Algorithm: sha256WithRSAEncryption
        Issuer: C=US, ST=California, L=Menlo Park, O=pkg5, OU=ta8, CN=localhost/emailAddress=ta8
        Validity
            Not Before: Apr 11 22:37:54 2011 GMT
            Not After : Jan  5 22:37:54 2014 GMT
        Subject: C=US, ST=California, L=Menlo Park, O=pkg5, OU=ta8, CN=localhost/emailAddress=ta8
        Subject Public Key Info:
            Public Key Algorithm: rsaEncryption
            RSA Public Key: (1024 bit)
                Modulus (1024 bit):
                    00:da:5e:85:e0:17:14:35:c1:e8:f4:b6:97:15:d1:
                    f5:c3:36:26:57:85:5c:0c:e8:8e:d7:2b:10:66:b2:
                    61:92:a3:df:a4:4f:61:52:41:9c:3b:2f:0e:bc:bd:
                    92:9b:e2:4c:ec:68:34:76:2c:86:54:e5:8b:9e:ac:
                    2f:7e:4f:07:52:ec:7f:51:31:ed:9e:94:ed:7e:15:
                    da:4f:fb:65:d0:07:85:c2:60:69:ce:ac:74:72:8a:
                    45:31:e4:6c:3e:5e:05:bc:d3:2f:37:56:14:c2:2e:
                    78:78:6b:93:14:e5:61:08:22:ef:4d:f9:bb:1b:1f:
                    31:09:12:7a:ad:e5:cf:18:5b
                Exponent: 65537 (0x10001)
        X509v3 extensions:
            X509v3 Subject Key Identifier: 
                BB:CA:54:46:B9:0F:22:DB:69:82:15:BB:66:36:9D:50:1D:0B:1B:F5
            X509v3 Authority Key Identifier: 
                keyid:BB:CA:54:46:B9:0F:22:DB:69:82:15:BB:66:36:9D:50:1D:0B:1B:F5
                DirName:/C=US/ST=California/L=Menlo Park/O=pkg5/OU=ta8/CN=localhost/emailAddress=ta8
                serial:B8:9A:B1:4D:FA:A9:68:23

            X509v3 Basic Constraints: 
                CA:TRUE
    Signature Algorithm: sha256WithRSAEncryption
        7a:13:83:75:43:35:e1:4d:07:93:8d:1c:fd:4d:8f:5c:24:78:
        f5:01:35:4c:a5:ad:5f:92:f3:23:21:0c:2d:dc:64:a5:7f:c2:
        3c:c9:e3:b0:4e:d8:17:4e:76:4c:4d:71:fb:b9:3d:d9:51:b8:
        fc:e0:91:a6:5c:18:c8:06:55:cc:a9:ba:9e:59:92:c4:5c:04:
        11:e2:d9:99:1d:cb:bd:9d:6c:c2:0e:9e:f0:4c:20:69:6b:b1:
        76:b6:d4:c0:e6:6c:4b:1e:18:cb:71:4a:9b:13:ca:db:c8:a4:
        0e:35:c0:91:70:04:9c:32:bd:15:a2:36:72:97:d0:7b:d0:6c:
        dc:03
-----BEGIN CERTIFICATE-----
MIIDWTCCAsKgAwIBAgIJALiasU36qWgjMA0GCSqGSIb3DQEBCwUAMHwxCzAJBgNV
BAYTAlVTMRMwEQYDVQQIEwpDYWxpZm9ybmlhMRMwEQYDVQQHEwpNZW5sbyBQYXJr
MQ0wCwYDVQQKEwRwa2c1MQwwCgYDVQQLEwN0YTgxEjAQBgNVBAMTCWxvY2FsaG9z
dDESMBAGCSqGSIb3DQEJARYDdGE4MB4XDTExMDQxMTIyMzc1NFoXDTE0MDEwNTIy
Mzc1NFowfDELMAkGA1UEBhMCVVMxEzARBgNVBAgTCkNhbGlmb3JuaWExEzARBgNV
BAcTCk1lbmxvIFBhcmsxDTALBgNVBAoTBHBrZzUxDDAKBgNVBAsTA3RhODESMBAG
A1UEAxMJbG9jYWxob3N0MRIwEAYJKoZIhvcNAQkBFgN0YTgwgZ8wDQYJKoZIhvcN
AQEBBQADgY0AMIGJAoGBANpeheAXFDXB6PS2lxXR9cM2JleFXAzojtcrEGayYZKj
36RPYVJBnDsvDry9kpviTOxoNHYshlTli56sL35PB1Lsf1Ex7Z6U7X4V2k/7ZdAH
hcJgac6sdHKKRTHkbD5eBbzTLzdWFMIueHhrkxTlYQgi7035uxsfMQkSeq3lzxhb
AgMBAAGjgeIwgd8wHQYDVR0OBBYEFLvKVEa5DyLbaYIVu2Y2nVAdCxv1MIGvBgNV
HSMEgacwgaSAFLvKVEa5DyLbaYIVu2Y2nVAdCxv1oYGApH4wfDELMAkGA1UEBhMC
VVMxEzARBgNVBAgTCkNhbGlmb3JuaWExEzARBgNVBAcTCk1lbmxvIFBhcmsxDTAL
BgNVBAoTBHBrZzUxDDAKBgNVBAsTA3RhODESMBAGA1UEAxMJbG9jYWxob3N0MRIw
EAYJKoZIhvcNAQkBFgN0YTiCCQC4mrFN+qloIzAMBgNVHRMEBTADAQH/MA0GCSqG
SIb3DQEBCwUAA4GBAHoTg3VDNeFNB5ONHP1Nj1wkePUBNUylrV+S8yMhDC3cZKV/
wjzJ47BO2BdOdkxNcfu5PdlRuPzgkaZcGMgGVcypup5ZksRcBBHi2Zkdy72dbMIO
nvBMIGlrsXa21MDmbEseGMtxSpsTytvIpA41wJFwBJwyvRWiNnKX0HvQbNwD
-----END CERTIFICATE-----
