Certificate:
    Data:
        Version: 3 (0x2)
        Serial Number: 16709229305513134148 (0xe7e31b8629a84844)
    Signature Algorithm: sha256WithRSAEncryption
        Issuer: C=US, ST=California, L=Santa Clara, O=pkg5, OU=ta8, CN=localhost/emailAddress=ta8
        Validity
            Not Before: Dec 13 00:13:38 2013 GMT
            Not After : Sep  8 00:13:38 2016 GMT
        Subject: C=US, ST=California, L=Santa Clara, O=pkg5, OU=ta8, CN=localhost/emailAddress=ta8
        Subject Public Key Info:
            Public Key Algorithm: rsaEncryption
                Public-Key: (1024 bit)
                Modulus:
                    00:c6:4d:f7:24:79:d7:8f:a0:93:61:37:d0:a4:5c:
                    61:81:e2:1a:1c:0a:ff:ce:8b:3d:49:15:12:1c:1b:
                    b7:9c:dd:28:f6:c5:5d:2e:63:f7:67:4b:c9:8c:95:
                    5a:1c:e8:97:89:16:83:81:ff:bc:10:26:51:7c:f9:
                    f1:03:f5:51:f4:01:45:da:d4:2f:cf:d9:35:68:0c:
                    ae:11:2d:31:37:5a:73:73:c0:60:13:c8:10:73:3a:
                    7d:c9:96:8c:07:00:b1:41:52:d2:b0:5f:cd:01:06:
                    b8:d7:3f:d8:0f:17:f9:38:39:5d:2d:09:14:99:05:
                    7c:1f:1f:6f:c9:2d:7d:6e:61
                Exponent: 65537 (0x10001)
        X509v3 extensions:
            X509v3 Subject Key Identifier: 
                9E:DE:D5:93:0F:57:31:37:6C:9A:F7:DA:A2:A0:D2:CE:F4:65:EC:86
            X509v3 Authority Key Identifier: 
                keyid:9E:DE:D5:93:0F:57:31:37:6C:9A:F7:DA:A2:A0:D2:CE:F4:65:EC:86

            X509v3 Basic Constraints: 
                CA:TRUE
    Signature Algorithm: sha256WithRSAEncryption
         81:1f:1d:b5:60:85:60:4f:9f:cc:9a:12:99:4a:dc:fb:49:2b:
         70:9d:21:1e:d7:be:fe:a8:b8:eb:fd:49:e2:99:72:ae:0e:be:
         cf:bc:c4:88:11:8e:5b:6c:d5:68:d0:cb:52:1a:7c:65:a2:c1:
         1f:08:7e:31:6e:28:18:fa:04:90:70:d5:96:aa:89:97:9d:61:
         08:47:f5:75:4c:9d:96:c7:37:8f:3e:f2:04:bc:48:a6:89:65:
         25:27:13:70:5a:f7:97:ba:42:61:a5:d9:69:44:08:34:19:4d:
         6e:1c:e7:23:25:1f:c0:f3:ad:fa:56:c2:02:75:ed:c2:51:ca:
         cf:96
-----BEGIN CERTIFICATE-----
MIICyDCCAjGgAwIBAgIJAOfjG4YpqEhEMA0GCSqGSIb3DQEBCwUAMH0xCzAJBgNV
BAYTAlVTMRMwEQYDVQQIDApDYWxpZm9ybmlhMRQwEgYDVQQHDAtTYW50YSBDbGFy
YTENMAsGA1UECgwEcGtnNTEMMAoGA1UECwwDdGE4MRIwEAYDVQQDDAlsb2NhbGhv
c3QxEjAQBgkqhkiG9w0BCQEWA3RhODAeFw0xMzEyMTMwMDEzMzhaFw0xNjA5MDgw
MDEzMzhaMH0xCzAJBgNVBAYTAlVTMRMwEQYDVQQIDApDYWxpZm9ybmlhMRQwEgYD
VQQHDAtTYW50YSBDbGFyYTENMAsGA1UECgwEcGtnNTEMMAoGA1UECwwDdGE4MRIw
EAYDVQQDDAlsb2NhbGhvc3QxEjAQBgkqhkiG9w0BCQEWA3RhODCBnzANBgkqhkiG
9w0BAQEFAAOBjQAwgYkCgYEAxk33JHnXj6CTYTfQpFxhgeIaHAr/zos9SRUSHBu3
nN0o9sVdLmP3Z0vJjJVaHOiXiRaDgf+8ECZRfPnxA/VR9AFF2tQvz9k1aAyuES0x
N1pzc8BgE8gQczp9yZaMBwCxQVLSsF/NAQa41z/YDxf5ODldLQkUmQV8Hx9vyS19
bmECAwEAAaNQME4wHQYDVR0OBBYEFJ7e1ZMPVzE3bJr32qKg0s70ZeyGMB8GA1Ud
IwQYMBaAFJ7e1ZMPVzE3bJr32qKg0s70ZeyGMAwGA1UdEwQFMAMBAf8wDQYJKoZI
hvcNAQELBQADgYEAgR8dtWCFYE+fzJoSmUrc+0krcJ0hHte+/qi46/1J4plyrg6+
z7zEiBGOW2zVaNDLUhp8ZaLBHwh+MW4oGPoEkHDVlqqJl51hCEf1dUydlsc3jz7y
BLxIpollJScTcFr3l7pCYaXZaUQINBlNbhznIyUfwPOt+lbCAnXtwlHKz5Y=
-----END CERTIFICATE-----
