Certificate:
    Data:
        Version: 3 (0x2)
        Serial Number:
            7f:fc:19:53:9c:08:a3:b1:c9:7a:a0:16:c7:48:98:60:26:50:e6:fc
        Signature Algorithm: sha256WithRSAEncryption
        Issuer: C = US, ST = California, L = Santa Clara, O = pkg5, OU = ta8, CN = localhost, emailAddress = ta8
        Validity
            Not Before: Mar 18 08:51:47 2026 GMT
            Not After : Dec 12 08:51:47 2028 GMT
        Subject: C = US, ST = California, L = Santa Clara, O = pkg5, OU = ta8, CN = localhost, emailAddress = ta8
        Subject Public Key Info:
            Public Key Algorithm: rsaEncryption
                Public-Key: (2048 bit)
                Modulus:
                    00:e2:9b:5d:32:17:05:b9:24:8d:e3:12:a6:b2:9d:
                    2b:41:94:70:10:4c:87:06:31:e3:a0:24:12:37:0b:
                    ba:7d:43:e0:ea:8f:f2:c0:53:a1:1c:ab:24:bc:9f:
                    31:23:92:a0:83:2b:95:1a:4b:04:ed:f6:ae:21:e6:
                    15:b0:ce:81:97:be:9a:fd:a1:32:78:6b:c2:37:3f:
                    8d:60:3e:51:e4:b2:1c:03:58:9b:5e:66:88:bf:7a:
                    ab:de:09:bd:3d:51:8d:7c:01:11:37:ed:94:71:a9:
                    4b:82:2c:05:4c:f1:48:62:87:f0:2c:9a:28:ef:f1:
                    94:24:70:2a:a8:13:2f:19:c2:10:24:42:4f:86:61:
                    12:fe:29:7c:47:aa:91:27:93:07:0a:22:bb:65:d3:
                    1e:e7:23:42:32:04:65:c0:75:e7:5f:11:3c:db:4b:
                    25:ed:5f:9a:fc:9b:4b:67:8d:e6:b3:7a:3b:9a:4f:
                    9b:1f:10:c5:08:e9:ae:9a:27:d5:71:ab:de:cd:81:
                    85:4e:0a:92:b3:5d:ec:ee:19:31:50:c2:fd:9e:84:
                    24:ae:24:96:bf:a0:9b:e6:b5:e5:6f:21:b5:c8:e8:
                    c3:db:60:92:79:a6:e2:cd:01:8d:38:eb:41:37:21:
                    3f:fc:62:3e:15:39:e6:1f:21:10:aa:77:30:38:20:
                    c8:29
                Exponent: 65537 (0x10001)
        X509v3 extensions:
            X509v3 Subject Key Identifier: 
                FA:83:39:93:D9:2A:9E:B3:3E:4F:0A:CD:2C:56:E8:3C:95:38:AE:91
            X509v3 Authority Key Identifier: 
                FA:83:39:93:D9:2A:9E:B3:3E:4F:0A:CD:2C:56:E8:3C:95:38:AE:91
            X509v3 Basic Constraints: critical
                CA:TRUE
    Signature Algorithm: sha256WithRSAEncryption
    Signature Value:
        55:fc:fb:45:de:de:16:8e:d8:20:7b:ce:14:7a:98:24:f3:e9:
        a3:4b:fc:84:28:87:a3:ed:c5:0c:18:12:77:38:7f:ae:b4:90:
        36:6d:2d:d3:a5:6f:cb:28:5b:e8:7e:8d:e4:e1:e3:43:2e:cc:
        8b:bf:29:8c:9a:fc:25:db:cf:d6:e0:4c:21:22:57:cd:86:1b:
        08:70:e4:4d:62:cb:71:da:de:3c:7b:ba:55:86:ee:c5:38:05:
        5c:be:d7:a3:11:82:90:ad:8b:08:66:9a:59:cc:b4:12:b3:b7:
        b5:30:0b:db:1e:8d:31:c1:02:bd:4a:81:55:16:f0:b2:58:89:
        ed:e5:35:8c:31:33:5b:8c:80:94:69:b0:39:c5:25:fc:95:a7:
        24:61:85:94:6e:d9:82:40:1e:a8:bd:a5:a7:b2:c6:0b:30:9b:
        8c:32:45:cf:df:00:83:c8:4b:d2:2c:b0:0c:a8:2c:01:70:33:
        2c:ac:50:25:65:52:d8:1b:28:ee:a4:dd:19:cc:07:89:92:76:
        ce:d3:75:9e:cd:59:b9:b2:31:75:ea:e0:32:5d:fb:cf:95:6d:
        d9:08:6a:99:c7:4c:e4:97:e0:0a:76:6e:9c:5f:bd:f3:ec:b9:
        3c:7a:df:b4:34:16:d3:b6:d4:fa:ce:79:cc:8e:02:23:aa:a5:
        ef:0a:87:35
-----BEGIN CERTIFICATE-----
MIID2zCCAsOgAwIBAgIUf/wZU5wIo7HJeqAWx0iYYCZQ5vwwDQYJKoZIhvcNAQEL
BQAwfTELMAkGA1UEBhMCVVMxEzARBgNVBAgMCkNhbGlmb3JuaWExFDASBgNVBAcM
C1NhbnRhIENsYXJhMQ0wCwYDVQQKDARwa2c1MQwwCgYDVQQLDAN0YTgxEjAQBgNV
BAMMCWxvY2FsaG9zdDESMBAGCSqGSIb3DQEJARYDdGE4MB4XDTI2MDMxODA4NTE0
N1oXDTI4MTIxMjA4NTE0N1owfTELMAkGA1UEBhMCVVMxEzARBgNVBAgMCkNhbGlm
b3JuaWExFDASBgNVBAcMC1NhbnRhIENsYXJhMQ0wCwYDVQQKDARwa2c1MQwwCgYD
VQQLDAN0YTgxEjAQBgNVBAMMCWxvY2FsaG9zdDESMBAGCSqGSIb3DQEJARYDdGE4
MIIBIjANBgkqhkiG9w0BAQEFAAOCAQ8AMIIBCgKCAQEA4ptdMhcFuSSN4xKmsp0r
QZRwEEyHBjHjoCQSNwu6fUPg6o/ywFOhHKskvJ8xI5KggyuVGksE7fauIeYVsM6B
l76a/aEyeGvCNz+NYD5R5LIcA1ibXmaIv3qr3gm9PVGNfAERN+2UcalLgiwFTPFI
YofwLJoo7/GUJHAqqBMvGcIQJEJPhmES/il8R6qRJ5MHCiK7ZdMe5yNCMgRlwHXn
XxE820sl7V+a/JtLZ43ms3o7mk+bHxDFCOmumifVcavezYGFTgqSs13s7hkxUML9
noQkriSWv6Cb5rXlbyG1yOjD22CSeabizQGNOOtBNyE//GI+FTnmHyEQqncwOCDI
KQIDAQABo1MwUTAdBgNVHQ4EFgQU+oM5k9kqnrM+TwrNLFboPJU4rpEwHwYDVR0j
BBgwFoAU+oM5k9kqnrM+TwrNLFboPJU4rpEwDwYDVR0TAQH/BAUwAwEB/zANBgkq
hkiG9w0BAQsFAAOCAQEAVfz7Rd7eFo7YIHvOFHqYJPPpo0v8hCiHo+3FDBgSdzh/
rrSQNm0t06Vvyyhb6H6N5OHjQy7Mi78pjJr8JdvP1uBMISJXzYYbCHDkTWLLcdre
PHu6VYbuxTgFXL7XoxGCkK2LCGaaWcy0ErO3tTAL2x6NMcECvUqBVRbwsliJ7eU1
jDEzW4yAlGmwOcUl/JWnJGGFlG7ZgkAeqL2lp7LGCzCbjDJFz98Ag8hL0iywDKgs
AXAzLKxQJWVS2Bso7qTdGcwHiZJ2ztN1ns1ZubIxdergMl37z5Vt2QhqmcdM5Jfg
CnZunF+98+y5PHrftDQW07bU+s55zI4CI6ql7wqHNQ==
-----END CERTIFICATE-----
