Certificate:
    Data:
        Version: 3 (0x2)
        Serial Number:
            85:51:1e:52:98:14:10:02
    Signature Algorithm: sha256WithRSAEncryption
        Issuer: C=US, ST=California, L=Santa Clara, O=pkg5, OU=ta10, CN=localhost/emailAddress=ta10
        Validity
            Not Before: Jul 19 11:35:53 2023 GMT
            Not After : Apr 14 11:35:53 2026 GMT
        Subject: C=US, ST=California, L=Santa Clara, O=pkg5, OU=ta10, CN=localhost/emailAddress=ta10
        Subject Public Key Info:
            Public Key Algorithm: rsaEncryption
                Public-Key: (2048 bit)
                Modulus:
                    00:95:ea:47:0c:fd:ad:09:5a:09:1f:ad:fc:80:bc:
                    44:70:be:41:08:d7:59:02:01:20:63:6a:37:de:32:
                    70:0a:2a:d3:0b:79:3d:69:bb:7c:4a:ef:bc:e3:95:
                    1a:0c:56:19:1e:2f:38:74:46:80:8b:b3:2d:c4:61:
                    5c:3d:5e:da:14:e7:f5:91:3c:60:9e:c1:40:e0:1c:
                    65:70:6b:32:17:8a:7e:2b:35:a7:32:54:a6:36:8c:
                    9b:20:8b:4b:88:f4:4d:6f:90:b3:fa:58:e9:9c:7e:
                    78:ea:d1:bc:b9:ed:82:fa:6a:50:a5:8d:9a:4f:4b:
                    9e:50:2a:3f:33:5b:a2:98:66:cf:19:86:22:ee:0b:
                    c3:8b:d9:a9:ab:10:37:de:fb:4f:5c:1b:0b:dc:4b:
                    b9:21:0e:00:1c:ba:b7:89:fd:6c:02:d0:78:b5:6b:
                    77:cb:a3:06:8a:aa:cd:6c:67:f6:a2:fb:8d:f1:8d:
                    94:ca:f8:ca:ba:85:e9:d7:79:5b:65:47:2a:03:46:
                    67:17:85:01:23:2d:ff:bc:e9:72:f7:5e:ab:d6:22:
                    66:25:33:a4:20:1b:8c:01:bf:5b:dd:52:bb:3f:36:
                    b8:71:e9:a0:a1:e4:69:df:28:13:14:83:63:ea:0f:
                    49:34:e2:4a:29:8a:06:68:87:53:d6:19:3a:ff:b6:
                    cb:09
                Exponent: 65537 (0x10001)
        X509v3 extensions:
            X509v3 Subject Key Identifier: 
                47:20:12:2B:10:D6:80:9E:E4:F2:FD:91:4F:4F:20:09:21:D0:6B:C9
            X509v3 Authority Key Identifier: 
                keyid:47:20:12:2B:10:D6:80:9E:E4:F2:FD:91:4F:4F:20:09:21:D0:6B:C9

            X509v3 Basic Constraints: 
                CA:TRUE
    Signature Algorithm: sha256WithRSAEncryption
         2d:24:66:f1:7c:f7:a5:a3:56:62:4f:da:25:5e:ef:93:5b:98:
         24:70:11:99:75:68:ac:94:ac:bb:39:e2:b7:a5:01:2b:1c:97:
         1c:4b:31:4e:fd:dc:c5:fc:f4:92:5c:bd:59:94:81:3e:d6:68:
         8c:53:87:60:20:11:83:62:42:e7:e4:f9:2b:89:89:d5:6c:fc:
         98:5b:58:37:52:f4:61:b6:a6:e3:eb:a9:cb:33:ce:65:5a:31:
         90:cc:33:5c:a3:0d:cb:5b:71:88:b6:d3:a2:47:63:2c:65:37:
         5e:98:c5:f6:b8:83:83:3f:02:fe:72:0e:78:99:47:34:c5:b2:
         27:e0:39:9f:ad:1f:c4:77:65:2c:d3:7a:75:f6:57:26:c5:53:
         9e:96:fc:86:c8:14:64:98:f4:43:7c:7f:f3:0e:11:32:d8:d6:
         b8:7e:b5:83:e0:43:a0:27:91:d2:de:12:31:46:28:4e:19:32:
         26:8f:67:02:19:39:94:31:62:d5:44:77:d9:ec:11:fe:69:f2:
         62:9c:74:c2:9e:7f:2f:71:a9:6c:04:76:e6:1e:0f:0e:ab:92:
         1b:5b:09:59:b0:a8:da:3e:88:c5:3f:84:26:f5:41:f1:aa:9d:
         b0:b2:99:96:89:29:e4:15:e4:0c:d1:ce:96:d2:dc:30:f7:36:
         e9:bf:09:de
-----BEGIN CERTIFICATE-----
MIID0TCCArmgAwIBAgIJAIVRHlKYFBACMA0GCSqGSIb3DQEBCwUAMH8xCzAJBgNV
BAYTAlVTMRMwEQYDVQQIDApDYWxpZm9ybmlhMRQwEgYDVQQHDAtTYW50YSBDbGFy
YTENMAsGA1UECgwEcGtnNTENMAsGA1UECwwEdGExMDESMBAGA1UEAwwJbG9jYWxo
b3N0MRMwEQYJKoZIhvcNAQkBFgR0YTEwMB4XDTIzMDcxOTExMzU1M1oXDTI2MDQx
NDExMzU1M1owfzELMAkGA1UEBhMCVVMxEzARBgNVBAgMCkNhbGlmb3JuaWExFDAS
BgNVBAcMC1NhbnRhIENsYXJhMQ0wCwYDVQQKDARwa2c1MQ0wCwYDVQQLDAR0YTEw
MRIwEAYDVQQDDAlsb2NhbGhvc3QxEzARBgkqhkiG9w0BCQEWBHRhMTAwggEiMA0G
CSqGSIb3DQEBAQUAA4IBDwAwggEKAoIBAQCV6kcM/a0JWgkfrfyAvERwvkEI11kC
ASBjajfeMnAKKtMLeT1pu3xK77zjlRoMVhkeLzh0RoCLsy3EYVw9XtoU5/WRPGCe
wUDgHGVwazIXin4rNacyVKY2jJsgi0uI9E1vkLP6WOmcfnjq0by57YL6alCljZpP
S55QKj8zW6KYZs8ZhiLuC8OL2amrEDfe+09cGwvcS7khDgAcureJ/WwC0Hi1a3fL
owaKqs1sZ/ai+43xjZTK+Mq6henXeVtlRyoDRmcXhQEjLf+86XL3XqvWImYlM6Qg
G4wBv1vdUrs/Nrhx6aCh5GnfKBMUg2PqD0k04kopigZoh1PWGTr/tssJAgMBAAGj
UDBOMB0GA1UdDgQWBBRHIBIrENaAnuTy/ZFPTyAJIdBryTAfBgNVHSMEGDAWgBRH
IBIrENaAnuTy/ZFPTyAJIdBryTAMBgNVHRMEBTADAQH/MA0GCSqGSIb3DQEBCwUA
A4IBAQAtJGbxfPelo1ZiT9olXu+TW5gkcBGZdWislKy7OeK3pQErHJccSzFO/dzF
/PSSXL1ZlIE+1miMU4dgIBGDYkLn5PkriYnVbPyYW1g3UvRhtqbj66nLM85lWjGQ
zDNcow3LW3GIttOiR2MsZTdemMX2uIODPwL+cg54mUc0xbIn4DmfrR/Ed2Us03p1
9lcmxVOelvyGyBRkmPRDfH/zDhEy2Na4frWD4EOgJ5HS3hIxRihOGTImj2cCGTmU
MWLVRHfZ7BH+afJinHTCnn8vcalsBHbmHg8Oq5IbWwlZsKjaPojFP4Qm9UHxqp2w
spmWiSnkFeQM0c6W0tww9zbpvwne
-----END CERTIFICATE-----
