Certificate:
    Data:
        Version: 3 (0x2)
        Serial Number: 12593192084672623211 (0xaec4017abb2c326b)
    Signature Algorithm: sha256WithRSAEncryption
        Issuer: C=US, ST=California, L=Santa Clara, O=pkg5, OU=ta10, CN=localhost/emailAddress=ta10
        Validity
            Not Before: Jan 22 01:58:01 2016 GMT
            Not After : Oct 18 01:58:01 2018 GMT
        Subject: C=US, ST=California, L=Santa Clara, O=pkg5, OU=ta10, CN=localhost/emailAddress=ta10
        Subject Public Key Info:
            Public Key Algorithm: rsaEncryption
                Public-Key: (2048 bit)
                Modulus:
                    00:bb:8a:29:e2:f5:35:c0:f8:70:32:a3:10:8f:ad:
                    10:64:7c:ae:af:d6:00:8f:68:7c:32:9d:dc:70:24:
                    2a:74:e8:e6:17:10:21:dd:1d:3d:5c:69:e2:93:72:
                    9a:c9:67:7d:4b:00:ec:ef:7b:c5:c4:30:a4:e5:f6:
                    56:3a:4c:24:68:77:4b:cc:27:cd:51:0f:c7:aa:ea:
                    18:e2:7c:c9:91:0d:82:0c:29:66:04:3b:4f:06:30:
                    9e:5c:4b:15:54:95:18:7d:cc:11:08:80:79:61:5d:
                    78:0e:ad:9b:0f:fa:6d:2c:38:24:a1:50:00:eb:47:
                    3e:15:3b:d8:65:c0:ce:15:e5:99:13:0a:75:fb:ca:
                    ee:b2:e8:f3:29:b5:e7:0e:c9:a1:bd:09:ce:de:d6:
                    d8:52:13:ed:17:1e:f1:5d:33:a5:3c:4b:f0:44:0d:
                    ec:5b:b4:5d:e2:ca:4e:56:13:ab:f2:b6:0a:f7:ad:
                    00:11:eb:36:c6:80:b9:07:01:d7:88:09:5f:3d:1a:
                    35:a4:d2:36:0d:94:e8:11:5a:f4:b5:9e:9d:55:db:
                    87:28:f4:8b:ae:8d:a5:62:f3:38:74:b7:98:db:90:
                    61:08:af:4b:4f:5d:4d:98:0d:1b:99:ef:ac:85:d7:
                    3a:bd:09:87:63:9e:17:8a:7b:ea:db:cd:06:07:18:
                    59:9f
                Exponent: 65537 (0x10001)
        X509v3 extensions:
            X509v3 Subject Key Identifier: 
                E7:CA:0D:69:E0:1A:C5:76:E4:55:89:D0:CF:5A:F4:B8:CE:3D:0C:E1
            X509v3 Authority Key Identifier: 
                keyid:E7:CA:0D:69:E0:1A:C5:76:E4:55:89:D0:CF:5A:F4:B8:CE:3D:0C:E1

            X509v3 Basic Constraints: 
                CA:TRUE
    Signature Algorithm: sha256WithRSAEncryption
         22:75:2b:e1:20:a0:76:8b:a6:ff:e1:9d:5e:c0:66:9c:f4:b7:
         2a:90:9c:19:21:ec:3b:24:db:3b:a0:7b:4a:8a:61:d5:fe:d6:
         4a:0d:0c:a5:be:be:bd:0b:98:bd:bf:7a:60:15:aa:9d:0a:a4:
         65:4f:18:85:a5:55:f6:cb:01:8c:72:ad:08:43:cb:01:ee:4b:
         8f:14:d6:f1:42:f6:f4:40:86:67:d0:a3:32:dc:ac:94:94:44:
         bc:93:c5:38:32:46:02:da:46:1b:12:c4:b1:8c:1b:11:7b:df:
         9f:27:ce:1d:65:97:59:cf:e2:0d:4b:4f:23:52:98:19:83:d8:
         b4:b7:9d:a6:2f:a6:7e:a5:8b:ba:cb:28:19:09:1d:5c:19:0d:
         fa:92:59:10:58:f3:1b:11:38:dd:4b:64:f3:98:24:e9:29:3f:
         65:e1:9f:dc:2f:6b:96:c7:d2:2b:63:cb:72:9e:1a:36:5a:6f:
         06:eb:45:a2:f2:70:c2:be:23:a8:03:47:19:e5:03:63:9c:e1:
         e1:ed:91:de:e5:96:ff:25:ee:ef:1b:b3:d7:a1:57:9f:a1:38:
         7d:4e:d8:de:62:e3:60:40:4a:81:d7:65:d4:90:29:57:97:1a:
         13:b5:d9:0c:06:c5:e8:2b:5d:c7:1b:c0:48:6b:d2:c0:5a:8f:
         c0:79:5d:fb
-----BEGIN CERTIFICATE-----
MIID0TCCArmgAwIBAgIJAK7EAXq7LDJrMA0GCSqGSIb3DQEBCwUAMH8xCzAJBgNV
BAYTAlVTMRMwEQYDVQQIDApDYWxpZm9ybmlhMRQwEgYDVQQHDAtTYW50YSBDbGFy
YTENMAsGA1UECgwEcGtnNTENMAsGA1UECwwEdGExMDESMBAGA1UEAwwJbG9jYWxo
b3N0MRMwEQYJKoZIhvcNAQkBFgR0YTEwMB4XDTE2MDEyMjAxNTgwMVoXDTE4MTAx
ODAxNTgwMVowfzELMAkGA1UEBhMCVVMxEzARBgNVBAgMCkNhbGlmb3JuaWExFDAS
BgNVBAcMC1NhbnRhIENsYXJhMQ0wCwYDVQQKDARwa2c1MQ0wCwYDVQQLDAR0YTEw
MRIwEAYDVQQDDAlsb2NhbGhvc3QxEzARBgkqhkiG9w0BCQEWBHRhMTAwggEiMA0G
CSqGSIb3DQEBAQUAA4IBDwAwggEKAoIBAQC7iini9TXA+HAyoxCPrRBkfK6v1gCP
aHwyndxwJCp06OYXECHdHT1caeKTcprJZ31LAOzve8XEMKTl9lY6TCRod0vMJ81R
D8eq6hjifMmRDYIMKWYEO08GMJ5cSxVUlRh9zBEIgHlhXXgOrZsP+m0sOCShUADr
Rz4VO9hlwM4V5ZkTCnX7yu6y6PMptecOyaG9Cc7e1thSE+0XHvFdM6U8S/BEDexb
tF3iyk5WE6vytgr3rQAR6zbGgLkHAdeICV89GjWk0jYNlOgRWvS1np1V24co9Iuu
jaVi8zh0t5jbkGEIr0tPXU2YDRuZ76yF1zq9CYdjnheKe+rbzQYHGFmfAgMBAAGj
UDBOMB0GA1UdDgQWBBTnyg1p4BrFduRVidDPWvS4zj0M4TAfBgNVHSMEGDAWgBTn
yg1p4BrFduRVidDPWvS4zj0M4TAMBgNVHRMEBTADAQH/MA0GCSqGSIb3DQEBCwUA
A4IBAQAidSvhIKB2i6b/4Z1ewGac9LcqkJwZIew7JNs7oHtKimHV/tZKDQylvr69
C5i9v3pgFaqdCqRlTxiFpVX2ywGMcq0IQ8sB7kuPFNbxQvb0QIZn0KMy3KyUlES8
k8U4MkYC2kYbEsSxjBsRe9+fJ84dZZdZz+INS08jUpgZg9i0t52mL6Z+pYu6yygZ
CR1cGQ36klkQWPMbETjdS2TzmCTpKT9l4Z/cL2uWx9IrY8tynho2Wm8G60Wi8nDC
viOoA0cZ5QNjnOHh7ZHe5Zb/Je7vG7PXoVefoTh9TtjeYuNgQEqB12XUkClXlxoT
tdkMBsXoK13HG8BIa9LAWo/AeV37
-----END CERTIFICATE-----
