Certificate:
    Data:
        Version: 3 (0x2)
        Serial Number:
            8b:66:9c:c5:d3:0a:d2:4e
    Signature Algorithm: sha256WithRSAEncryption
        Issuer: C=US, ST=California, L=Santa Clara, O=pkg5, OU=ta10, CN=localhost/emailAddress=ta10
        Validity
            Not Before: Sep 22 05:33:39 2021 GMT
            Not After : Jun 18 05:33:39 2024 GMT
        Subject: C=US, ST=California, L=Santa Clara, O=pkg5, OU=ta10, CN=localhost/emailAddress=ta10
        Subject Public Key Info:
            Public Key Algorithm: rsaEncryption
                Public-Key: (2048 bit)
                Modulus:
                    00:dc:b7:bd:98:ad:f6:2e:68:f7:81:0a:a2:83:bf:
                    25:cc:4b:43:e2:bc:f4:2c:63:41:6f:85:5e:19:05:
                    53:60:c3:49:6d:43:44:3f:97:c7:d1:a9:71:47:e2:
                    91:3f:4d:4a:90:a3:58:26:9f:12:76:58:a3:d4:53:
                    5a:3d:4e:35:1f:ae:c4:df:47:67:23:79:04:61:31:
                    17:59:02:f4:4b:e5:1b:b1:85:9f:a8:a0:d5:ff:16:
                    c4:e6:b7:f1:94:f7:c5:78:08:78:46:19:7f:45:74:
                    13:2b:ce:2e:5d:84:3d:54:a5:d5:08:f1:b1:f8:3b:
                    4d:57:db:9f:f5:83:06:5f:d0:b5:80:bf:ff:a5:c1:
                    75:e4:f7:c8:f4:c9:f2:3e:f0:e3:4e:a9:14:30:a3:
                    f6:99:7d:8a:ce:1a:96:15:0c:38:6a:cb:76:c9:a7:
                    cc:a4:c3:0c:cf:c3:3b:55:df:b1:41:86:d1:4d:2f:
                    44:fc:db:74:56:87:db:47:61:8a:c9:90:8e:ca:74:
                    e9:c6:16:60:f3:a3:59:ac:7b:aa:9c:37:64:e3:b5:
                    e2:1f:cb:fa:8a:fa:b5:94:16:23:2d:8a:be:98:e5:
                    46:17:5f:7f:b2:70:c2:9b:6b:71:b7:1e:c2:99:dd:
                    a9:1e:77:95:e1:d6:72:64:c6:48:7b:99:d3:20:59:
                    88:c9
                Exponent: 65537 (0x10001)
        X509v3 extensions:
            X509v3 Subject Key Identifier: 
                AB:C4:CE:52:7A:6F:74:93:9B:CF:54:B6:65:4C:5D:E0:15:D5:79:CC
            X509v3 Authority Key Identifier: 
                keyid:AB:C4:CE:52:7A:6F:74:93:9B:CF:54:B6:65:4C:5D:E0:15:D5:79:CC

            X509v3 Basic Constraints: 
                CA:TRUE
    Signature Algorithm: sha256WithRSAEncryption
         22:91:e6:eb:6b:ab:14:20:af:9a:49:e7:5a:b6:ab:d8:cf:79:
         04:96:a3:b9:2f:b8:3e:63:ba:75:b6:00:ef:dc:27:a5:46:db:
         d9:d5:a6:07:82:14:c3:af:ed:bd:6a:16:54:07:bd:f6:ed:1c:
         b8:a9:c2:a4:e5:2e:a2:0b:e5:8c:57:64:da:6e:3b:82:89:95:
         10:47:65:04:6a:18:a8:04:b2:c8:3b:ad:42:32:f6:47:2b:20:
         91:11:0d:c5:5d:cf:7f:99:44:bc:cb:e4:67:99:5d:63:6f:2e:
         06:de:84:43:87:01:71:c1:a4:ad:d3:50:8e:4a:c3:c1:3c:1f:
         99:68:c5:19:47:37:b3:39:87:81:0f:07:8c:a4:0a:f4:c9:ea:
         ba:85:85:01:92:68:dc:e0:b9:f5:d1:3e:d6:f0:cf:38:6f:bb:
         27:f8:3c:81:0a:9a:fb:c7:9e:a9:7c:45:6f:42:5e:3a:15:f7:
         cb:d9:65:d7:6a:61:c6:a8:05:54:45:6c:17:74:90:c5:a7:5b:
         8e:2e:d2:4b:dd:3c:ea:9c:8c:2b:a6:61:0c:ed:5f:79:2e:1e:
         c0:25:56:17:57:e6:c2:19:2d:72:87:a4:67:da:9c:dd:da:e6:
         db:0a:da:da:d9:7d:e1:bd:d2:9d:64:75:fc:bf:57:5e:cd:1b:
         29:6c:0c:03
-----BEGIN CERTIFICATE-----
MIID0TCCArmgAwIBAgIJAItmnMXTCtJOMA0GCSqGSIb3DQEBCwUAMH8xCzAJBgNV
BAYTAlVTMRMwEQYDVQQIDApDYWxpZm9ybmlhMRQwEgYDVQQHDAtTYW50YSBDbGFy
YTENMAsGA1UECgwEcGtnNTENMAsGA1UECwwEdGExMDESMBAGA1UEAwwJbG9jYWxo
b3N0MRMwEQYJKoZIhvcNAQkBFgR0YTEwMB4XDTIxMDkyMjA1MzMzOVoXDTI0MDYx
ODA1MzMzOVowfzELMAkGA1UEBhMCVVMxEzARBgNVBAgMCkNhbGlmb3JuaWExFDAS
BgNVBAcMC1NhbnRhIENsYXJhMQ0wCwYDVQQKDARwa2c1MQ0wCwYDVQQLDAR0YTEw
MRIwEAYDVQQDDAlsb2NhbGhvc3QxEzARBgkqhkiG9w0BCQEWBHRhMTAwggEiMA0G
CSqGSIb3DQEBAQUAA4IBDwAwggEKAoIBAQDct72YrfYuaPeBCqKDvyXMS0PivPQs
Y0FvhV4ZBVNgw0ltQ0Q/l8fRqXFH4pE/TUqQo1gmnxJ2WKPUU1o9TjUfrsTfR2cj
eQRhMRdZAvRL5RuxhZ+ooNX/FsTmt/GU98V4CHhGGX9FdBMrzi5dhD1UpdUI8bH4
O01X25/1gwZf0LWAv/+lwXXk98j0yfI+8ONOqRQwo/aZfYrOGpYVDDhqy3bJp8yk
wwzPwztV37FBhtFNL0T823RWh9tHYYrJkI7KdOnGFmDzo1mse6qcN2TjteIfy/qK
+rWUFiMtir6Y5UYXX3+ycMKba3G3HsKZ3aked5Xh1nJkxkh7mdMgWYjJAgMBAAGj
UDBOMB0GA1UdDgQWBBSrxM5Sem90k5vPVLZlTF3gFdV5zDAfBgNVHSMEGDAWgBSr
xM5Sem90k5vPVLZlTF3gFdV5zDAMBgNVHRMEBTADAQH/MA0GCSqGSIb3DQEBCwUA
A4IBAQAikebra6sUIK+aSedatqvYz3kElqO5L7g+Y7p1tgDv3CelRtvZ1aYHghTD
r+29ahZUB7327Ry4qcKk5S6iC+WMV2TabjuCiZUQR2UEahioBLLIO61CMvZHKyCR
EQ3FXc9/mUS8y+RnmV1jby4G3oRDhwFxwaSt01COSsPBPB+ZaMUZRzezOYeBDweM
pAr0yeq6hYUBkmjc4Ln10T7W8M84b7sn+DyBCpr7x56pfEVvQl46FffL2WXXamHG
qAVURWwXdJDFp1uOLtJL3TzqnIwrpmEM7V95Lh7AJVYXV+bCGS1yh6Rn2pzd2ubb
Ctra2X3hvdKdZHX8v1dezRspbAwD
-----END CERTIFICATE-----
