Certificate:
    Data:
        Version: 3 (0x2)
        Serial Number:
            8c:19:1f:7f:98:e4:fa:36
    Signature Algorithm: sha256WithRSAEncryption
        Issuer: C=US, ST=California, L=Santa Clara, O=pkg5, OU=ta10, CN=localhost/emailAddress=ta10
        Validity
            Not Before: Jan 22 15:33:17 2019 GMT
            Not After : Oct 18 15:33:17 2021 GMT
        Subject: C=US, ST=California, L=Santa Clara, O=pkg5, OU=ta10, CN=localhost/emailAddress=ta10
        Subject Public Key Info:
            Public Key Algorithm: rsaEncryption
                Public-Key: (2048 bit)
                Modulus:
                    00:b7:9b:9b:5a:c8:22:3d:ca:48:2b:97:53:df:a6:
                    dd:c0:c5:ad:c8:f5:95:08:44:50:a9:86:eb:a0:47:
                    b5:21:42:cb:2c:e3:d9:bf:4f:df:08:43:99:3c:58:
                    7a:eb:40:02:26:d9:2d:b3:1e:3d:37:c7:35:fc:45:
                    18:29:d7:37:e1:1b:87:3e:db:5d:c4:51:e6:a1:81:
                    c9:9b:3e:4c:bc:b8:fe:60:d1:05:f1:25:29:da:04:
                    f6:a5:aa:17:64:7d:21:a8:73:27:bb:f5:63:bc:28:
                    e4:aa:69:98:c7:e6:b7:ca:3d:e4:d1:90:87:0b:fb:
                    a6:67:66:db:65:e8:a3:97:2e:ce:c8:52:88:55:1d:
                    ff:04:57:42:93:39:c6:fa:40:a3:b7:60:8f:dd:7b:
                    d2:98:0e:b5:a6:d8:85:8b:9c:2b:ff:b6:d0:51:fa:
                    90:fc:74:be:2e:e0:83:50:19:a0:4c:f6:8d:03:82:
                    a2:28:08:57:18:7e:c2:59:16:d6:c6:eb:be:62:64:
                    dd:e5:07:14:24:54:9e:a0:51:f4:ff:f9:7b:eb:3f:
                    98:4d:bd:d1:e5:1a:9c:2b:76:b6:7c:70:22:04:27:
                    f4:2d:20:9b:5c:a6:66:6c:bb:b1:6d:64:ec:f8:63:
                    21:fe:c0:2a:b5:a3:ba:92:0e:6e:62:93:5c:0a:ca:
                    9b:85
                Exponent: 65537 (0x10001)
        X509v3 extensions:
            X509v3 Subject Key Identifier: 
                2A:FF:68:DC:8C:AC:36:46:BD:C8:B6:51:45:8E:26:BA:71:DE:BF:9C
            X509v3 Authority Key Identifier: 
                keyid:2A:FF:68:DC:8C:AC:36:46:BD:C8:B6:51:45:8E:26:BA:71:DE:BF:9C

            X509v3 Basic Constraints: 
                CA:TRUE
    Signature Algorithm: sha256WithRSAEncryption
         36:05:2e:5c:39:6e:5a:39:26:b1:9c:37:fe:a6:1c:90:ac:fd:
         e2:4d:87:c0:4f:4a:b2:60:59:c5:6d:c0:41:d4:13:1e:7b:e0:
         e8:65:f9:67:29:72:f7:83:f5:f5:73:50:5d:3e:9f:4b:4c:90:
         7b:80:34:a0:1e:55:01:6a:cf:52:91:db:24:61:d1:47:4a:34:
         bc:9b:84:25:25:6d:7e:97:1a:1c:d6:fb:f9:46:ba:03:8a:8f:
         dc:c0:3b:ba:ec:34:ac:55:e8:07:03:ea:bd:0c:52:77:27:4c:
         5a:14:44:e7:f9:5f:a5:16:2f:44:07:a1:15:a9:aa:b6:a7:bd:
         06:dd:76:fb:03:c0:49:28:df:bb:c5:01:a9:a3:0f:32:68:e2:
         d4:45:d4:85:e7:fe:df:8b:78:30:3c:36:79:8f:77:c3:8f:35:
         f5:cb:c1:37:93:b3:1e:a7:db:08:38:1e:7b:ad:b5:66:45:13:
         19:a8:48:50:15:f9:e3:3c:10:9b:9e:3a:95:6d:e4:52:21:21:
         ba:fe:30:49:86:a3:33:22:2f:54:c7:4e:fb:cc:af:e7:5d:b8:
         b9:d8:40:98:9f:64:10:f6:fa:93:71:97:33:aa:99:f7:ff:69:
         3c:ba:a8:b2:28:c5:5b:18:3f:70:3a:7c:f1:39:be:13:6d:93:
         8b:bf:5c:d1
-----BEGIN CERTIFICATE-----
MIID0TCCArmgAwIBAgIJAIwZH3+Y5Po2MA0GCSqGSIb3DQEBCwUAMH8xCzAJBgNV
BAYTAlVTMRMwEQYDVQQIDApDYWxpZm9ybmlhMRQwEgYDVQQHDAtTYW50YSBDbGFy
YTENMAsGA1UECgwEcGtnNTENMAsGA1UECwwEdGExMDESMBAGA1UEAwwJbG9jYWxo
b3N0MRMwEQYJKoZIhvcNAQkBFgR0YTEwMB4XDTE5MDEyMjE1MzMxN1oXDTIxMTAx
ODE1MzMxN1owfzELMAkGA1UEBhMCVVMxEzARBgNVBAgMCkNhbGlmb3JuaWExFDAS
BgNVBAcMC1NhbnRhIENsYXJhMQ0wCwYDVQQKDARwa2c1MQ0wCwYDVQQLDAR0YTEw
MRIwEAYDVQQDDAlsb2NhbGhvc3QxEzARBgkqhkiG9w0BCQEWBHRhMTAwggEiMA0G
CSqGSIb3DQEBAQUAA4IBDwAwggEKAoIBAQC3m5tayCI9ykgrl1Pfpt3Axa3I9ZUI
RFCphuugR7UhQsss49m/T98IQ5k8WHrrQAIm2S2zHj03xzX8RRgp1zfhG4c+213E
UeahgcmbPky8uP5g0QXxJSnaBPalqhdkfSGocye79WO8KOSqaZjH5rfKPeTRkIcL
+6ZnZttl6KOXLs7IUohVHf8EV0KTOcb6QKO3YI/de9KYDrWm2IWLnCv/ttBR+pD8
dL4u4INQGaBM9o0DgqIoCFcYfsJZFtbG675iZN3lBxQkVJ6gUfT/+XvrP5hNvdHl
GpwrdrZ8cCIEJ/QtIJtcpmZsu7FtZOz4YyH+wCq1o7qSDm5ik1wKypuFAgMBAAGj
UDBOMB0GA1UdDgQWBBQq/2jcjKw2Rr3ItlFFjia6cd6/nDAfBgNVHSMEGDAWgBQq
/2jcjKw2Rr3ItlFFjia6cd6/nDAMBgNVHRMEBTADAQH/MA0GCSqGSIb3DQEBCwUA
A4IBAQA2BS5cOW5aOSaxnDf+phyQrP3iTYfAT0qyYFnFbcBB1BMee+DoZflnKXL3
g/X1c1BdPp9LTJB7gDSgHlUBas9SkdskYdFHSjS8m4QlJW1+lxoc1vv5RroDio/c
wDu67DSsVegHA+q9DFJ3J0xaFETn+V+lFi9EB6EVqaq2p70G3Xb7A8BJKN+7xQGp
ow8yaOLURdSF5/7fi3gwPDZ5j3fDjzX1y8E3k7Mep9sIOB57rbVmRRMZqEhQFfnj
PBCbnjqVbeRSISG6/jBJhqMzIi9Ux077zK/nXbi52ECYn2QQ9vqTcZczqpn3/2k8
uqiyKMVbGD9wOnzxOb4TbZOLv1zR
-----END CERTIFICATE-----
