Certificate:
    Data:
        Version: 3 (0x2)
        Serial Number: 6 (0x6)
    Signature Algorithm: sha256WithRSAEncryption
        Issuer: C=US, ST=California, L=Santa Clara, O=pkg5, CN=ch5_ta1/emailAddress=ch5_ta1
        Validity
            Not Before: Jan 22 15:33:07 2019 GMT
            Not After : Oct 18 15:33:07 2021 GMT
        Subject: C=US, ST=California, L=Santa Clara, O=pkg5, CN=cs1_ch5_ta1/emailAddress=cs1_ch5_ta1
        Subject Public Key Info:
            Public Key Algorithm: rsaEncryption
                Public-Key: (1024 bit)
                Modulus:
                    00:cd:14:7e:24:ea:21:b0:46:ed:01:68:38:83:9e:
                    37:1a:d6:3a:39:58:7a:a8:f7:2b:bb:b6:73:49:16:
                    17:34:cc:f0:d7:9e:b8:35:48:8e:93:bd:2e:ad:a1:
                    a9:bd:2f:1a:06:59:30:3f:40:95:76:71:46:8f:09:
                    fe:71:ed:17:74:54:70:13:02:8a:b5:53:bd:2b:25:
                    9e:88:05:38:cb:25:40:39:3b:e1:fd:e1:b2:38:85:
                    01:aa:67:fd:ab:84:74:cf:4f:6d:db:b8:71:91:11:
                    b2:9f:fc:db:27:44:4b:7c:4a:36:d3:07:d0:50:2d:
                    f7:60:61:d8:ae:17:ba:86:81
                Exponent: 65537 (0x10001)
        X509v3 extensions:
            X509v3 Basic Constraints: critical
                CA:FALSE
            X509v3 Key Usage: critical
                Digital Signature
    Signature Algorithm: sha256WithRSAEncryption
         6e:40:d7:50:05:9f:58:40:58:66:9a:01:23:c7:18:e7:51:b9:
         27:9f:d2:12:0e:58:12:5f:87:40:c5:cf:18:fa:fb:e7:ad:34:
         d2:35:5a:35:ab:2a:a4:26:ef:11:3c:af:74:13:7e:3d:c7:5f:
         02:be:a5:7b:ec:07:91:d6:62:f0:a8:11:aa:c7:72:65:5e:37:
         c4:cc:29:ef:b9:7a:50:d5:71:98:7f:08:ff:c5:01:74:4e:39:
         7d:39:03:30:31:0c:c6:03:c7:11:d7:17:ba:31:dc:b0:c4:15:
         5b:14:be:a6:5e:da:11:2c:fd:b0:53:ea:e9:96:81:58:c0:31:
         6d:b0:f0:db:03:db:2d:1e:a8:ed:26:9c:42:80:39:25:05:39:
         d9:79:a1:c3:23:2e:d2:13:6b:1b:1d:2e:b6:e5:04:b3:c3:b3:
         a9:a9:15:77:05:2c:3a:8b:57:62:e1:e8:2f:87:3b:cb:81:19:
         06:85:8c:7d:e1:1d:85:dc:b1:f6:8e:bd:9b:e6:6d:9d:71:b3:
         b9:58:9b:39:e1:c5:7c:42:e0:89:21:30:76:2c:b1:52:1b:20:
         89:cd:4a:b5:50:ef:27:95:93:68:43:98:60:8e:be:22:1c:48:
         3c:96:52:d9:d6:e6:ff:ce:b7:59:9b:92:ee:62:d1:b4:b1:0c:
         21:33:e5:b4
-----BEGIN CERTIFICATE-----
MIIDATCCAemgAwIBAgIBBjANBgkqhkiG9w0BAQsFADBxMQswCQYDVQQGEwJVUzET
MBEGA1UECAwKQ2FsaWZvcm5pYTEUMBIGA1UEBwwLU2FudGEgQ2xhcmExDTALBgNV
BAoMBHBrZzUxEDAOBgNVBAMMB2NoNV90YTExFjAUBgkqhkiG9w0BCQEWB2NoNV90
YTEwHhcNMTkwMTIyMTUzMzA3WhcNMjExMDE4MTUzMzA3WjB5MQswCQYDVQQGEwJV
UzETMBEGA1UECAwKQ2FsaWZvcm5pYTEUMBIGA1UEBwwLU2FudGEgQ2xhcmExDTAL
BgNVBAoMBHBrZzUxFDASBgNVBAMMC2NzMV9jaDVfdGExMRowGAYJKoZIhvcNAQkB
FgtjczFfY2g1X3RhMTCBnzANBgkqhkiG9w0BAQEFAAOBjQAwgYkCgYEAzRR+JOoh
sEbtAWg4g543GtY6OVh6qPcru7ZzSRYXNMzw1564NUiOk70uraGpvS8aBlkwP0CV
dnFGjwn+ce0XdFRwEwKKtVO9KyWeiAU4yyVAOTvh/eGyOIUBqmf9q4R0z09t27hx
kRGyn/zbJ0RLfEo20wfQUC33YGHYrhe6hoECAwEAAaMgMB4wDAYDVR0TAQH/BAIw
ADAOBgNVHQ8BAf8EBAMCB4AwDQYJKoZIhvcNAQELBQADggEBAG5A11AFn1hAWGaa
ASPHGOdRuSef0hIOWBJfh0DFzxj6++etNNI1WjWrKqQm7xE8r3QTfj3HXwK+pXvs
B5HWYvCoEarHcmVeN8TMKe+5elDVcZh/CP/FAXROOX05AzAxDMYDxxHXF7ox3LDE
FVsUvqZe2hEs/bBT6umWgVjAMW2w8NsD2y0eqO0mnEKAOSUFOdl5ocMjLtITaxsd
LrblBLPDs6mpFXcFLDqLV2Lh6C+HO8uBGQaFjH3hHYXcsfaOvZvmbZ1xs7lYmznh
xXxC4IkhMHYssVIbIInNSrVQ7yeVk2hDmGCOviIcSDyWUtnW5v/Ot1mbku5i0bSx
DCEz5bQ=
-----END CERTIFICATE-----
