Certificate:
    Data:
        Version: 3 (0x2)
        Serial Number: 6 (0x6)
        Signature Algorithm: sha256WithRSAEncryption
        Issuer: C=US, ST=California, L=Menlo Park, O=pkg5, CN=ch2_pubCA1/emailAddress=ch2_pubCA1
        Validity
            Not Before: Aug  4 20:59:24 2010 GMT
            Not After : Apr 30 20:59:24 2013 GMT
        Subject: C=US, ST=California, L=Menlo Park, O=pkg5, CN=cs1_pubCA1/emailAddress=cs1_pubCA1
        Subject Public Key Info:
            Public Key Algorithm: rsaEncryption
            RSA Public Key: (1024 bit)
                Modulus (1024 bit):
                    00:97:a7:b6:9a:40:63:12:2f:3c:4b:3f:75:d2:53:
                    5b:c9:c9:6e:7c:fc:f6:8e:35:7f:7a:5a:b2:fa:00:
                    eb:dd:f0:f2:87:2a:c9:9b:4d:7e:2d:3c:f1:0e:4e:
                    ff:b4:b1:91:88:2f:c3:ab:ae:65:39:1e:da:e8:7e:
                    50:b5:94:48:a6:5c:b0:bb:42:aa:70:e6:50:9c:41:
                    2c:67:38:6c:e0:5d:9a:7d:b4:95:36:54:ea:e8:48:
                    24:31:1c:30:39:24:2c:2a:1f:de:c2:c8:bf:e8:82:
                    35:4a:9b:52:8e:15:e8:34:df:0c:78:be:e5:c6:85:
                    c6:79:88:75:c0:04:e4:b8:77
                Exponent: 65537 (0x10001)
        X509v3 extensions:
            X509v3 Basic Constraints: critical
                CA:FALSE
            X509v3 Key Usage: 
                Digital Signature
    Signature Algorithm: sha256WithRSAEncryption
        61:86:7f:54:cd:2f:e0:7f:2a:9a:20:55:23:af:00:79:13:25:
        2e:29:4e:c6:40:d5:66:60:ea:34:b8:9a:cc:d9:39:04:63:d7:
        f8:ae:a3:3d:73:54:34:8d:67:5a:92:b1:1a:f8:f0:38:f3:64:
        2e:45:32:bd:29:a1:e3:32:d6:c7:73:77:70:c0:f0:e6:d4:00:
        62:3b:e2:23:12:bb:f4:f7:d7:0c:15:74:2a:b0:cb:90:00:f3:
        ba:ad:3c:15:35:4b:ef:c3:08:34:4e:02:e7:6c:bd:2c:e6:45:
        43:fa:c5:1d:14:3c:6b:33:01:1d:22:b2:12:2e:0e:e7:82:53:
        49:9b
-----BEGIN CERTIFICATE-----
MIICfzCCAeigAwIBAgIBBjANBgkqhkiG9w0BAQsFADB2MQswCQYDVQQGEwJVUzET
MBEGA1UECBMKQ2FsaWZvcm5pYTETMBEGA1UEBxMKTWVubG8gUGFyazENMAsGA1UE
ChMEcGtnNTETMBEGA1UEAxQKY2gyX3B1YkNBMTEZMBcGCSqGSIb3DQEJARYKY2gy
X3B1YkNBMTAeFw0xMDA4MDQyMDU5MjRaFw0xMzA0MzAyMDU5MjRaMHYxCzAJBgNV
BAYTAlVTMRMwEQYDVQQIEwpDYWxpZm9ybmlhMRMwEQYDVQQHEwpNZW5sbyBQYXJr
MQ0wCwYDVQQKEwRwa2c1MRMwEQYDVQQDFApjczFfcHViQ0ExMRkwFwYJKoZIhvcN
AQkBFgpjczFfcHViQ0ExMIGfMA0GCSqGSIb3DQEBAQUAA4GNADCBiQKBgQCXp7aa
QGMSLzxLP3XSU1vJyW58/PaONX96WrL6AOvd8PKHKsmbTX4tPPEOTv+0sZGIL8Or
rmU5HtroflC1lEimXLC7Qqpw5lCcQSxnOGzgXZp9tJU2VOroSCQxHDA5JCwqH97C
yL/ogjVKm1KOFeg03wx4vuXGhcZ5iHXABOS4dwIDAQABox0wGzAMBgNVHRMBAf8E
AjAAMAsGA1UdDwQEAwIHgDANBgkqhkiG9w0BAQsFAAOBgQBhhn9UzS/gfyqaIFUj
rwB5EyUuKU7GQNVmYOo0uJrM2TkEY9f4rqM9c1Q0jWdakrEa+PA482QuRTK9KaHj
MtbHc3dwwPDm1ABiO+IjErv099cMFXQqsMuQAPO6rTwVNUvvwwg0TgLnbL0s5kVD
+sUdFDxrMwEdIrISLg7nglNJmw==
-----END CERTIFICATE-----
