Certificate:
    Data:
        Version: 3 (0x2)
        Serial Number: 6 (0x6)
        Signature Algorithm: sha256WithRSAEncryption
        Issuer: C=US, ST=California, L=Menlo Park, O=pkg5, CN=ch2_pubCA1/emailAddress=ch2_pubCA1
        Validity
            Not Before: Jan 28 02:54:11 2011 GMT
            Not After : Oct 24 02:54:11 2013 GMT
        Subject: C=US, ST=California, L=Menlo Park, O=pkg5, CN=cs1_pubCA1/emailAddress=cs1_pubCA1
        Subject Public Key Info:
            Public Key Algorithm: rsaEncryption
            RSA Public Key: (1024 bit)
                Modulus (1024 bit):
                    00:d6:e0:78:fd:9b:ec:79:f0:02:f0:cc:7a:8b:63:
                    e1:60:e3:41:a8:d8:0d:82:4a:2d:ee:6c:53:b0:6b:
                    21:50:42:06:2e:a6:af:3d:fa:e8:55:a0:79:54:31:
                    cb:65:f8:03:e6:84:a9:3d:76:cc:7b:06:de:d3:25:
                    0e:e5:e3:99:18:7c:13:9e:73:3d:5c:88:7a:5d:f5:
                    58:54:08:cf:bf:fc:73:d0:ef:be:f5:04:fb:71:4b:
                    98:84:82:3a:61:f5:04:29:48:5d:3d:c2:73:56:33:
                    8e:0e:fc:0d:3a:1e:57:d9:a3:7c:c9:fd:db:27:8a:
                    1a:de:d4:13:53:ce:a2:12:79
                Exponent: 65537 (0x10001)
        X509v3 extensions:
            X509v3 Basic Constraints: critical
                CA:FALSE
            X509v3 Key Usage: critical
                Digital Signature
    Signature Algorithm: sha256WithRSAEncryption
        e1:3a:ec:60:96:47:14:c0:7a:76:85:f9:54:21:ae:48:b9:d1:
        33:a3:62:73:07:04:83:aa:4b:a7:6a:3f:a9:ff:8e:34:8c:38:
        c0:a4:38:c2:66:75:6f:67:20:31:1d:9b:bf:a7:19:52:c5:56:
        ff:5c:f1:a8:07:bc:66:7f:e0:49:23:18:af:fa:ca:c7:36:0b:
        67:85:08:d3:35:61:44:ce:6b:d5:f2:92:a5:bc:98:d1:24:68:
        3c:a9:0a:f7:71:a4:0b:41:fb:69:37:7c:78:d4:4b:18:ab:2b:
        95:a9:19:cb:b7:01:53:65:cc:d4:22:a1:69:47:bd:e8:db:41:
        fe:82
-----BEGIN CERTIFICATE-----
MIICgjCCAeugAwIBAgIBBjANBgkqhkiG9w0BAQsFADB2MQswCQYDVQQGEwJVUzET
MBEGA1UECBMKQ2FsaWZvcm5pYTETMBEGA1UEBxMKTWVubG8gUGFyazENMAsGA1UE
ChMEcGtnNTETMBEGA1UEAxQKY2gyX3B1YkNBMTEZMBcGCSqGSIb3DQEJARYKY2gy
X3B1YkNBMTAeFw0xMTAxMjgwMjU0MTFaFw0xMzEwMjQwMjU0MTFaMHYxCzAJBgNV
BAYTAlVTMRMwEQYDVQQIEwpDYWxpZm9ybmlhMRMwEQYDVQQHEwpNZW5sbyBQYXJr
MQ0wCwYDVQQKEwRwa2c1MRMwEQYDVQQDFApjczFfcHViQ0ExMRkwFwYJKoZIhvcN
AQkBFgpjczFfcHViQ0ExMIGfMA0GCSqGSIb3DQEBAQUAA4GNADCBiQKBgQDW4Hj9
m+x58ALwzHqLY+Fg40Go2A2CSi3ubFOwayFQQgYupq89+uhVoHlUMctl+APmhKk9
dsx7Bt7TJQ7l45kYfBOecz1ciHpd9VhUCM+//HPQ7771BPtxS5iEgjph9QQpSF09
wnNWM44O/A06HlfZo3zJ/dsnihre1BNTzqISeQIDAQABoyAwHjAMBgNVHRMBAf8E
AjAAMA4GA1UdDwEB/wQEAwIHgDANBgkqhkiG9w0BAQsFAAOBgQDhOuxglkcUwHp2
hflUIa5IudEzo2JzBwSDqkunaj+p/440jDjApDjCZnVvZyAxHZu/pxlSxVb/XPGo
B7xmf+BJIxiv+srHNgtnhQjTNWFEzmvV8pKlvJjRJGg8qQr3caQLQftpN3x41EsY
qyuVqRnLtwFTZczUIqFpR73o20H+gg==
-----END CERTIFICATE-----
