Certificate:
    Data:
        Version: 3 (0x2)
        Serial Number: 6 (0x6)
    Signature Algorithm: sha256WithRSAEncryption
        Issuer: C=US, ST=California, L=Santa Clara, O=pkg5, CN=ch5_ta1/emailAddress=ch5_ta1
        Validity
            Not Before: Sep 22 05:33:15 2021 GMT
            Not After : Jun 18 05:33:15 2024 GMT
        Subject: C=US, ST=California, L=Santa Clara, O=pkg5, CN=cs1_ch5_ta1/emailAddress=cs1_ch5_ta1
        Subject Public Key Info:
            Public Key Algorithm: rsaEncryption
                Public-Key: (1024 bit)
                Modulus:
                    00:d9:ae:a8:cc:95:4f:55:05:e2:20:8a:f2:fb:99:
                    0f:1e:3d:d4:90:0f:96:b4:3e:3d:bd:35:0e:ce:fc:
                    ba:e5:93:cd:76:b0:d9:9a:7f:c4:59:de:50:89:31:
                    fe:8b:0b:c6:0d:6c:d7:ca:1e:fe:63:f3:dc:ee:2c:
                    b4:81:e1:06:8c:e4:fb:86:6f:fc:09:bb:fa:dc:76:
                    46:5c:f9:27:34:65:08:20:e7:84:70:c9:b9:7c:bc:
                    92:d9:d4:53:79:96:6c:3b:f9:3d:04:43:a2:c5:c3:
                    c0:95:87:30:f4:62:9e:24:a0:d9:73:e3:7f:36:0d:
                    e0:bf:2e:43:b8:90:37:d2:c1
                Exponent: 65537 (0x10001)
        X509v3 extensions:
            X509v3 Basic Constraints: critical
                CA:FALSE
            X509v3 Key Usage: critical
                Digital Signature
    Signature Algorithm: sha256WithRSAEncryption
         6e:dd:27:d7:c6:2b:d5:75:bd:61:16:fd:d3:b8:75:3e:ee:2f:
         fd:07:0f:5c:54:04:47:c2:16:6c:ae:b1:15:26:cd:cc:14:15:
         09:bc:51:a0:d6:fa:75:f8:8f:57:83:23:ce:fe:b8:98:2b:dc:
         17:60:e7:47:0f:1e:ab:08:ad:41:74:ef:0c:ac:10:e7:c7:da:
         cc:cf:4f:d5:09:a1:66:07:90:df:28:1d:8c:88:52:a2:08:74:
         a1:89:4d:41:4e:84:17:75:d1:ab:18:4e:7d:20:73:6d:b5:a0:
         76:05:06:41:56:68:55:23:2a:e9:76:42:a9:7a:19:64:b1:21:
         dd:b4:44:6a:b7:1c:09:d8:3a:2a:64:c5:12:da:ed:74:6a:ef:
         00:36:7a:4a:12:18:62:2e:87:c0:3b:b4:4c:3d:17:3c:22:d2:
         7a:a7:77:61:15:e1:51:25:50:8f:fd:55:8d:6f:5b:48:18:fc:
         6a:19:c3:f5:68:68:6f:07:6a:e4:22:68:53:7a:5a:7d:3d:78:
         c6:5d:aa:c8:f9:94:35:2b:cb:17:c3:ab:5d:6e:11:24:76:82:
         6c:c1:7a:17:09:a0:eb:71:2e:b5:23:c7:5c:9a:d0:82:d1:66:
         a3:3e:89:11:57:71:4a:69:75:92:45:4a:ff:01:eb:15:98:ff:
         39:c5:31:65
-----BEGIN CERTIFICATE-----
MIIDATCCAemgAwIBAgIBBjANBgkqhkiG9w0BAQsFADBxMQswCQYDVQQGEwJVUzET
MBEGA1UECAwKQ2FsaWZvcm5pYTEUMBIGA1UEBwwLU2FudGEgQ2xhcmExDTALBgNV
BAoMBHBrZzUxEDAOBgNVBAMMB2NoNV90YTExFjAUBgkqhkiG9w0BCQEWB2NoNV90
YTEwHhcNMjEwOTIyMDUzMzE1WhcNMjQwNjE4MDUzMzE1WjB5MQswCQYDVQQGEwJV
UzETMBEGA1UECAwKQ2FsaWZvcm5pYTEUMBIGA1UEBwwLU2FudGEgQ2xhcmExDTAL
BgNVBAoMBHBrZzUxFDASBgNVBAMMC2NzMV9jaDVfdGExMRowGAYJKoZIhvcNAQkB
FgtjczFfY2g1X3RhMTCBnzANBgkqhkiG9w0BAQEFAAOBjQAwgYkCgYEA2a6ozJVP
VQXiIIry+5kPHj3UkA+WtD49vTUOzvy65ZPNdrDZmn/EWd5QiTH+iwvGDWzXyh7+
Y/Pc7iy0geEGjOT7hm/8Cbv63HZGXPknNGUIIOeEcMm5fLyS2dRTeZZsO/k9BEOi
xcPAlYcw9GKeJKDZc+N/Ng3gvy5DuJA30sECAwEAAaMgMB4wDAYDVR0TAQH/BAIw
ADAOBgNVHQ8BAf8EBAMCB4AwDQYJKoZIhvcNAQELBQADggEBAG7dJ9fGK9V1vWEW
/dO4dT7uL/0HD1xUBEfCFmyusRUmzcwUFQm8UaDW+nX4j1eDI87+uJgr3Bdg50cP
HqsIrUF07wysEOfH2szPT9UJoWYHkN8oHYyIUqIIdKGJTUFOhBd10asYTn0gc221
oHYFBkFWaFUjKul2Qql6GWSxId20RGq3HAnYOipkxRLa7XRq7wA2ekoSGGIuh8A7
tEw9Fzwi0nqnd2EV4VElUI/9VY1vW0gY/GoZw/VoaG8HauQiaFN6Wn09eMZdqsj5
lDUryxfDq11uESR2gmzBehcJoOtxLrUjx1ya0ILRZqM+iRFXcUppdZJFSv8B6xWY
/znFMWU=
-----END CERTIFICATE-----
