Certificate:
    Data:
        Version: 3 (0x2)
        Serial Number: 6 (0x6)
    Signature Algorithm: sha256WithRSAEncryption
        Issuer: C=US, ST=California, L=Santa Clara, O=pkg5, CN=ch5_ta1/emailAddress=ch5_ta1
        Validity
            Not Before: Jul 19 11:35:44 2023 GMT
            Not After : Apr 14 11:35:44 2026 GMT
        Subject: C=US, ST=California, L=Santa Clara, O=pkg5, CN=cs1_ch5_ta1/emailAddress=cs1_ch5_ta1
        Subject Public Key Info:
            Public Key Algorithm: rsaEncryption
                Public-Key: (2048 bit)
                Modulus:
                    00:bc:f1:88:ba:f9:1e:06:c2:67:66:b2:41:dc:ba:
                    57:59:9d:43:cd:73:53:73:ec:bd:95:87:c6:08:44:
                    a7:5e:86:10:c6:03:ff:c2:8d:a8:bf:01:d7:7f:51:
                    4a:f1:38:47:29:42:73:66:87:1a:41:c0:4a:8c:bb:
                    26:5d:41:32:59:99:ce:bb:2c:2c:c9:81:96:79:bc:
                    91:17:b8:5a:44:18:2b:27:88:ed:a5:35:80:71:9a:
                    03:aa:7d:fd:d7:66:b0:fe:6f:76:8e:a4:71:66:9c:
                    f7:95:37:cc:12:0d:f3:07:09:f2:4a:a7:83:6c:0b:
                    66:5d:c0:01:ab:15:a7:3a:dc:94:3b:4d:92:55:9e:
                    7c:60:2b:f0:71:b1:5b:84:c3:7f:c8:59:23:be:2c:
                    0b:59:ca:85:e7:12:e2:9d:ef:51:95:d5:32:54:6f:
                    70:35:ad:11:65:b0:5c:d0:84:8c:c5:89:e3:97:22:
                    44:39:cd:2b:d4:e6:df:26:d1:18:a9:08:fd:82:dd:
                    82:c1:3e:bc:86:44:cc:18:55:da:3a:66:da:45:9c:
                    40:fb:97:07:09:8e:89:b7:e4:a1:57:f6:17:54:58:
                    4f:e2:e3:b3:a9:a7:3e:d9:68:69:a1:3f:8e:c0:b7:
                    cd:82:f6:e4:be:aa:cc:79:14:53:c3:93:a9:bc:e5:
                    01:af
                Exponent: 65537 (0x10001)
        X509v3 extensions:
            X509v3 Basic Constraints: critical
                CA:FALSE
            X509v3 Key Usage: critical
                Digital Signature
    Signature Algorithm: sha256WithRSAEncryption
         28:04:cf:b4:fe:1e:d5:44:4b:e3:e7:b7:34:92:4b:b1:d6:79:
         12:92:f7:60:47:b3:7e:dc:f5:77:9f:98:eb:74:ee:73:ce:c0:
         74:32:a4:16:5a:bc:f4:9f:4d:02:c3:59:fc:4a:21:21:13:40:
         9c:2f:60:ba:c1:fb:f8:a2:a9:2d:b9:25:86:58:bc:97:a6:99:
         95:39:dd:80:64:0f:9d:9c:07:02:eb:e2:d8:c2:f3:c0:3b:7c:
         ff:b6:35:86:b4:8b:15:e5:24:dd:29:9c:00:58:29:7c:ec:af:
         10:d4:b6:13:89:e4:54:08:d8:08:65:15:70:bd:4b:d0:a3:fa:
         75:30:93:5d:9b:f3:84:f7:cc:c2:9b:7e:83:4d:31:bd:fe:61:
         34:34:2e:57:02:be:f2:d2:9a:bb:4c:1a:be:13:22:31:b5:6f:
         48:ea:33:5c:73:e7:7a:45:15:4a:46:71:dc:31:2c:8e:b2:94:
         0f:bb:03:68:c4:55:3d:f7:c7:a9:ea:f3:ef:b4:e5:7e:6e:69:
         8e:b1:ce:d4:12:d6:50:5d:ad:a6:e3:ac:f4:81:40:f8:b0:a1:
         08:42:0a:0d:fb:4f:70:84:5e:8d:0b:15:59:6e:d2:86:50:23:
         7e:33:4d:61:8d:39:e5:15:ce:e8:92:ad:c7:7a:b1:a8:be:7c:
         f3:17:d4:a2
-----BEGIN CERTIFICATE-----
MIIDhTCCAm2gAwIBAgIBBjANBgkqhkiG9w0BAQsFADBxMQswCQYDVQQGEwJVUzET
MBEGA1UECAwKQ2FsaWZvcm5pYTEUMBIGA1UEBwwLU2FudGEgQ2xhcmExDTALBgNV
BAoMBHBrZzUxEDAOBgNVBAMMB2NoNV90YTExFjAUBgkqhkiG9w0BCQEWB2NoNV90
YTEwHhcNMjMwNzE5MTEzNTQ0WhcNMjYwNDE0MTEzNTQ0WjB5MQswCQYDVQQGEwJV
UzETMBEGA1UECAwKQ2FsaWZvcm5pYTEUMBIGA1UEBwwLU2FudGEgQ2xhcmExDTAL
BgNVBAoMBHBrZzUxFDASBgNVBAMMC2NzMV9jaDVfdGExMRowGAYJKoZIhvcNAQkB
FgtjczFfY2g1X3RhMTCCASIwDQYJKoZIhvcNAQEBBQADggEPADCCAQoCggEBALzx
iLr5HgbCZ2ayQdy6V1mdQ81zU3PsvZWHxghEp16GEMYD/8KNqL8B139RSvE4RylC
c2aHGkHASoy7Jl1BMlmZzrssLMmBlnm8kRe4WkQYKyeI7aU1gHGaA6p9/ddmsP5v
do6kcWac95U3zBIN8wcJ8kqng2wLZl3AAasVpzrclDtNklWefGAr8HGxW4TDf8hZ
I74sC1nKhecS4p3vUZXVMlRvcDWtEWWwXNCEjMWJ45ciRDnNK9Tm3ybRGKkI/YLd
gsE+vIZEzBhV2jpm2kWcQPuXBwmOibfkoVf2F1RYT+Ljs6mnPtloaaE/jsC3zYL2
5L6qzHkUU8OTqbzlAa8CAwEAAaMgMB4wDAYDVR0TAQH/BAIwADAOBgNVHQ8BAf8E
BAMCB4AwDQYJKoZIhvcNAQELBQADggEBACgEz7T+HtVES+PntzSSS7HWeRKS92BH
s37c9XefmOt07nPOwHQypBZavPSfTQLDWfxKISETQJwvYLrB+/iiqS25JYZYvJem
mZU53YBkD52cBwLr4tjC88A7fP+2NYa0ixXlJN0pnABYKXzsrxDUthOJ5FQI2Ahl
FXC9S9Cj+nUwk12b84T3zMKbfoNNMb3+YTQ0LlcCvvLSmrtMGr4TIjG1b0jqM1xz
53pFFUpGcdwxLI6ylA+7A2jEVT33x6nq8++05X5uaY6xztQS1lBdrabjrPSBQPiw
oQhCCg37T3CEXo0LFVlu0oZQI34zTWGNOeUVzuiSrcd6sai+fPMX1KI=
-----END CERTIFICATE-----
