Certificate:
    Data:
        Version: 3 (0x2)
        Serial Number: 6 (0x6)
    Signature Algorithm: sha256WithRSAEncryption
        Issuer: C=US, ST=California, L=Santa Clara, O=pkg5, CN=ch5_ta1/emailAddress=ch5_ta1
        Validity
            Not Before: Dec 13 00:13:34 2013 GMT
            Not After : Sep  8 00:13:34 2016 GMT
        Subject: C=US, ST=California, L=Santa Clara, O=pkg5, CN=cs1_ch5_ta1/emailAddress=cs1_ch5_ta1
        Subject Public Key Info:
            Public Key Algorithm: rsaEncryption
                Public-Key: (1024 bit)
                Modulus:
                    00:ba:a7:a1:60:33:eb:59:84:e6:2f:b0:30:38:b8:
                    49:97:86:3b:82:4e:51:6a:28:bf:2a:6d:d3:46:77:
                    67:ec:10:70:69:22:7f:e1:5d:7a:45:b5:81:2b:d2:
                    ea:7d:41:5c:e2:4d:e8:2d:06:89:1c:4c:17:aa:3c:
                    f5:2f:32:12:04:80:69:52:80:4a:ce:a1:4f:dc:76:
                    a1:5a:d2:53:43:8f:7c:fb:82:eb:96:06:cd:05:89:
                    74:34:7d:99:62:bc:09:67:e9:27:80:5b:78:65:05:
                    57:c8:b6:b4:b7:83:5a:46:b2:80:6c:3f:05:3c:c6:
                    49:2d:75:7c:48:2e:22:35:b7
                Exponent: 65537 (0x10001)
        X509v3 extensions:
            X509v3 Basic Constraints: critical
                CA:FALSE
            X509v3 Key Usage: critical
                Digital Signature
    Signature Algorithm: sha256WithRSAEncryption
         c2:d0:56:dd:4a:bb:8f:f9:de:49:4c:0c:41:af:29:73:07:f5:
         da:44:4a:aa:0b:9c:80:33:56:cc:eb:c5:58:14:f9:c2:c9:cc:
         93:2f:75:eb:6c:fd:b8:79:de:0d:35:db:46:8b:a6:d7:0b:59:
         3d:35:c9:ac:68:76:63:85:bd:b1:03:21:c7:53:a5:f5:22:9f:
         f0:c2:23:7e:de:32:6f:4a:7b:d8:d5:2d:b1:ee:db:ad:5a:f9:
         35:46:55:11:5a:bb:6b:53:21:1d:ea:c4:4d:16:5c:01:f5:af:
         91:47:bb:16:c1:9b:71:4e:5b:52:b5:ea:f9:d8:7a:53:c0:ef:
         e7:f4
-----BEGIN CERTIFICATE-----
MIICgDCCAemgAwIBAgIBBjANBgkqhkiG9w0BAQsFADBxMQswCQYDVQQGEwJVUzET
MBEGA1UECAwKQ2FsaWZvcm5pYTEUMBIGA1UEBwwLU2FudGEgQ2xhcmExDTALBgNV
BAoMBHBrZzUxEDAOBgNVBAMMB2NoNV90YTExFjAUBgkqhkiG9w0BCQEWB2NoNV90
YTEwHhcNMTMxMjEzMDAxMzM0WhcNMTYwOTA4MDAxMzM0WjB5MQswCQYDVQQGEwJV
UzETMBEGA1UECAwKQ2FsaWZvcm5pYTEUMBIGA1UEBwwLU2FudGEgQ2xhcmExDTAL
BgNVBAoMBHBrZzUxFDASBgNVBAMMC2NzMV9jaDVfdGExMRowGAYJKoZIhvcNAQkB
FgtjczFfY2g1X3RhMTCBnzANBgkqhkiG9w0BAQEFAAOBjQAwgYkCgYEAuqehYDPr
WYTmL7AwOLhJl4Y7gk5Raii/Km3TRndn7BBwaSJ/4V16RbWBK9LqfUFc4k3oLQaJ
HEwXqjz1LzISBIBpUoBKzqFP3HahWtJTQ498+4LrlgbNBYl0NH2ZYrwJZ+kngFt4
ZQVXyLa0t4NaRrKAbD8FPMZJLXV8SC4iNbcCAwEAAaMgMB4wDAYDVR0TAQH/BAIw
ADAOBgNVHQ8BAf8EBAMCB4AwDQYJKoZIhvcNAQELBQADgYEAwtBW3Uq7j/neSUwM
Qa8pcwf12kRKqgucgDNWzOvFWBT5wsnMky9162z9uHneDTXbRoum1wtZPTXJrGh2
Y4W9sQMhx1Ol9SKf8MIjft4yb0p72NUtse7brVr5NUZVEVq7a1MhHerETRZcAfWv
kUe7FsGbcU5bUrXq+dh6U8Dv5/Q=
-----END CERTIFICATE-----
