Certificate:
    Data:
        Version: 3 (0x2)
        Serial Number: 7 (0x7)
        Signature Algorithm: sha256WithRSAEncryption
        Issuer: C=US, ST=California, L=Menlo Park, O=pkg5, CN=ch2_pubCA1/emailAddress=ch2_pubCA1
        Validity
            Not Before: Aug  4 20:59:24 2010 GMT
            Not After : Apr 30 20:59:24 2013 GMT
        Subject: C=US, ST=California, L=Menlo Park, O=pkg5, CN=cs2_pubCA1/emailAddress=cs2_pubCA1
        Subject Public Key Info:
            Public Key Algorithm: rsaEncryption
            RSA Public Key: (1024 bit)
                Modulus (1024 bit):
                    00:bc:d4:1e:7a:76:36:24:10:2f:84:b3:ed:24:8f:
                    0b:85:8a:17:39:2f:15:26:0a:80:e2:60:aa:c0:00:
                    af:d5:ba:9c:ef:b0:3a:09:31:e7:97:37:82:ea:32:
                    a0:c5:75:c3:0e:0f:6a:77:ef:66:77:2f:6a:a2:60:
                    5b:b7:86:39:df:12:94:4e:61:79:de:dd:d2:fc:d1:
                    a0:ba:fe:6a:24:09:3b:4f:1e:35:19:e2:15:25:8b:
                    7c:03:19:66:3d:10:45:91:9c:83:9a:71:c9:b2:eb:
                    df:a9:64:c7:2d:5a:93:23:d3:5d:ec:64:03:64:f4:
                    34:b9:ee:40:1d:df:0c:c5:3d
                Exponent: 65537 (0x10001)
        X509v3 extensions:
            X509v3 Basic Constraints: critical
                CA:FALSE
            X509v3 CRL Distribution Points: 
                URI:http://localhost:12001/file/0/pubCA1_ta1_crl.pem

    Signature Algorithm: sha256WithRSAEncryption
        39:29:a1:18:73:e2:98:bd:03:ed:99:eb:dc:f3:a3:da:cb:3e:
        b3:5e:4c:f5:27:2f:c0:9d:7b:d1:3b:97:dc:cc:00:ca:f3:81:
        48:65:d5:a8:07:42:25:8e:9e:66:38:eb:ca:68:f3:f0:15:95:
        21:7b:c9:ec:9b:b1:af:dc:63:95:a2:cd:8c:dc:88:f5:7d:37:
        2f:20:02:ea:b9:c5:e3:64:c2:4a:2d:94:54:10:4e:b9:07:8a:
        46:99:7c:26:40:82:e5:65:30:df:66:02:6c:17:d8:6e:95:d4:
        ff:09:25:15:0b:68:7b:ab:84:35:c9:3f:ec:3f:92:76:f2:59:
        c2:50
-----BEGIN CERTIFICATE-----
MIICtTCCAh6gAwIBAgIBBzANBgkqhkiG9w0BAQsFADB2MQswCQYDVQQGEwJVUzET
MBEGA1UECBMKQ2FsaWZvcm5pYTETMBEGA1UEBxMKTWVubG8gUGFyazENMAsGA1UE
ChMEcGtnNTETMBEGA1UEAxQKY2gyX3B1YkNBMTEZMBcGCSqGSIb3DQEJARYKY2gy
X3B1YkNBMTAeFw0xMDA4MDQyMDU5MjRaFw0xMzA0MzAyMDU5MjRaMHYxCzAJBgNV
BAYTAlVTMRMwEQYDVQQIEwpDYWxpZm9ybmlhMRMwEQYDVQQHEwpNZW5sbyBQYXJr
MQ0wCwYDVQQKEwRwa2c1MRMwEQYDVQQDFApjczJfcHViQ0ExMRkwFwYJKoZIhvcN
AQkBFgpjczJfcHViQ0ExMIGfMA0GCSqGSIb3DQEBAQUAA4GNADCBiQKBgQC81B56
djYkEC+Es+0kjwuFihc5LxUmCoDiYKrAAK/VupzvsDoJMeeXN4LqMqDFdcMOD2p3
72Z3L2qiYFu3hjnfEpROYXne3dL80aC6/mokCTtPHjUZ4hUli3wDGWY9EEWRnIOa
ccmy69+pZMctWpMj013sZANk9DS57kAd3wzFPQIDAQABo1MwUTAMBgNVHRMBAf8E
AjAAMEEGA1UdHwQ6MDgwNqA0oDKGMGh0dHA6Ly9sb2NhbGhvc3Q6MTIwMDEvZmls
ZS8wL3B1YkNBMV90YTFfY3JsLnBlbTANBgkqhkiG9w0BAQsFAAOBgQA5KaEYc+KY
vQPtmevc86Payz6zXkz1Jy/AnXvRO5fczADK84FIZdWoB0Iljp5mOOvKaPPwFZUh
e8nsm7Gv3GOVos2M3Ij1fTcvIALqucXjZMJKLZRUEE65B4pGmXwmQILlZTDfZgJs
F9huldT/CSUVC2h7q4Q1yT/sP5J28lnCUA==
-----END CERTIFICATE-----
