Certificate:
    Data:
        Version: 3 (0x2)
        Serial Number: 7 (0x7)
        Signature Algorithm: sha256WithRSAEncryption
        Issuer: C=US, ST=California, L=Menlo Park, O=pkg5, CN=ch2_pubCA1/emailAddress=ch2_pubCA1
        Validity
            Not Before: Jan 28 02:54:11 2011 GMT
            Not After : Oct 24 02:54:11 2013 GMT
        Subject: C=US, ST=California, L=Menlo Park, O=pkg5, CN=cs2_pubCA1/emailAddress=cs2_pubCA1
        Subject Public Key Info:
            Public Key Algorithm: rsaEncryption
            RSA Public Key: (1024 bit)
                Modulus (1024 bit):
                    00:d1:1e:d4:1f:8e:07:3a:4f:d3:23:c7:80:1a:ea:
                    17:87:6b:38:d4:f8:1c:9b:1d:22:de:41:47:d0:dd:
                    65:9f:63:92:a1:a0:a4:58:22:53:dd:68:bd:86:a8:
                    88:a3:a9:64:15:fb:b2:75:6a:bb:cd:f0:d8:11:40:
                    80:ce:2a:55:8f:15:d4:86:f9:2a:47:81:e1:1f:89:
                    02:4d:ce:7f:9a:34:b3:87:08:d3:fd:1f:db:02:09:
                    9c:c6:e6:83:f6:79:78:97:cc:aa:e8:47:0b:d2:f7:
                    9d:55:31:50:e4:ae:d6:24:b2:f5:57:bf:0e:76:ae:
                    f7:9c:c0:04:66:b0:3e:7c:4f
                Exponent: 65537 (0x10001)
        X509v3 extensions:
            X509v3 Basic Constraints: critical
                CA:FALSE
            X509v3 CRL Distribution Points: 
                URI:http://localhost:12001/file/0/pubCA1_ta1_crl.pem

    Signature Algorithm: sha256WithRSAEncryption
        89:bf:be:5d:02:b5:ce:54:5d:07:30:23:a2:bf:4d:9f:28:97:
        e1:71:2a:fa:28:42:9e:21:db:7f:e2:58:9e:a2:09:37:6c:85:
        cc:02:8b:fc:8b:d7:f1:d3:86:93:64:7e:bd:4c:6f:1d:90:30:
        b4:b0:f7:57:81:0a:f1:1d:1d:9c:8b:a4:da:1b:9a:ff:0f:4b:
        e4:75:04:10:b1:a8:65:3a:08:2e:02:ae:eb:c6:8f:c0:d9:9c:
        40:df:0d:58:a6:3f:11:bd:68:a5:2c:58:b9:02:b2:21:d4:e3:
        c8:da:68:52:fd:26:31:34:8a:19:8d:e0:87:c7:23:46:40:92:
        ba:31
-----BEGIN CERTIFICATE-----
MIICtTCCAh6gAwIBAgIBBzANBgkqhkiG9w0BAQsFADB2MQswCQYDVQQGEwJVUzET
MBEGA1UECBMKQ2FsaWZvcm5pYTETMBEGA1UEBxMKTWVubG8gUGFyazENMAsGA1UE
ChMEcGtnNTETMBEGA1UEAxQKY2gyX3B1YkNBMTEZMBcGCSqGSIb3DQEJARYKY2gy
X3B1YkNBMTAeFw0xMTAxMjgwMjU0MTFaFw0xMzEwMjQwMjU0MTFaMHYxCzAJBgNV
BAYTAlVTMRMwEQYDVQQIEwpDYWxpZm9ybmlhMRMwEQYDVQQHEwpNZW5sbyBQYXJr
MQ0wCwYDVQQKEwRwa2c1MRMwEQYDVQQDFApjczJfcHViQ0ExMRkwFwYJKoZIhvcN
AQkBFgpjczJfcHViQ0ExMIGfMA0GCSqGSIb3DQEBAQUAA4GNADCBiQKBgQDRHtQf
jgc6T9Mjx4Aa6heHazjU+BybHSLeQUfQ3WWfY5KhoKRYIlPdaL2GqIijqWQV+7J1
arvN8NgRQIDOKlWPFdSG+SpHgeEfiQJNzn+aNLOHCNP9H9sCCZzG5oP2eXiXzKro
RwvS951VMVDkrtYksvVXvw52rvecwARmsD58TwIDAQABo1MwUTAMBgNVHRMBAf8E
AjAAMEEGA1UdHwQ6MDgwNqA0oDKGMGh0dHA6Ly9sb2NhbGhvc3Q6MTIwMDEvZmls
ZS8wL3B1YkNBMV90YTFfY3JsLnBlbTANBgkqhkiG9w0BAQsFAAOBgQCJv75dArXO
VF0HMCOiv02fKJfhcSr6KEKeIdt/4lieogk3bIXMAov8i9fx04aTZH69TG8dkDC0
sPdXgQrxHR2ci6TaG5r/D0vkdQQQsahlOgguAq7rxo/A2ZxA3w1Ypj8RvWilLFi5
ArIh1OPI2mhS/SYxNIoZjeCHxyNGQJK6MQ==
-----END CERTIFICATE-----
