Certificate:
    Data:
        Version: 3 (0x2)
        Serial Number: 7 (0x7)
    Signature Algorithm: sha256WithRSAEncryption
        Issuer: C=US, ST=California, L=Santa Clara, O=pkg5, CN=ch5_ta1/emailAddress=ch5_ta1
        Validity
            Not Before: Jan 22 01:57:54 2016 GMT
            Not After : Oct 18 01:57:54 2018 GMT
        Subject: C=US, ST=California, L=Santa Clara, O=pkg5, CN=cs2_ch5_ta1/emailAddress=cs2_ch5_ta1
        Subject Public Key Info:
            Public Key Algorithm: rsaEncryption
                Public-Key: (1024 bit)
                Modulus:
                    00:d3:d4:82:0b:9b:af:f0:23:6b:b4:ad:ca:d8:b1:
                    56:19:16:d9:49:67:f7:e5:cc:c1:d4:68:6a:75:30:
                    f5:3f:02:02:31:3f:65:da:c3:f4:89:f1:d7:b8:17:
                    39:d0:5f:83:a1:08:07:bf:61:42:96:e6:c8:a7:06:
                    e8:22:cb:61:b3:73:87:6d:c6:f0:b6:1c:12:f7:7b:
                    d2:4f:2f:25:03:ef:27:50:c2:15:b9:5c:36:c2:43:
                    80:74:95:c6:be:9c:3e:83:72:11:d7:6a:1c:ea:71:
                    32:b8:13:d2:75:3c:9b:df:f8:59:5c:1e:a6:c8:51:
                    8b:87:e7:c7:3b:0e:d1:65:15
                Exponent: 65537 (0x10001)
        X509v3 extensions:
            X509v3 Basic Constraints: critical
                CA:FALSE
            X509v3 CRL Distribution Points: 

                Full Name:
                  URI:http://localhost:12001/file/0/ch5_ta1_crl.pem

    Signature Algorithm: sha256WithRSAEncryption
         58:fb:c7:b9:31:27:7a:ac:c0:0d:82:11:6f:d9:8f:7c:0f:90:
         b6:2b:13:bb:77:52:95:45:61:51:07:02:32:c6:01:19:15:47:
         43:60:99:e8:49:1b:10:e3:ee:d3:4f:45:4a:86:2e:74:53:cb:
         01:bb:7e:bf:7c:f2:b6:a3:d7:b0:5c:3c:56:fc:ea:01:ae:28:
         7a:3c:68:01:b1:10:de:af:08:76:1c:46:78:62:40:44:5f:25:
         17:c4:f9:ac:7b:d7:21:ea:86:f9:b1:0c:1b:97:1b:fe:9b:12:
         b3:75:50:95:ca:8f:c4:07:a0:13:a0:f5:b5:7e:00:05:43:5d:
         72:e5:aa:57:80:49:b7:cc:3f:5c:d1:5b:87:8e:58:5e:35:12:
         10:60:e1:1b:69:fd:50:21:fc:29:00:01:3b:b0:64:43:eb:62:
         02:56:e9:26:37:28:70:52:18:43:b9:49:e3:6e:bb:d6:3b:f5:
         9c:2c:d7:e9:ab:d4:a9:1a:e7:af:35:a4:d6:d9:be:60:eb:80:
         8d:bc:b8:63:5a:44:0b:0f:6a:5b:b4:04:5a:24:cd:0e:c3:b7:
         45:03:fd:62:d1:0d:b8:d1:2c:76:67:a8:00:22:20:55:29:d2:
         77:4f:36:af:81:60:24:22:8d:de:e4:b8:e4:e3:d0:44:52:39:
         fa:33:98:b7
-----BEGIN CERTIFICATE-----
MIIDMTCCAhmgAwIBAgIBBzANBgkqhkiG9w0BAQsFADBxMQswCQYDVQQGEwJVUzET
MBEGA1UECAwKQ2FsaWZvcm5pYTEUMBIGA1UEBwwLU2FudGEgQ2xhcmExDTALBgNV
BAoMBHBrZzUxEDAOBgNVBAMMB2NoNV90YTExFjAUBgkqhkiG9w0BCQEWB2NoNV90
YTEwHhcNMTYwMTIyMDE1NzU0WhcNMTgxMDE4MDE1NzU0WjB5MQswCQYDVQQGEwJV
UzETMBEGA1UECAwKQ2FsaWZvcm5pYTEUMBIGA1UEBwwLU2FudGEgQ2xhcmExDTAL
BgNVBAoMBHBrZzUxFDASBgNVBAMMC2NzMl9jaDVfdGExMRowGAYJKoZIhvcNAQkB
FgtjczJfY2g1X3RhMTCBnzANBgkqhkiG9w0BAQEFAAOBjQAwgYkCgYEA09SCC5uv
8CNrtK3K2LFWGRbZSWf35czB1GhqdTD1PwICMT9l2sP0ifHXuBc50F+DoQgHv2FC
lubIpwboIsths3OHbcbwthwS93vSTy8lA+8nUMIVuVw2wkOAdJXGvpw+g3IR12oc
6nEyuBPSdTyb3/hZXB6myFGLh+fHOw7RZRUCAwEAAaNQME4wDAYDVR0TAQH/BAIw
ADA+BgNVHR8ENzA1MDOgMaAvhi1odHRwOi8vbG9jYWxob3N0OjEyMDAxL2ZpbGUv
MC9jaDVfdGExX2NybC5wZW0wDQYJKoZIhvcNAQELBQADggEBAFj7x7kxJ3qswA2C
EW/Zj3wPkLYrE7t3UpVFYVEHAjLGARkVR0NgmehJGxDj7tNPRUqGLnRTywG7fr98
8raj17BcPFb86gGuKHo8aAGxEN6vCHYcRnhiQERfJRfE+ax71yHqhvmxDBuXG/6b
ErN1UJXKj8QHoBOg9bV+AAVDXXLlqleASbfMP1zRW4eOWF41EhBg4Rtp/VAh/CkA
ATuwZEPrYgJW6SY3KHBSGEO5SeNuu9Y79Zws1+mr1Kka5681pNbZvmDrgI28uGNa
RAsPalu0BFokzQ7Dt0UD/WLRDbjRLHZnqAAiIFUp0ndPNq+BYCQijd7kuOTj0ERS
OfozmLc=
-----END CERTIFICATE-----
