Certificate:
    Data:
        Version: 3 (0x2)
        Serial Number: 7 (0x7)
    Signature Algorithm: sha256WithRSAEncryption
        Issuer: C=US, ST=California, L=Santa Clara, O=pkg5, CN=ch5_ta1/emailAddress=ch5_ta1
        Validity
            Not Before: Sep 22 05:33:16 2021 GMT
            Not After : Jun 18 05:33:16 2024 GMT
        Subject: C=US, ST=California, L=Santa Clara, O=pkg5, CN=cs2_ch5_ta1/emailAddress=cs2_ch5_ta1
        Subject Public Key Info:
            Public Key Algorithm: rsaEncryption
                Public-Key: (1024 bit)
                Modulus:
                    00:b4:af:d6:95:b2:68:68:6f:e4:57:5d:f9:60:77:
                    38:35:e1:8a:e8:67:fc:0a:f9:e9:01:c5:28:34:fc:
                    20:a0:f9:88:56:71:14:f0:1f:ec:52:6e:0d:c1:d3:
                    62:6b:4e:74:8d:76:2e:0a:d8:15:df:8d:42:b6:c3:
                    12:3e:f6:1e:3d:8e:01:a9:49:12:3a:89:66:99:06:
                    4c:ef:4d:72:54:a4:4f:b1:18:bc:9d:d1:c6:80:9f:
                    ca:69:ba:e9:2e:38:80:d1:91:c6:aa:9d:9f:57:d2:
                    de:e9:0a:4d:11:23:3c:11:41:49:a0:a2:7d:97:4a:
                    fd:c4:7d:72:16:4a:f3:65:e1
                Exponent: 65537 (0x10001)
        X509v3 extensions:
            X509v3 Basic Constraints: critical
                CA:FALSE
            X509v3 CRL Distribution Points: 

                Full Name:
                  URI:http://localhost:12001/file/0/ch5_ta1_crl.pem

    Signature Algorithm: sha256WithRSAEncryption
         a1:e8:69:ee:db:85:c2:89:97:59:4c:e4:95:5b:1a:2c:18:25:
         81:4d:48:61:4f:16:0f:2e:ad:90:93:d0:86:c0:1b:b3:b2:60:
         ca:51:06:df:6b:a8:fe:fd:37:5f:33:78:69:c0:1b:df:9a:15:
         c3:3d:d3:5f:41:f2:0f:ab:78:3b:77:b3:ca:62:90:c5:fb:0c:
         d1:41:2d:d5:d5:97:66:2c:2c:08:27:45:28:71:bd:3f:f9:97:
         4a:fb:85:60:94:a6:db:dd:09:ef:f3:c9:c5:7a:e1:dc:0d:c5:
         1b:6a:12:a7:27:41:ac:5b:18:51:68:57:18:73:5e:80:83:e3:
         62:df:c1:d0:5a:6e:0b:aa:60:ed:d3:44:8d:43:51:a6:6d:99:
         30:23:51:19:57:76:58:1e:71:0f:c2:1a:51:21:05:79:5a:40:
         51:b0:81:30:38:31:f4:a1:8a:e4:2a:09:c3:cf:74:23:a8:22:
         68:7e:8b:11:11:45:03:20:57:a7:81:af:81:01:43:57:fc:75:
         31:af:f2:21:98:0f:4b:50:51:86:bc:18:c4:c5:37:9a:59:d2:
         ce:e9:a5:8a:d5:23:37:49:df:4a:18:7f:f6:69:df:81:51:45:
         ac:65:eb:cf:9f:dc:dc:5a:ce:a7:bc:80:60:60:7f:ba:c2:7c:
         b8:57:98:63
-----BEGIN CERTIFICATE-----
MIIDMTCCAhmgAwIBAgIBBzANBgkqhkiG9w0BAQsFADBxMQswCQYDVQQGEwJVUzET
MBEGA1UECAwKQ2FsaWZvcm5pYTEUMBIGA1UEBwwLU2FudGEgQ2xhcmExDTALBgNV
BAoMBHBrZzUxEDAOBgNVBAMMB2NoNV90YTExFjAUBgkqhkiG9w0BCQEWB2NoNV90
YTEwHhcNMjEwOTIyMDUzMzE2WhcNMjQwNjE4MDUzMzE2WjB5MQswCQYDVQQGEwJV
UzETMBEGA1UECAwKQ2FsaWZvcm5pYTEUMBIGA1UEBwwLU2FudGEgQ2xhcmExDTAL
BgNVBAoMBHBrZzUxFDASBgNVBAMMC2NzMl9jaDVfdGExMRowGAYJKoZIhvcNAQkB
FgtjczJfY2g1X3RhMTCBnzANBgkqhkiG9w0BAQEFAAOBjQAwgYkCgYEAtK/WlbJo
aG/kV135YHc4NeGK6Gf8CvnpAcUoNPwgoPmIVnEU8B/sUm4NwdNia050jXYuCtgV
341CtsMSPvYePY4BqUkSOolmmQZM701yVKRPsRi8ndHGgJ/KabrpLjiA0ZHGqp2f
V9Le6QpNESM8EUFJoKJ9l0r9xH1yFkrzZeECAwEAAaNQME4wDAYDVR0TAQH/BAIw
ADA+BgNVHR8ENzA1MDOgMaAvhi1odHRwOi8vbG9jYWxob3N0OjEyMDAxL2ZpbGUv
MC9jaDVfdGExX2NybC5wZW0wDQYJKoZIhvcNAQELBQADggEBAKHoae7bhcKJl1lM
5JVbGiwYJYFNSGFPFg8urZCT0IbAG7OyYMpRBt9rqP79N18zeGnAG9+aFcM9019B
8g+reDt3s8pikMX7DNFBLdXVl2YsLAgnRShxvT/5l0r7hWCUptvdCe/zycV64dwN
xRtqEqcnQaxbGFFoVxhzXoCD42LfwdBabguqYO3TRI1DUaZtmTAjURlXdlgecQ/C
GlEhBXlaQFGwgTA4MfShiuQqCcPPdCOoImh+ixERRQMgV6eBr4EBQ1f8dTGv8iGY
D0tQUYa8GMTFN5pZ0s7ppYrVIzdJ30oYf/Zp34FRRaxl68+f3Nxazqe8gGBgf7rC
fLhXmGM=
-----END CERTIFICATE-----
