Certificate:
    Data:
        Version: 3 (0x2)
        Serial Number: 7 (0x7)
    Signature Algorithm: sha256WithRSAEncryption
        Issuer: C=US, ST=California, L=Santa Clara, O=pkg5, CN=ch5_ta1/emailAddress=ch5_ta1
        Validity
            Not Before: Dec 13 00:13:34 2013 GMT
            Not After : Sep  8 00:13:34 2016 GMT
        Subject: C=US, ST=California, L=Santa Clara, O=pkg5, CN=cs2_ch5_ta1/emailAddress=cs2_ch5_ta1
        Subject Public Key Info:
            Public Key Algorithm: rsaEncryption
                Public-Key: (1024 bit)
                Modulus:
                    00:cc:51:a3:86:48:a6:81:11:01:ba:be:40:6d:dc:
                    f7:b6:0a:f8:9a:11:71:ea:09:42:3a:ed:ee:4e:0f:
                    87:10:99:6f:c8:ef:41:bd:f6:d0:17:a7:db:7b:fe:
                    51:dd:de:3a:f2:3b:d7:de:7d:96:71:4e:7f:4e:d0:
                    cf:dd:3b:d8:6b:ce:ca:83:3a:7d:6e:65:cd:b5:fb:
                    4b:32:9a:e6:20:f8:ed:8e:4c:99:f4:02:de:c5:d4:
                    3b:6e:35:a8:3c:b4:9f:3f:5e:3b:85:33:4a:4d:b3:
                    35:a3:d0:76:78:74:d2:72:99:9e:c1:69:1f:d1:8f:
                    2a:11:eb:35:32:7b:ba:8f:99
                Exponent: 65537 (0x10001)
        X509v3 extensions:
            X509v3 Basic Constraints: critical
                CA:FALSE
            X509v3 CRL Distribution Points: 

                Full Name:
                  URI:http://localhost:12001/file/0/ch5_ta1_crl.pem

    Signature Algorithm: sha256WithRSAEncryption
         2c:76:2d:19:cd:d6:f0:88:16:6c:99:6c:19:1b:5e:d3:ca:b1:
         6d:3c:f1:5b:2c:3b:52:cd:7f:f5:1b:4f:e0:49:9e:48:5c:5e:
         16:55:57:a3:0d:c6:eb:f5:a7:13:8d:57:c4:ff:df:3d:66:00:
         a3:b9:18:c3:19:5c:ba:1c:ae:83:bd:90:a6:c8:6e:5a:c6:b5:
         51:b5:33:69:59:7a:5a:00:24:61:02:41:c5:c2:ff:cc:12:a1:
         d7:d4:d5:29:b9:22:94:e0:5c:5c:29:ec:82:ba:ff:1a:40:50:
         88:58:98:a8:b3:2b:86:3c:a2:21:8b:b4:b2:fc:3a:b0:c7:f1:
         03:e8
-----BEGIN CERTIFICATE-----
MIICsDCCAhmgAwIBAgIBBzANBgkqhkiG9w0BAQsFADBxMQswCQYDVQQGEwJVUzET
MBEGA1UECAwKQ2FsaWZvcm5pYTEUMBIGA1UEBwwLU2FudGEgQ2xhcmExDTALBgNV
BAoMBHBrZzUxEDAOBgNVBAMMB2NoNV90YTExFjAUBgkqhkiG9w0BCQEWB2NoNV90
YTEwHhcNMTMxMjEzMDAxMzM0WhcNMTYwOTA4MDAxMzM0WjB5MQswCQYDVQQGEwJV
UzETMBEGA1UECAwKQ2FsaWZvcm5pYTEUMBIGA1UEBwwLU2FudGEgQ2xhcmExDTAL
BgNVBAoMBHBrZzUxFDASBgNVBAMMC2NzMl9jaDVfdGExMRowGAYJKoZIhvcNAQkB
FgtjczJfY2g1X3RhMTCBnzANBgkqhkiG9w0BAQEFAAOBjQAwgYkCgYEAzFGjhkim
gREBur5Abdz3tgr4mhFx6glCOu3uTg+HEJlvyO9BvfbQF6fbe/5R3d468jvX3n2W
cU5/TtDP3TvYa87Kgzp9bmXNtftLMprmIPjtjkyZ9ALexdQ7bjWoPLSfP147hTNK
TbM1o9B2eHTScpmewWkf0Y8qEes1Mnu6j5kCAwEAAaNQME4wDAYDVR0TAQH/BAIw
ADA+BgNVHR8ENzA1MDOgMaAvhi1odHRwOi8vbG9jYWxob3N0OjEyMDAxL2ZpbGUv
MC9jaDVfdGExX2NybC5wZW0wDQYJKoZIhvcNAQELBQADgYEALHYtGc3W8IgWbJls
GRte08qxbTzxWyw7Us1/9RtP4EmeSFxeFlVXow3G6/WnE41XxP/fPWYAo7kYwxlc
uhyug72QpshuWsa1UbUzaVl6WgAkYQJBxcL/zBKh19TVKbkilOBcXCnsgrr/GkBQ
iFiYqLMrhjyiIYu0svw6sMfxA+g=
-----END CERTIFICATE-----
