Certificate:
    Data:
        Version: 3 (0x2)
        Serial Number: 7 (0x7)
    Signature Algorithm: sha256WithRSAEncryption
        Issuer: C=US, ST=California, L=Santa Clara, O=pkg5, CN=ch5_ta1/emailAddress=ch5_ta1
        Validity
            Not Before: Jan 22 15:33:07 2019 GMT
            Not After : Oct 18 15:33:07 2021 GMT
        Subject: C=US, ST=California, L=Santa Clara, O=pkg5, CN=cs2_ch5_ta1/emailAddress=cs2_ch5_ta1
        Subject Public Key Info:
            Public Key Algorithm: rsaEncryption
                Public-Key: (1024 bit)
                Modulus:
                    00:db:eb:f8:75:ed:7e:3b:33:c4:e1:4e:53:7f:cb:
                    04:e9:4d:85:04:28:04:55:e9:a7:2c:fa:d7:f9:f9:
                    15:3c:ce:ae:50:8a:29:17:98:11:e9:a6:96:41:4f:
                    fc:bd:95:28:1f:59:cc:c7:6e:a1:98:74:1e:61:75:
                    b7:7b:74:88:8b:c9:38:dc:b4:f9:5d:66:5d:15:9b:
                    8b:d1:79:71:d6:b1:67:6b:35:a6:76:82:08:be:ec:
                    c0:6b:3e:41:8d:03:6c:1c:2e:4b:44:94:09:ee:29:
                    5b:8f:03:4a:ac:10:6b:c0:5b:2f:fa:85:28:d1:75:
                    6e:2f:8b:f8:3d:a2:7c:70:95
                Exponent: 65537 (0x10001)
        X509v3 extensions:
            X509v3 Basic Constraints: critical
                CA:FALSE
            X509v3 CRL Distribution Points: 

                Full Name:
                  URI:http://localhost:12001/file/0/ch5_ta1_crl.pem

    Signature Algorithm: sha256WithRSAEncryption
         65:c9:4b:0b:65:f6:82:1a:a9:6f:86:7c:c2:21:f8:99:e0:72:
         f1:f4:09:a4:b6:06:43:91:98:cf:db:ea:fb:bd:5f:88:20:af:
         69:1e:44:42:08:62:4b:70:a2:8b:d8:db:f5:58:c9:d5:5b:a1:
         01:4a:b0:80:79:c6:03:8d:91:4b:16:92:ba:97:92:49:fe:9b:
         48:2a:e0:5b:8d:b4:87:f3:e5:a2:1f:14:a7:ef:ac:da:0c:a6:
         79:c3:7b:0e:29:e8:44:89:e0:ac:f4:d9:95:cf:ca:31:c2:76:
         d5:8b:37:c6:a9:bc:9a:62:e3:9f:46:93:45:8d:98:a5:ea:71:
         69:c4:a4:b4:43:c6:35:69:36:62:75:39:e2:df:7f:a2:b8:23:
         17:62:a7:1c:b3:16:4f:67:d5:f2:7a:b1:3f:f5:68:d9:8d:e1:
         45:88:32:ad:77:5a:20:ee:38:26:f3:d8:46:62:11:0c:72:1c:
         48:06:65:ef:f6:96:01:d8:92:13:bf:b8:c4:81:ac:8b:c1:08:
         88:09:ff:23:1a:07:a1:41:ef:36:25:f1:39:56:1d:4b:e8:e2:
         95:5f:48:67:20:7b:e6:b4:82:d1:00:46:d8:62:93:fa:dc:4a:
         aa:3c:d9:2a:f7:72:ce:dd:72:5d:17:e8:d2:43:1a:fe:90:32:
         bf:a4:ef:de
-----BEGIN CERTIFICATE-----
MIIDMTCCAhmgAwIBAgIBBzANBgkqhkiG9w0BAQsFADBxMQswCQYDVQQGEwJVUzET
MBEGA1UECAwKQ2FsaWZvcm5pYTEUMBIGA1UEBwwLU2FudGEgQ2xhcmExDTALBgNV
BAoMBHBrZzUxEDAOBgNVBAMMB2NoNV90YTExFjAUBgkqhkiG9w0BCQEWB2NoNV90
YTEwHhcNMTkwMTIyMTUzMzA3WhcNMjExMDE4MTUzMzA3WjB5MQswCQYDVQQGEwJV
UzETMBEGA1UECAwKQ2FsaWZvcm5pYTEUMBIGA1UEBwwLU2FudGEgQ2xhcmExDTAL
BgNVBAoMBHBrZzUxFDASBgNVBAMMC2NzMl9jaDVfdGExMRowGAYJKoZIhvcNAQkB
FgtjczJfY2g1X3RhMTCBnzANBgkqhkiG9w0BAQEFAAOBjQAwgYkCgYEA2+v4de1+
OzPE4U5Tf8sE6U2FBCgEVemnLPrX+fkVPM6uUIopF5gR6aaWQU/8vZUoH1nMx26h
mHQeYXW3e3SIi8k43LT5XWZdFZuL0Xlx1rFnazWmdoIIvuzAaz5BjQNsHC5LRJQJ
7ilbjwNKrBBrwFsv+oUo0XVuL4v4PaJ8cJUCAwEAAaNQME4wDAYDVR0TAQH/BAIw
ADA+BgNVHR8ENzA1MDOgMaAvhi1odHRwOi8vbG9jYWxob3N0OjEyMDAxL2ZpbGUv
MC9jaDVfdGExX2NybC5wZW0wDQYJKoZIhvcNAQELBQADggEBAGXJSwtl9oIaqW+G
fMIh+JngcvH0CaS2BkORmM/b6vu9X4ggr2keREIIYktwoovY2/VYydVboQFKsIB5
xgONkUsWkrqXkkn+m0gq4FuNtIfz5aIfFKfvrNoMpnnDew4p6ESJ4Kz02ZXPyjHC
dtWLN8apvJpi459Gk0WNmKXqcWnEpLRDxjVpNmJ1OeLff6K4IxdipxyzFk9n1fJ6
sT/1aNmN4UWIMq13WiDuOCbz2EZiEQxyHEgGZe/2lgHYkhO/uMSBrIvBCIgJ/yMa
B6FB7zYl8TlWHUvo4pVfSGcge+a0gtEARthik/rcSqo82Sr3cs7dcl0X6NJDGv6Q
Mr+k794=
-----END CERTIFICATE-----
