Certificate:
    Data:
        Version: 3 (0x2)
        Serial Number: 8 (0x8)
        Signature Algorithm: sha256WithRSAEncryption
        Issuer: C=US, ST=California, L=Menlo Park, O=pkg5, CN=ch2_pubCA1/emailAddress=ch2_pubCA1
        Validity
            Not Before: Jan 28 02:54:11 2011 GMT
            Not After : Oct 24 02:54:11 2013 GMT
        Subject: C=US, ST=California, L=Menlo Park, O=pkg5, CN=cs3_pubCA1/emailAddress=cs3_pubCA1
        Subject Public Key Info:
            Public Key Algorithm: rsaEncryption
            RSA Public Key: (1024 bit)
                Modulus (1024 bit):
                    00:da:26:a1:68:66:ec:6f:7f:7c:94:94:0f:74:17:
                    52:0e:41:86:ae:43:40:f1:ea:c0:af:e8:51:03:96:
                    82:4e:35:d4:44:a0:0d:0d:67:2b:44:bf:81:5c:87:
                    9a:62:42:59:0e:97:81:75:35:6e:18:67:7e:95:41:
                    47:5c:51:f6:5a:27:dc:b9:2a:2a:ea:5b:6c:b9:59:
                    78:7c:fb:ff:59:67:5d:35:8b:b7:90:71:29:68:80:
                    c8:b0:ad:37:60:96:21:34:79:25:41:20:f8:40:e4:
                    32:90:c0:16:81:c3:b3:47:9f:02:bb:15:7d:32:6d:
                    5d:75:04:45:cf:23:b5:8e:95
                Exponent: 65537 (0x10001)
        X509v3 extensions:
            X509v3 Basic Constraints: critical
                CA:FALSE
            X509v3 CRL Distribution Points: 
                URI:http://localhost:12001/file/0/ch1_pubCA1_crl.pem

    Signature Algorithm: sha256WithRSAEncryption
        dd:86:89:f4:bb:73:30:c8:1d:74:90:de:cc:b0:7b:a5:0c:30:
        02:d1:b9:f1:65:c0:f7:2b:cb:60:3b:87:73:ad:dd:0c:fe:d7:
        7f:93:8f:63:ce:fd:de:30:06:30:1d:b4:40:65:86:a8:19:da:
        d6:ac:2f:bb:65:49:51:38:6b:44:fb:69:5e:03:e6:c3:80:86:
        fd:46:4d:c1:4d:c9:7b:85:92:b9:9b:75:72:43:94:75:73:73:
        06:45:33:3a:5b:16:d0:c3:26:58:39:9c:e6:bf:df:48:b8:72:
        c3:8a:d3:10:cc:9c:c4:91:e9:85:b6:5e:5d:88:f0:94:df:20:
        9f:33
-----BEGIN CERTIFICATE-----
MIICtTCCAh6gAwIBAgIBCDANBgkqhkiG9w0BAQsFADB2MQswCQYDVQQGEwJVUzET
MBEGA1UECBMKQ2FsaWZvcm5pYTETMBEGA1UEBxMKTWVubG8gUGFyazENMAsGA1UE
ChMEcGtnNTETMBEGA1UEAxQKY2gyX3B1YkNBMTEZMBcGCSqGSIb3DQEJARYKY2gy
X3B1YkNBMTAeFw0xMTAxMjgwMjU0MTFaFw0xMzEwMjQwMjU0MTFaMHYxCzAJBgNV
BAYTAlVTMRMwEQYDVQQIEwpDYWxpZm9ybmlhMRMwEQYDVQQHEwpNZW5sbyBQYXJr
MQ0wCwYDVQQKEwRwa2c1MRMwEQYDVQQDFApjczNfcHViQ0ExMRkwFwYJKoZIhvcN
AQkBFgpjczNfcHViQ0ExMIGfMA0GCSqGSIb3DQEBAQUAA4GNADCBiQKBgQDaJqFo
Zuxvf3yUlA90F1IOQYauQ0Dx6sCv6FEDloJONdREoA0NZytEv4Fch5piQlkOl4F1
NW4YZ36VQUdcUfZaJ9y5KirqW2y5WXh8+/9ZZ101i7eQcSlogMiwrTdgliE0eSVB
IPhA5DKQwBaBw7NHnwK7FX0ybV11BEXPI7WOlQIDAQABo1MwUTAMBgNVHRMBAf8E
AjAAMEEGA1UdHwQ6MDgwNqA0oDKGMGh0dHA6Ly9sb2NhbGhvc3Q6MTIwMDEvZmls
ZS8wL2NoMV9wdWJDQTFfY3JsLnBlbTANBgkqhkiG9w0BAQsFAAOBgQDdhon0u3Mw
yB10kN7MsHulDDAC0bnxZcD3K8tgO4dzrd0M/td/k49jzv3eMAYwHbRAZYaoGdrW
rC+7ZUlROGtE+2leA+bDgIb9Rk3BTcl7hZK5m3VyQ5R1c3MGRTM6WxbQwyZYOZzm
v99IuHLDitMQzJzEkemFtl5diPCU3yCfMw==
-----END CERTIFICATE-----
