Certificate:
    Data:
        Version: 3 (0x2)
        Serial Number: 9 (0x9)
    Signature Algorithm: sha256WithRSAEncryption
        Issuer: C=US, ST=California, L=Santa Clara, O=pkg5, CN=ch5.1_ta1/emailAddress=ch5.1_ta1
        Validity
            Not Before: Dec 13 00:13:34 2013 GMT
            Not After : Sep  8 00:13:34 2016 GMT
        Subject: C=US, ST=California, L=Santa Clara, O=pkg5, CN=cs1_ch5.1_ta1/emailAddress=cs1_ch5.1_ta1
        Subject Public Key Info:
            Public Key Algorithm: rsaEncryption
                Public-Key: (1024 bit)
                Modulus:
                    00:d5:b5:6f:9a:de:79:48:1e:9e:7c:61:b5:05:3f:
                    f1:ef:a2:74:ac:83:92:f7:fa:6f:bc:ea:bf:7d:ac:
                    d8:c9:ef:a3:50:01:2c:db:17:7c:68:6c:34:04:77:
                    89:f6:77:db:63:08:2b:e7:59:6a:7a:d9:13:ef:d0:
                    b1:1c:13:e0:3a:ee:0f:b6:e9:74:98:ce:30:25:dd:
                    57:05:ed:55:f8:d2:5e:7a:c9:37:9d:29:87:a4:c8:
                    55:f2:e7:a4:d8:cf:19:ee:af:d9:0d:35:e7:67:ae:
                    87:70:f6:d2:98:1d:62:c6:aa:b6:ed:d0:50:77:79:
                    ad:2e:5f:ef:a7:22:81:b3:2f
                Exponent: 65537 (0x10001)
        X509v3 extensions:
            X509v3 Basic Constraints: critical
                CA:FALSE
            X509v3 Key Usage: critical
                Digital Signature
    Signature Algorithm: sha256WithRSAEncryption
         75:2d:87:c6:b6:d7:5c:e7:bd:77:6f:d7:63:e4:f4:04:d1:df:
         37:6f:80:99:9d:fe:b3:81:30:b4:1d:0b:3b:c7:f6:6c:15:a5:
         ad:c2:2e:dc:5a:87:88:e0:b0:c9:81:99:33:c3:6a:f1:8d:4b:
         8f:8c:cd:99:d4:ff:86:fe:3e:6e:b1:00:f0:15:16:d7:01:16:
         13:8e:0e:31:35:ca:00:3c:88:7e:ca:8f:e3:32:6e:74:02:35:
         66:3a:db:c8:83:37:b7:8c:7b:ba:bf:0d:aa:b8:d4:d8:28:03:
         f5:f7:6f:c9:aa:d0:3c:03:cf:3d:da:aa:ae:1a:04:c6:7e:58:
         ff:fe
-----BEGIN CERTIFICATE-----
MIICiDCCAfGgAwIBAgIBCTANBgkqhkiG9w0BAQsFADB1MQswCQYDVQQGEwJVUzET
MBEGA1UECAwKQ2FsaWZvcm5pYTEUMBIGA1UEBwwLU2FudGEgQ2xhcmExDTALBgNV
BAoMBHBrZzUxEjAQBgNVBAMMCWNoNS4xX3RhMTEYMBYGCSqGSIb3DQEJARYJY2g1
LjFfdGExMB4XDTEzMTIxMzAwMTMzNFoXDTE2MDkwODAwMTMzNFowfTELMAkGA1UE
BhMCVVMxEzARBgNVBAgMCkNhbGlmb3JuaWExFDASBgNVBAcMC1NhbnRhIENsYXJh
MQ0wCwYDVQQKDARwa2c1MRYwFAYDVQQDDA1jczFfY2g1LjFfdGExMRwwGgYJKoZI
hvcNAQkBFg1jczFfY2g1LjFfdGExMIGfMA0GCSqGSIb3DQEBAQUAA4GNADCBiQKB
gQDVtW+a3nlIHp58YbUFP/HvonSsg5L3+m+86r99rNjJ76NQASzbF3xobDQEd4n2
d9tjCCvnWWp62RPv0LEcE+A67g+26XSYzjAl3VcF7VX40l56yTedKYekyFXy56TY
zxnur9kNNednrodw9tKYHWLGqrbt0FB3ea0uX++nIoGzLwIDAQABoyAwHjAMBgNV
HRMBAf8EAjAAMA4GA1UdDwEB/wQEAwIHgDANBgkqhkiG9w0BAQsFAAOBgQB1LYfG
ttdc5713b9dj5PQE0d83b4CZnf6zgTC0HQs7x/ZsFaWtwi7cWoeI4LDJgZkzw2rx
jUuPjM2Z1P+G/j5usQDwFRbXARYTjg4xNcoAPIh+yo/jMm50AjVmOtvIgze3jHu6
vw2quNTYKAP192/JqtA8A8892qquGgTGflj//g==
-----END CERTIFICATE-----
