Certificate:
    Data:
        Version: 3 (0x2)
        Serial Number: 9 (0x9)
    Signature Algorithm: sha256WithRSAEncryption
        Issuer: C=US, ST=California, L=Santa Clara, O=pkg5, CN=ch5.1_ta1/emailAddress=ch5.1_ta1
        Validity
            Not Before: Sep 22 05:33:17 2021 GMT
            Not After : Jun 18 05:33:17 2024 GMT
        Subject: C=US, ST=California, L=Santa Clara, O=pkg5, CN=cs1_ch5.1_ta1/emailAddress=cs1_ch5.1_ta1
        Subject Public Key Info:
            Public Key Algorithm: rsaEncryption
                Public-Key: (1024 bit)
                Modulus:
                    00:e5:11:c5:dd:00:98:1b:29:8e:9e:20:c4:05:64:
                    7f:5d:17:f4:a5:3f:f9:86:7f:65:27:71:8b:7c:48:
                    6b:39:51:f9:86:60:af:cb:64:f2:d9:f5:a5:55:06:
                    4f:53:70:b6:0e:49:ff:e1:eb:e1:af:18:b4:6e:85:
                    31:db:15:be:c3:07:5b:e3:ee:c3:a2:da:2b:c1:28:
                    58:9e:70:e9:dd:1e:ab:6b:cc:0f:ff:a7:b3:af:c6:
                    fd:53:29:cb:eb:5d:a0:69:e9:da:6e:9c:1e:92:0d:
                    4c:d3:ec:12:33:34:f3:bb:ce:91:ce:39:bf:53:c7:
                    7e:f4:c0:5e:f5:61:89:a8:55
                Exponent: 65537 (0x10001)
        X509v3 extensions:
            X509v3 Basic Constraints: critical
                CA:FALSE
            X509v3 Key Usage: critical
                Digital Signature
    Signature Algorithm: sha256WithRSAEncryption
         ad:1b:ad:f0:2a:e2:56:b3:f3:e5:2c:3f:84:9d:ab:f4:c9:21:
         bc:bc:39:50:2f:6a:96:2c:ae:00:4a:33:0f:c7:34:76:47:a0:
         f1:2f:89:63:38:ee:fd:7c:0a:95:9f:4e:2a:84:a7:8a:6a:6b:
         11:9b:db:71:e9:28:51:52:76:b6:98:cb:0d:81:68:bd:ac:53:
         45:1f:f0:b8:b4:ab:4b:13:3f:fb:d2:cb:c1:5c:31:77:e4:f6:
         0f:63:25:04:36:8f:7f:18:ae:fe:e6:da:30:43:27:b9:9e:d4:
         04:e9:0b:f4:bf:30:a4:d6:bf:86:7e:06:4b:cf:07:21:9e:33:
         5e:21:50:0f:10:f6:b5:6a:b5:a4:4a:e0:f2:fa:ba:94:a7:bb:
         3e:c2:4c:64:24:4f:d5:fe:03:f1:9c:76:de:73:0f:09:93:38:
         91:50:e4:63:07:5f:e9:02:39:ef:42:64:97:6e:34:81:28:59:
         7f:7b:a8:66:e5:5c:db:57:b2:32:1c:26:e0:b2:5c:21:ff:dc:
         0f:ef:3d:c4:18:2f:6a:02:47:2a:ed:dd:c0:4b:ff:82:67:89:
         95:8d:30:25:88:42:27:38:38:c9:bb:32:35:20:d4:54:8a:7c:
         e5:e7:1d:05:e5:65:e5:4c:da:f9:25:a7:61:6d:75:f5:4a:ba:
         ce:cf:ea:0e
-----BEGIN CERTIFICATE-----
MIIDCTCCAfGgAwIBAgIBCTANBgkqhkiG9w0BAQsFADB1MQswCQYDVQQGEwJVUzET
MBEGA1UECAwKQ2FsaWZvcm5pYTEUMBIGA1UEBwwLU2FudGEgQ2xhcmExDTALBgNV
BAoMBHBrZzUxEjAQBgNVBAMMCWNoNS4xX3RhMTEYMBYGCSqGSIb3DQEJARYJY2g1
LjFfdGExMB4XDTIxMDkyMjA1MzMxN1oXDTI0MDYxODA1MzMxN1owfTELMAkGA1UE
BhMCVVMxEzARBgNVBAgMCkNhbGlmb3JuaWExFDASBgNVBAcMC1NhbnRhIENsYXJh
MQ0wCwYDVQQKDARwa2c1MRYwFAYDVQQDDA1jczFfY2g1LjFfdGExMRwwGgYJKoZI
hvcNAQkBFg1jczFfY2g1LjFfdGExMIGfMA0GCSqGSIb3DQEBAQUAA4GNADCBiQKB
gQDlEcXdAJgbKY6eIMQFZH9dF/SlP/mGf2UncYt8SGs5UfmGYK/LZPLZ9aVVBk9T
cLYOSf/h6+GvGLRuhTHbFb7DB1vj7sOi2ivBKFiecOndHqtrzA//p7Ovxv1TKcvr
XaBp6dpunB6SDUzT7BIzNPO7zpHOOb9Tx370wF71YYmoVQIDAQABoyAwHjAMBgNV
HRMBAf8EAjAAMA4GA1UdDwEB/wQEAwIHgDANBgkqhkiG9w0BAQsFAAOCAQEArRut
8CriVrPz5Sw/hJ2r9MkhvLw5UC9qliyuAEozD8c0dkeg8S+JYzju/XwKlZ9OKoSn
imprEZvbcekoUVJ2tpjLDYFovaxTRR/wuLSrSxM/+9LLwVwxd+T2D2MlBDaPfxiu
/ubaMEMnuZ7UBOkL9L8wpNa/hn4GS88HIZ4zXiFQDxD2tWq1pErg8vq6lKe7PsJM
ZCRP1f4D8Zx23nMPCZM4kVDkYwdf6QI570Jkl240gShZf3uoZuVc21eyMhwm4LJc
If/cD+89xBgvagJHKu3dwEv/gmeJlY0wJYhCJzg4ybsyNSDUVIp85ecdBeVl5Uza
+SWnYW119Uq6zs/qDg==
-----END CERTIFICATE-----
