Certificate:
    Data:
        Version: 3 (0x2)
        Serial Number: 9 (0x9)
    Signature Algorithm: sha256WithRSAEncryption
        Issuer: C=US, ST=California, L=Santa Clara, O=pkg5, CN=ch5.1_ta1/emailAddress=ch5.1_ta1
        Validity
            Not Before: Jul 19 11:35:44 2023 GMT
            Not After : Apr 14 11:35:44 2026 GMT
        Subject: C=US, ST=California, L=Santa Clara, O=pkg5, CN=cs1_ch5.1_ta1/emailAddress=cs1_ch5.1_ta1
        Subject Public Key Info:
            Public Key Algorithm: rsaEncryption
                Public-Key: (2048 bit)
                Modulus:
                    00:c6:92:1d:90:b7:c2:0d:4a:6c:a2:37:5f:a4:e4:
                    10:cc:4d:02:65:a4:b9:46:27:50:57:bc:a8:7d:5c:
                    c7:fc:33:5f:07:0a:f5:a3:9d:00:5a:cb:b1:36:9a:
                    6a:4e:0a:78:55:4e:15:ba:b0:ca:99:06:36:da:fe:
                    b1:b2:5b:0e:97:a8:8b:ef:29:a1:8b:d2:2b:f7:b6:
                    7c:bc:8f:c8:23:60:43:b5:4a:6e:83:fd:14:25:d0:
                    77:ef:b6:a3:bb:c1:34:2c:5f:d3:0b:ad:46:73:9f:
                    f5:6b:2b:ec:26:67:c3:90:41:be:33:d2:f0:a1:8c:
                    45:6e:8b:90:4c:b7:aa:97:dd:0b:1a:02:2a:ff:0a:
                    36:41:73:1c:01:c8:64:12:99:59:b5:e2:60:aa:96:
                    08:ec:62:e8:4e:13:4f:02:d1:00:79:6e:9f:59:95:
                    48:73:54:84:86:4d:ce:fa:11:9e:29:ac:34:ae:ce:
                    5f:53:60:99:14:82:d9:c2:29:98:89:ee:97:df:eb:
                    c0:f4:ec:3b:b8:6c:78:8f:c2:4c:62:72:c8:49:3b:
                    d1:35:78:09:1e:b1:5e:fb:bf:0b:2d:f2:15:5a:2c:
                    d2:72:3f:12:37:61:33:f6:f7:41:a8:1c:ca:44:69:
                    a5:3d:f8:95:70:8d:f1:c4:5a:0c:d4:9c:65:36:95:
                    41:eb
                Exponent: 65537 (0x10001)
        X509v3 extensions:
            X509v3 Basic Constraints: critical
                CA:FALSE
            X509v3 Key Usage: critical
                Digital Signature
    Signature Algorithm: sha256WithRSAEncryption
         17:69:d9:a5:0c:56:b4:e0:ea:16:d6:13:3c:09:56:f5:29:74:
         3e:96:e5:50:00:31:0d:51:a0:da:a3:6c:57:63:1e:33:ff:e3:
         a6:1f:57:f3:2c:17:04:09:03:02:81:c3:74:70:a3:8c:48:1f:
         0e:2f:a5:55:a1:66:15:04:5f:21:11:a1:fa:32:52:22:3d:29:
         a1:05:27:2c:5c:b7:43:2a:31:a1:4e:25:f7:2d:97:8c:f8:ad:
         88:00:6f:9c:86:34:9f:ad:d4:30:ed:a8:61:7d:5b:e1:25:99:
         13:6c:53:3b:1e:2b:03:bd:38:e8:73:c2:72:98:4b:62:80:ea:
         03:3a:3a:8c:cd:ef:3f:96:7d:4a:5a:b7:8a:14:af:72:c5:a3:
         16:fb:eb:2d:20:6e:a7:51:a1:a7:41:61:8f:84:86:9e:28:70:
         2c:02:c4:cf:03:dd:7c:f5:af:53:48:e5:b1:ae:e5:3a:6d:f9:
         17:e2:2b:24:e7:d7:83:4f:62:90:fc:49:5f:62:da:21:38:da:
         32:72:0d:e2:46:c1:34:ee:b0:98:a0:36:4a:6b:c5:c8:fd:49:
         ef:e2:ee:ff:2b:bb:eb:1b:8d:60:77:d0:71:d9:94:ba:7b:1f:
         36:ab:02:0f:f9:e7:aa:ac:fc:97:21:bb:55:ea:ff:f8:80:9f:
         5f:cb:5d:34
-----BEGIN CERTIFICATE-----
MIIDjTCCAnWgAwIBAgIBCTANBgkqhkiG9w0BAQsFADB1MQswCQYDVQQGEwJVUzET
MBEGA1UECAwKQ2FsaWZvcm5pYTEUMBIGA1UEBwwLU2FudGEgQ2xhcmExDTALBgNV
BAoMBHBrZzUxEjAQBgNVBAMMCWNoNS4xX3RhMTEYMBYGCSqGSIb3DQEJARYJY2g1
LjFfdGExMB4XDTIzMDcxOTExMzU0NFoXDTI2MDQxNDExMzU0NFowfTELMAkGA1UE
BhMCVVMxEzARBgNVBAgMCkNhbGlmb3JuaWExFDASBgNVBAcMC1NhbnRhIENsYXJh
MQ0wCwYDVQQKDARwa2c1MRYwFAYDVQQDDA1jczFfY2g1LjFfdGExMRwwGgYJKoZI
hvcNAQkBFg1jczFfY2g1LjFfdGExMIIBIjANBgkqhkiG9w0BAQEFAAOCAQ8AMIIB
CgKCAQEAxpIdkLfCDUpsojdfpOQQzE0CZaS5RidQV7yofVzH/DNfBwr1o50AWsux
NppqTgp4VU4VurDKmQY22v6xslsOl6iL7ymhi9Ir97Z8vI/II2BDtUpug/0UJdB3
77aju8E0LF/TC61Gc5/1ayvsJmfDkEG+M9LwoYxFbouQTLeql90LGgIq/wo2QXMc
AchkEplZteJgqpYI7GLoThNPAtEAeW6fWZVIc1SEhk3O+hGeKaw0rs5fU2CZFILZ
wimYie6X3+vA9Ow7uGx4j8JMYnLISTvRNXgJHrFe+78LLfIVWizScj8SN2Ez9vdB
qBzKRGmlPfiVcI3xxFoM1JxlNpVB6wIDAQABoyAwHjAMBgNVHRMBAf8EAjAAMA4G
A1UdDwEB/wQEAwIHgDANBgkqhkiG9w0BAQsFAAOCAQEAF2nZpQxWtODqFtYTPAlW
9Sl0PpblUAAxDVGg2qNsV2MeM//jph9X8ywXBAkDAoHDdHCjjEgfDi+lVaFmFQRf
IRGh+jJSIj0poQUnLFy3QyoxoU4l9y2XjPitiABvnIY0n63UMO2oYX1b4SWZE2xT
Ox4rA7046HPCcphLYoDqAzo6jM3vP5Z9Slq3ihSvcsWjFvvrLSBup1Ghp0Fhj4SG
nihwLALEzwPdfPWvU0jlsa7lOm35F+IrJOfXg09ikPxJX2LaITjaMnIN4kbBNO6w
mKA2SmvFyP1J7+Lu/yu76xuNYHfQcdmUunsfNqsCD/nnqqz8lyG7Ver/+ICfX8td
NA==
-----END CERTIFICATE-----
