Certificate:
    Data:
        Version: 3 (0x2)
        Serial Number: 11 (0xb)
        Signature Algorithm: sha256WithRSAEncryption
        Issuer: C=US, ST=California, L=Menlo Park, O=pkg5, CN=ch5.2_ta1/emailAddress=ch5.2_ta1
        Validity
            Not Before: Apr 11 22:37:42 2011 GMT
            Not After : Jan  5 22:37:42 2014 GMT
        Subject: C=US, ST=California, L=Menlo Park, O=pkg5, CN=cs1_ch5.2_ta1/emailAddress=cs1_ch5.2_ta1
        Subject Public Key Info:
            Public Key Algorithm: rsaEncryption
            RSA Public Key: (1024 bit)
                Modulus (1024 bit):
                    00:c8:74:f3:2f:47:e9:02:0e:f4:93:b9:c2:65:ae:
                    74:a2:90:3e:2c:36:bd:86:b1:44:f9:ac:ce:ac:0d:
                    8f:c6:fa:b4:94:62:39:25:63:12:77:4e:4b:26:ca:
                    7b:ad:7e:e2:1c:9a:18:6d:10:cf:6d:82:b6:00:db:
                    57:d6:ca:56:bb:af:bd:72:76:19:5f:18:f3:ce:55:
                    3e:c9:9f:a0:a5:65:6d:01:d4:0b:fe:a0:8e:ba:d2:
                    2d:19:5f:72:93:ab:50:a7:91:ba:3d:e6:d7:5f:07:
                    4a:61:c2:3a:7b:22:77:9e:93:73:16:b9:b8:e4:d6:
                    a4:9f:95:1d:f3:54:69:19:3f
                Exponent: 65537 (0x10001)
        X509v3 extensions:
            X509v3 Basic Constraints: critical
                CA:FALSE
            X509v3 Key Usage: critical
                Digital Signature
    Signature Algorithm: sha256WithRSAEncryption
        13:49:e0:c1:04:5e:6e:af:74:a7:15:5c:2d:b4:0d:26:fb:00:
        ca:f3:ed:0a:87:fb:5f:1a:c9:d4:48:fd:30:96:eb:c2:f4:34:
        af:09:ef:71:ad:1d:d0:dd:5d:53:12:cd:63:7f:09:2a:10:f7:
        12:7d:61:78:29:5b:80:c3:c7:5f:e7:16:af:c4:11:72:1e:45:
        82:0b:67:3b:76:8e:33:f0:d1:3a:b6:ca:5a:e9:8f:33:c9:79:
        b6:7e:ac:b6:ef:c3:36:f8:a0:ae:88:0c:7e:ed:74:f9:44:b2:
        1b:e3:de:36:d4:9e:dd:5b:99:86:b3:7e:13:19:31:6d:6d:ff:
        bf:f7
-----BEGIN CERTIFICATE-----
MIIChjCCAe+gAwIBAgIBCzANBgkqhkiG9w0BAQsFADB0MQswCQYDVQQGEwJVUzET
MBEGA1UECBMKQ2FsaWZvcm5pYTETMBEGA1UEBxMKTWVubG8gUGFyazENMAsGA1UE
ChMEcGtnNTESMBAGA1UEAxQJY2g1LjJfdGExMRgwFgYJKoZIhvcNAQkBFgljaDUu
Ml90YTEwHhcNMTEwNDExMjIzNzQyWhcNMTQwMTA1MjIzNzQyWjB8MQswCQYDVQQG
EwJVUzETMBEGA1UECBMKQ2FsaWZvcm5pYTETMBEGA1UEBxMKTWVubG8gUGFyazEN
MAsGA1UEChMEcGtnNTEWMBQGA1UEAxQNY3MxX2NoNS4yX3RhMTEcMBoGCSqGSIb3
DQEJARYNY3MxX2NoNS4yX3RhMTCBnzANBgkqhkiG9w0BAQEFAAOBjQAwgYkCgYEA
yHTzL0fpAg70k7nCZa50opA+LDa9hrFE+azOrA2Pxvq0lGI5JWMSd05LJsp7rX7i
HJoYbRDPbYK2ANtX1spWu6+9cnYZXxjzzlU+yZ+gpWVtAdQL/qCOutItGV9yk6tQ
p5G6PebXXwdKYcI6eyJ3npNzFrm45Nakn5Ud81RpGT8CAwEAAaMgMB4wDAYDVR0T
AQH/BAIwADAOBgNVHQ8BAf8EBAMCB4AwDQYJKoZIhvcNAQELBQADgYEAE0ngwQRe
bq90pxVcLbQNJvsAyvPtCof7XxrJ1Ej9MJbrwvQ0rwnvca0d0N1dUxLNY38JKhD3
En1heClbgMPHX+cWr8QRch5FggtnO3aOM/DROrbKWumPM8l5tn6stu/DNvigrogM
fu10+USyG+PeNtSe3VuZhrN+ExkxbW3/v/c=
-----END CERTIFICATE-----
