Certificate:
    Data:
        Version: 3 (0x2)
        Serial Number: 11 (0xb)
        Signature Algorithm: sha256WithRSAEncryption
        Issuer: C=US, ST=California, L=Menlo Park, O=pkg5, CN=ta2/emailAddress=ta2
        Validity
            Not Before: Aug  4 20:59:25 2010 GMT
            Not After : Apr 30 20:59:25 2013 GMT
        Subject: C=US, ST=California, L=Menlo Park, O=pkg5, CN=cs1_ta2/emailAddress=cs1_ta2
        Subject Public Key Info:
            Public Key Algorithm: rsaEncryption
            RSA Public Key: (1024 bit)
                Modulus (1024 bit):
                    00:b7:0f:a6:ed:f2:e7:d2:c1:de:09:a9:5b:7d:ba:
                    41:14:76:aa:26:fc:f6:a5:0b:d5:42:a5:e1:f0:5b:
                    2a:15:f0:60:b7:df:06:13:02:06:03:e3:df:31:b9:
                    4f:60:1c:ed:04:55:28:11:bd:8b:7b:9d:98:6a:2c:
                    18:e8:45:85:a5:8b:ce:4c:87:3e:91:46:dd:76:91:
                    ca:d1:0d:36:02:1b:23:18:4c:44:01:a4:8e:30:01:
                    fe:09:a8:46:28:e3:2e:e5:5f:45:66:f9:a5:81:2a:
                    f3:97:0d:c8:ed:22:cf:59:82:4b:cc:c6:eb:14:35:
                    48:48:df:a8:58:a4:3c:80:63
                Exponent: 65537 (0x10001)
        X509v3 extensions:
            X509v3 Basic Constraints: critical
                CA:FALSE
            X509v3 Key Usage: 
                Digital Signature
    Signature Algorithm: sha256WithRSAEncryption
        79:48:fb:8f:11:f5:8b:94:10:b2:09:f5:ee:de:34:e9:61:b7:
        00:53:0b:82:99:dd:34:13:cf:de:73:54:12:af:62:24:a8:9b:
        10:1e:04:f6:39:ac:10:20:80:70:d5:ee:29:40:00:91:ae:e5:
        62:cf:1c:22:19:b2:bf:3a:b5:b1:b1:89:29:d7:c2:50:c6:5c:
        1b:d8:e5:02:f1:c1:a9:f1:bc:b7:6c:37:65:2b:25:18:31:10:
        56:73:b0:71:30:6e:2a:f5:82:31:81:75:81:05:0b:11:5e:ed:
        28:85:0a:cc:17:1e:a0:c8:37:01:a6:75:71:9a:89:89:c9:24:
        1e:5b
-----BEGIN CERTIFICATE-----
MIICazCCAdSgAwIBAgIBCzANBgkqhkiG9w0BAQsFADBoMQswCQYDVQQGEwJVUzET
MBEGA1UECBMKQ2FsaWZvcm5pYTETMBEGA1UEBxMKTWVubG8gUGFyazENMAsGA1UE
ChMEcGtnNTEMMAoGA1UEAxMDdGEyMRIwEAYJKoZIhvcNAQkBFgN0YTIwHhcNMTAw
ODA0MjA1OTI1WhcNMTMwNDMwMjA1OTI1WjBwMQswCQYDVQQGEwJVUzETMBEGA1UE
CBMKQ2FsaWZvcm5pYTETMBEGA1UEBxMKTWVubG8gUGFyazENMAsGA1UEChMEcGtn
NTEQMA4GA1UEAxQHY3MxX3RhMjEWMBQGCSqGSIb3DQEJARYHY3MxX3RhMjCBnzAN
BgkqhkiG9w0BAQEFAAOBjQAwgYkCgYEAtw+m7fLn0sHeCalbfbpBFHaqJvz2pQvV
QqXh8FsqFfBgt98GEwIGA+PfMblPYBztBFUoEb2Le52YaiwY6EWFpYvOTIc+kUbd
dpHK0Q02AhsjGExEAaSOMAH+CahGKOMu5V9FZvmlgSrzlw3I7SLPWYJLzMbrFDVI
SN+oWKQ8gGMCAwEAAaMdMBswDAYDVR0TAQH/BAIwADALBgNVHQ8EBAMCB4AwDQYJ
KoZIhvcNAQELBQADgYEAeUj7jxH1i5QQsgn17t406WG3AFMLgpndNBPP3nNUEq9i
JKibEB4E9jmsECCAcNXuKUAAka7lYs8cIhmyvzq1sbGJKdfCUMZcG9jlAvHBqfG8
t2w3ZSslGDEQVnOwcTBuKvWCMYF1gQULEV7tKIUKzBceoMg3AaZ1cZqJickkHls=
-----END CERTIFICATE-----
