Certificate:
    Data:
        Version: 3 (0x2)
        Serial Number: 11 (0xb)
    Signature Algorithm: sha256WithRSAEncryption
        Issuer: C=US, ST=California, L=Santa Clara, O=pkg5, CN=ch5.2_ta1/emailAddress=ch5.2_ta1
        Validity
            Not Before: Jan 22 15:33:08 2019 GMT
            Not After : Oct 18 15:33:08 2021 GMT
        Subject: C=US, ST=California, L=Santa Clara, O=pkg5, CN=cs1_ch5.2_ta1/emailAddress=cs1_ch5.2_ta1
        Subject Public Key Info:
            Public Key Algorithm: rsaEncryption
                Public-Key: (1024 bit)
                Modulus:
                    00:ba:f7:31:a7:cf:a6:34:e5:97:ba:4f:cd:7e:1c:
                    8d:dd:bd:b8:6a:61:16:21:5e:fa:e4:d4:46:f0:3e:
                    8d:12:be:79:48:97:97:9f:03:22:1d:e0:57:16:52:
                    6c:b9:97:8b:95:c8:31:cb:8b:e2:7e:1f:97:ab:78:
                    47:68:de:90:e5:26:f2:ca:a3:a4:b0:58:44:31:6e:
                    7f:f4:b2:76:03:f8:7b:c9:68:57:4b:14:0c:d2:b7:
                    44:41:35:fe:f7:60:27:00:3a:0b:bb:b4:1b:72:aa:
                    c2:1f:56:0a:3b:75:6a:57:f1:ff:f3:13:e2:6b:42:
                    27:0c:8c:d1:f9:2c:08:a2:0f
                Exponent: 65537 (0x10001)
        X509v3 extensions:
            X509v3 Basic Constraints: critical
                CA:FALSE
            X509v3 Key Usage: critical
                Digital Signature
    Signature Algorithm: sha256WithRSAEncryption
         b7:b8:3c:d4:ed:1f:b7:9d:91:df:46:41:a7:09:13:69:80:ec:
         24:97:7a:93:33:37:0c:21:5d:cd:04:e4:36:a0:7c:99:0a:28:
         3a:a2:41:ae:c6:7b:c9:2b:d7:d2:c2:ba:29:f5:bb:93:73:32:
         a9:a6:31:19:c5:1d:3f:bd:d2:f3:c7:b7:a5:fc:d5:eb:82:f1:
         9e:d7:98:5b:8b:56:88:0e:18:bb:42:b8:0b:97:c9:31:ca:a9:
         48:92:c2:0c:91:34:90:96:3c:8a:d3:5f:ad:5a:8e:95:b1:48:
         f8:28:aa:37:da:25:54:2f:de:06:73:89:dc:ad:6c:4f:01:22:
         85:11:78:97:78:6c:f4:c5:49:bf:a3:7f:d1:78:26:c2:da:ec:
         a9:b1:65:bf:e4:92:48:39:8a:e9:9b:1a:d0:7e:58:c9:7d:1b:
         48:53:6a:97:22:ee:3f:97:eb:fc:85:45:35:3c:f3:12:11:c3:
         5b:b6:3b:ef:6f:65:3a:32:9d:76:8d:a5:c8:b1:a8:a0:d9:be:
         fc:bd:05:37:79:ae:09:6e:8d:81:58:69:61:f9:65:3a:30:9b:
         28:7f:db:ac:63:fc:ed:9d:78:d9:f3:d0:78:e8:75:d5:fb:d6:
         98:1d:62:6b:a4:46:2b:98:70:c5:39:b3:bf:07:f1:68:a9:5e:
         11:0b:4a:cb
-----BEGIN CERTIFICATE-----
MIIDCTCCAfGgAwIBAgIBCzANBgkqhkiG9w0BAQsFADB1MQswCQYDVQQGEwJVUzET
MBEGA1UECAwKQ2FsaWZvcm5pYTEUMBIGA1UEBwwLU2FudGEgQ2xhcmExDTALBgNV
BAoMBHBrZzUxEjAQBgNVBAMMCWNoNS4yX3RhMTEYMBYGCSqGSIb3DQEJARYJY2g1
LjJfdGExMB4XDTE5MDEyMjE1MzMwOFoXDTIxMTAxODE1MzMwOFowfTELMAkGA1UE
BhMCVVMxEzARBgNVBAgMCkNhbGlmb3JuaWExFDASBgNVBAcMC1NhbnRhIENsYXJh
MQ0wCwYDVQQKDARwa2c1MRYwFAYDVQQDDA1jczFfY2g1LjJfdGExMRwwGgYJKoZI
hvcNAQkBFg1jczFfY2g1LjJfdGExMIGfMA0GCSqGSIb3DQEBAQUAA4GNADCBiQKB
gQC69zGnz6Y05Ze6T81+HI3dvbhqYRYhXvrk1EbwPo0SvnlIl5efAyId4FcWUmy5
l4uVyDHLi+J+H5ereEdo3pDlJvLKo6SwWEQxbn/0snYD+HvJaFdLFAzSt0RBNf73
YCcAOgu7tBtyqsIfVgo7dWpX8f/zE+JrQicMjNH5LAiiDwIDAQABoyAwHjAMBgNV
HRMBAf8EAjAAMA4GA1UdDwEB/wQEAwIHgDANBgkqhkiG9w0BAQsFAAOCAQEAt7g8
1O0ft52R30ZBpwkTaYDsJJd6kzM3DCFdzQTkNqB8mQooOqJBrsZ7ySvX0sK6KfW7
k3MyqaYxGcUdP73S88e3pfzV64LxnteYW4tWiA4Yu0K4C5fJMcqpSJLCDJE0kJY8
itNfrVqOlbFI+CiqN9olVC/eBnOJ3K1sTwEihRF4l3hs9MVJv6N/0XgmwtrsqbFl
v+SSSDmK6Zsa0H5YyX0bSFNqlyLuP5fr/IVFNTzzEhHDW7Y7729lOjKddo2lyLGo
oNm+/L0FN3muCW6NgVhpYfllOjCbKH/brGP87Z142fPQeOh11fvWmB1ia6RGK5hw
xTmzvwfxaKleEQtKyw==
-----END CERTIFICATE-----
