Certificate:
    Data:
        Version: 3 (0x2)
        Serial Number: 11 (0xb)
    Signature Algorithm: sha256WithRSAEncryption
        Issuer: C=US, ST=California, L=Santa Clara, O=pkg5, CN=ch5.2_ta1/emailAddress=ch5.2_ta1
        Validity
            Not Before: Jan 22 01:57:55 2016 GMT
            Not After : Oct 18 01:57:55 2018 GMT
        Subject: C=US, ST=California, L=Santa Clara, O=pkg5, CN=cs1_ch5.2_ta1/emailAddress=cs1_ch5.2_ta1
        Subject Public Key Info:
            Public Key Algorithm: rsaEncryption
                Public-Key: (1024 bit)
                Modulus:
                    00:c7:15:71:1b:af:97:bf:7d:72:5c:0a:cb:58:b5:
                    29:e5:72:e2:b4:35:c8:7b:b8:2f:c8:7d:99:de:4c:
                    ce:d0:8b:7d:bc:ac:e9:1e:3e:c7:ea:8d:d1:56:4c:
                    3c:7e:05:d8:8b:8e:d9:57:b2:1e:89:82:a7:e4:45:
                    8c:c6:b8:57:17:32:6a:4a:d1:24:29:6c:fa:66:ff:
                    eb:8b:9e:c5:97:99:8b:bf:d7:de:ec:32:20:9b:59:
                    66:fc:91:88:f9:2e:9f:9a:69:87:e4:3a:91:51:98:
                    ee:55:8a:1d:b3:27:56:85:36:da:2e:a9:13:3f:a5:
                    77:b8:1c:9d:a9:33:af:c5:c9
                Exponent: 65537 (0x10001)
        X509v3 extensions:
            X509v3 Basic Constraints: critical
                CA:FALSE
            X509v3 Key Usage: critical
                Digital Signature
    Signature Algorithm: sha256WithRSAEncryption
         93:39:98:08:42:89:d9:7f:42:79:80:ff:dd:0e:f1:ec:12:f2:
         40:6e:81:87:d9:87:68:1d:f9:78:0e:64:51:86:16:25:4f:2b:
         60:66:d5:3d:74:1e:9c:0e:78:55:9b:ed:3d:23:45:07:49:29:
         b4:09:ef:af:6d:f9:23:d9:8a:e7:9f:23:6c:fb:ae:99:6c:57:
         39:0f:32:7a:1e:12:e4:de:cb:8d:44:f7:4c:89:de:21:81:36:
         77:b2:62:f4:97:60:4d:f8:f2:92:e8:e5:aa:c2:59:31:41:7c:
         da:10:49:98:f0:a0:d6:77:dd:da:59:87:23:14:65:7f:88:85:
         49:4e:47:65:4d:4e:57:41:85:8e:3b:9f:26:61:f4:ad:b2:d7:
         3f:2e:d2:26:73:69:3d:b2:96:68:0b:75:f0:37:92:6b:3b:d9:
         45:85:1b:0e:9d:96:5c:88:00:7f:7c:99:00:f5:df:b1:4d:c0:
         1f:5b:ec:5a:00:9b:e5:55:ba:ec:d0:8d:fd:28:62:d4:67:63:
         2f:9f:ec:06:3e:a9:b9:fd:02:3b:9d:db:19:7f:69:08:b4:fd:
         13:cb:35:89:87:c2:ea:a6:8b:0c:ad:a0:57:6f:bc:91:7d:87:
         38:f3:2a:4c:a9:c1:3f:69:a5:9b:b7:a1:1e:19:8d:c0:fa:c5:
         3d:22:d6:e2
-----BEGIN CERTIFICATE-----
MIIDCTCCAfGgAwIBAgIBCzANBgkqhkiG9w0BAQsFADB1MQswCQYDVQQGEwJVUzET
MBEGA1UECAwKQ2FsaWZvcm5pYTEUMBIGA1UEBwwLU2FudGEgQ2xhcmExDTALBgNV
BAoMBHBrZzUxEjAQBgNVBAMMCWNoNS4yX3RhMTEYMBYGCSqGSIb3DQEJARYJY2g1
LjJfdGExMB4XDTE2MDEyMjAxNTc1NVoXDTE4MTAxODAxNTc1NVowfTELMAkGA1UE
BhMCVVMxEzARBgNVBAgMCkNhbGlmb3JuaWExFDASBgNVBAcMC1NhbnRhIENsYXJh
MQ0wCwYDVQQKDARwa2c1MRYwFAYDVQQDDA1jczFfY2g1LjJfdGExMRwwGgYJKoZI
hvcNAQkBFg1jczFfY2g1LjJfdGExMIGfMA0GCSqGSIb3DQEBAQUAA4GNADCBiQKB
gQDHFXEbr5e/fXJcCstYtSnlcuK0Nch7uC/IfZneTM7Qi328rOkePsfqjdFWTDx+
BdiLjtlXsh6JgqfkRYzGuFcXMmpK0SQpbPpm/+uLnsWXmYu/197sMiCbWWb8kYj5
Lp+aaYfkOpFRmO5Vih2zJ1aFNtouqRM/pXe4HJ2pM6/FyQIDAQABoyAwHjAMBgNV
HRMBAf8EAjAAMA4GA1UdDwEB/wQEAwIHgDANBgkqhkiG9w0BAQsFAAOCAQEAkzmY
CEKJ2X9CeYD/3Q7x7BLyQG6Bh9mHaB35eA5kUYYWJU8rYGbVPXQenA54VZvtPSNF
B0kptAnvr235I9mK558jbPuumWxXOQ8yeh4S5N7LjUT3TIneIYE2d7Ji9JdgTfjy
kujlqsJZMUF82hBJmPCg1nfd2lmHIxRlf4iFSU5HZU1OV0GFjjufJmH0rbLXPy7S
JnNpPbKWaAt18DeSazvZRYUbDp2WXIgAf3yZAPXfsU3AH1vsWgCb5VW67NCN/Shi
1GdjL5/sBj6puf0CO53bGX9pCLT9E8s1iYfC6qaLDK2gV2+8kX2HOPMqTKnBP2ml
m7ehHhmNwPrFPSLW4g==
-----END CERTIFICATE-----
