Certificate:
    Data:
        Version: 3 (0x2)
        Serial Number: 11 (0xb)
    Signature Algorithm: sha256WithRSAEncryption
        Issuer: C=US, ST=California, L=Santa Clara, O=pkg5, CN=ch5.2_ta1/emailAddress=ch5.2_ta1
        Validity
            Not Before: Sep 22 05:33:18 2021 GMT
            Not After : Jun 18 05:33:18 2024 GMT
        Subject: C=US, ST=California, L=Santa Clara, O=pkg5, CN=cs1_ch5.2_ta1/emailAddress=cs1_ch5.2_ta1
        Subject Public Key Info:
            Public Key Algorithm: rsaEncryption
                Public-Key: (1024 bit)
                Modulus:
                    00:b0:39:e0:aa:1b:3d:c3:6d:1b:99:a4:59:4b:92:
                    27:33:48:3b:df:e0:9c:28:83:30:8e:08:db:85:ad:
                    a6:57:ac:fb:82:a6:06:3a:84:6e:d0:be:75:6e:9f:
                    24:f8:49:9f:db:45:3a:e8:25:e5:2f:da:1d:47:88:
                    c1:e2:6e:df:7e:89:83:2e:e9:cc:22:13:9f:14:63:
                    f5:8b:80:65:77:d3:9a:a2:83:4c:3a:fd:c3:6b:a5:
                    f0:35:62:e7:2a:86:84:67:fa:57:b5:7e:9a:24:f5:
                    6f:38:7f:64:21:f5:88:97:25:a0:d9:6a:54:da:93:
                    83:d0:0e:aa:05:dc:d5:a2:39
                Exponent: 65537 (0x10001)
        X509v3 extensions:
            X509v3 Basic Constraints: critical
                CA:FALSE
            X509v3 Key Usage: critical
                Digital Signature
    Signature Algorithm: sha256WithRSAEncryption
         a4:5e:9d:da:a4:82:af:0c:55:be:e0:b0:db:3c:ce:26:b6:86:
         84:f7:58:de:ba:20:9b:a6:9b:7d:97:c4:f1:6d:f6:4b:47:00:
         9e:9d:59:3b:e9:e6:f1:72:9f:5f:f9:d5:9a:b9:c9:a4:2d:d4:
         ce:8c:23:b4:dd:1c:e5:58:c2:85:7a:90:96:d8:48:f1:7c:c1:
         db:be:a1:a4:aa:43:da:da:3b:8a:e8:6b:9b:b3:8e:cc:3c:27:
         4f:79:81:88:bb:a6:68:94:e4:4f:b3:df:7f:5c:a7:7e:5b:6e:
         04:05:75:f1:86:a1:35:8f:cf:4a:54:e5:14:62:3e:1f:0f:ad:
         9b:a2:ce:fa:2a:b7:f1:63:37:31:d1:d9:b5:58:6f:c4:a9:fb:
         0a:a0:c1:7d:1c:8d:f5:c1:53:6a:dd:9f:8c:14:5b:9b:78:84:
         24:86:04:1e:d9:39:ce:ef:f9:44:53:78:f6:f8:ae:51:20:8e:
         61:6c:d8:bb:b3:60:2c:46:6e:e4:89:c5:d4:0a:54:38:3c:04:
         8a:ba:3d:a5:40:b8:b4:f7:2a:33:b7:5c:34:d6:09:42:ca:c8:
         6b:b9:de:44:cc:5e:47:04:d8:be:50:57:fa:0b:27:01:11:ea:
         0e:95:c8:5f:21:1d:da:47:e5:cc:1c:f1:f6:e0:87:78:d3:3f:
         10:99:53:1b
-----BEGIN CERTIFICATE-----
MIIDCTCCAfGgAwIBAgIBCzANBgkqhkiG9w0BAQsFADB1MQswCQYDVQQGEwJVUzET
MBEGA1UECAwKQ2FsaWZvcm5pYTEUMBIGA1UEBwwLU2FudGEgQ2xhcmExDTALBgNV
BAoMBHBrZzUxEjAQBgNVBAMMCWNoNS4yX3RhMTEYMBYGCSqGSIb3DQEJARYJY2g1
LjJfdGExMB4XDTIxMDkyMjA1MzMxOFoXDTI0MDYxODA1MzMxOFowfTELMAkGA1UE
BhMCVVMxEzARBgNVBAgMCkNhbGlmb3JuaWExFDASBgNVBAcMC1NhbnRhIENsYXJh
MQ0wCwYDVQQKDARwa2c1MRYwFAYDVQQDDA1jczFfY2g1LjJfdGExMRwwGgYJKoZI
hvcNAQkBFg1jczFfY2g1LjJfdGExMIGfMA0GCSqGSIb3DQEBAQUAA4GNADCBiQKB
gQCwOeCqGz3DbRuZpFlLkiczSDvf4JwogzCOCNuFraZXrPuCpgY6hG7QvnVunyT4
SZ/bRTroJeUv2h1HiMHibt9+iYMu6cwiE58UY/WLgGV305qig0w6/cNrpfA1Yucq
hoRn+le1fpok9W84f2Qh9YiXJaDZalTak4PQDqoF3NWiOQIDAQABoyAwHjAMBgNV
HRMBAf8EAjAAMA4GA1UdDwEB/wQEAwIHgDANBgkqhkiG9w0BAQsFAAOCAQEApF6d
2qSCrwxVvuCw2zzOJraGhPdY3rogm6abfZfE8W32S0cAnp1ZO+nm8XKfX/nVmrnJ
pC3UzowjtN0c5VjChXqQlthI8XzB276hpKpD2to7iuhrm7OOzDwnT3mBiLumaJTk
T7Pff1ynfltuBAV18YahNY/PSlTlFGI+Hw+tm6LO+iq38WM3MdHZtVhvxKn7CqDB
fRyN9cFTat2fjBRbm3iEJIYEHtk5zu/5RFN49viuUSCOYWzYu7NgLEZu5InF1ApU
ODwEiro9pUC4tPcqM7dcNNYJQsrIa7neRMxeRwTYvlBX+gsnARHqDpXIXyEd2kfl
zBzx9uCHeNM/EJlTGw==
-----END CERTIFICATE-----
