Certificate:
    Data:
        Version: 3 (0x2)
        Serial Number: 11 (0xb)
    Signature Algorithm: sha256WithRSAEncryption
        Issuer: C=US, ST=California, L=Santa Clara, O=pkg5, CN=ch5.2_ta1/emailAddress=ch5.2_ta1
        Validity
            Not Before: Dec 13 00:13:35 2013 GMT
            Not After : Sep  8 00:13:35 2016 GMT
        Subject: C=US, ST=California, L=Santa Clara, O=pkg5, CN=cs1_ch5.2_ta1/emailAddress=cs1_ch5.2_ta1
        Subject Public Key Info:
            Public Key Algorithm: rsaEncryption
                Public-Key: (1024 bit)
                Modulus:
                    00:b5:6f:3b:c4:aa:e3:6b:1a:e2:26:41:f2:49:f1:
                    40:85:73:dc:ec:ef:04:d4:c9:fa:05:29:fc:bb:b9:
                    83:5f:f1:05:d2:06:9c:e2:52:09:91:d7:d5:3c:45:
                    ef:3f:77:2b:c8:fc:69:78:19:96:e5:14:c3:7e:8a:
                    af:56:c0:44:ca:5c:49:bc:3c:71:0a:b9:05:6e:2a:
                    b7:3f:02:8a:80:da:e7:ab:47:eb:18:40:18:4a:80:
                    54:2c:dd:97:09:df:7d:ae:0f:f2:3a:9a:51:11:af:
                    86:bb:f1:ec:5d:45:4d:64:11:d5:0f:2f:bd:79:eb:
                    91:c1:5e:23:2e:18:aa:6e:89
                Exponent: 65537 (0x10001)
        X509v3 extensions:
            X509v3 Basic Constraints: critical
                CA:FALSE
            X509v3 Key Usage: critical
                Digital Signature
    Signature Algorithm: sha256WithRSAEncryption
         30:93:85:ec:3e:1b:11:03:97:84:c4:63:bf:5c:02:32:b6:56:
         af:42:a5:28:24:7d:63:6c:a5:9c:9a:f5:52:7b:cf:c0:22:91:
         47:7a:92:10:19:c4:51:08:1a:68:5e:50:a2:f1:fc:ac:23:8c:
         dd:0c:a4:6a:21:8d:db:78:e1:5b:29:7b:8d:3c:5e:85:d8:4e:
         5f:24:f4:17:f8:96:a8:62:db:04:2d:92:3c:ea:9f:7e:3b:ef:
         1e:45:aa:0d:88:84:e9:a3:ee:42:bd:13:43:dd:e4:8f:0d:db:
         e2:ae:0c:be:40:7b:a6:f1:86:19:ee:ff:6d:6f:5b:11:3a:41:
         51:9c
-----BEGIN CERTIFICATE-----
MIICiDCCAfGgAwIBAgIBCzANBgkqhkiG9w0BAQsFADB1MQswCQYDVQQGEwJVUzET
MBEGA1UECAwKQ2FsaWZvcm5pYTEUMBIGA1UEBwwLU2FudGEgQ2xhcmExDTALBgNV
BAoMBHBrZzUxEjAQBgNVBAMMCWNoNS4yX3RhMTEYMBYGCSqGSIb3DQEJARYJY2g1
LjJfdGExMB4XDTEzMTIxMzAwMTMzNVoXDTE2MDkwODAwMTMzNVowfTELMAkGA1UE
BhMCVVMxEzARBgNVBAgMCkNhbGlmb3JuaWExFDASBgNVBAcMC1NhbnRhIENsYXJh
MQ0wCwYDVQQKDARwa2c1MRYwFAYDVQQDDA1jczFfY2g1LjJfdGExMRwwGgYJKoZI
hvcNAQkBFg1jczFfY2g1LjJfdGExMIGfMA0GCSqGSIb3DQEBAQUAA4GNADCBiQKB
gQC1bzvEquNrGuImQfJJ8UCFc9zs7wTUyfoFKfy7uYNf8QXSBpziUgmR19U8Re8/
dyvI/Gl4GZblFMN+iq9WwETKXEm8PHEKuQVuKrc/AoqA2uerR+sYQBhKgFQs3ZcJ
332uD/I6mlERr4a78exdRU1kEdUPL71565HBXiMuGKpuiQIDAQABoyAwHjAMBgNV
HRMBAf8EAjAAMA4GA1UdDwEB/wQEAwIHgDANBgkqhkiG9w0BAQsFAAOBgQAwk4Xs
PhsRA5eExGO/XAIytlavQqUoJH1jbKWcmvVSe8/AIpFHepIQGcRRCBpoXlCi8fys
I4zdDKRqIY3beOFbKXuNPF6F2E5fJPQX+JaoYtsELZI86p9+O+8eRaoNiITpo+5C
vRND3eSPDdvirgy+QHum8YYZ7v9tb1sROkFRnA==
-----END CERTIFICATE-----
