Certificate:
    Data:
        Version: 3 (0x2)
        Serial Number: 11 (0xb)
        Signature Algorithm: sha256WithRSAEncryption
        Issuer: C=US, ST=California, L=Santa Clara, O=pkg5, CN=ch5.2_ta1/emailAddress=ch5.2_ta1
        Validity
            Not Before: Mar 18 08:51:31 2026 GMT
            Not After : Dec 12 08:51:31 2028 GMT
        Subject: C=US, ST=California, L=Santa Clara, O=pkg5, CN=cs1_ch5.2_ta1/emailAddress=cs1_ch5.2_ta1
        Subject Public Key Info:
            Public Key Algorithm: rsaEncryption
                Public-Key: (2048 bit)
                Modulus:
                    00:b9:74:a2:5f:55:30:23:51:d8:2b:03:13:ba:f8:
                    6c:89:3e:49:48:9c:40:12:5d:8e:cc:16:78:32:93:
                    57:fb:fd:0a:f1:d6:1c:9c:e5:12:b3:fa:b9:ad:88:
                    76:91:c2:f7:62:fb:8a:83:1a:f6:d2:40:c8:b6:bd:
                    bf:56:b5:fa:35:43:22:8c:79:d6:d9:3a:d8:80:87:
                    18:05:ca:b0:f4:19:0c:fc:73:18:f7:86:fc:74:b9:
                    2c:e6:d0:c1:1b:4c:82:42:4a:36:7c:7a:8c:25:3e:
                    00:5c:5b:3d:25:fd:df:97:81:24:c5:52:66:72:63:
                    f0:57:e1:50:f1:71:ed:30:d6:ec:99:12:20:9c:69:
                    31:a7:69:0a:bd:11:98:6d:da:c2:9f:06:6a:47:23:
                    8d:3e:96:e8:07:c0:ef:a3:1f:cc:0a:e5:f5:b3:f4:
                    18:d3:bb:95:fb:0b:d1:f2:90:14:5f:cb:f0:c0:ff:
                    1a:6a:04:dd:01:4c:c3:10:29:f5:f0:59:8a:8f:61:
                    58:9a:6a:81:58:f5:28:09:41:27:96:76:f3:4f:69:
                    3e:ed:71:81:26:22:7e:ad:59:7d:01:dc:25:82:2d:
                    c3:94:8a:e3:39:04:c3:8b:4f:ab:3b:3e:7f:2b:a1:
                    40:df:76:22:38:2c:0f:5a:cc:53:1d:25:5f:60:fa:
                    c8:0b
                Exponent: 65537 (0x10001)
        X509v3 extensions:
            X509v3 Basic Constraints: critical
                CA:FALSE
            X509v3 Key Usage: critical
                Digital Signature
            X509v3 Subject Key Identifier: 
                42:7F:DB:3C:25:89:3B:9E:84:F6:9C:3B:4F:42:E9:55:B5:15:A9:88
            X509v3 Authority Key Identifier: 
                BB:47:83:AA:FE:0E:5F:DC:51:C7:64:DA:0C:C0:47:9E:B6:56:28:F7
    Signature Algorithm: sha256WithRSAEncryption
    Signature Value:
        7e:e1:42:57:8f:0d:ed:f8:79:c4:30:6c:1a:8d:8a:c0:a7:45:
        7c:e6:d6:12:b3:31:2e:c8:51:9c:bc:12:85:a8:da:1c:fd:e4:
        04:0d:d1:44:3a:9d:32:c8:02:8f:00:c5:ed:3f:9d:10:43:3b:
        ff:ae:62:07:61:8a:56:29:67:a5:36:0e:7d:e9:a8:18:a3:da:
        77:8d:7f:a5:eb:ae:7d:b1:97:bc:44:08:88:29:5b:1d:47:2a:
        88:0c:47:b3:32:39:e8:77:b6:2d:04:3e:a7:1b:d8:04:bb:99:
        f9:19:f0:2f:7f:23:2c:ba:45:40:d5:8e:4f:31:66:63:54:77:
        2a:be:7a:0c:18:cf:5e:35:68:f3:33:72:9d:7c:85:20:08:6c:
        11:b8:9a:0b:a0:0a:0e:6d:c1:28:58:08:f2:60:c8:f2:a8:6c:
        c7:70:ac:e8:98:2a:88:aa:47:70:87:e2:4c:f0:5d:d1:f9:d5:
        d3:c9:52:49:a8:af:8d:da:74:c1:b5:ab:65:74:a5:c1:d3:6c:
        a7:3f:3c:33:f6:5e:90:ef:6f:36:07:f6:44:db:32:52:5f:72:
        ce:e3:5f:11:06:8c:7c:41:ee:f5:a5:14:57:14:4c:32:14:d0:
        d1:f0:3d:9a:da:ed:75:f7:c2:a9:51:43:cf:c8:d9:fa:7e:61:
        6e:99:c8:10
-----BEGIN CERTIFICATE-----
MIIDzTCCArWgAwIBAgIBCzANBgkqhkiG9w0BAQsFADB1MQswCQYDVQQGEwJVUzET
MBEGA1UECAwKQ2FsaWZvcm5pYTEUMBIGA1UEBwwLU2FudGEgQ2xhcmExDTALBgNV
BAoMBHBrZzUxEjAQBgNVBAMMCWNoNS4yX3RhMTEYMBYGCSqGSIb3DQEJARYJY2g1
LjJfdGExMB4XDTI2MDMxODA4NTEzMVoXDTI4MTIxMjA4NTEzMVowfTELMAkGA1UE
BhMCVVMxEzARBgNVBAgMCkNhbGlmb3JuaWExFDASBgNVBAcMC1NhbnRhIENsYXJh
MQ0wCwYDVQQKDARwa2c1MRYwFAYDVQQDDA1jczFfY2g1LjJfdGExMRwwGgYJKoZI
hvcNAQkBFg1jczFfY2g1LjJfdGExMIIBIjANBgkqhkiG9w0BAQEFAAOCAQ8AMIIB
CgKCAQEAuXSiX1UwI1HYKwMTuvhsiT5JSJxAEl2OzBZ4MpNX+/0K8dYcnOUSs/q5
rYh2kcL3YvuKgxr20kDItr2/VrX6NUMijHnW2TrYgIcYBcqw9BkM/HMY94b8dLks
5tDBG0yCQko2fHqMJT4AXFs9Jf3fl4EkxVJmcmPwV+FQ8XHtMNbsmRIgnGkxp2kK
vRGYbdrCnwZqRyONPpboB8Dvox/MCuX1s/QY07uV+wvR8pAUX8vwwP8aagTdAUzD
ECn18FmKj2FYmmqBWPUoCUEnlnbzT2k+7XGBJiJ+rVl9Adwlgi3DlIrjOQTDi0+r
Oz5/K6FA33YiOCwPWsxTHSVfYPrICwIDAQABo2AwXjAMBgNVHRMBAf8EAjAAMA4G
A1UdDwEB/wQEAwIHgDAdBgNVHQ4EFgQUQn/bPCWJO56E9pw7T0LpVbUVqYgwHwYD
VR0jBBgwFoAUu0eDqv4OX9xRx2TaDMBHnrZWKPcwDQYJKoZIhvcNAQELBQADggEB
AH7hQlePDe34ecQwbBqNisCnRXzm1hKzMS7IUZy8EoWo2hz95AQN0UQ6nTLIAo8A
xe0/nRBDO/+uYgdhilYpZ6U2Dn3pqBij2neNf6Xrrn2xl7xECIgpWx1HKogMR7My
Oeh3ti0EPqcb2AS7mfkZ8C9/Iyy6RUDVjk8xZmNUdyq+egwYz141aPMzcp18hSAI
bBG4mgugCg5twShYCPJgyPKobMdwrOiYKoiqR3CH4kzwXdH51dPJUkmor43adMG1
q2V0pcHTbKc/PDP2XpDvbzYH9kTbMlJfcs7jXxEGjHxB7vWlFFcUTDIU0NHwPZra
7XX3wqlRQ8/I2fp+YW6ZyBA=
-----END CERTIFICATE-----
