Certificate:
    Data:
        Version: 3 (0x2)
        Serial Number: 13 (0xd)
        Signature Algorithm: sha256WithRSAEncryption
        Issuer: C=US, ST=California, L=Menlo Park, O=pkg5, CN=pubCA1_ta3/emailAddress=pubCA1_ta3
        Validity
            Not Before: Jan 28 02:54:13 2011 GMT
            Not After : Oct 24 02:54:13 2013 GMT
        Subject: C=US, ST=California, L=Menlo Park, O=pkg5, CN=cs1_p1_ta3/emailAddress=cs1_p1_ta3
        Subject Public Key Info:
            Public Key Algorithm: rsaEncryption
            RSA Public Key: (1024 bit)
                Modulus (1024 bit):
                    00:f6:03:62:59:9b:4b:42:80:bd:9e:2c:51:9d:d6:
                    d3:5b:3e:36:b3:da:4b:05:ed:d1:77:b7:3e:dc:0a:
                    87:20:89:51:84:e5:f9:f0:9d:fe:1d:e9:ad:ca:43:
                    9d:41:8e:84:7d:eb:36:85:4f:14:da:18:ee:c9:c3:
                    e7:f2:cd:9c:c4:11:16:52:d7:07:9f:f5:52:b7:7b:
                    66:d5:ae:10:0f:fc:44:6d:a4:89:60:95:85:12:ca:
                    31:34:26:1b:b5:e6:4f:5b:31:cc:76:76:c3:12:29:
                    f6:64:b6:ea:44:da:e9:51:15:d6:1d:5a:91:cb:62:
                    6e:da:c7:25:66:2f:30:52:17
                Exponent: 65537 (0x10001)
        X509v3 extensions:
            X509v3 Basic Constraints: critical
                CA:FALSE
            X509v3 Key Usage: critical
                Digital Signature
    Signature Algorithm: sha256WithRSAEncryption
        5e:5b:97:12:03:fe:8e:f1:93:90:83:b4:65:f5:4b:56:f6:69:
        44:d7:12:f3:e7:56:bc:5f:f6:ae:5c:95:19:39:0f:0f:77:0f:
        ef:78:bf:49:df:98:bb:91:02:3d:94:5e:90:d6:b0:a2:b0:d2:
        db:70:29:01:d6:39:81:a5:c3:30:9c:b7:95:21:c7:13:36:9e:
        f7:36:c5:be:7e:f4:9d:3b:71:2d:da:d9:07:55:67:62:34:33:
        01:19:a7:ba:6f:ae:98:0e:22:a4:06:ad:16:ea:33:7f:e2:15:
        83:4d:ac:ab:55:ff:aa:2b:15:a6:d2:73:e4:a4:43:53:6c:35:
        9a:33
-----BEGIN CERTIFICATE-----
MIICgjCCAeugAwIBAgIBDTANBgkqhkiG9w0BAQsFADB2MQswCQYDVQQGEwJVUzET
MBEGA1UECBMKQ2FsaWZvcm5pYTETMBEGA1UEBxMKTWVubG8gUGFyazENMAsGA1UE
ChMEcGtnNTETMBEGA1UEAxQKcHViQ0ExX3RhMzEZMBcGCSqGSIb3DQEJARYKcHVi
Q0ExX3RhMzAeFw0xMTAxMjgwMjU0MTNaFw0xMzEwMjQwMjU0MTNaMHYxCzAJBgNV
BAYTAlVTMRMwEQYDVQQIEwpDYWxpZm9ybmlhMRMwEQYDVQQHEwpNZW5sbyBQYXJr
MQ0wCwYDVQQKEwRwa2c1MRMwEQYDVQQDFApjczFfcDFfdGEzMRkwFwYJKoZIhvcN
AQkBFgpjczFfcDFfdGEzMIGfMA0GCSqGSIb3DQEBAQUAA4GNADCBiQKBgQD2A2JZ
m0tCgL2eLFGd1tNbPjaz2ksF7dF3tz7cCocgiVGE5fnwnf4d6a3KQ51BjoR96zaF
TxTaGO7Jw+fyzZzEERZS1wef9VK3e2bVrhAP/ERtpIlglYUSyjE0Jhu15k9bMcx2
dsMSKfZktupE2ulRFdYdWpHLYm7axyVmLzBSFwIDAQABoyAwHjAMBgNVHRMBAf8E
AjAAMA4GA1UdDwEB/wQEAwIHgDANBgkqhkiG9w0BAQsFAAOBgQBeW5cSA/6O8ZOQ
g7Rl9UtW9mlE1xLz51a8X/auXJUZOQ8Pdw/veL9J35i7kQI9lF6Q1rCisNLbcCkB
1jmBpcMwnLeVIccTNp73NsW+fvSdO3Et2tkHVWdiNDMBGae6b66YDiKkBq0W6jN/
4hWDTayrVf+qKxWm0nPkpENTbDWaMw==
-----END CERTIFICATE-----
