Certificate:
    Data:
        Version: 3 (0x2)
        Serial Number: 14 (0xe)
    Signature Algorithm: sha256WithRSAEncryption
        Issuer: C=US, ST=California, L=Santa Clara, O=pkg5, CN=ch5.3_ta1/emailAddress=ch5.3_ta1
        Validity
            Not Before: Dec 13 00:13:35 2013 GMT
            Not After : Sep  8 00:13:35 2016 GMT
        Subject: C=US, ST=California, L=Santa Clara, O=pkg5, CN=cs1_ch5.3_ta1/emailAddress=cs1_ch5.3_ta1
        Subject Public Key Info:
            Public Key Algorithm: rsaEncryption
                Public-Key: (1024 bit)
                Modulus:
                    00:c5:03:2b:f6:07:4e:f1:a3:9b:96:87:6d:ea:e2:
                    bb:0b:fb:95:70:f6:34:a7:bb:e7:9f:df:ff:8a:fd:
                    28:56:0b:fb:de:5d:79:d1:ba:0f:41:73:7f:5b:b9:
                    17:6b:24:db:6f:20:a3:62:5e:3a:bb:71:29:18:33:
                    52:24:ff:a9:9b:70:49:7f:78:94:f7:bd:a3:bf:2f:
                    f4:de:e2:6f:61:13:ce:4f:f3:6a:85:84:35:ae:1d:
                    a7:fb:00:2d:35:33:cc:18:ff:85:d9:37:0a:15:2b:
                    15:71:de:ae:8c:99:ef:5b:dc:7b:4b:c1:b3:08:d9:
                    57:29:29:e0:8d:46:e0:79:83
                Exponent: 65537 (0x10001)
        X509v3 extensions:
            X509v3 Basic Constraints: critical
                CA:FALSE
            X509v3 Key Usage: critical
                Digital Signature
    Signature Algorithm: sha256WithRSAEncryption
         0d:01:09:aa:c9:69:4c:33:74:70:07:ab:60:b6:0f:75:36:9e:
         62:c2:96:82:f4:94:e4:9e:4b:6a:b4:fc:4e:45:21:e5:a7:20:
         18:2a:a4:82:43:92:3a:d5:29:3a:f4:bb:e8:40:65:c8:08:53:
         3b:46:42:4d:0b:f6:ba:8d:3f:08:ab:43:98:4b:41:40:8c:d6:
         2d:58:dc:a8:53:e3:78:51:92:32:7e:00:9c:16:bb:c1:61:73:
         68:2b:6d:4e:0f:f6:41:e4:08:43:b1:77:85:22:2b:06:1e:69:
         48:38:28:9c:d5:60:65:7b:94:db:e7:d4:37:de:6a:0f:f3:cb:
         53:45
-----BEGIN CERTIFICATE-----
MIICiDCCAfGgAwIBAgIBDjANBgkqhkiG9w0BAQsFADB1MQswCQYDVQQGEwJVUzET
MBEGA1UECAwKQ2FsaWZvcm5pYTEUMBIGA1UEBwwLU2FudGEgQ2xhcmExDTALBgNV
BAoMBHBrZzUxEjAQBgNVBAMMCWNoNS4zX3RhMTEYMBYGCSqGSIb3DQEJARYJY2g1
LjNfdGExMB4XDTEzMTIxMzAwMTMzNVoXDTE2MDkwODAwMTMzNVowfTELMAkGA1UE
BhMCVVMxEzARBgNVBAgMCkNhbGlmb3JuaWExFDASBgNVBAcMC1NhbnRhIENsYXJh
MQ0wCwYDVQQKDARwa2c1MRYwFAYDVQQDDA1jczFfY2g1LjNfdGExMRwwGgYJKoZI
hvcNAQkBFg1jczFfY2g1LjNfdGExMIGfMA0GCSqGSIb3DQEBAQUAA4GNADCBiQKB
gQDFAyv2B07xo5uWh23q4rsL+5Vw9jSnu+ef3/+K/ShWC/veXXnRug9Bc39buRdr
JNtvIKNiXjq7cSkYM1Ik/6mbcEl/eJT3vaO/L/Te4m9hE85P82qFhDWuHaf7AC01
M8wY/4XZNwoVKxVx3q6Mme9b3HtLwbMI2VcpKeCNRuB5gwIDAQABoyAwHjAMBgNV
HRMBAf8EAjAAMA4GA1UdDwEB/wQEAwIHgDANBgkqhkiG9w0BAQsFAAOBgQANAQmq
yWlMM3RwB6tgtg91Np5iwpaC9JTknktqtPxORSHlpyAYKqSCQ5I61Sk69LvoQGXI
CFM7RkJNC/a6jT8Iq0OYS0FAjNYtWNyoU+N4UZIyfgCcFrvBYXNoK21OD/ZB5AhD
sXeFIisGHmlIOCic1WBle5Tb59Q33moP88tTRQ==
-----END CERTIFICATE-----
