Certificate:
    Data:
        Version: 3 (0x2)
        Serial Number: 14 (0xe)
        Signature Algorithm: sha256WithRSAEncryption
        Issuer: C=US, ST=California, L=Menlo Park, O=pkg5, CN=pubCA1_ta3/emailAddress=pubCA1_ta3
        Validity
            Not Before: Aug  4 20:59:26 2010 GMT
            Not After : Apr 30 20:59:26 2013 GMT
        Subject: C=US, ST=California, L=Menlo Park, O=pkg5, CN=cs2_p1_ta3/emailAddress=cs2_p1_ta3
        Subject Public Key Info:
            Public Key Algorithm: rsaEncryption
            RSA Public Key: (1024 bit)
                Modulus (1024 bit):
                    00:c4:33:d5:18:cf:f2:82:d5:e6:c0:68:5a:3a:2a:
                    50:30:fc:d6:df:61:cc:c1:35:16:cd:22:bf:72:42:
                    2a:08:aa:93:f8:52:18:e9:e4:45:f3:d1:0a:a2:38:
                    c6:44:73:e1:27:84:98:88:2f:f8:b2:b1:e2:46:39:
                    bd:1f:cf:7a:bc:51:7f:31:e4:f5:b8:56:f3:54:4c:
                    a5:57:ae:70:cc:f6:a4:46:8b:2c:7e:d3:6f:9b:c2:
                    bb:e6:a4:f2:2a:15:e1:48:54:2c:63:fd:b3:eb:9e:
                    6d:3a:bd:cc:3d:ce:3d:16:52:c1:6b:2a:82:8c:ca:
                    60:50:6d:d6:aa:88:e7:c5:29
                Exponent: 65537 (0x10001)
        X509v3 extensions:
            X509v3 Basic Constraints: critical
                CA:FALSE
            X509v3 Issuer Alternative Name: critical
                <EMPTY>

    Signature Algorithm: sha256WithRSAEncryption
        04:c7:86:2b:af:5e:8c:eb:fc:5f:b4:ab:40:f2:57:b4:2c:db:
        bc:14:6c:9c:49:5c:79:c9:55:a2:6b:ff:2a:d0:98:d7:66:83:
        cc:48:58:f1:e8:a8:14:17:80:bc:18:bd:cf:d4:f9:02:a1:44:
        6d:7c:91:f9:3c:97:03:28:2c:9e:c6:14:a9:8d:3a:bd:c7:c4:
        ef:93:df:62:b5:41:2b:63:ed:16:a6:de:f2:f7:ab:54:b9:04:
        b6:8f:ba:25:45:76:89:51:b2:c3:bc:67:db:78:93:3d:ae:77:
        b2:0c:26:14:be:9e:89:ed:bb:f6:df:a4:b4:61:b1:18:bf:b8:
        e6:38
-----BEGIN CERTIFICATE-----
MIICgDCCAemgAwIBAgIBDjANBgkqhkiG9w0BAQsFADB2MQswCQYDVQQGEwJVUzET
MBEGA1UECBMKQ2FsaWZvcm5pYTETMBEGA1UEBxMKTWVubG8gUGFyazENMAsGA1UE
ChMEcGtnNTETMBEGA1UEAxQKcHViQ0ExX3RhMzEZMBcGCSqGSIb3DQEJARYKcHVi
Q0ExX3RhMzAeFw0xMDA4MDQyMDU5MjZaFw0xMzA0MzAyMDU5MjZaMHYxCzAJBgNV
BAYTAlVTMRMwEQYDVQQIEwpDYWxpZm9ybmlhMRMwEQYDVQQHEwpNZW5sbyBQYXJr
MQ0wCwYDVQQKEwRwa2c1MRMwEQYDVQQDFApjczJfcDFfdGEzMRkwFwYJKoZIhvcN
AQkBFgpjczJfcDFfdGEzMIGfMA0GCSqGSIb3DQEBAQUAA4GNADCBiQKBgQDEM9UY
z/KC1ebAaFo6KlAw/NbfYczBNRbNIr9yQioIqpP4Uhjp5EXz0QqiOMZEc+EnhJiI
L/iyseJGOb0fz3q8UX8x5PW4VvNUTKVXrnDM9qRGiyx+02+bwrvmpPIqFeFIVCxj
/bPrnm06vcw9zj0WUsFrKoKMymBQbdaqiOfFKQIDAQABox4wHDAMBgNVHRMBAf8E
AjAAMAwGA1UdEgEB/wQCMAAwDQYJKoZIhvcNAQELBQADgYEABMeGK69ejOv8X7Sr
QPJXtCzbvBRsnElceclVomv/KtCY12aDzEhY8eioFBeAvBi9z9T5AqFEbXyR+TyX
AygsnsYUqY06vcfE75PfYrVBK2PtFqbe8verVLkEto+6JUV2iVGyw7xn23iTPa53
sgwmFL6eie279t+ktGGxGL+45jg=
-----END CERTIFICATE-----
