Certificate:
    Data:
        Version: 3 (0x2)
        Serial Number: 14 (0xe)
    Signature Algorithm: sha256WithRSAEncryption
        Issuer: C=US, ST=California, L=Santa Clara, O=pkg5, CN=ch5.3_ta1/emailAddress=ch5.3_ta1
        Validity
            Not Before: Jul 19 11:35:45 2023 GMT
            Not After : Apr 14 11:35:45 2026 GMT
        Subject: C=US, ST=California, L=Santa Clara, O=pkg5, CN=cs1_ch5.3_ta1/emailAddress=cs1_ch5.3_ta1
        Subject Public Key Info:
            Public Key Algorithm: rsaEncryption
                Public-Key: (2048 bit)
                Modulus:
                    00:de:02:9e:24:3a:b5:9a:40:58:e7:4e:d9:c9:80:
                    7c:2b:a2:6d:b3:47:91:d3:e2:7f:9f:ca:2f:10:fd:
                    95:8f:b4:89:5b:18:70:ca:a6:3c:b9:15:e4:34:c2:
                    8b:16:a4:e1:cd:fa:87:3b:80:9d:7e:c1:63:d2:83:
                    91:4f:0d:fe:44:7a:d8:6c:e8:98:1d:9d:10:06:3e:
                    e6:b6:a4:aa:91:a8:c3:33:fa:3a:a5:58:66:2d:f9:
                    53:51:56:c0:c3:34:77:bf:43:ae:6c:4f:33:52:27:
                    b7:96:49:b4:07:0d:9c:71:4a:19:a6:2e:36:f9:5c:
                    b6:7d:00:1f:e3:99:45:a6:01:ce:00:12:83:f2:56:
                    d8:d5:91:95:b7:14:d6:4a:cf:89:d3:66:ba:dc:03:
                    81:6b:af:4e:16:b4:b5:2a:f5:5a:b5:51:72:85:29:
                    35:f6:51:27:7d:c5:ac:0e:da:ea:d2:07:32:6d:14:
                    81:da:df:5a:3a:07:37:9d:ac:7a:e4:e2:c9:3c:d5:
                    fd:46:ee:80:47:52:f8:12:d3:8d:74:40:c2:9f:92:
                    12:92:d1:11:64:bd:ac:30:b1:54:03:d8:f0:78:64:
                    a6:e0:c8:a9:77:14:0f:27:4c:28:de:6a:5e:68:de:
                    c2:f7:bd:58:46:e2:77:e3:1a:fd:c8:dc:c5:1e:dd:
                    e7:6b
                Exponent: 65537 (0x10001)
        X509v3 extensions:
            X509v3 Basic Constraints: critical
                CA:FALSE
            X509v3 Key Usage: critical
                Digital Signature
    Signature Algorithm: sha256WithRSAEncryption
         55:72:c6:54:68:50:0e:9d:99:ac:99:cb:a9:be:22:f5:99:0b:
         91:ae:bf:b8:65:c1:36:b6:1b:79:f5:69:51:03:4d:e1:3c:56:
         b7:ba:c6:9c:38:18:47:e8:d1:08:98:3b:4f:9f:30:a1:cf:c6:
         9d:61:77:de:6c:e2:43:a6:8a:08:30:3c:38:66:2c:3c:82:10:
         cf:ca:29:9b:86:8d:f2:28:c3:59:a2:d2:09:5f:e8:8c:91:0b:
         71:ed:40:19:6f:cf:dc:98:32:c0:44:d0:86:0a:45:d4:18:aa:
         f0:85:82:24:e3:77:cd:7e:d9:6c:7f:71:7d:fa:dd:cf:61:01:
         1e:64:8d:51:1b:a9:7c:51:fd:0f:74:f8:c4:12:73:a1:47:32:
         fe:29:46:c1:b0:dc:23:c1:cd:4c:91:54:83:b4:d7:a0:92:d8:
         8b:d4:c2:8b:33:8d:fe:ac:b1:43:44:71:bf:aa:3a:3f:1e:72:
         e9:9a:a8:87:a9:2b:f9:0e:9c:28:b9:74:6e:bf:fb:ef:e2:4b:
         1b:7c:56:88:f2:b2:1b:13:06:f9:c9:a3:5e:8f:13:5c:ef:89:
         ec:05:4b:f7:fb:3e:68:b1:2a:21:6e:63:c9:ac:87:fc:e4:eb:
         f9:43:6b:a6:16:7b:b8:27:96:f6:ee:85:6e:1d:8a:0e:9b:a6:
         f7:7a:7b:05
-----BEGIN CERTIFICATE-----
MIIDjTCCAnWgAwIBAgIBDjANBgkqhkiG9w0BAQsFADB1MQswCQYDVQQGEwJVUzET
MBEGA1UECAwKQ2FsaWZvcm5pYTEUMBIGA1UEBwwLU2FudGEgQ2xhcmExDTALBgNV
BAoMBHBrZzUxEjAQBgNVBAMMCWNoNS4zX3RhMTEYMBYGCSqGSIb3DQEJARYJY2g1
LjNfdGExMB4XDTIzMDcxOTExMzU0NVoXDTI2MDQxNDExMzU0NVowfTELMAkGA1UE
BhMCVVMxEzARBgNVBAgMCkNhbGlmb3JuaWExFDASBgNVBAcMC1NhbnRhIENsYXJh
MQ0wCwYDVQQKDARwa2c1MRYwFAYDVQQDDA1jczFfY2g1LjNfdGExMRwwGgYJKoZI
hvcNAQkBFg1jczFfY2g1LjNfdGExMIIBIjANBgkqhkiG9w0BAQEFAAOCAQ8AMIIB
CgKCAQEA3gKeJDq1mkBY507ZyYB8K6Jts0eR0+J/n8ovEP2Vj7SJWxhwyqY8uRXk
NMKLFqThzfqHO4CdfsFj0oORTw3+RHrYbOiYHZ0QBj7mtqSqkajDM/o6pVhmLflT
UVbAwzR3v0OubE8zUie3lkm0Bw2ccUoZpi42+Vy2fQAf45lFpgHOABKD8lbY1ZGV
txTWSs+J02a63AOBa69OFrS1KvVatVFyhSk19lEnfcWsDtrq0gcybRSB2t9aOgc3
nax65OLJPNX9Ru6AR1L4EtONdEDCn5ISktERZL2sMLFUA9jweGSm4MipdxQPJ0wo
3mpeaN7C971YRuJ34xr9yNzFHt3nawIDAQABoyAwHjAMBgNVHRMBAf8EAjAAMA4G
A1UdDwEB/wQEAwIHgDANBgkqhkiG9w0BAQsFAAOCAQEAVXLGVGhQDp2ZrJnLqb4i
9ZkLka6/uGXBNrYbefVpUQNN4TxWt7rGnDgYR+jRCJg7T58woc/GnWF33mziQ6aK
CDA8OGYsPIIQz8opm4aN8ijDWaLSCV/ojJELce1AGW/P3JgywETQhgpF1Biq8IWC
JON3zX7ZbH9xffrdz2EBHmSNURupfFH9D3T4xBJzoUcy/ilGwbDcI8HNTJFUg7TX
oJLYi9TCizON/qyxQ0Rxv6o6Px5y6Zqoh6kr+Q6cKLl0br/77+JLG3xWiPKyGxMG
+cmjXo8TXO+J7AVL9/s+aLEqIW5jyayH/OTr+UNrphZ7uCeW9u6Fbh2KDpum93p7
BQ==
-----END CERTIFICATE-----
