Certificate:
    Data:
        Version: 3 (0x2)
        Serial Number: 14 (0xe)
    Signature Algorithm: sha256WithRSAEncryption
        Issuer: C=US, ST=California, L=Santa Clara, O=pkg5, CN=ch5.3_ta1/emailAddress=ch5.3_ta1
        Validity
            Not Before: Jan 22 01:57:55 2016 GMT
            Not After : Oct 18 01:57:55 2018 GMT
        Subject: C=US, ST=California, L=Santa Clara, O=pkg5, CN=cs1_ch5.3_ta1/emailAddress=cs1_ch5.3_ta1
        Subject Public Key Info:
            Public Key Algorithm: rsaEncryption
                Public-Key: (1024 bit)
                Modulus:
                    00:bf:b3:de:90:3b:93:8e:e5:95:66:95:4d:01:ce:
                    55:c3:ae:8c:d8:e3:0d:64:cb:c9:36:fd:c2:85:39:
                    16:c7:3d:7c:a6:6c:a7:b5:29:04:b5:4a:84:74:86:
                    53:a8:73:04:11:e1:8c:c1:c0:5c:4c:fa:be:09:3a:
                    c5:df:bb:0d:06:de:b3:42:1e:8d:9e:4c:50:de:d5:
                    98:a5:32:55:f9:fe:bd:b3:9f:1e:83:c3:02:57:3e:
                    2d:a8:ff:80:98:ce:94:13:8c:cc:6a:b3:d1:c3:89:
                    60:8e:23:b6:87:a6:ed:f1:df:51:5a:da:0c:5a:9d:
                    d0:4a:47:e5:11:2c:fa:55:9f
                Exponent: 65537 (0x10001)
        X509v3 extensions:
            X509v3 Basic Constraints: critical
                CA:FALSE
            X509v3 Key Usage: critical
                Digital Signature
    Signature Algorithm: sha256WithRSAEncryption
         82:46:80:6c:e6:98:56:e6:82:01:23:8c:9a:ad:cc:66:51:d2:
         50:1e:50:6e:1e:f8:24:8a:ea:bd:1e:59:61:4e:ee:37:c8:57:
         6a:a9:3d:59:ca:a5:20:25:92:dd:f1:86:4e:25:ee:32:70:86:
         f6:a9:39:26:93:15:c1:dc:9b:a0:f9:62:ad:f1:f6:57:35:0c:
         df:6f:b4:a7:c5:69:5e:da:42:0c:f0:b4:bd:9d:32:7f:0e:58:
         54:5c:35:8f:77:5e:5c:5f:74:96:16:52:d3:41:2b:1b:7e:e6:
         37:a3:57:8e:57:18:84:21:ff:97:ad:5e:03:9f:e5:e2:78:de:
         ec:35:5e:1d:48:ee:12:eb:61:70:2f:cf:11:7c:64:82:2c:ea:
         d6:5b:61:89:98:c8:4a:b7:a5:32:5f:09:48:d2:09:7e:7b:13:
         ad:ba:a4:cd:dc:86:1f:50:5a:72:81:79:32:b1:54:4e:b5:2f:
         da:55:f4:98:26:fb:ae:a7:60:b8:ce:ec:b4:dc:ea:7d:33:75:
         ff:3c:df:8c:6c:e7:92:86:89:0f:23:c9:fb:7b:05:7b:56:20:
         e0:5d:e9:d5:4b:6f:82:a4:be:47:48:9c:b9:69:13:ca:0f:af:
         2b:ff:25:eb:98:2d:6d:ca:ee:8e:ad:de:20:df:27:02:a6:14:
         c9:60:ab:b1
-----BEGIN CERTIFICATE-----
MIIDCTCCAfGgAwIBAgIBDjANBgkqhkiG9w0BAQsFADB1MQswCQYDVQQGEwJVUzET
MBEGA1UECAwKQ2FsaWZvcm5pYTEUMBIGA1UEBwwLU2FudGEgQ2xhcmExDTALBgNV
BAoMBHBrZzUxEjAQBgNVBAMMCWNoNS4zX3RhMTEYMBYGCSqGSIb3DQEJARYJY2g1
LjNfdGExMB4XDTE2MDEyMjAxNTc1NVoXDTE4MTAxODAxNTc1NVowfTELMAkGA1UE
BhMCVVMxEzARBgNVBAgMCkNhbGlmb3JuaWExFDASBgNVBAcMC1NhbnRhIENsYXJh
MQ0wCwYDVQQKDARwa2c1MRYwFAYDVQQDDA1jczFfY2g1LjNfdGExMRwwGgYJKoZI
hvcNAQkBFg1jczFfY2g1LjNfdGExMIGfMA0GCSqGSIb3DQEBAQUAA4GNADCBiQKB
gQC/s96QO5OO5ZVmlU0BzlXDrozY4w1ky8k2/cKFORbHPXymbKe1KQS1SoR0hlOo
cwQR4YzBwFxM+r4JOsXfuw0G3rNCHo2eTFDe1ZilMlX5/r2znx6DwwJXPi2o/4CY
zpQTjMxqs9HDiWCOI7aHpu3x31Fa2gxandBKR+URLPpVnwIDAQABoyAwHjAMBgNV
HRMBAf8EAjAAMA4GA1UdDwEB/wQEAwIHgDANBgkqhkiG9w0BAQsFAAOCAQEAgkaA
bOaYVuaCASOMmq3MZlHSUB5Qbh74JIrqvR5ZYU7uN8hXaqk9WcqlICWS3fGGTiXu
MnCG9qk5JpMVwdyboPlirfH2VzUM32+0p8VpXtpCDPC0vZ0yfw5YVFw1j3deXF90
lhZS00ErG37mN6NXjlcYhCH/l61eA5/l4nje7DVeHUjuEuthcC/PEXxkgizq1lth
iZjISrelMl8JSNIJfnsTrbqkzdyGH1BacoF5MrFUTrUv2lX0mCb7rqdguM7stNzq
fTN1/zzfjGznkoaJDyPJ+3sFe1Yg4F3p1UtvgqS+R0icuWkTyg+vK/8l65gtbcru
jq3eIN8nAqYUyWCrsQ==
-----END CERTIFICATE-----
