Certificate:
    Data:
        Version: 3 (0x2)
        Serial Number: 14 (0xe)
        Signature Algorithm: sha256WithRSAEncryption
        Issuer: C=US, ST=California, L=Menlo Park, O=pkg5, CN=ch5.3_ta1/emailAddress=ch5.3_ta1
        Validity
            Not Before: Apr 11 22:37:42 2011 GMT
            Not After : Jan  5 22:37:42 2014 GMT
        Subject: C=US, ST=California, L=Menlo Park, O=pkg5, CN=cs1_ch5.3_ta1/emailAddress=cs1_ch5.3_ta1
        Subject Public Key Info:
            Public Key Algorithm: rsaEncryption
            RSA Public Key: (1024 bit)
                Modulus (1024 bit):
                    00:b5:76:e5:90:97:10:d5:aa:02:02:eb:87:f5:96:
                    3a:94:31:a6:d9:1b:99:36:6b:62:13:36:cd:75:bf:
                    5d:b9:19:02:15:79:e8:0c:95:12:80:a8:97:85:60:
                    30:6f:4a:3d:cb:b4:bc:d8:a6:4d:a0:42:64:28:d3:
                    07:2e:0a:f3:35:c3:35:10:08:f9:1e:e9:07:63:4b:
                    7d:36:cc:65:7e:be:65:cb:a2:ad:8b:4a:1c:ec:9e:
                    f6:f5:14:e7:93:42:5c:0b:a3:7e:73:ae:18:42:32:
                    32:a0:45:96:2d:d5:d7:5c:75:f2:e3:48:23:34:20:
                    88:4f:7e:1a:21:8c:45:30:0d
                Exponent: 65537 (0x10001)
        X509v3 extensions:
            X509v3 Basic Constraints: critical
                CA:FALSE
            X509v3 Key Usage: critical
                Digital Signature
    Signature Algorithm: sha256WithRSAEncryption
        76:78:0e:96:48:35:42:08:26:68:65:9d:49:c6:3b:b7:f2:c7:
        3b:41:e1:94:2b:30:ec:65:1d:90:bd:3e:6a:ec:66:f1:3d:e6:
        76:b7:e7:a3:c7:96:b0:61:39:0b:e1:4e:15:cd:f7:95:48:c7:
        ee:21:ce:81:5e:04:85:5b:2e:66:9f:2a:c1:6e:6f:4d:e3:c8:
        32:1f:35:53:7d:4f:ff:0f:0f:07:25:6a:f9:da:74:0c:8d:cf:
        86:3b:c1:30:bc:dd:a4:80:37:78:a3:03:1e:58:29:16:1b:d5:
        b0:12:4e:8f:f4:da:c4:46:f4:28:4e:36:ac:d7:8a:95:c3:18:
        e8:2e
-----BEGIN CERTIFICATE-----
MIIChjCCAe+gAwIBAgIBDjANBgkqhkiG9w0BAQsFADB0MQswCQYDVQQGEwJVUzET
MBEGA1UECBMKQ2FsaWZvcm5pYTETMBEGA1UEBxMKTWVubG8gUGFyazENMAsGA1UE
ChMEcGtnNTESMBAGA1UEAxQJY2g1LjNfdGExMRgwFgYJKoZIhvcNAQkBFgljaDUu
M190YTEwHhcNMTEwNDExMjIzNzQyWhcNMTQwMTA1MjIzNzQyWjB8MQswCQYDVQQG
EwJVUzETMBEGA1UECBMKQ2FsaWZvcm5pYTETMBEGA1UEBxMKTWVubG8gUGFyazEN
MAsGA1UEChMEcGtnNTEWMBQGA1UEAxQNY3MxX2NoNS4zX3RhMTEcMBoGCSqGSIb3
DQEJARYNY3MxX2NoNS4zX3RhMTCBnzANBgkqhkiG9w0BAQEFAAOBjQAwgYkCgYEA
tXblkJcQ1aoCAuuH9ZY6lDGm2RuZNmtiEzbNdb9duRkCFXnoDJUSgKiXhWAwb0o9
y7S82KZNoEJkKNMHLgrzNcM1EAj5HukHY0t9Nsxlfr5ly6Kti0oc7J729RTnk0Jc
C6N+c64YQjIyoEWWLdXXXHXy40gjNCCIT34aIYxFMA0CAwEAAaMgMB4wDAYDVR0T
AQH/BAIwADAOBgNVHQ8BAf8EBAMCB4AwDQYJKoZIhvcNAQELBQADgYEAdngOlkg1
QggmaGWdScY7t/LHO0HhlCsw7GUdkL0+auxm8T3mdrfno8eWsGE5C+FOFc33lUjH
7iHOgV4EhVsuZp8qwW5vTePIMh81U31P/w8PByVq+dp0DI3PhjvBMLzdpIA3eKMD
HlgpFhvVsBJOj/TaxEb0KE42rNeKlcMY6C4=
-----END CERTIFICATE-----
