Certificate:
    Data:
        Version: 3 (0x2)
        Serial Number: 14 (0xe)
    Signature Algorithm: sha256WithRSAEncryption
        Issuer: C=US, ST=California, L=Santa Clara, O=pkg5, CN=ch5.3_ta1/emailAddress=ch5.3_ta1
        Validity
            Not Before: Sep 22 05:33:19 2021 GMT
            Not After : Jun 18 05:33:19 2024 GMT
        Subject: C=US, ST=California, L=Santa Clara, O=pkg5, CN=cs1_ch5.3_ta1/emailAddress=cs1_ch5.3_ta1
        Subject Public Key Info:
            Public Key Algorithm: rsaEncryption
                Public-Key: (1024 bit)
                Modulus:
                    00:c7:8a:73:9c:14:db:8d:10:f4:a7:c5:d4:7e:4c:
                    7c:ea:83:68:0b:3a:96:9f:9c:19:b8:09:58:42:da:
                    26:3d:8f:81:19:32:03:2c:0e:85:8c:50:c1:e5:1e:
                    4e:8d:da:b5:19:34:78:29:d8:b7:44:6c:b6:00:0c:
                    6d:77:7b:4c:b2:6b:32:7f:20:5d:7f:ff:c4:cc:24:
                    eb:1a:8a:99:96:25:3b:26:ec:47:d5:b5:77:b3:9b:
                    55:00:90:5b:5a:94:51:8b:e0:13:6b:a2:79:dd:1b:
                    a7:3b:c2:b5:7d:f7:12:81:db:23:f1:0c:e4:74:02:
                    9b:e9:25:b3:d1:2e:74:84:ab
                Exponent: 65537 (0x10001)
        X509v3 extensions:
            X509v3 Basic Constraints: critical
                CA:FALSE
            X509v3 Key Usage: critical
                Digital Signature
    Signature Algorithm: sha256WithRSAEncryption
         5e:7f:99:5b:1b:ab:f7:e1:e5:61:09:74:f8:ce:8b:0b:47:91:
         96:ca:f0:70:56:04:35:8a:36:a1:e3:5f:b8:1f:05:a5:39:f4:
         de:21:c0:00:f1:32:34:c1:69:df:71:95:9c:79:07:c6:36:87:
         5d:5a:2c:65:0e:f6:d3:8f:00:f2:2c:6a:47:1a:d6:f5:83:00:
         aa:c5:b7:57:74:96:ee:ff:cd:de:5d:c2:f7:16:8c:68:92:bd:
         b1:43:a2:ec:dd:a2:d7:2c:46:4b:cf:a0:f2:56:8c:f6:ea:bf:
         dc:93:e6:21:87:27:74:81:e1:0e:f3:7a:f9:69:fb:c3:f9:bc:
         3b:4b:dc:89:84:80:42:eb:98:e7:d4:3f:85:67:80:ab:83:dd:
         08:86:e5:ee:0c:7a:c2:cf:3a:45:44:d7:3f:5c:25:73:8d:e0:
         1b:72:43:c2:9b:1f:2e:db:6d:98:cc:95:cb:fc:9f:1a:b1:20:
         09:2d:ca:7b:c0:61:91:67:08:cf:62:ab:74:25:2f:cd:ad:ec:
         0a:1f:48:e8:c8:99:66:bf:7a:bd:f7:b6:21:fc:32:00:b2:06:
         c4:c8:1b:39:a4:93:93:d5:ac:70:32:df:86:3c:d8:36:c5:04:
         39:04:f9:77:cf:38:77:c6:28:c8:aa:53:31:af:ba:9b:2d:30:
         f8:e3:e8:c2
-----BEGIN CERTIFICATE-----
MIIDCTCCAfGgAwIBAgIBDjANBgkqhkiG9w0BAQsFADB1MQswCQYDVQQGEwJVUzET
MBEGA1UECAwKQ2FsaWZvcm5pYTEUMBIGA1UEBwwLU2FudGEgQ2xhcmExDTALBgNV
BAoMBHBrZzUxEjAQBgNVBAMMCWNoNS4zX3RhMTEYMBYGCSqGSIb3DQEJARYJY2g1
LjNfdGExMB4XDTIxMDkyMjA1MzMxOVoXDTI0MDYxODA1MzMxOVowfTELMAkGA1UE
BhMCVVMxEzARBgNVBAgMCkNhbGlmb3JuaWExFDASBgNVBAcMC1NhbnRhIENsYXJh
MQ0wCwYDVQQKDARwa2c1MRYwFAYDVQQDDA1jczFfY2g1LjNfdGExMRwwGgYJKoZI
hvcNAQkBFg1jczFfY2g1LjNfdGExMIGfMA0GCSqGSIb3DQEBAQUAA4GNADCBiQKB
gQDHinOcFNuNEPSnxdR+THzqg2gLOpafnBm4CVhC2iY9j4EZMgMsDoWMUMHlHk6N
2rUZNHgp2LdEbLYADG13e0yyazJ/IF1//8TMJOsaipmWJTsm7EfVtXezm1UAkFta
lFGL4BNronndG6c7wrV99xKB2yPxDOR0ApvpJbPRLnSEqwIDAQABoyAwHjAMBgNV
HRMBAf8EAjAAMA4GA1UdDwEB/wQEAwIHgDANBgkqhkiG9w0BAQsFAAOCAQEAXn+Z
Wxur9+HlYQl0+M6LC0eRlsrwcFYENYo2oeNfuB8FpTn03iHAAPEyNMFp33GVnHkH
xjaHXVosZQ72048A8ixqRxrW9YMAqsW3V3SW7v/N3l3C9xaMaJK9sUOi7N2i1yxG
S8+g8laM9uq/3JPmIYcndIHhDvN6+Wn7w/m8O0vciYSAQuuY59Q/hWeAq4PdCIbl
7gx6ws86RUTXP1wlc43gG3JDwpsfLtttmMyVy/yfGrEgCS3Ke8BhkWcIz2KrdCUv
za3sCh9I6MiZZr96vfe2IfwyALIGxMgbOaSTk9WscDLfhjzYNsUEOQT5d884d8Yo
yKpTMa+6my0w+OPowg==
-----END CERTIFICATE-----
