Certificate:
    Data:
        Version: 3 (0x2)
        Serial Number: 15 (0xf)
        Signature Algorithm: sha256WithRSAEncryption
        Issuer: C=US, ST=California, L=Menlo Park, O=pkg5, CN=ta2/emailAddress=ta2
        Validity
            Not Before: Apr 11 22:37:43 2011 GMT
            Not After : Jan  5 22:37:43 2014 GMT
        Subject: C=US, ST=California, L=Menlo Park, O=pkg5, CN=cs1_ta2/emailAddress=cs1_ta2
        Subject Public Key Info:
            Public Key Algorithm: rsaEncryption
            RSA Public Key: (1024 bit)
                Modulus (1024 bit):
                    00:e7:3a:08:5d:d7:3d:c8:50:43:ad:92:87:40:58:
                    59:5c:fa:34:ba:c9:bd:5b:d7:9f:17:b8:4f:d2:15:
                    fd:86:d9:f0:3a:07:48:14:f3:c0:a4:9e:e3:ee:00:
                    45:ba:aa:de:3a:5c:53:d6:0d:dd:46:88:d3:b6:13:
                    aa:ee:f8:c0:3e:fa:eb:0a:6d:4a:0d:f7:39:21:ff:
                    5d:dc:d7:13:5b:2a:e9:e4:c0:1e:31:2b:5b:00:ce:
                    b0:55:44:72:97:66:06:ab:41:71:05:4a:83:6b:3b:
                    cf:a7:ce:5d:61:43:3b:bb:60:19:c4:33:ac:23:72:
                    66:9d:e9:72:be:bd:6c:ad:2b
                Exponent: 65537 (0x10001)
        X509v3 extensions:
            X509v3 Basic Constraints: critical
                CA:FALSE
            X509v3 Key Usage: critical
                Digital Signature
    Signature Algorithm: sha256WithRSAEncryption
        49:7b:52:fd:1f:be:ee:30:38:0d:93:6b:07:01:95:14:35:6e:
        5b:dd:74:9e:a0:a7:1a:bd:a8:cd:35:a9:7f:21:af:d7:a2:0c:
        69:f9:d4:d0:eb:45:93:e2:48:fd:86:b4:70:fb:b5:dd:e5:48:
        5f:93:d4:41:7a:cb:a5:73:02:d8:d9:e8:5f:9c:f8:4f:ad:50:
        fb:88:24:b3:f5:e0:cf:d9:3e:bf:3f:5b:0c:db:a0:20:51:5d:
        ea:13:0b:5b:44:6d:af:0f:6a:72:b6:25:8c:9f:bd:d0:a9:0e:
        38:60:39:53:7e:9d:6e:ac:65:21:9a:32:f4:57:65:39:dc:f7:
        36:9a
-----BEGIN CERTIFICATE-----
MIICbjCCAdegAwIBAgIBDzANBgkqhkiG9w0BAQsFADBoMQswCQYDVQQGEwJVUzET
MBEGA1UECBMKQ2FsaWZvcm5pYTETMBEGA1UEBxMKTWVubG8gUGFyazENMAsGA1UE
ChMEcGtnNTEMMAoGA1UEAxMDdGEyMRIwEAYJKoZIhvcNAQkBFgN0YTIwHhcNMTEw
NDExMjIzNzQzWhcNMTQwMTA1MjIzNzQzWjBwMQswCQYDVQQGEwJVUzETMBEGA1UE
CBMKQ2FsaWZvcm5pYTETMBEGA1UEBxMKTWVubG8gUGFyazENMAsGA1UEChMEcGtn
NTEQMA4GA1UEAxQHY3MxX3RhMjEWMBQGCSqGSIb3DQEJARYHY3MxX3RhMjCBnzAN
BgkqhkiG9w0BAQEFAAOBjQAwgYkCgYEA5zoIXdc9yFBDrZKHQFhZXPo0usm9W9ef
F7hP0hX9htnwOgdIFPPApJ7j7gBFuqreOlxT1g3dRojTthOq7vjAPvrrCm1KDfc5
If9d3NcTWyrp5MAeMStbAM6wVURyl2YGq0FxBUqDazvPp85dYUM7u2AZxDOsI3Jm
nelyvr1srSsCAwEAAaMgMB4wDAYDVR0TAQH/BAIwADAOBgNVHQ8BAf8EBAMCB4Aw
DQYJKoZIhvcNAQELBQADgYEASXtS/R++7jA4DZNrBwGVFDVuW910nqCnGr2ozTWp
fyGv16IMafnU0OtFk+JI/Ya0cPu13eVIX5PUQXrLpXMC2NnoX5z4T61Q+4gks/Xg
z9k+vz9bDNugIFFd6hMLW0Rtrw9qcrYljJ+90KkOOGA5U36dbqxlIZoy9FdlOdz3
Npo=
-----END CERTIFICATE-----
