Certificate:
    Data:
        Version: 3 (0x2)
        Serial Number: 15 (0xf)
        Signature Algorithm: sha256WithRSAEncryption
        Issuer: C=US, ST=California, L=Santa Clara, O=pkg5, CN=ta2/emailAddress=ta2
        Validity
            Not Before: Mar 18 08:51:33 2026 GMT
            Not After : Dec 12 08:51:33 2028 GMT
        Subject: C=US, ST=California, L=Santa Clara, O=pkg5, CN=cs1_ta2/emailAddress=cs1_ta2
        Subject Public Key Info:
            Public Key Algorithm: rsaEncryption
                Public-Key: (2048 bit)
                Modulus:
                    00:b7:aa:fb:ce:00:bd:21:22:00:da:e6:55:ca:01:
                    be:55:8f:24:8f:6d:a8:83:d4:25:32:2a:6c:8e:7a:
                    61:74:27:9b:ad:73:ba:69:89:e1:8b:e6:06:90:8b:
                    47:f1:40:bc:e9:f2:bb:1d:94:7b:cc:4a:89:fc:97:
                    6a:4f:be:02:0a:5a:df:f1:fc:2e:0a:04:9c:68:42:
                    bc:e6:f3:27:55:9b:a9:0c:87:88:47:6b:5a:42:4c:
                    6e:58:26:a0:83:ce:33:5f:ba:99:eb:22:02:b9:e0:
                    11:d3:2a:f7:3e:e8:33:3b:85:1c:6c:80:a9:89:38:
                    82:89:8c:1a:74:47:fa:5c:a2:df:d2:67:58:1e:e5:
                    59:8d:bd:f0:bf:85:d6:e0:d2:5c:13:94:f0:28:26:
                    a8:57:42:01:96:6d:db:b2:4d:5f:65:b5:d4:91:9c:
                    a1:51:18:61:05:11:d1:be:37:e8:8f:81:fa:e4:9c:
                    73:56:32:c7:b1:4d:58:b4:2b:9f:ea:0a:c9:5f:91:
                    4f:07:f1:17:8a:11:8a:80:09:73:18:5b:3b:ef:65:
                    ab:ce:0f:8e:6b:29:82:94:9b:3c:b0:17:35:b5:0d:
                    fe:84:96:0f:aa:dc:2a:8a:d8:4e:cd:27:6a:6e:8d:
                    e7:e1:5f:67:46:cd:8b:a7:b2:c2:9b:68:71:96:ed:
                    c6:03
                Exponent: 65537 (0x10001)
        X509v3 extensions:
            X509v3 Basic Constraints: critical
                CA:FALSE
            X509v3 Key Usage: critical
                Digital Signature
            X509v3 Subject Key Identifier: 
                7A:8A:2F:02:FD:34:27:1A:F3:47:5F:D4:3B:8D:AA:95:87:D8:9D:48
            X509v3 Authority Key Identifier: 
                E8:50:B1:B4:A4:EF:31:C0:08:0C:C2:7A:FE:79:E5:60:D9:3E:49:14
    Signature Algorithm: sha256WithRSAEncryption
    Signature Value:
        8d:ae:68:c1:e2:cd:7b:92:a9:56:bf:ef:56:31:01:c1:dd:20:
        de:96:d9:24:b7:ba:a8:d8:0c:81:ed:99:41:49:22:45:4f:fc:
        fc:98:24:86:a9:5a:95:41:c1:d2:1f:90:77:c0:74:76:f1:1b:
        3a:a7:01:9c:ff:06:e8:2c:20:95:f7:d9:fd:80:d0:65:05:74:
        e5:8a:97:43:98:fe:5e:27:df:13:3f:ed:8d:d1:11:e2:58:75:
        ff:47:6f:8a:74:3f:6e:8e:db:89:da:aa:3a:21:4a:b3:07:b4:
        89:f9:28:0d:d7:f9:ed:00:c4:f8:be:6c:fd:d2:eb:09:99:2d:
        e3:3c:bf:07:b6:a5:ea:a8:3c:6b:1f:17:46:20:27:e0:fc:28:
        77:68:85:98:8c:44:a7:09:a0:bf:cb:f3:71:53:3c:5a:b3:70:
        f8:77:fe:f8:31:a5:8f:55:00:a7:9d:d3:80:00:c1:11:1a:ca:
        4e:2d:03:59:12:6f:ed:5f:a5:5a:7b:de:83:10:44:e9:54:1b:
        b3:d2:92:d3:3a:eb:c3:a1:ce:7b:4a:2e:bd:42:2b:7f:52:3f:
        b5:8e:f4:ce:1c:7d:d5:17:fa:5b:2e:ba:a8:6e:fb:5c:69:9e:
        f3:fb:17:9c:57:6d:fd:c3:43:e9:ec:5c:44:7c:cd:ff:30:cf:
        20:45:a0:5c
-----BEGIN CERTIFICATE-----
MIIDtTCCAp2gAwIBAgIBDzANBgkqhkiG9w0BAQsFADBpMQswCQYDVQQGEwJVUzET
MBEGA1UECAwKQ2FsaWZvcm5pYTEUMBIGA1UEBwwLU2FudGEgQ2xhcmExDTALBgNV
BAoMBHBrZzUxDDAKBgNVBAMMA3RhMjESMBAGCSqGSIb3DQEJARYDdGEyMB4XDTI2
MDMxODA4NTEzM1oXDTI4MTIxMjA4NTEzM1owcTELMAkGA1UEBhMCVVMxEzARBgNV
BAgMCkNhbGlmb3JuaWExFDASBgNVBAcMC1NhbnRhIENsYXJhMQ0wCwYDVQQKDARw
a2c1MRAwDgYDVQQDDAdjczFfdGEyMRYwFAYJKoZIhvcNAQkBFgdjczFfdGEyMIIB
IjANBgkqhkiG9w0BAQEFAAOCAQ8AMIIBCgKCAQEAt6r7zgC9ISIA2uZVygG+VY8k
j22og9QlMipsjnphdCebrXO6aYnhi+YGkItH8UC86fK7HZR7zEqJ/JdqT74CClrf
8fwuCgScaEK85vMnVZupDIeIR2taQkxuWCagg84zX7qZ6yICueAR0yr3PugzO4Uc
bICpiTiCiYwadEf6XKLf0mdYHuVZjb3wv4XW4NJcE5TwKCaoV0IBlm3bsk1fZbXU
kZyhURhhBRHRvjfoj4H65JxzVjLHsU1YtCuf6grJX5FPB/EXihGKgAlzGFs772Wr
zg+OaymClJs8sBc1tQ3+hJYPqtwqithOzSdqbo3n4V9nRs2Lp7LCm2hxlu3GAwID
AQABo2AwXjAMBgNVHRMBAf8EAjAAMA4GA1UdDwEB/wQEAwIHgDAdBgNVHQ4EFgQU
eoovAv00JxrzR1/UO42qlYfYnUgwHwYDVR0jBBgwFoAU6FCxtKTvMcAIDMJ6/nnl
YNk+SRQwDQYJKoZIhvcNAQELBQADggEBAI2uaMHizXuSqVa/71YxAcHdIN6W2SS3
uqjYDIHtmUFJIkVP/PyYJIapWpVBwdIfkHfAdHbxGzqnAZz/BugsIJX32f2A0GUF
dOWKl0OY/l4n3xM/7Y3REeJYdf9Hb4p0P26O24naqjohSrMHtIn5KA3X+e0AxPi+
bP3S6wmZLeM8vwe2peqoPGsfF0YgJ+D8KHdohZiMRKcJoL/L83FTPFqzcPh3/vgx
pY9VAKed04AAwREayk4tA1kSb+1fpVp73oMQROlUG7PSktM668OhzntKLr1CK39S
P7WO9M4cfdUX+lsuuqhu+1xpnvP7F5xXbf3DQ+nsXER8zf8wzyBFoFw=
-----END CERTIFICATE-----
