Certificate:
    Data:
        Version: 3 (0x2)
        Serial Number: 15 (0xf)
    Signature Algorithm: sha256WithRSAEncryption
        Issuer: C=US, ST=California, L=Santa Clara, O=pkg5, CN=ta2/emailAddress=ta2
        Validity
            Not Before: Jan 22 01:57:56 2016 GMT
            Not After : Oct 18 01:57:56 2018 GMT
        Subject: C=US, ST=California, L=Santa Clara, O=pkg5, CN=cs1_ta2/emailAddress=cs1_ta2
        Subject Public Key Info:
            Public Key Algorithm: rsaEncryption
                Public-Key: (1024 bit)
                Modulus:
                    00:cb:c5:b4:29:67:2e:59:1c:d9:e5:0e:f6:c8:d8:
                    03:8d:1a:72:be:fc:67:e3:77:5e:a4:c6:d6:1a:0b:
                    9d:95:9c:d0:db:5f:72:94:27:5f:91:ec:5c:dc:22:
                    39:eb:23:5e:79:17:3e:1a:4a:cb:3d:04:7a:e6:43:
                    9d:d9:97:c5:26:3e:72:6b:e7:4a:36:e2:5b:c6:69:
                    ae:2c:83:c8:7d:a5:93:be:32:38:b8:13:c5:c5:d6:
                    f1:9d:35:9b:9a:80:43:40:50:58:fc:89:68:0a:9c:
                    fb:a2:5a:d2:b4:ed:a5:e5:7a:ea:54:89:8f:45:df:
                    33:7a:8f:c0:e2:d2:97:70:7b
                Exponent: 65537 (0x10001)
        X509v3 extensions:
            X509v3 Basic Constraints: critical
                CA:FALSE
            X509v3 Key Usage: critical
                Digital Signature
    Signature Algorithm: sha256WithRSAEncryption
         57:7a:72:03:64:a0:35:b9:21:d9:44:2a:a8:56:27:d9:d6:e0:
         8a:38:2b:6d:51:96:7e:92:49:85:94:29:65:2d:06:a2:5e:f7:
         ff:08:55:a2:41:a3:05:c8:43:81:31:4a:db:44:2f:2f:24:08:
         bc:50:3a:c5:9f:0c:04:af:d7:27:0a:67:ab:06:ad:e8:b8:7c:
         6f:f1:c7:02:79:27:49:b8:d1:cd:34:7e:68:bb:10:e0:2d:6e:
         32:c5:a8:21:34:13:55:d1:a1:a8:b1:4e:67:22:e0:bf:5f:a7:
         39:b2:33:96:fa:90:93:1f:6b:a8:8b:a2:ef:b8:61:7a:98:57:
         a9:b7:fe:04:bf:70:ae:ee:bc:1e:d7:ef:96:22:14:8d:b8:0b:
         23:54:c6:1b:60:5a:fd:0d:2e:02:33:3b:78:a4:78:70:b8:15:
         e9:aa:15:8e:c9:8a:84:95:60:2f:8a:ff:cc:43:f8:41:df:e9:
         1d:b7:3b:1e:ec:c2:a9:de:bc:c3:f5:ac:25:d3:76:1a:70:f2:
         00:79:f5:85:28:2e:39:4d:9e:b4:3f:76:0e:04:8c:ce:ad:bf:
         03:f9:10:70:fa:a3:68:52:fd:77:99:e1:7c:f7:dc:72:7e:8d:
         02:45:7d:07:ba:21:d5:15:0f:cf:b1:2b:5f:fa:24:ec:f4:74:
         12:e2:3e:cd
-----BEGIN CERTIFICATE-----
MIIC8TCCAdmgAwIBAgIBDzANBgkqhkiG9w0BAQsFADBpMQswCQYDVQQGEwJVUzET
MBEGA1UECAwKQ2FsaWZvcm5pYTEUMBIGA1UEBwwLU2FudGEgQ2xhcmExDTALBgNV
BAoMBHBrZzUxDDAKBgNVBAMMA3RhMjESMBAGCSqGSIb3DQEJARYDdGEyMB4XDTE2
MDEyMjAxNTc1NloXDTE4MTAxODAxNTc1NlowcTELMAkGA1UEBhMCVVMxEzARBgNV
BAgMCkNhbGlmb3JuaWExFDASBgNVBAcMC1NhbnRhIENsYXJhMQ0wCwYDVQQKDARw
a2c1MRAwDgYDVQQDDAdjczFfdGEyMRYwFAYJKoZIhvcNAQkBFgdjczFfdGEyMIGf
MA0GCSqGSIb3DQEBAQUAA4GNADCBiQKBgQDLxbQpZy5ZHNnlDvbI2AONGnK+/Gfj
d16kxtYaC52VnNDbX3KUJ1+R7FzcIjnrI155Fz4aSss9BHrmQ53Zl8UmPnJr50o2
4lvGaa4sg8h9pZO+Mji4E8XF1vGdNZuagENAUFj8iWgKnPuiWtK07aXleupUiY9F
3zN6j8Di0pdwewIDAQABoyAwHjAMBgNVHRMBAf8EAjAAMA4GA1UdDwEB/wQEAwIH
gDANBgkqhkiG9w0BAQsFAAOCAQEAV3pyA2SgNbkh2UQqqFYn2dbgijgrbVGWfpJJ
hZQpZS0Gol73/whVokGjBchDgTFK20QvLyQIvFA6xZ8MBK/XJwpnqwat6Lh8b/HH
AnknSbjRzTR+aLsQ4C1uMsWoITQTVdGhqLFOZyLgv1+nObIzlvqQkx9rqIui77hh
ephXqbf+BL9wru68HtfvliIUjbgLI1TGG2Ba/Q0uAjM7eKR4cLgV6aoVjsmKhJVg
L4r/zEP4Qd/pHbc7HuzCqd68w/WsJdN2GnDyAHn1hSguOU2etD92DgSMzq2/A/kQ
cPqjaFL9d5nhfPfccn6NAkV9B7oh1RUPz7ErX/ok7PR0EuI+zQ==
-----END CERTIFICATE-----
