Certificate:
    Data:
        Version: 3 (0x2)
        Serial Number: 15 (0xf)
        Signature Algorithm: sha256WithRSAEncryption
        Issuer: C=US, ST=California, L=Menlo Park, O=pkg5, CN=pubCA1_ta3/emailAddress=pubCA1_ta3
        Validity
            Not Before: Jan  1 01:01:01 2009 GMT
            Not After : Jan  2 01:01:01 2009 GMT
        Subject: C=US, ST=California, L=Menlo Park, O=pkg5, CN=cs3_p1_ta3/emailAddress=cs3_p1_ta3
        Subject Public Key Info:
            Public Key Algorithm: rsaEncryption
            RSA Public Key: (1024 bit)
                Modulus (1024 bit):
                    00:ce:9e:aa:9a:44:62:e4:9d:f2:cd:d1:ef:39:cc:
                    cb:b8:e9:1a:06:cf:7e:e4:e1:99:52:e0:5a:17:a9:
                    78:b3:e7:25:c0:97:f8:72:d4:75:50:c5:d9:84:84:
                    90:cc:53:5e:46:c0:66:d8:0a:76:0c:cf:f7:ff:f8:
                    fd:e9:f4:60:88:49:74:97:3d:34:f0:90:da:97:5d:
                    40:1e:78:cb:bf:84:1b:c2:7e:70:cb:b6:79:26:7d:
                    62:a1:63:60:0b:9f:b3:5a:5f:13:a8:1c:5e:f5:39:
                    0c:14:d4:67:58:16:09:3b:cf:5c:4a:4a:e6:17:80:
                    90:69:b5:6d:8d:c8:27:88:9d
                Exponent: 65537 (0x10001)
        X509v3 extensions:
            X509v3 Basic Constraints: critical
                CA:FALSE
            X509v3 Key Usage: 
                Digital Signature
    Signature Algorithm: sha256WithRSAEncryption
        41:c7:40:05:62:dd:88:6f:07:66:78:9b:56:0d:55:77:9e:b7:
        d1:08:f6:b1:59:cd:85:72:b3:19:fd:0f:c7:4f:a9:54:52:6a:
        4b:f0:c2:d1:35:6c:1c:cd:71:ee:6f:61:c3:a9:a2:f9:13:68:
        6a:56:f9:95:c6:da:82:61:9d:de:dd:4b:e1:42:2f:db:80:62:
        49:31:45:60:c8:d6:3d:1b:49:82:6f:df:1c:a4:ca:01:9a:6f:
        bc:ff:9e:a8:ec:42:f8:22:f9:70:b3:3a:e6:e2:3e:d2:18:58:
        89:95:d8:01:fe:b1:25:5e:bc:a2:70:1c:59:5d:e5:af:b1:02:
        ac:d3
-----BEGIN CERTIFICATE-----
MIICfzCCAeigAwIBAgIBDzANBgkqhkiG9w0BAQsFADB2MQswCQYDVQQGEwJVUzET
MBEGA1UECBMKQ2FsaWZvcm5pYTETMBEGA1UEBxMKTWVubG8gUGFyazENMAsGA1UE
ChMEcGtnNTETMBEGA1UEAxQKcHViQ0ExX3RhMzEZMBcGCSqGSIb3DQEJARYKcHVi
Q0ExX3RhMzAeFw0wOTAxMDEwMTAxMDFaFw0wOTAxMDIwMTAxMDFaMHYxCzAJBgNV
BAYTAlVTMRMwEQYDVQQIEwpDYWxpZm9ybmlhMRMwEQYDVQQHEwpNZW5sbyBQYXJr
MQ0wCwYDVQQKEwRwa2c1MRMwEQYDVQQDFApjczNfcDFfdGEzMRkwFwYJKoZIhvcN
AQkBFgpjczNfcDFfdGEzMIGfMA0GCSqGSIb3DQEBAQUAA4GNADCBiQKBgQDOnqqa
RGLknfLN0e85zMu46RoGz37k4ZlS4FoXqXiz5yXAl/hy1HVQxdmEhJDMU15GwGbY
CnYMz/f/+P3p9GCISXSXPTTwkNqXXUAeeMu/hBvCfnDLtnkmfWKhY2ALn7NaXxOo
HF71OQwU1GdYFgk7z1xKSuYXgJBptW2NyCeInQIDAQABox0wGzAMBgNVHRMBAf8E
AjAAMAsGA1UdDwQEAwIHgDANBgkqhkiG9w0BAQsFAAOBgQBBx0AFYt2IbwdmeJtW
DVV3nrfRCPaxWc2FcrMZ/Q/HT6lUUmpL8MLRNWwczXHub2HDqaL5E2hqVvmVxtqC
YZ3e3UvhQi/bgGJJMUVgyNY9G0mCb98cpMoBmm+8/56o7EL4Ivlwszrm4j7SGFiJ
ldgB/rElXryicBxZXeWvsQKs0w==
-----END CERTIFICATE-----
