Certificate:
    Data:
        Version: 3 (0x2)
        Serial Number: 16 (0x10)
        Signature Algorithm: sha256WithRSAEncryption
        Issuer: C=US, ST=California, L=Menlo Park, O=pkg5, CN=pubCA1_ta3/emailAddress=pubCA1_ta3
        Validity
            Not Before: Jan  1 01:01:01 2035 GMT
            Not After : Jan  2 01:01:01 2035 GMT
        Subject: C=US, ST=California, L=Menlo Park, O=pkg5, CN=cs4_p1_ta3/emailAddress=cs4_p1_ta3
        Subject Public Key Info:
            Public Key Algorithm: rsaEncryption
            RSA Public Key: (1024 bit)
                Modulus (1024 bit):
                    00:e2:60:08:58:af:0f:1b:38:07:8c:9d:b6:88:c5:
                    99:34:c6:da:7f:37:6b:2e:73:4c:d4:4d:96:c8:9f:
                    66:61:4c:cc:97:79:b8:af:68:50:3a:4a:78:d1:57:
                    9a:b4:f3:4d:20:72:e9:5d:eb:99:9f:0d:04:a9:f0:
                    5b:3f:34:29:b8:b5:28:e1:ea:43:9d:0e:ed:70:4a:
                    d1:52:13:41:2c:10:6c:5b:bc:8f:65:ff:3b:fc:b6:
                    27:d7:e9:dc:3b:f8:62:d5:45:85:a5:c1:b7:3d:19:
                    f9:78:78:90:a4:b6:a5:42:ef:82:f5:17:80:80:63:
                    9d:2d:51:24:3e:a1:4f:cc:17
                Exponent: 65537 (0x10001)
        X509v3 extensions:
            X509v3 Basic Constraints: critical
                CA:FALSE
            X509v3 Key Usage: critical
                Digital Signature
    Signature Algorithm: sha256WithRSAEncryption
        a1:8e:31:d1:59:5e:8a:db:6f:b4:46:46:46:80:17:32:c7:f4:
        47:db:6e:ff:48:8e:1b:0c:5a:ae:aa:31:74:da:37:df:d4:01:
        1a:6a:7f:7d:16:1a:5c:d8:a3:56:26:9b:c4:47:ff:4b:40:69:
        3d:a8:e0:25:da:31:51:61:bc:08:b0:47:1a:2d:ae:56:e9:ba:
        a7:cb:c5:bd:f2:8d:d7:62:72:9d:ff:4d:9f:f7:63:cc:0c:26:
        19:f1:41:04:f2:82:06:a8:7c:22:ce:7f:af:5a:57:8c:ba:ca:
        21:8f:95:5d:80:b0:37:6b:c1:7a:ea:3a:7c:3f:c6:bf:42:d7:
        d4:e4
-----BEGIN CERTIFICATE-----
MIICgjCCAeugAwIBAgIBEDANBgkqhkiG9w0BAQsFADB2MQswCQYDVQQGEwJVUzET
MBEGA1UECBMKQ2FsaWZvcm5pYTETMBEGA1UEBxMKTWVubG8gUGFyazENMAsGA1UE
ChMEcGtnNTETMBEGA1UEAxQKcHViQ0ExX3RhMzEZMBcGCSqGSIb3DQEJARYKcHVi
Q0ExX3RhMzAeFw0zNTAxMDEwMTAxMDFaFw0zNTAxMDIwMTAxMDFaMHYxCzAJBgNV
BAYTAlVTMRMwEQYDVQQIEwpDYWxpZm9ybmlhMRMwEQYDVQQHEwpNZW5sbyBQYXJr
MQ0wCwYDVQQKEwRwa2c1MRMwEQYDVQQDFApjczRfcDFfdGEzMRkwFwYJKoZIhvcN
AQkBFgpjczRfcDFfdGEzMIGfMA0GCSqGSIb3DQEBAQUAA4GNADCBiQKBgQDiYAhY
rw8bOAeMnbaIxZk0xtp/N2suc0zUTZbIn2ZhTMyXebivaFA6SnjRV5q0800gculd
65mfDQSp8Fs/NCm4tSjh6kOdDu1wStFSE0EsEGxbvI9l/zv8tifX6dw7+GLVRYWl
wbc9Gfl4eJCktqVC74L1F4CAY50tUSQ+oU/MFwIDAQABoyAwHjAMBgNVHRMBAf8E
AjAAMA4GA1UdDwEB/wQEAwIHgDANBgkqhkiG9w0BAQsFAAOBgQChjjHRWV6K22+0
RkZGgBcyx/RH227/SI4bDFquqjF02jff1AEaan99Fhpc2KNWJpvER/9LQGk9qOAl
2jFRYbwIsEcaLa5W6bqny8W98o3XYnKd/02f92PMDCYZ8UEE8oIGqHwizn+vWleM
usohj5VdgLA3a8F66jp8P8a/QtfU5A==
-----END CERTIFICATE-----
