Certificate:
    Data:
        Version: 3 (0x2)
        Serial Number: 17 (0x11)
    Signature Algorithm: sha256WithRSAEncryption
        Issuer: C=US, ST=California, L=Santa Clara, O=pkg5, CN=ch1_ta3/emailAddress=ch1_ta3
        Validity
            Not Before: Jul 19 11:35:46 2023 GMT
            Not After : Apr 14 11:35:46 2026 GMT
        Subject: C=US, ST=California, L=Santa Clara, O=pkg5, CN=cs1_ch1_ta3/emailAddress=cs1_ch1_ta3
        Subject Public Key Info:
            Public Key Algorithm: rsaEncryption
                Public-Key: (2048 bit)
                Modulus:
                    00:c2:02:b3:2a:b0:eb:d9:ea:fb:55:f1:a2:12:b8:
                    a6:0c:94:7e:06:22:04:42:54:58:10:92:d9:e9:2c:
                    8e:95:72:39:07:33:bb:7f:11:43:40:0d:43:0b:82:
                    62:de:44:0d:4f:e8:26:a0:85:b3:ab:2e:d8:e7:aa:
                    aa:35:35:1f:7a:f1:4e:2f:24:0c:5e:e6:01:cc:50:
                    d4:91:61:62:44:78:4b:6a:1c:33:02:b1:f9:51:67:
                    a2:30:df:82:9c:8a:b8:81:c9:44:cc:92:bb:6e:c0:
                    99:ed:50:9a:cd:83:4f:d6:49:d2:b5:33:32:15:68:
                    a4:a9:a5:c2:1c:ba:3e:0d:3f:cd:4e:2c:d3:c1:5e:
                    84:82:02:45:60:82:ac:67:2f:9a:96:22:83:25:3e:
                    dc:fe:f9:c5:cb:e9:84:92:5a:06:f9:4b:14:cb:92:
                    08:c5:eb:07:ab:d8:52:9f:28:f1:41:5a:1c:76:85:
                    a6:0d:bd:a5:f7:4e:dc:61:ac:d1:16:c1:fb:77:89:
                    25:e1:03:19:8f:56:27:0a:6c:6b:19:cf:06:bc:e1:
                    bf:07:03:55:b5:95:5d:14:68:90:aa:78:f1:95:a7:
                    29:a1:5f:c4:d3:84:8d:a2:98:3c:1f:e1:0c:40:da:
                    01:b6:40:70:68:17:c1:c3:26:2c:4a:03:a0:8c:9e:
                    f8:cd
                Exponent: 65537 (0x10001)
        X509v3 extensions:
            X509v3 Basic Constraints: critical
                CA:FALSE
            X509v3 Key Usage: critical
                Digital Signature
    Signature Algorithm: sha256WithRSAEncryption
         28:fa:69:e5:3e:b3:e8:f2:bb:28:7f:ae:98:93:a1:50:c6:d0:
         10:ad:88:71:62:1f:2c:1a:9e:70:14:fd:11:71:e7:d0:c4:3b:
         a3:c4:9d:19:b9:8b:b2:b2:41:e1:2b:8a:98:9b:36:77:fe:45:
         d5:5c:fc:99:98:05:b7:f8:bf:92:78:88:85:90:f2:3e:1f:81:
         01:cb:5c:73:a4:8a:07:3d:80:31:91:a2:c0:f6:a4:6a:66:dc:
         99:a5:90:32:95:17:18:f0:b8:6c:b9:78:e3:85:9e:58:03:aa:
         d0:d7:de:de:52:68:54:41:65:60:b7:fb:9b:f9:f5:e1:f4:0b:
         3f:a1:9e:40:a0:23:3a:8b:e7:92:eb:7e:13:04:77:e4:ba:fc:
         40:96:31:a8:45:1b:d8:fe:74:d8:34:3b:ef:9b:f0:c8:95:1e:
         67:15:ca:5e:4f:f9:c6:ff:da:9e:1f:73:c5:bd:80:4e:dc:84:
         e1:66:09:6a:fc:a2:72:66:c6:97:8b:e0:04:c4:f8:4a:a3:95:
         df:78:96:96:1e:df:00:e8:5d:27:d8:2b:73:f2:82:68:43:99:
         4c:bd:53:95:de:f5:1a:8b:18:e0:83:82:d2:a0:41:6c:eb:68:
         de:b2:4c:ee:15:10:0c:51:f7:24:19:9b:8d:3f:5f:3c:04:28:
         83:65:51:c6
-----BEGIN CERTIFICATE-----
MIIDhTCCAm2gAwIBAgIBETANBgkqhkiG9w0BAQsFADBxMQswCQYDVQQGEwJVUzET
MBEGA1UECAwKQ2FsaWZvcm5pYTEUMBIGA1UEBwwLU2FudGEgQ2xhcmExDTALBgNV
BAoMBHBrZzUxEDAOBgNVBAMMB2NoMV90YTMxFjAUBgkqhkiG9w0BCQEWB2NoMV90
YTMwHhcNMjMwNzE5MTEzNTQ2WhcNMjYwNDE0MTEzNTQ2WjB5MQswCQYDVQQGEwJV
UzETMBEGA1UECAwKQ2FsaWZvcm5pYTEUMBIGA1UEBwwLU2FudGEgQ2xhcmExDTAL
BgNVBAoMBHBrZzUxFDASBgNVBAMMC2NzMV9jaDFfdGEzMRowGAYJKoZIhvcNAQkB
FgtjczFfY2gxX3RhMzCCASIwDQYJKoZIhvcNAQEBBQADggEPADCCAQoCggEBAMIC
syqw69nq+1XxohK4pgyUfgYiBEJUWBCS2eksjpVyOQczu38RQ0ANQwuCYt5EDU/o
JqCFs6su2OeqqjU1H3rxTi8kDF7mAcxQ1JFhYkR4S2ocMwKx+VFnojDfgpyKuIHJ
RMySu27Ame1Qms2DT9ZJ0rUzMhVopKmlwhy6Pg0/zU4s08FehIICRWCCrGcvmpYi
gyU+3P75xcvphJJaBvlLFMuSCMXrB6vYUp8o8UFaHHaFpg29pfdO3GGs0RbB+3eJ
JeEDGY9WJwpsaxnPBrzhvwcDVbWVXRRokKp48ZWnKaFfxNOEjaKYPB/hDEDaAbZA
cGgXwcMmLEoDoIye+M0CAwEAAaMgMB4wDAYDVR0TAQH/BAIwADAOBgNVHQ8BAf8E
BAMCB4AwDQYJKoZIhvcNAQELBQADggEBACj6aeU+s+jyuyh/rpiToVDG0BCtiHFi
HywannAU/RFx59DEO6PEnRm5i7KyQeEripibNnf+RdVc/JmYBbf4v5J4iIWQ8j4f
gQHLXHOkigc9gDGRosD2pGpm3JmlkDKVFxjwuGy5eOOFnlgDqtDX3t5SaFRBZWC3
+5v59eH0Cz+hnkCgIzqL55LrfhMEd+S6/ECWMahFG9j+dNg0O++b8MiVHmcVyl5P
+cb/2p4fc8W9gE7chOFmCWr8onJmxpeL4ATE+Eqjld94lpYe3wDoXSfYK3PygmhD
mUy9U5Xe9RqLGOCDgtKgQWzraN6yTO4VEAxR9yQZm40/XzwEKINlUcY=
-----END CERTIFICATE-----
