Certificate:
    Data:
        Version: 3 (0x2)
        Serial Number: 17 (0x11)
    Signature Algorithm: sha256WithRSAEncryption
        Issuer: C=US, ST=California, L=Santa Clara, O=pkg5, CN=ch1_ta3/emailAddress=ch1_ta3
        Validity
            Not Before: Sep 22 05:33:21 2021 GMT
            Not After : Jun 18 05:33:21 2024 GMT
        Subject: C=US, ST=California, L=Santa Clara, O=pkg5, CN=cs1_ch1_ta3/emailAddress=cs1_ch1_ta3
        Subject Public Key Info:
            Public Key Algorithm: rsaEncryption
                Public-Key: (1024 bit)
                Modulus:
                    00:c9:50:ec:49:54:8a:a3:45:82:7c:78:0a:f5:38:
                    cb:50:63:be:79:35:0d:97:08:ed:3c:2a:16:4b:84:
                    1e:7d:91:81:29:b2:58:75:7a:68:fc:69:2d:8a:f7:
                    ac:88:8a:67:1a:f7:46:a1:c0:85:62:fa:8b:8a:25:
                    41:9c:1d:d3:3f:b9:13:08:3a:0e:82:21:aa:76:31:
                    13:13:63:65:8b:75:4f:58:0c:30:ab:40:7f:c5:2f:
                    91:0a:d3:0c:45:de:87:69:29:21:bb:b3:4b:0e:98:
                    ca:23:aa:49:bb:2f:7a:11:25:14:ea:dc:47:08:fb:
                    90:df:6a:67:88:a3:04:67:31
                Exponent: 65537 (0x10001)
        X509v3 extensions:
            X509v3 Basic Constraints: critical
                CA:FALSE
            X509v3 Key Usage: critical
                Digital Signature
    Signature Algorithm: sha256WithRSAEncryption
         af:01:e1:ad:f5:26:c2:3a:11:a0:0c:fc:a4:c0:08:aa:ca:31:
         4f:d1:76:f5:3f:15:37:12:b5:4c:41:b6:b3:ba:20:59:84:5c:
         bd:af:c3:7e:1d:63:73:f6:07:e5:f3:d6:b0:ed:d3:2b:fe:b9:
         5f:d5:ce:5e:1a:b6:bc:ff:56:1a:94:d4:29:fb:b5:04:80:bc:
         bf:3e:df:6a:8e:00:b7:9b:93:7e:5b:ad:cf:5d:14:15:df:6a:
         0b:92:9f:7f:f1:48:8a:74:cb:b5:0c:6e:19:90:65:2d:1f:f0:
         b3:4e:1d:25:dd:ef:44:85:df:d3:f6:87:3b:f3:fe:68:3e:3f:
         ef:92:b5:76:89:8b:e3:0c:95:32:5d:8b:aa:44:55:7d:50:80:
         0d:72:7c:d1:5f:63:5d:c4:3e:11:14:cc:4e:c4:38:1e:64:1c:
         67:11:03:5f:9a:15:b9:5e:06:f7:c8:b6:f2:ab:9a:dc:9d:6d:
         1d:a8:af:97:52:2d:6f:10:8a:1d:c6:d5:d4:3b:e6:5c:d6:bd:
         eb:1e:c7:84:40:0c:89:32:0f:0f:e2:74:ee:a2:da:1c:6b:ef:
         95:fc:f2:ec:9a:dc:d8:e4:5a:28:7d:b0:f6:74:5b:f1:e1:ab:
         8e:0f:de:11:e6:f6:5a:28:d4:dd:0b:ff:b4:ec:44:a9:52:12:
         4b:30:80:70
-----BEGIN CERTIFICATE-----
MIIDATCCAemgAwIBAgIBETANBgkqhkiG9w0BAQsFADBxMQswCQYDVQQGEwJVUzET
MBEGA1UECAwKQ2FsaWZvcm5pYTEUMBIGA1UEBwwLU2FudGEgQ2xhcmExDTALBgNV
BAoMBHBrZzUxEDAOBgNVBAMMB2NoMV90YTMxFjAUBgkqhkiG9w0BCQEWB2NoMV90
YTMwHhcNMjEwOTIyMDUzMzIxWhcNMjQwNjE4MDUzMzIxWjB5MQswCQYDVQQGEwJV
UzETMBEGA1UECAwKQ2FsaWZvcm5pYTEUMBIGA1UEBwwLU2FudGEgQ2xhcmExDTAL
BgNVBAoMBHBrZzUxFDASBgNVBAMMC2NzMV9jaDFfdGEzMRowGAYJKoZIhvcNAQkB
FgtjczFfY2gxX3RhMzCBnzANBgkqhkiG9w0BAQEFAAOBjQAwgYkCgYEAyVDsSVSK
o0WCfHgK9TjLUGO+eTUNlwjtPCoWS4QefZGBKbJYdXpo/GktivesiIpnGvdGocCF
YvqLiiVBnB3TP7kTCDoOgiGqdjETE2Nli3VPWAwwq0B/xS+RCtMMRd6HaSkhu7NL
DpjKI6pJuy96ESUU6txHCPuQ32pniKMEZzECAwEAAaMgMB4wDAYDVR0TAQH/BAIw
ADAOBgNVHQ8BAf8EBAMCB4AwDQYJKoZIhvcNAQELBQADggEBAK8B4a31JsI6EaAM
/KTACKrKMU/RdvU/FTcStUxBtrO6IFmEXL2vw34dY3P2B+Xz1rDt0yv+uV/Vzl4a
trz/VhqU1Cn7tQSAvL8+32qOALebk35brc9dFBXfaguSn3/xSIp0y7UMbhmQZS0f
8LNOHSXd70SF39P2hzvz/mg+P++StXaJi+MMlTJdi6pEVX1QgA1yfNFfY13EPhEU
zE7EOB5kHGcRA1+aFbleBvfItvKrmtydbR2or5dSLW8Qih3G1dQ75lzWvesex4RA
DIkyDw/idO6i2hxr75X88uya3NjkWih9sPZ0W/Hhq44P3hHm9loo1N0L/7TsRKlS
EkswgHA=
-----END CERTIFICATE-----
