Certificate:
    Data:
        Version: 3 (0x2)
        Serial Number: 17 (0x11)
    Signature Algorithm: sha256WithRSAEncryption
        Issuer: C=US, ST=California, L=Santa Clara, O=pkg5, CN=ch1_ta3/emailAddress=ch1_ta3
        Validity
            Not Before: Jan 22 01:57:56 2016 GMT
            Not After : Oct 18 01:57:56 2018 GMT
        Subject: C=US, ST=California, L=Santa Clara, O=pkg5, CN=cs1_ch1_ta3/emailAddress=cs1_ch1_ta3
        Subject Public Key Info:
            Public Key Algorithm: rsaEncryption
                Public-Key: (1024 bit)
                Modulus:
                    00:bd:1a:02:7f:2c:e8:d7:9c:c2:2d:70:bd:9d:1f:
                    56:c6:dd:f8:97:0e:5b:75:bd:d6:d9:d0:16:a0:c6:
                    80:87:e4:b3:be:c3:aa:f4:a3:e9:20:04:f2:04:fa:
                    0d:bd:32:0b:96:65:0c:22:35:05:7c:d5:68:29:1a:
                    79:74:4d:21:5a:c8:11:e7:6e:7a:cd:79:f4:5d:7e:
                    57:08:14:c9:16:12:40:60:f8:25:15:3f:02:2f:b8:
                    eb:7f:06:9a:a4:f1:29:e7:48:55:1b:0c:9b:a5:4c:
                    29:bd:33:63:8c:7e:8d:c6:38:ee:78:63:24:35:e2:
                    3c:76:81:7a:6f:22:3e:82:97
                Exponent: 65537 (0x10001)
        X509v3 extensions:
            X509v3 Basic Constraints: critical
                CA:FALSE
            X509v3 Key Usage: critical
                Digital Signature
    Signature Algorithm: sha256WithRSAEncryption
         70:83:e0:e1:03:6f:db:c7:ed:52:d3:68:b3:2a:22:d9:0c:89:
         f1:58:5b:2a:63:48:b5:eb:b1:ee:d9:ca:52:0c:c5:24:7f:cc:
         c9:c5:5a:8d:69:27:a2:06:a8:4d:23:cc:94:91:f4:4c:bb:fd:
         26:e7:b8:f7:08:8b:91:35:ec:68:bc:db:59:24:4b:d7:b7:f5:
         21:6e:68:5d:a3:4a:85:a5:e7:d2:f3:9c:49:0c:37:e0:e8:7c:
         c5:33:46:06:a3:92:b0:80:c4:05:52:89:55:8a:96:c2:90:44:
         7c:c2:38:0d:16:23:37:b5:20:23:8f:46:c0:7d:3c:ae:e8:08:
         7c:04:b5:01:e8:e9:28:df:c9:cb:74:08:35:c3:1d:55:76:18:
         cd:5f:ae:00:50:0c:a2:41:e6:a5:b0:e7:b2:53:07:4a:32:38:
         74:b6:25:2e:57:18:b7:32:04:b9:7e:03:4e:f5:3f:cf:9a:44:
         b8:cf:d5:c8:aa:39:71:b8:e2:e8:4b:eb:7d:c1:94:f3:96:8b:
         9e:3e:63:bb:a1:3c:52:e2:7f:76:b6:82:8e:a5:78:4c:4f:4f:
         5c:f5:69:2a:88:55:fb:78:28:0f:e0:3a:77:a1:e3:c3:89:f5:
         5c:41:91:1a:79:70:6c:28:6b:ad:64:56:8c:28:35:99:6c:ca:
         94:8e:b5:4e
-----BEGIN CERTIFICATE-----
MIIDATCCAemgAwIBAgIBETANBgkqhkiG9w0BAQsFADBxMQswCQYDVQQGEwJVUzET
MBEGA1UECAwKQ2FsaWZvcm5pYTEUMBIGA1UEBwwLU2FudGEgQ2xhcmExDTALBgNV
BAoMBHBrZzUxEDAOBgNVBAMMB2NoMV90YTMxFjAUBgkqhkiG9w0BCQEWB2NoMV90
YTMwHhcNMTYwMTIyMDE1NzU2WhcNMTgxMDE4MDE1NzU2WjB5MQswCQYDVQQGEwJV
UzETMBEGA1UECAwKQ2FsaWZvcm5pYTEUMBIGA1UEBwwLU2FudGEgQ2xhcmExDTAL
BgNVBAoMBHBrZzUxFDASBgNVBAMMC2NzMV9jaDFfdGEzMRowGAYJKoZIhvcNAQkB
FgtjczFfY2gxX3RhMzCBnzANBgkqhkiG9w0BAQEFAAOBjQAwgYkCgYEAvRoCfyzo
15zCLXC9nR9Wxt34lw5bdb3W2dAWoMaAh+SzvsOq9KPpIATyBPoNvTILlmUMIjUF
fNVoKRp5dE0hWsgR5256zXn0XX5XCBTJFhJAYPglFT8CL7jrfwaapPEp50hVGwyb
pUwpvTNjjH6NxjjueGMkNeI8doF6byI+gpcCAwEAAaMgMB4wDAYDVR0TAQH/BAIw
ADAOBgNVHQ8BAf8EBAMCB4AwDQYJKoZIhvcNAQELBQADggEBAHCD4OEDb9vH7VLT
aLMqItkMifFYWypjSLXrse7ZylIMxSR/zMnFWo1pJ6IGqE0jzJSR9Ey7/SbnuPcI
i5E17Gi821kkS9e39SFuaF2jSoWl59LznEkMN+DofMUzRgajkrCAxAVSiVWKlsKQ
RHzCOA0WIze1ICOPRsB9PK7oCHwEtQHo6Sjfyct0CDXDHVV2GM1frgBQDKJB5qWw
57JTB0oyOHS2JS5XGLcyBLl+A071P8+aRLjP1ciqOXG44uhL633BlPOWi54+Y7uh
PFLif3a2go6leExPT1z1aSqIVft4KA/gOneh48OJ9VxBkRp5cGwoa61kVowoNZls
ypSOtU4=
-----END CERTIFICATE-----
