Certificate:
    Data:
        Version: 3 (0x2)
        Serial Number: 17 (0x11)
    Signature Algorithm: sha256WithRSAEncryption
        Issuer: C=US, ST=California, L=Santa Clara, O=pkg5, CN=ch1_ta3/emailAddress=ch1_ta3
        Validity
            Not Before: Dec 13 00:13:35 2013 GMT
            Not After : Sep  8 00:13:35 2016 GMT
        Subject: C=US, ST=California, L=Santa Clara, O=pkg5, CN=cs1_ch1_ta3/emailAddress=cs1_ch1_ta3
        Subject Public Key Info:
            Public Key Algorithm: rsaEncryption
                Public-Key: (1024 bit)
                Modulus:
                    00:ea:17:76:34:ce:b3:de:ac:50:62:a0:0f:14:50:
                    89:72:26:d5:a2:97:17:91:eb:df:97:7e:80:ff:69:
                    8e:01:0a:bb:d1:a1:e0:f3:d2:27:56:c6:2d:0f:b5:
                    84:e4:70:f3:e1:7e:fc:92:8e:fd:77:48:cb:ac:cd:
                    bf:f4:aa:fa:29:5f:1b:44:03:cf:fa:6f:6d:ae:db:
                    61:f1:3e:ef:95:de:41:23:36:a2:3a:e7:67:26:04:
                    6b:7e:9d:f6:92:5e:5b:4c:ab:0a:aa:cf:99:b4:4c:
                    54:05:73:81:a3:7b:5d:82:cb:e0:ee:9b:29:29:e6:
                    fb:dd:93:64:23:13:85:d1:e1
                Exponent: 65537 (0x10001)
        X509v3 extensions:
            X509v3 Basic Constraints: critical
                CA:FALSE
            X509v3 Key Usage: critical
                Digital Signature
    Signature Algorithm: sha256WithRSAEncryption
         60:5d:82:5a:64:28:86:45:51:ab:d5:4c:74:ad:eb:84:37:fa:
         ed:53:df:29:0d:00:9c:4b:33:f4:25:83:ad:b3:e4:cb:11:b0:
         6e:92:cd:4f:9d:4b:7d:d0:bb:bc:c5:ef:b1:44:2e:54:e1:5e:
         68:1f:a9:06:a7:e2:ca:82:f9:ac:e8:14:82:a3:26:03:7b:1b:
         63:98:4f:bb:c9:5d:d5:79:77:bc:2e:e3:3d:7a:82:79:af:7d:
         fc:e8:a0:9d:f9:e1:74:6d:e6:b9:47:84:19:dd:3f:43:51:8d:
         9b:c1:27:9e:b7:c7:6b:e2:1f:77:29:bb:5f:a6:16:bf:d0:fd:
         5a:c2
-----BEGIN CERTIFICATE-----
MIICgDCCAemgAwIBAgIBETANBgkqhkiG9w0BAQsFADBxMQswCQYDVQQGEwJVUzET
MBEGA1UECAwKQ2FsaWZvcm5pYTEUMBIGA1UEBwwLU2FudGEgQ2xhcmExDTALBgNV
BAoMBHBrZzUxEDAOBgNVBAMMB2NoMV90YTMxFjAUBgkqhkiG9w0BCQEWB2NoMV90
YTMwHhcNMTMxMjEzMDAxMzM1WhcNMTYwOTA4MDAxMzM1WjB5MQswCQYDVQQGEwJV
UzETMBEGA1UECAwKQ2FsaWZvcm5pYTEUMBIGA1UEBwwLU2FudGEgQ2xhcmExDTAL
BgNVBAoMBHBrZzUxFDASBgNVBAMMC2NzMV9jaDFfdGEzMRowGAYJKoZIhvcNAQkB
FgtjczFfY2gxX3RhMzCBnzANBgkqhkiG9w0BAQEFAAOBjQAwgYkCgYEA6hd2NM6z
3qxQYqAPFFCJcibVopcXkevfl36A/2mOAQq70aHg89InVsYtD7WE5HDz4X78ko79
d0jLrM2/9Kr6KV8bRAPP+m9trtth8T7vld5BIzaiOudnJgRrfp32kl5bTKsKqs+Z
tExUBXOBo3tdgsvg7pspKeb73ZNkIxOF0eECAwEAAaMgMB4wDAYDVR0TAQH/BAIw
ADAOBgNVHQ8BAf8EBAMCB4AwDQYJKoZIhvcNAQELBQADgYEAYF2CWmQohkVRq9VM
dK3rhDf67VPfKQ0AnEsz9CWDrbPkyxGwbpLNT51LfdC7vMXvsUQuVOFeaB+pBqfi
yoL5rOgUgqMmA3sbY5hPu8ld1Xl3vC7jPXqCea99/OignfnhdG3muUeEGd0/Q1GN
m8EnnrfHa+Ifdym7X6YWv9D9WsI=
-----END CERTIFICATE-----
