Certificate:
    Data:
        Version: 3 (0x2)
        Serial Number: 17 (0x11)
        Signature Algorithm: sha256WithRSAEncryption
        Issuer: C=US, ST=California, L=Menlo Park, O=pkg5, CN=ch1_ta3/emailAddress=ch1_ta3
        Validity
            Not Before: Apr 11 22:37:44 2011 GMT
            Not After : Jan  5 22:37:44 2014 GMT
        Subject: C=US, ST=California, L=Menlo Park, O=pkg5, CN=cs1_ch1_ta3/emailAddress=cs1_ch1_ta3
        Subject Public Key Info:
            Public Key Algorithm: rsaEncryption
            RSA Public Key: (1024 bit)
                Modulus (1024 bit):
                    00:cc:26:a7:16:78:9a:fb:e2:da:da:e3:c4:ef:7e:
                    cb:5c:21:1c:aa:c1:53:35:df:cc:dc:f5:e2:98:0b:
                    e6:8e:05:f4:e5:97:28:98:54:95:15:11:c9:1e:97:
                    ed:ee:f4:49:4e:2f:0a:a2:16:83:0d:f5:49:65:78:
                    6d:ba:a2:19:1b:74:27:64:1a:22:0b:85:47:d0:e1:
                    85:25:1e:5c:fd:00:7a:37:9e:7e:83:43:cf:17:4e:
                    2f:ea:7d:c9:5a:b8:70:7a:82:2c:74:0f:77:47:10:
                    1a:a4:51:16:08:9e:71:b5:7c:54:53:60:92:a8:0c:
                    1c:b3:b1:0f:ab:c3:0e:46:c5
                Exponent: 65537 (0x10001)
        X509v3 extensions:
            X509v3 Basic Constraints: critical
                CA:FALSE
            X509v3 Key Usage: critical
                Digital Signature
    Signature Algorithm: sha256WithRSAEncryption
        39:fc:dd:ed:5b:f5:75:d9:01:ed:86:33:11:21:27:c9:ad:78:
        d3:e7:48:8a:3e:11:71:71:0f:d5:10:5b:5a:f0:16:a2:ac:70:
        e9:3c:db:b9:30:c0:0d:2e:b4:8a:97:c3:50:d7:00:53:d3:4f:
        b7:24:ff:38:64:e0:ff:87:01:18:6f:7c:bd:3c:2a:bc:fe:9b:
        0a:d8:66:ce:9e:4e:fa:4c:5c:b5:62:ae:dc:1b:c4:ef:84:da:
        45:3f:c2:a9:6d:74:a5:f0:44:7e:14:70:a4:4d:e3:dc:92:bb:
        49:de:68:35:bb:59:a0:24:ba:d6:89:44:28:6b:b8:69:ca:64:
        7f:f4
-----BEGIN CERTIFICATE-----
MIICfjCCAeegAwIBAgIBETANBgkqhkiG9w0BAQsFADBwMQswCQYDVQQGEwJVUzET
MBEGA1UECBMKQ2FsaWZvcm5pYTETMBEGA1UEBxMKTWVubG8gUGFyazENMAsGA1UE
ChMEcGtnNTEQMA4GA1UEAxQHY2gxX3RhMzEWMBQGCSqGSIb3DQEJARYHY2gxX3Rh
MzAeFw0xMTA0MTEyMjM3NDRaFw0xNDAxMDUyMjM3NDRaMHgxCzAJBgNVBAYTAlVT
MRMwEQYDVQQIEwpDYWxpZm9ybmlhMRMwEQYDVQQHEwpNZW5sbyBQYXJrMQ0wCwYD
VQQKEwRwa2c1MRQwEgYDVQQDFAtjczFfY2gxX3RhMzEaMBgGCSqGSIb3DQEJARYL
Y3MxX2NoMV90YTMwgZ8wDQYJKoZIhvcNAQEBBQADgY0AMIGJAoGBAMwmpxZ4mvvi
2trjxO9+y1whHKrBUzXfzNz14pgL5o4F9OWXKJhUlRURyR6X7e70SU4vCqIWgw31
SWV4bbqiGRt0J2QaIguFR9DhhSUeXP0AejeefoNDzxdOL+p9yVq4cHqCLHQPd0cQ
GqRRFgiecbV8VFNgkqgMHLOxD6vDDkbFAgMBAAGjIDAeMAwGA1UdEwEB/wQCMAAw
DgYDVR0PAQH/BAQDAgeAMA0GCSqGSIb3DQEBCwUAA4GBADn83e1b9XXZAe2GMxEh
J8mteNPnSIo+EXFxD9UQW1rwFqKscOk827kwwA0utIqXw1DXAFPTT7ck/zhk4P+H
ARhvfL08Krz+mwrYZs6eTvpMXLVirtwbxO+E2kU/wqltdKXwRH4UcKRN49ySu0ne
aDW7WaAkutaJRChruGnKZH/0
-----END CERTIFICATE-----
