Certificate:
    Data:
        Version: 3 (0x2)
        Serial Number: 17 (0x11)
        Signature Algorithm: sha256WithRSAEncryption
        Issuer: C=US, ST=California, L=Santa Clara, O=pkg5, CN=ch1_ta3/emailAddress=ch1_ta3
        Validity
            Not Before: Mar 18 08:51:33 2026 GMT
            Not After : Dec 12 08:51:33 2028 GMT
        Subject: C=US, ST=California, L=Santa Clara, O=pkg5, CN=cs1_ch1_ta3/emailAddress=cs1_ch1_ta3
        Subject Public Key Info:
            Public Key Algorithm: rsaEncryption
                Public-Key: (2048 bit)
                Modulus:
                    00:b2:f8:5b:e3:53:73:de:b1:03:df:69:31:4b:00:
                    03:02:22:dd:d5:53:e5:32:9f:fc:4c:e3:00:89:c4:
                    9e:51:a9:bc:9c:ce:21:2f:ed:1e:f2:3d:74:cb:90:
                    3f:28:ce:64:0e:83:d8:d2:ee:4f:59:27:0d:8f:36:
                    1c:4b:bb:96:d1:7c:10:12:ca:4f:c2:0e:ab:6b:6e:
                    3c:62:99:ab:c9:a7:32:7a:56:87:cb:f8:d6:03:77:
                    3a:9b:0d:de:22:a7:91:28:b9:f2:fd:5f:d7:45:0e:
                    3d:b6:8c:6d:4f:5d:37:8f:3c:b0:8b:99:91:e6:6b:
                    70:e5:65:67:e0:51:87:bd:6c:72:7f:11:f8:50:60:
                    f0:3d:5b:43:5b:bb:37:e2:b1:a9:63:bd:1f:a4:48:
                    ae:a6:d1:d0:01:c9:f9:e4:7a:78:f9:ba:ca:d4:18:
                    ac:7e:8f:5b:a4:de:22:59:94:0c:0a:88:ac:a7:55:
                    ee:c6:ad:67:15:41:b0:b8:c2:39:01:63:0e:11:fa:
                    fb:4d:69:35:00:90:a2:d6:a2:db:43:66:f7:8b:8d:
                    28:d9:4f:93:37:67:44:9b:8f:00:fe:06:a0:3f:b0:
                    84:12:48:70:4a:df:0b:82:1b:7e:3f:20:07:1d:80:
                    88:dc:f6:8b:ff:04:32:b3:0f:5c:f9:f1:9e:1d:b8:
                    7e:a9
                Exponent: 65537 (0x10001)
        X509v3 extensions:
            X509v3 Basic Constraints: critical
                CA:FALSE
            X509v3 Key Usage: critical
                Digital Signature
            X509v3 Subject Key Identifier: 
                B1:D9:E1:EA:10:DA:86:0B:1C:D3:D5:D9:7B:17:CB:9E:E1:01:73:18
            X509v3 Authority Key Identifier: 
                D9:5E:2F:ED:23:64:CE:9F:A3:C2:6F:7D:FD:22:C9:21:6D:C3:CE:2F
    Signature Algorithm: sha256WithRSAEncryption
    Signature Value:
        53:b4:ad:0c:73:11:7a:06:cb:4b:74:94:d2:19:7c:b4:5f:ae:
        b0:fa:6e:37:7f:09:ee:9c:eb:80:be:61:bd:bf:2b:76:b4:72:
        58:3d:68:e6:fc:50:69:a2:a1:80:64:88:3b:73:38:d9:d2:27:
        ba:e3:0c:93:c8:33:e9:98:a6:08:04:20:58:c2:4d:5f:af:27:
        a9:8d:50:f0:66:d7:20:aa:2f:c1:86:2b:61:c9:ba:f9:00:2f:
        b3:cc:fa:6d:ac:82:05:bf:d1:ad:b4:8f:63:f7:fb:5b:bd:97:
        22:43:26:e7:42:aa:41:09:95:65:70:d2:f7:81:e3:0e:f7:54:
        b9:33:3c:77:c1:57:4c:ed:ea:fd:03:23:32:95:b7:3c:1d:2f:
        75:0a:a1:e7:4e:aa:ca:ec:49:b6:61:e2:38:a9:23:70:db:2e:
        cc:6a:4b:be:11:6f:2b:74:6e:8e:6c:c0:54:73:09:f6:13:f3:
        92:68:c1:e5:8f:fb:9a:34:b6:5d:24:38:0f:ba:44:3d:6e:d1:
        bf:91:6e:a6:c3:f0:23:fa:9d:b8:b3:fb:13:57:41:ff:d1:95:
        f0:d2:61:5f:dc:3d:38:0f:af:b2:87:a2:44:55:09:65:b9:ad:
        04:15:b9:19:82:cb:ec:9e:0b:4b:e0:29:fc:86:0a:7f:ac:11:
        96:f8:bb:25
-----BEGIN CERTIFICATE-----
MIIDxTCCAq2gAwIBAgIBETANBgkqhkiG9w0BAQsFADBxMQswCQYDVQQGEwJVUzET
MBEGA1UECAwKQ2FsaWZvcm5pYTEUMBIGA1UEBwwLU2FudGEgQ2xhcmExDTALBgNV
BAoMBHBrZzUxEDAOBgNVBAMMB2NoMV90YTMxFjAUBgkqhkiG9w0BCQEWB2NoMV90
YTMwHhcNMjYwMzE4MDg1MTMzWhcNMjgxMjEyMDg1MTMzWjB5MQswCQYDVQQGEwJV
UzETMBEGA1UECAwKQ2FsaWZvcm5pYTEUMBIGA1UEBwwLU2FudGEgQ2xhcmExDTAL
BgNVBAoMBHBrZzUxFDASBgNVBAMMC2NzMV9jaDFfdGEzMRowGAYJKoZIhvcNAQkB
FgtjczFfY2gxX3RhMzCCASIwDQYJKoZIhvcNAQEBBQADggEPADCCAQoCggEBALL4
W+NTc96xA99pMUsAAwIi3dVT5TKf/EzjAInEnlGpvJzOIS/tHvI9dMuQPyjOZA6D
2NLuT1knDY82HEu7ltF8EBLKT8IOq2tuPGKZq8mnMnpWh8v41gN3OpsN3iKnkSi5
8v1f10UOPbaMbU9dN488sIuZkeZrcOVlZ+BRh71scn8R+FBg8D1bQ1u7N+KxqWO9
H6RIrqbR0AHJ+eR6ePm6ytQYrH6PW6TeIlmUDAqIrKdV7satZxVBsLjCOQFjDhH6
+01pNQCQotai20Nm94uNKNlPkzdnRJuPAP4GoD+whBJIcErfC4Ibfj8gBx2AiNz2
i/8EMrMPXPnxnh24fqkCAwEAAaNgMF4wDAYDVR0TAQH/BAIwADAOBgNVHQ8BAf8E
BAMCB4AwHQYDVR0OBBYEFLHZ4eoQ2oYLHNPV2XsXy57hAXMYMB8GA1UdIwQYMBaA
FNleL+0jZM6fo8Jvff0iySFtw84vMA0GCSqGSIb3DQEBCwUAA4IBAQBTtK0McxF6
BstLdJTSGXy0X66w+m43fwnunOuAvmG9vyt2tHJYPWjm/FBpoqGAZIg7czjZ0ie6
4wyTyDPpmKYIBCBYwk1fryepjVDwZtcgqi/Bhithybr5AC+zzPptrIIFv9GttI9j
9/tbvZciQybnQqpBCZVlcNL3geMO91S5Mzx3wVdM7er9AyMylbc8HS91CqHnTqrK
7Em2YeI4qSNw2y7Maku+EW8rdG6ObMBUcwn2E/OSaMHlj/uaNLZdJDgPukQ9btG/
kW6mw/Aj+p24s/sTV0H/0ZXw0mFf3D04D6+yh6JEVQllua0EFbkZgsvsngtL4Cn8
hgp/rBGW+Lsl
-----END CERTIFICATE-----
