Certificate:
    Data:
        Version: 3 (0x2)
        Serial Number: 18 (0x12)
    Signature Algorithm: sha256WithRSAEncryption
        Issuer: C=US, ST=California, L=Santa Clara, O=pkg5, CN=ch1_ta3/emailAddress=ch1_ta3
        Validity
            Not Before: Jan 22 15:33:10 2019 GMT
            Not After : Oct 18 15:33:10 2021 GMT
        Subject: C=US, ST=California, L=Santa Clara, O=pkg5, CN=cs2_ch1_ta3/emailAddress=cs2_ch1_ta3
        Subject Public Key Info:
            Public Key Algorithm: rsaEncryption
                Public-Key: (1024 bit)
                Modulus:
                    00:b9:11:f6:6c:40:58:0f:b2:94:16:1e:82:d9:35:
                    4f:9f:52:06:c6:c3:55:d1:3b:e2:b1:66:5e:c0:73:
                    6b:b0:7e:6c:22:fb:80:48:65:78:e0:84:8f:a7:ea:
                    c0:45:17:07:5c:16:97:0f:a8:a9:d3:c8:7f:7b:ab:
                    e7:f8:af:be:aa:f9:49:09:81:f0:8f:e0:5d:4d:9b:
                    c0:85:dd:0e:55:00:9a:bf:b4:ef:2e:8b:51:65:d2:
                    21:f6:05:ab:51:2e:d3:4d:33:00:34:bd:a8:d1:d8:
                    de:6b:f7:dc:b2:09:72:b8:2e:31:d5:1b:3c:c3:c0:
                    37:0d:c3:ef:91:36:5b:48:79
                Exponent: 65537 (0x10001)
        X509v3 extensions:
            X509v3 Basic Constraints: critical
                CA:FALSE
            X509v3 Issuer Alternative Name: critical
                <EMPTY>

    Signature Algorithm: sha256WithRSAEncryption
         98:7b:73:d9:d3:0b:4a:f8:36:41:f1:24:f8:69:9e:50:8e:cf:
         6d:62:6d:eb:5c:b6:35:b0:89:85:19:81:89:8d:b0:69:3b:77:
         e2:de:3d:13:6a:49:63:3e:e8:f2:7e:ab:5d:3b:f1:2d:03:c8:
         6b:02:84:84:bc:96:8f:fb:f6:88:04:a1:85:46:9f:f8:1e:3a:
         13:d3:8e:0a:82:51:e0:14:ab:d8:7e:dc:24:ca:34:c8:60:f5:
         8c:29:2f:c0:83:89:5b:b6:15:b9:86:08:c0:9c:b1:26:44:34:
         b3:2e:5a:a2:46:16:60:9c:4a:4f:2d:20:bb:ea:b6:f9:2f:02:
         83:74:b1:2f:0f:fb:2a:6f:1f:35:8c:9e:88:99:19:ab:9e:4d:
         8d:82:c0:e4:d6:20:70:a8:96:56:2e:13:c0:a7:66:e3:65:b6:
         b0:cd:73:2e:6e:b5:08:65:e2:dc:67:74:89:1e:19:03:00:11:
         f9:20:99:14:24:5d:f5:b2:cc:31:80:cd:c9:6d:72:c6:6b:c1:
         bb:c9:28:42:a0:10:46:bd:1c:71:40:f2:69:41:15:28:cd:57:
         7e:9a:f6:5a:1f:91:22:24:fe:e1:3d:fe:b1:a6:6c:2d:94:7d:
         14:cf:43:97:c4:e2:0a:55:f7:4e:93:dd:a1:d8:19:47:f7:9c:
         c5:84:c9:70
-----BEGIN CERTIFICATE-----
MIIC/zCCAeegAwIBAgIBEjANBgkqhkiG9w0BAQsFADBxMQswCQYDVQQGEwJVUzET
MBEGA1UECAwKQ2FsaWZvcm5pYTEUMBIGA1UEBwwLU2FudGEgQ2xhcmExDTALBgNV
BAoMBHBrZzUxEDAOBgNVBAMMB2NoMV90YTMxFjAUBgkqhkiG9w0BCQEWB2NoMV90
YTMwHhcNMTkwMTIyMTUzMzEwWhcNMjExMDE4MTUzMzEwWjB5MQswCQYDVQQGEwJV
UzETMBEGA1UECAwKQ2FsaWZvcm5pYTEUMBIGA1UEBwwLU2FudGEgQ2xhcmExDTAL
BgNVBAoMBHBrZzUxFDASBgNVBAMMC2NzMl9jaDFfdGEzMRowGAYJKoZIhvcNAQkB
FgtjczJfY2gxX3RhMzCBnzANBgkqhkiG9w0BAQEFAAOBjQAwgYkCgYEAuRH2bEBY
D7KUFh6C2TVPn1IGxsNV0TvisWZewHNrsH5sIvuASGV44ISPp+rARRcHXBaXD6ip
08h/e6vn+K++qvlJCYHwj+BdTZvAhd0OVQCav7TvLotRZdIh9gWrUS7TTTMANL2o
0djea/fcsglyuC4x1Rs8w8A3DcPvkTZbSHkCAwEAAaMeMBwwDAYDVR0TAQH/BAIw
ADAMBgNVHRIBAf8EAjAAMA0GCSqGSIb3DQEBCwUAA4IBAQCYe3PZ0wtK+DZB8ST4
aZ5Qjs9tYm3rXLY1sImFGYGJjbBpO3fi3j0TakljPujyfqtdO/EtA8hrAoSEvJaP
+/aIBKGFRp/4HjoT044KglHgFKvYftwkyjTIYPWMKS/Ag4lbthW5hgjAnLEmRDSz
LlqiRhZgnEpPLSC76rb5LwKDdLEvD/sqbx81jJ6ImRmrnk2NgsDk1iBwqJZWLhPA
p2bjZbawzXMubrUIZeLcZ3SJHhkDABH5IJkUJF31sswxgM3JbXLGa8G7yShCoBBG
vRxxQPJpQRUozVd+mvZaH5EiJP7hPf6xpmwtlH0Uz0OXxOIKVfdOk92h2BlH95zF
hMlw
-----END CERTIFICATE-----
