Certificate:
    Data:
        Version: 3 (0x2)
        Serial Number: 18 (0x12)
        Signature Algorithm: sha256WithRSAEncryption
        Issuer: C=US, ST=California, L=Santa Clara, O=pkg5, CN=ch1_ta3/emailAddress=ch1_ta3
        Validity
            Not Before: Mar 18 08:51:34 2026 GMT
            Not After : Dec 12 08:51:34 2028 GMT
        Subject: C=US, ST=California, L=Santa Clara, O=pkg5, CN=cs2_ch1_ta3/emailAddress=cs2_ch1_ta3
        Subject Public Key Info:
            Public Key Algorithm: rsaEncryption
                Public-Key: (2048 bit)
                Modulus:
                    00:bf:06:7c:fd:d2:bc:7d:6c:30:7a:2b:9e:bf:d5:
                    02:7d:7e:6d:b0:9f:cd:4b:13:90:ef:b6:0b:dd:73:
                    8b:7e:02:9e:43:14:4f:1d:b9:63:53:f1:c9:c8:13:
                    9e:24:f9:f0:2a:b2:b5:ad:86:dd:5d:ca:c9:3c:4b:
                    a5:a2:19:05:6a:a0:ed:b9:d9:c5:4b:75:25:54:57:
                    69:2b:0f:f1:d1:cb:fd:2f:f3:fa:e8:d5:e8:db:f9:
                    68:e4:6d:d0:3a:fe:0f:06:74:4d:be:80:a9:5c:d7:
                    8f:e6:5b:1b:46:3c:d4:dd:f9:1a:02:36:3f:2e:99:
                    40:9c:78:a4:20:1d:aa:1c:c7:2b:bb:ab:f6:2b:d5:
                    ee:91:37:3c:b8:d4:79:80:b1:54:e1:c6:89:8c:0d:
                    51:e5:1f:5c:25:f5:60:39:7f:4e:54:f2:e2:73:c1:
                    2b:83:06:64:97:a0:07:55:82:4f:2b:c0:81:7f:89:
                    60:48:ec:09:d2:60:7a:2e:86:8b:bb:98:16:d9:ca:
                    8c:8e:f3:2f:55:05:8f:46:85:19:42:93:c9:65:22:
                    0d:67:d3:34:d6:9b:12:18:36:29:78:07:c8:07:34:
                    77:3a:1c:cf:e8:3a:30:bf:7c:af:d0:34:ed:90:8d:
                    fb:97:25:4a:4a:11:03:33:f6:58:68:5b:56:a1:1d:
                    f9:77
                Exponent: 65537 (0x10001)
        X509v3 extensions:
            X509v3 Basic Constraints: critical
                CA:FALSE
            X509v3 Issuer Alternative Name: critical
                <EMPTY>

            X509v3 Subject Key Identifier: 
                2F:25:8D:CC:97:30:C9:99:75:F3:DE:AF:01:6F:EC:96:40:85:7D:14
            X509v3 Authority Key Identifier: 
                D9:5E:2F:ED:23:64:CE:9F:A3:C2:6F:7D:FD:22:C9:21:6D:C3:CE:2F
    Signature Algorithm: sha256WithRSAEncryption
    Signature Value:
        1a:cb:41:95:4b:16:a3:fb:79:f0:dc:ee:09:78:1b:b9:b1:ea:
        3e:3d:41:52:fb:74:e3:28:a3:4a:cd:47:85:9d:f7:35:c8:bb:
        f9:67:4e:8b:f7:8e:19:fc:bf:c4:b3:f4:da:44:38:08:03:f8:
        89:71:8e:e7:7c:e6:51:f8:12:ee:3b:1f:cd:c5:3e:96:77:31:
        aa:9f:5f:e0:2b:75:9f:97:71:f6:c5:6d:0c:91:c0:32:bf:fc:
        f2:ac:52:27:08:f0:a4:c7:29:7a:76:ce:27:23:05:8e:29:15:
        a5:76:6c:c2:83:6c:af:74:0b:9d:e3:05:63:b9:47:c8:75:21:
        ac:15:08:7c:32:c7:37:24:e9:cc:d1:8a:88:c4:d6:99:db:7c:
        f6:0c:73:b5:5c:06:6c:f6:1c:fe:99:96:df:d9:b1:b1:b1:e6:
        ce:b8:14:67:30:f7:45:73:62:f0:3b:00:c6:1c:c4:e5:84:cd:
        fb:f9:72:33:10:3a:d3:b3:19:b0:76:57:75:46:d8:95:8a:dd:
        7d:49:0c:62:98:77:59:c9:61:ec:b0:01:ed:b6:e9:62:10:dc:
        9d:84:9e:ec:6e:c7:4b:a1:97:43:70:3d:f9:89:6a:1f:1a:f3:
        9c:a4:2c:ea:d9:ea:18:9d:f5:f4:85:08:88:4d:0f:14:64:b3:
        0f:70:07:ea
-----BEGIN CERTIFICATE-----
MIIDwzCCAqugAwIBAgIBEjANBgkqhkiG9w0BAQsFADBxMQswCQYDVQQGEwJVUzET
MBEGA1UECAwKQ2FsaWZvcm5pYTEUMBIGA1UEBwwLU2FudGEgQ2xhcmExDTALBgNV
BAoMBHBrZzUxEDAOBgNVBAMMB2NoMV90YTMxFjAUBgkqhkiG9w0BCQEWB2NoMV90
YTMwHhcNMjYwMzE4MDg1MTM0WhcNMjgxMjEyMDg1MTM0WjB5MQswCQYDVQQGEwJV
UzETMBEGA1UECAwKQ2FsaWZvcm5pYTEUMBIGA1UEBwwLU2FudGEgQ2xhcmExDTAL
BgNVBAoMBHBrZzUxFDASBgNVBAMMC2NzMl9jaDFfdGEzMRowGAYJKoZIhvcNAQkB
FgtjczJfY2gxX3RhMzCCASIwDQYJKoZIhvcNAQEBBQADggEPADCCAQoCggEBAL8G
fP3SvH1sMHornr/VAn1+bbCfzUsTkO+2C91zi34CnkMUTx25Y1PxycgTniT58Cqy
ta2G3V3KyTxLpaIZBWqg7bnZxUt1JVRXaSsP8dHL/S/z+ujV6Nv5aORt0Dr+DwZ0
Tb6AqVzXj+ZbG0Y81N35GgI2Py6ZQJx4pCAdqhzHK7ur9ivV7pE3PLjUeYCxVOHG
iYwNUeUfXCX1YDl/TlTy4nPBK4MGZJegB1WCTyvAgX+JYEjsCdJgei6Gi7uYFtnK
jI7zL1UFj0aFGUKTyWUiDWfTNNabEhg2KXgHyAc0dzocz+g6ML98r9A07ZCN+5cl
SkoRAzP2WGhbVqEd+XcCAwEAAaNeMFwwDAYDVR0TAQH/BAIwADAMBgNVHRIBAf8E
AjAAMB0GA1UdDgQWBBQvJY3MlzDJmXXz3q8Bb+yWQIV9FDAfBgNVHSMEGDAWgBTZ
Xi/tI2TOn6PCb339IskhbcPOLzANBgkqhkiG9w0BAQsFAAOCAQEAGstBlUsWo/t5
8NzuCXgbubHqPj1BUvt04yijSs1HhZ33Nci7+WdOi/eOGfy/xLP02kQ4CAP4iXGO
53zmUfgS7jsfzcU+lncxqp9f4Ct1n5dx9sVtDJHAMr/88qxSJwjwpMcpenbOJyMF
jikVpXZswoNsr3QLneMFY7lHyHUhrBUIfDLHNyTpzNGKiMTWmdt89gxztVwGbPYc
/pmW39mxsbHmzrgUZzD3RXNi8DsAxhzE5YTN+/lyMxA607MZsHZXdUbYlYrdfUkM
Yph3Wclh7LAB7bbpYhDcnYSe7G7HS6GXQ3A9+YlqHxrznKQs6tnqGJ319IUIiE0P
FGSzD3AH6g==
-----END CERTIFICATE-----
