Certificate:
    Data:
        Version: 3 (0x2)
        Serial Number: 18 (0x12)
    Signature Algorithm: sha256WithRSAEncryption
        Issuer: C=US, ST=California, L=Santa Clara, O=pkg5, CN=ch1_ta3/emailAddress=ch1_ta3
        Validity
            Not Before: Jul 19 11:35:46 2023 GMT
            Not After : Apr 14 11:35:46 2026 GMT
        Subject: C=US, ST=California, L=Santa Clara, O=pkg5, CN=cs2_ch1_ta3/emailAddress=cs2_ch1_ta3
        Subject Public Key Info:
            Public Key Algorithm: rsaEncryption
                Public-Key: (2048 bit)
                Modulus:
                    00:c0:0f:40:b9:22:c1:85:75:a3:99:3f:c0:7c:ed:
                    a9:4c:70:64:42:a6:cc:66:05:13:0a:c1:29:10:c0:
                    6d:a3:76:2b:e5:f1:a3:3d:3d:2a:65:e2:fc:60:aa:
                    40:cd:d2:3f:a3:d9:a5:b4:7f:94:31:08:88:3f:91:
                    7b:b3:8d:f6:4c:92:2e:82:8d:bc:d2:13:ba:47:d3:
                    f5:13:3b:c9:a8:b9:ce:fa:a2:ce:3d:32:8a:67:19:
                    1b:0a:6d:9c:91:de:57:5a:77:2c:67:97:c3:0e:2d:
                    08:02:85:87:5e:98:29:14:9c:1a:2b:d4:a1:3b:e6:
                    21:29:41:cf:6c:5e:14:ce:e6:35:bd:3a:c2:13:c2:
                    e6:21:9f:b0:ca:f0:0d:ae:ad:1d:f1:72:d5:f6:0a:
                    32:39:6c:85:aa:43:35:6a:76:53:ca:bb:1e:7e:80:
                    ae:60:7b:33:43:de:e3:83:05:f6:fd:10:a4:ec:cc:
                    85:ac:c7:9e:bc:30:05:d2:5d:98:1c:2b:e0:43:e1:
                    bc:f4:77:07:bb:ed:ec:86:19:49:f6:b5:27:0d:d6:
                    e6:6d:d6:5d:db:aa:eb:30:21:08:00:cd:f0:a5:cc:
                    65:37:04:25:c9:a7:69:fb:b7:03:39:8a:94:61:e1:
                    c5:e4:49:09:6e:ee:82:37:19:e3:de:f7:d3:08:4f:
                    dc:97
                Exponent: 65537 (0x10001)
        X509v3 extensions:
            X509v3 Basic Constraints: critical
                CA:FALSE
            X509v3 Issuer Alternative Name: critical
                <EMPTY>

    Signature Algorithm: sha256WithRSAEncryption
         20:bc:a3:9a:25:d5:7c:15:07:83:1c:c0:9a:c8:a5:58:7d:6e:
         43:03:34:90:f8:b8:de:00:c7:af:aa:67:ab:31:2f:62:7a:39:
         90:ce:5f:34:e4:58:43:c4:fb:5f:32:74:fa:7b:7c:5a:74:bc:
         9c:97:42:47:8b:c8:5f:31:c8:5e:36:0a:61:9e:c3:d1:32:85:
         07:fa:00:a3:9b:b6:16:d8:4b:30:45:f2:70:0a:cc:cb:a2:42:
         8a:d4:b2:d0:11:32:ae:4c:fb:40:3b:b2:bd:65:36:7c:77:8e:
         e8:f8:05:a0:99:0c:a7:28:65:20:aa:7a:91:40:03:75:4b:65:
         76:28:7b:d1:76:da:9d:e9:72:e0:96:65:a7:77:78:8c:69:e8:
         a2:2c:5c:cf:9f:d4:2a:a8:22:64:96:98:36:b0:5a:05:59:2b:
         91:dd:7c:1f:7b:7f:5b:b8:6e:91:46:7d:35:e6:d3:f4:c4:54:
         f6:14:76:6e:03:8c:40:54:a5:36:13:4d:0d:c2:dc:5e:cc:63:
         4a:90:21:d8:d3:36:14:77:cd:8d:02:9b:ca:75:ac:0f:c7:1d:
         42:e3:11:ca:d1:b4:fb:e3:f2:ac:90:38:37:b1:38:aa:8a:4a:
         8a:dd:62:93:92:76:0c:39:3c:49:a5:b6:0c:c0:e6:14:0f:9b:
         67:a3:fb:4c
-----BEGIN CERTIFICATE-----
MIIDgzCCAmugAwIBAgIBEjANBgkqhkiG9w0BAQsFADBxMQswCQYDVQQGEwJVUzET
MBEGA1UECAwKQ2FsaWZvcm5pYTEUMBIGA1UEBwwLU2FudGEgQ2xhcmExDTALBgNV
BAoMBHBrZzUxEDAOBgNVBAMMB2NoMV90YTMxFjAUBgkqhkiG9w0BCQEWB2NoMV90
YTMwHhcNMjMwNzE5MTEzNTQ2WhcNMjYwNDE0MTEzNTQ2WjB5MQswCQYDVQQGEwJV
UzETMBEGA1UECAwKQ2FsaWZvcm5pYTEUMBIGA1UEBwwLU2FudGEgQ2xhcmExDTAL
BgNVBAoMBHBrZzUxFDASBgNVBAMMC2NzMl9jaDFfdGEzMRowGAYJKoZIhvcNAQkB
FgtjczJfY2gxX3RhMzCCASIwDQYJKoZIhvcNAQEBBQADggEPADCCAQoCggEBAMAP
QLkiwYV1o5k/wHztqUxwZEKmzGYFEwrBKRDAbaN2K+Xxoz09KmXi/GCqQM3SP6PZ
pbR/lDEIiD+Re7ON9kySLoKNvNITukfT9RM7yai5zvqizj0yimcZGwptnJHeV1p3
LGeXww4tCAKFh16YKRScGivUoTvmISlBz2xeFM7mNb06whPC5iGfsMrwDa6tHfFy
1fYKMjlshapDNWp2U8q7Hn6ArmB7M0Pe44MF9v0QpOzMhazHnrwwBdJdmBwr4EPh
vPR3B7vt7IYZSfa1Jw3W5m3WXduq6zAhCADN8KXMZTcEJcmnafu3AzmKlGHhxeRJ
CW7ugjcZ49730whP3JcCAwEAAaMeMBwwDAYDVR0TAQH/BAIwADAMBgNVHRIBAf8E
AjAAMA0GCSqGSIb3DQEBCwUAA4IBAQAgvKOaJdV8FQeDHMCayKVYfW5DAzSQ+Lje
AMevqmerMS9iejmQzl805FhDxPtfMnT6e3xadLycl0JHi8hfMcheNgphnsPRMoUH
+gCjm7YW2EswRfJwCszLokKK1LLQETKuTPtAO7K9ZTZ8d47o+AWgmQynKGUgqnqR
QAN1S2V2KHvRdtqd6XLglmWnd3iMaeiiLFzPn9QqqCJklpg2sFoFWSuR3Xwfe39b
uG6RRn015tP0xFT2FHZuA4xAVKU2E00NwtxezGNKkCHY0zYUd82NApvKdawPxx1C
4xHK0bT74/KskDg3sTiqikqK3WKTknYMOTxJpbYMwOYUD5tno/tM
-----END CERTIFICATE-----
