Certificate:
    Data:
        Version: 3 (0x2)
        Serial Number: 18 (0x12)
    Signature Algorithm: sha256WithRSAEncryption
        Issuer: C=US, ST=California, L=Santa Clara, O=pkg5, CN=ch1_ta3/emailAddress=ch1_ta3
        Validity
            Not Before: Sep 22 05:33:22 2021 GMT
            Not After : Jun 18 05:33:22 2024 GMT
        Subject: C=US, ST=California, L=Santa Clara, O=pkg5, CN=cs2_ch1_ta3/emailAddress=cs2_ch1_ta3
        Subject Public Key Info:
            Public Key Algorithm: rsaEncryption
                Public-Key: (1024 bit)
                Modulus:
                    00:e9:68:4f:c2:d2:bd:f1:58:9b:72:6e:68:07:04:
                    db:1f:45:2b:6a:c1:45:88:cc:43:b0:5f:a6:8d:dc:
                    16:89:eb:b9:e2:ee:d7:3d:e8:ba:4e:93:97:a1:75:
                    ab:c5:7f:78:62:f6:16:fe:a7:4d:1b:9c:e6:32:b9:
                    aa:5d:81:97:f2:3e:32:79:07:9d:a1:98:c7:c5:e9:
                    01:1d:d6:f0:e7:f4:b3:3c:b5:ca:32:f8:50:3e:ce:
                    65:27:9e:91:fc:38:59:9f:bd:7b:e7:5b:d4:f9:ff:
                    ef:35:a3:7d:c4:5e:3a:9e:05:d6:51:75:af:4b:72:
                    e3:27:fb:4c:34:b2:cd:ae:2b
                Exponent: 65537 (0x10001)
        X509v3 extensions:
            X509v3 Basic Constraints: critical
                CA:FALSE
            X509v3 Issuer Alternative Name: critical
                <EMPTY>

    Signature Algorithm: sha256WithRSAEncryption
         37:ef:58:e7:d7:4a:1e:3a:90:cd:12:b2:01:26:1c:9b:b1:ce:
         0e:71:b7:9c:bb:cc:7f:a5:1e:1f:e4:d2:ea:13:d8:d2:f3:31:
         88:9a:0e:d1:c8:55:e6:39:2f:ec:ca:f8:61:fe:a5:33:01:16:
         18:7d:51:be:3f:7f:c6:77:6e:e4:ff:47:6f:ef:8a:47:ab:4d:
         7a:10:79:d9:cc:f0:d7:be:0d:fb:e7:22:41:d7:8f:dd:38:c4:
         3d:f1:53:a3:ac:25:53:47:5d:a8:06:4d:c6:a3:40:91:66:d8:
         ca:93:21:3e:2a:4b:17:1f:ed:04:90:ed:55:39:3f:50:f9:c8:
         28:89:26:62:43:30:c4:0e:4e:9e:3c:e4:0e:e7:b8:0b:c7:69:
         35:8b:82:76:fa:83:f3:d9:2d:93:ee:a0:90:c6:d5:e0:ff:1c:
         95:4d:9f:22:03:4e:1b:ce:6a:ec:d3:b0:36:2c:21:b9:c0:00:
         85:7d:35:47:3e:3d:9e:70:ac:e4:ea:ca:3f:d8:8c:1b:ec:f5:
         c2:45:d7:cd:d3:19:6b:32:24:42:c2:f8:5c:9d:fd:e8:2d:59:
         bf:cf:93:ee:24:dc:35:12:05:f7:43:df:29:a9:e7:1b:cf:49:
         57:9a:43:d3:be:f5:7b:a6:44:a6:f1:8f:e0:5f:d1:0c:bc:62:
         5e:fb:aa:16
-----BEGIN CERTIFICATE-----
MIIC/zCCAeegAwIBAgIBEjANBgkqhkiG9w0BAQsFADBxMQswCQYDVQQGEwJVUzET
MBEGA1UECAwKQ2FsaWZvcm5pYTEUMBIGA1UEBwwLU2FudGEgQ2xhcmExDTALBgNV
BAoMBHBrZzUxEDAOBgNVBAMMB2NoMV90YTMxFjAUBgkqhkiG9w0BCQEWB2NoMV90
YTMwHhcNMjEwOTIyMDUzMzIyWhcNMjQwNjE4MDUzMzIyWjB5MQswCQYDVQQGEwJV
UzETMBEGA1UECAwKQ2FsaWZvcm5pYTEUMBIGA1UEBwwLU2FudGEgQ2xhcmExDTAL
BgNVBAoMBHBrZzUxFDASBgNVBAMMC2NzMl9jaDFfdGEzMRowGAYJKoZIhvcNAQkB
FgtjczJfY2gxX3RhMzCBnzANBgkqhkiG9w0BAQEFAAOBjQAwgYkCgYEA6WhPwtK9
8Vibcm5oBwTbH0UrasFFiMxDsF+mjdwWieu54u7XPei6TpOXoXWrxX94YvYW/qdN
G5zmMrmqXYGX8j4yeQedoZjHxekBHdbw5/SzPLXKMvhQPs5lJ56R/DhZn71751vU
+f/vNaN9xF46ngXWUXWvS3LjJ/tMNLLNrisCAwEAAaMeMBwwDAYDVR0TAQH/BAIw
ADAMBgNVHRIBAf8EAjAAMA0GCSqGSIb3DQEBCwUAA4IBAQA371jn10oeOpDNErIB
Jhybsc4Ocbecu8x/pR4f5NLqE9jS8zGImg7RyFXmOS/syvhh/qUzARYYfVG+P3/G
d27k/0dv74pHq016EHnZzPDXvg375yJB14/dOMQ98VOjrCVTR12oBk3Go0CRZtjK
kyE+KksXH+0EkO1VOT9Q+cgoiSZiQzDEDk6ePOQO57gLx2k1i4J2+oPz2S2T7qCQ
xtXg/xyVTZ8iA04bzmrs07A2LCG5wACFfTVHPj2ecKzk6so/2Iwb7PXCRdfN0xlr
MiRCwvhcnf3oLVm/z5PuJNw1EgX3Q98pqecbz0lXmkPTvvV7pkSm8Y/gX9EMvGJe
+6oW
-----END CERTIFICATE-----
