Certificate:
    Data:
        Version: 3 (0x2)
        Serial Number: 18 (0x12)
    Signature Algorithm: sha256WithRSAEncryption
        Issuer: C=US, ST=California, L=Santa Clara, O=pkg5, CN=ch1_ta3/emailAddress=ch1_ta3
        Validity
            Not Before: Dec 13 00:13:35 2013 GMT
            Not After : Sep  8 00:13:35 2016 GMT
        Subject: C=US, ST=California, L=Santa Clara, O=pkg5, CN=cs2_ch1_ta3/emailAddress=cs2_ch1_ta3
        Subject Public Key Info:
            Public Key Algorithm: rsaEncryption
                Public-Key: (1024 bit)
                Modulus:
                    00:98:97:30:92:90:4d:45:5a:0c:e2:6f:fb:25:9e:
                    72:7f:56:64:f5:64:f5:b2:5b:85:27:b7:ad:fa:24:
                    d7:54:00:1d:5c:4d:c2:92:81:76:f1:37:49:14:b7:
                    9d:8c:fb:96:69:2d:11:32:6a:19:eb:eb:eb:27:a3:
                    be:1f:00:29:c8:ba:d6:ca:97:df:e0:83:68:51:9c:
                    81:f5:63:e0:69:39:1a:fe:5e:af:c3:af:b6:23:b8:
                    aa:b4:65:c7:f4:7e:63:db:ff:1b:7e:ce:ed:60:7d:
                    be:2f:fd:05:ee:d0:cd:72:7e:91:93:69:82:29:8f:
                    a8:a8:53:b1:d7:ea:83:df:89
                Exponent: 65537 (0x10001)
        X509v3 extensions:
            X509v3 Basic Constraints: critical
                CA:FALSE
            X509v3 Issuer Alternative Name: critical
                <EMPTY>

    Signature Algorithm: sha256WithRSAEncryption
         53:10:01:62:32:bd:ff:7d:30:a5:09:5f:77:44:af:0d:81:d4:
         4b:c8:f6:fe:ba:38:65:9f:b6:55:77:7a:36:86:42:64:1a:89:
         66:4f:1d:f5:0a:65:1e:06:2c:07:46:b3:57:ba:98:1d:1c:46:
         52:08:65:32:70:9d:98:3e:e9:6b:be:da:7e:91:54:60:52:ad:
         0e:90:3f:ee:7c:2a:03:84:8f:4f:e4:1b:d3:4f:a8:d3:c2:29:
         74:cc:ac:87:81:7e:38:07:cd:d8:5f:20:00:b6:e4:ea:c1:e5:
         06:77:19:da:9c:3b:43:7f:91:ab:8c:f1:b7:03:09:09:0a:85:
         de:91
-----BEGIN CERTIFICATE-----
MIICfjCCAeegAwIBAgIBEjANBgkqhkiG9w0BAQsFADBxMQswCQYDVQQGEwJVUzET
MBEGA1UECAwKQ2FsaWZvcm5pYTEUMBIGA1UEBwwLU2FudGEgQ2xhcmExDTALBgNV
BAoMBHBrZzUxEDAOBgNVBAMMB2NoMV90YTMxFjAUBgkqhkiG9w0BCQEWB2NoMV90
YTMwHhcNMTMxMjEzMDAxMzM1WhcNMTYwOTA4MDAxMzM1WjB5MQswCQYDVQQGEwJV
UzETMBEGA1UECAwKQ2FsaWZvcm5pYTEUMBIGA1UEBwwLU2FudGEgQ2xhcmExDTAL
BgNVBAoMBHBrZzUxFDASBgNVBAMMC2NzMl9jaDFfdGEzMRowGAYJKoZIhvcNAQkB
FgtjczJfY2gxX3RhMzCBnzANBgkqhkiG9w0BAQEFAAOBjQAwgYkCgYEAmJcwkpBN
RVoM4m/7JZ5yf1Zk9WT1sluFJ7et+iTXVAAdXE3CkoF28TdJFLedjPuWaS0RMmoZ
6+vrJ6O+HwApyLrWypff4INoUZyB9WPgaTka/l6vw6+2I7iqtGXH9H5j2/8bfs7t
YH2+L/0F7tDNcn6Rk2mCKY+oqFOx1+qD34kCAwEAAaMeMBwwDAYDVR0TAQH/BAIw
ADAMBgNVHRIBAf8EAjAAMA0GCSqGSIb3DQEBCwUAA4GBAFMQAWIyvf99MKUJX3dE
rw2B1EvI9v66OGWftlV3ejaGQmQaiWZPHfUKZR4GLAdGs1e6mB0cRlIIZTJwnZg+
6Wu+2n6RVGBSrQ6QP+58KgOEj0/kG9NPqNPCKXTMrIeBfjgHzdhfIAC25OrB5QZ3
GdqcO0N/kauM8bcDCQkKhd6R
-----END CERTIFICATE-----
