Certificate:
    Data:
        Version: 3 (0x2)
        Serial Number: 19 (0x13)
        Signature Algorithm: sha256WithRSAEncryption
        Issuer: C=US, ST=California, L=Santa Clara, O=pkg5, CN=ch1_ta3/emailAddress=ch1_ta3
        Validity
            Not Before: Jan  1 01:01:01 2009 GMT
            Not After : Jan  2 01:01:01 2009 GMT
        Subject: C=US, ST=California, L=Santa Clara, O=pkg5, CN=cs3_ch1_ta3/emailAddress=cs3_ch1_ta3
        Subject Public Key Info:
            Public Key Algorithm: rsaEncryption
                Public-Key: (2048 bit)
                Modulus:
                    00:95:9a:34:90:a9:2d:51:02:0e:f7:da:e9:47:64:
                    a2:1d:d5:d0:4b:1f:e5:fc:c1:12:d1:ec:a6:79:32:
                    24:b7:52:98:f8:78:ed:ac:29:2a:ab:82:94:2a:26:
                    8c:e0:89:44:2b:4e:9a:1e:14:c3:16:97:fc:c7:a0:
                    13:59:0b:0d:f2:4b:6c:4d:a1:da:d4:90:57:d1:cd:
                    07:f4:00:12:ac:46:19:da:27:e3:fb:e3:ce:d9:f1:
                    40:73:95:8a:c8:b2:fb:b9:da:24:55:86:0b:f4:97:
                    ca:36:a4:09:cf:ce:a1:4b:ab:48:8e:f7:a7:3d:87:
                    f5:9f:46:d0:ab:c3:fc:02:ab:03:cd:f4:c7:ef:44:
                    cc:80:22:28:b3:37:6a:85:fc:a4:f7:16:15:48:4d:
                    82:ed:de:de:5f:84:b9:4b:fe:1c:1e:9b:98:b5:9b:
                    b4:5f:f7:2e:22:1c:b2:8b:60:6d:f9:15:7b:11:6a:
                    3e:b6:67:7a:5e:02:e4:00:22:6e:04:04:cd:9e:8f:
                    40:bd:a4:6b:1d:3c:87:68:48:85:8b:59:fd:5e:37:
                    e6:d1:af:84:47:2d:22:63:28:22:f3:ff:39:3d:9a:
                    38:0d:fa:26:9d:6e:b2:be:86:51:b1:20:89:57:ed:
                    8a:18:6d:ba:45:aa:2b:cd:cf:6a:d0:af:3f:5a:70:
                    23:6d
                Exponent: 65537 (0x10001)
        X509v3 extensions:
            X509v3 Basic Constraints: critical
                CA:FALSE
            X509v3 Key Usage: critical
                Digital Signature
            X509v3 Subject Key Identifier: 
                6B:3F:81:A5:0E:F2:1B:F3:BA:BC:4C:F1:A0:C3:00:9A:6A:8D:1F:9E
            X509v3 Authority Key Identifier: 
                D9:5E:2F:ED:23:64:CE:9F:A3:C2:6F:7D:FD:22:C9:21:6D:C3:CE:2F
    Signature Algorithm: sha256WithRSAEncryption
    Signature Value:
        25:8b:24:2c:fb:38:11:aa:86:4d:d2:50:5a:95:01:fa:f2:4d:
        90:ce:e6:4a:06:4b:f4:85:7e:09:e3:de:8c:76:ed:9f:7e:a8:
        b3:ff:7e:bc:12:ab:c8:52:36:20:1e:dc:dc:04:17:83:8c:d4:
        a7:34:08:05:83:2d:17:90:84:b6:93:4b:2a:25:f3:54:60:52:
        e3:14:ed:01:10:38:57:a9:6c:15:78:58:c3:54:04:11:78:58:
        cb:3a:6b:a9:7b:04:5f:99:3c:8e:8f:6f:50:40:a1:13:70:85:
        e6:60:2a:8b:48:ba:15:70:65:b0:a5:89:61:24:79:aa:cd:ca:
        63:58:07:4c:1f:b7:43:0a:99:3a:1d:fd:41:e5:c0:4f:b9:6e:
        00:73:6e:3e:d6:15:71:71:f3:28:15:3c:7b:a4:62:fe:dd:30:
        8d:56:8f:4c:3c:75:45:5c:ac:6e:c8:8c:1a:3c:8b:fa:ce:93:
        b2:d9:b8:42:7e:a4:2a:c2:e7:a5:1d:87:78:bc:6d:fe:cc:39:
        8b:2e:28:ee:d8:9c:53:7f:cf:a1:89:4a:15:d6:23:73:d8:01:
        c2:56:2a:42:e6:c4:b6:fd:be:ee:00:e4:82:f6:a0:1e:5c:b5:
        2b:b3:10:5c:58:b5:1e:cc:75:4b:ff:17:e4:55:fb:e6:95:ff:
        2a:d5:8d:e3
-----BEGIN CERTIFICATE-----
MIIDxTCCAq2gAwIBAgIBEzANBgkqhkiG9w0BAQsFADBxMQswCQYDVQQGEwJVUzET
MBEGA1UECAwKQ2FsaWZvcm5pYTEUMBIGA1UEBwwLU2FudGEgQ2xhcmExDTALBgNV
BAoMBHBrZzUxEDAOBgNVBAMMB2NoMV90YTMxFjAUBgkqhkiG9w0BCQEWB2NoMV90
YTMwHhcNMDkwMTAxMDEwMTAxWhcNMDkwMTAyMDEwMTAxWjB5MQswCQYDVQQGEwJV
UzETMBEGA1UECAwKQ2FsaWZvcm5pYTEUMBIGA1UEBwwLU2FudGEgQ2xhcmExDTAL
BgNVBAoMBHBrZzUxFDASBgNVBAMMC2NzM19jaDFfdGEzMRowGAYJKoZIhvcNAQkB
FgtjczNfY2gxX3RhMzCCASIwDQYJKoZIhvcNAQEBBQADggEPADCCAQoCggEBAJWa
NJCpLVECDvfa6Udkoh3V0Esf5fzBEtHspnkyJLdSmPh47awpKquClComjOCJRCtO
mh4UwxaX/MegE1kLDfJLbE2h2tSQV9HNB/QAEqxGGdon4/vjztnxQHOVisiy+7na
JFWGC/SXyjakCc/OoUurSI73pz2H9Z9G0KvD/AKrA830x+9EzIAiKLM3aoX8pPcW
FUhNgu3e3l+EuUv+HB6bmLWbtF/3LiIcsotgbfkVexFqPrZnel4C5AAibgQEzZ6P
QL2kax08h2hIhYtZ/V435tGvhEctImMoIvP/OT2aOA36Jp1usr6GUbEgiVftihht
ukWqK83PatCvP1pwI20CAwEAAaNgMF4wDAYDVR0TAQH/BAIwADAOBgNVHQ8BAf8E
BAMCB4AwHQYDVR0OBBYEFGs/gaUO8hvzurxM8aDDAJpqjR+eMB8GA1UdIwQYMBaA
FNleL+0jZM6fo8Jvff0iySFtw84vMA0GCSqGSIb3DQEBCwUAA4IBAQAliyQs+zgR
qoZN0lBalQH68k2QzuZKBkv0hX4J496Mdu2ffqiz/368EqvIUjYgHtzcBBeDjNSn
NAgFgy0XkIS2k0sqJfNUYFLjFO0BEDhXqWwVeFjDVAQReFjLOmupewRfmTyOj29Q
QKETcIXmYCqLSLoVcGWwpYlhJHmqzcpjWAdMH7dDCpk6Hf1B5cBPuW4Ac24+1hVx
cfMoFTx7pGL+3TCNVo9MPHVFXKxuyIwaPIv6zpOy2bhCfqQqwuelHYd4vG3+zDmL
Liju2JxTf8+hiUoV1iNz2AHCVipC5sS2/b7uAOSC9qAeXLUrsxBcWLUezHVL/xfk
Vfvmlf8q1Y3j
-----END CERTIFICATE-----
