Certificate:
    Data:
        Version: 3 (0x2)
        Serial Number: 19 (0x13)
    Signature Algorithm: sha256WithRSAEncryption
        Issuer: C=US, ST=California, L=Santa Clara, O=pkg5, CN=ch1_ta3/emailAddress=ch1_ta3
        Validity
            Not Before: Jan  1 01:01:01 2009 GMT
            Not After : Jan  2 01:01:01 2009 GMT
        Subject: C=US, ST=California, L=Santa Clara, O=pkg5, CN=cs3_ch1_ta3/emailAddress=cs3_ch1_ta3
        Subject Public Key Info:
            Public Key Algorithm: rsaEncryption
                Public-Key: (1024 bit)
                Modulus:
                    00:df:9f:1c:73:ce:11:ce:1a:fd:cd:f9:24:c0:c3:
                    c7:cc:f3:3b:87:8a:2c:67:bb:e3:c0:18:29:63:03:
                    01:49:08:0b:fc:95:23:81:e5:82:2c:24:f1:5f:06:
                    ab:29:c1:a5:5f:05:10:f8:25:24:8e:21:a3:e0:f9:
                    9d:5b:90:a8:78:76:7a:94:b7:70:5f:6b:0c:ac:2a:
                    f1:c9:0e:75:d9:11:0c:f1:f1:69:00:f8:e3:c5:d4:
                    52:ef:ec:ef:bb:cd:ff:28:1c:35:bb:1d:a0:df:46:
                    c3:f5:79:df:05:05:31:34:03:1f:b1:c5:6b:76:64:
                    72:a8:28:3b:d4:f4:6c:19:27
                Exponent: 65537 (0x10001)
        X509v3 extensions:
            X509v3 Basic Constraints: critical
                CA:FALSE
            X509v3 Key Usage: critical
                Digital Signature
    Signature Algorithm: sha256WithRSAEncryption
         6e:f5:fe:62:5d:34:38:cc:c7:c1:84:50:9f:9c:f8:1a:fc:19:
         9f:06:a7:e6:9d:d9:88:3b:bb:34:24:a4:a0:15:98:b7:ad:ca:
         b0:fa:b7:7d:e6:95:0e:e3:70:2d:dc:a2:1c:af:8d:8e:a9:eb:
         eb:86:fe:13:14:9d:c7:9a:e6:e6:a9:49:d7:b7:60:dd:82:a2:
         1b:36:d3:c4:da:1c:7e:e3:c1:a1:7d:59:68:6e:08:ab:64:ca:
         1f:24:87:f3:a8:ee:d9:3b:42:95:31:cc:7c:47:c4:ac:4e:94:
         d3:33:47:04:22:17:f1:da:bf:37:b3:f2:97:d2:ab:db:3c:5d:
         87:ae:21:13:65:e8:0f:83:ad:f1:f1:1d:4e:0a:42:3d:b3:19:
         9e:3d:b4:32:4c:39:5f:e2:b2:a7:ba:0f:04:68:42:e6:10:0b:
         be:a9:ac:9d:1f:03:53:e1:93:70:60:fa:6b:81:76:25:be:d7:
         05:00:52:0a:83:00:1f:1f:75:06:9b:14:ff:14:5a:69:db:c9:
         21:f3:42:cf:3c:3d:e2:a6:a9:8c:f3:04:54:fa:0d:1a:b5:c8:
         cf:d6:de:93:21:73:b0:02:04:aa:78:d5:96:4c:24:89:68:c0:
         73:90:cf:ab:19:f1:d1:5d:a3:60:d1:ab:ad:d5:5d:fb:4f:35:
         b2:15:2e:49
-----BEGIN CERTIFICATE-----
MIIDATCCAemgAwIBAgIBEzANBgkqhkiG9w0BAQsFADBxMQswCQYDVQQGEwJVUzET
MBEGA1UECAwKQ2FsaWZvcm5pYTEUMBIGA1UEBwwLU2FudGEgQ2xhcmExDTALBgNV
BAoMBHBrZzUxEDAOBgNVBAMMB2NoMV90YTMxFjAUBgkqhkiG9w0BCQEWB2NoMV90
YTMwHhcNMDkwMTAxMDEwMTAxWhcNMDkwMTAyMDEwMTAxWjB5MQswCQYDVQQGEwJV
UzETMBEGA1UECAwKQ2FsaWZvcm5pYTEUMBIGA1UEBwwLU2FudGEgQ2xhcmExDTAL
BgNVBAoMBHBrZzUxFDASBgNVBAMMC2NzM19jaDFfdGEzMRowGAYJKoZIhvcNAQkB
FgtjczNfY2gxX3RhMzCBnzANBgkqhkiG9w0BAQEFAAOBjQAwgYkCgYEA358cc84R
zhr9zfkkwMPHzPM7h4osZ7vjwBgpYwMBSQgL/JUjgeWCLCTxXwarKcGlXwUQ+CUk
jiGj4PmdW5CoeHZ6lLdwX2sMrCrxyQ512REM8fFpAPjjxdRS7+zvu83/KBw1ux2g
30bD9XnfBQUxNAMfscVrdmRyqCg71PRsGScCAwEAAaMgMB4wDAYDVR0TAQH/BAIw
ADAOBgNVHQ8BAf8EBAMCB4AwDQYJKoZIhvcNAQELBQADggEBAG71/mJdNDjMx8GE
UJ+c+Br8GZ8Gp+ad2Yg7uzQkpKAVmLetyrD6t33mlQ7jcC3cohyvjY6p6+uG/hMU
ncea5uapSde3YN2Cohs208TaHH7jwaF9WWhuCKtkyh8kh/Oo7tk7QpUxzHxHxKxO
lNMzRwQiF/Havzez8pfSq9s8XYeuIRNl6A+DrfHxHU4KQj2zGZ49tDJMOV/isqe6
DwRoQuYQC76prJ0fA1Phk3Bg+muBdiW+1wUAUgqDAB8fdQabFP8UWmnbySHzQs88
PeKmqYzzBFT6DRq1yM/W3pMhc7ACBKp41ZZMJIlowHOQz6sZ8dFdo2DRq63VXftP
NbIVLkk=
-----END CERTIFICATE-----
