Certificate:
    Data:
        Version: 3 (0x2)
        Serial Number: 19 (0x13)
    Signature Algorithm: sha256WithRSAEncryption
        Issuer: C=US, ST=California, L=Santa Clara, O=pkg5, CN=ch1_ta3/emailAddress=ch1_ta3
        Validity
            Not Before: Jan  1 01:01:01 2009 GMT
            Not After : Jan  2 01:01:01 2009 GMT
        Subject: C=US, ST=California, L=Santa Clara, O=pkg5, CN=cs3_ch1_ta3/emailAddress=cs3_ch1_ta3
        Subject Public Key Info:
            Public Key Algorithm: rsaEncryption
                Public-Key: (1024 bit)
                Modulus:
                    00:b8:7d:52:0e:ce:2a:85:6d:00:72:e9:e0:33:3e:
                    9f:1b:1f:5f:f8:43:d1:2f:30:f9:28:86:03:ce:c7:
                    14:74:28:87:7f:82:ed:58:00:30:f5:6e:80:fa:f6:
                    54:a1:32:9a:7a:5c:a8:92:9b:19:1b:35:0e:97:6e:
                    63:78:1e:e6:f1:27:54:ad:29:11:d1:0a:36:74:6f:
                    7f:cb:73:16:cb:d9:22:35:30:f8:ee:41:8f:9b:24:
                    6e:bd:fd:9a:17:08:56:6e:e8:3f:a6:5d:ba:cc:ff:
                    cd:00:8f:81:d1:2f:09:1a:65:cc:b6:20:87:39:b1:
                    0b:76:72:14:3e:d2:14:bb:bb
                Exponent: 65537 (0x10001)
        X509v3 extensions:
            X509v3 Basic Constraints: critical
                CA:FALSE
            X509v3 Key Usage: critical
                Digital Signature
    Signature Algorithm: sha256WithRSAEncryption
         01:30:f4:be:9d:89:59:04:db:54:67:87:50:8b:03:65:c3:68:
         f4:25:23:f9:95:88:fd:cd:9a:71:90:32:f2:10:c0:9a:74:4f:
         04:00:c1:9e:a2:6d:f5:5a:c1:cb:a1:ef:7b:b0:54:ba:83:d5:
         01:14:71:5e:57:56:7b:dd:84:38:8e:25:81:a3:4b:8f:ec:56:
         bf:9e:89:78:c6:92:19:0d:23:83:aa:2b:0e:41:e0:a0:d2:1e:
         68:9d:4d:71:4e:a4:b1:51:39:ae:2b:ac:ce:e9:63:82:dd:ec:
         5b:53:60:f5:6b:49:ec:93:e7:32:1a:3a:fc:48:95:ea:fa:67:
         a9:0f:c5:b0:a5:cf:8f:df:21:ee:3f:b5:28:2d:65:1b:76:c5:
         a0:29:9e:6a:98:0e:96:f3:38:21:91:94:dc:f6:9e:0a:50:87:
         94:15:c6:82:c0:ff:38:62:95:a9:70:c7:98:42:1b:ac:52:6d:
         d2:4b:5f:92:b8:d8:a2:e6:01:ad:e8:24:35:71:b4:c0:64:13:
         07:cd:e9:5c:5d:24:33:76:c4:bd:33:c7:bc:ab:11:1b:80:83:
         bf:54:d2:92:07:71:e8:2a:2d:92:cc:f4:13:8b:fc:95:50:ef:
         86:c4:10:6a:5b:d4:35:02:66:6f:b7:76:ab:07:33:6d:ed:e9:
         f1:3e:00:b1
-----BEGIN CERTIFICATE-----
MIIDATCCAemgAwIBAgIBEzANBgkqhkiG9w0BAQsFADBxMQswCQYDVQQGEwJVUzET
MBEGA1UECAwKQ2FsaWZvcm5pYTEUMBIGA1UEBwwLU2FudGEgQ2xhcmExDTALBgNV
BAoMBHBrZzUxEDAOBgNVBAMMB2NoMV90YTMxFjAUBgkqhkiG9w0BCQEWB2NoMV90
YTMwHhcNMDkwMTAxMDEwMTAxWhcNMDkwMTAyMDEwMTAxWjB5MQswCQYDVQQGEwJV
UzETMBEGA1UECAwKQ2FsaWZvcm5pYTEUMBIGA1UEBwwLU2FudGEgQ2xhcmExDTAL
BgNVBAoMBHBrZzUxFDASBgNVBAMMC2NzM19jaDFfdGEzMRowGAYJKoZIhvcNAQkB
FgtjczNfY2gxX3RhMzCBnzANBgkqhkiG9w0BAQEFAAOBjQAwgYkCgYEAuH1SDs4q
hW0AcungMz6fGx9f+EPRLzD5KIYDzscUdCiHf4LtWAAw9W6A+vZUoTKaelyokpsZ
GzUOl25jeB7m8SdUrSkR0Qo2dG9/y3MWy9kiNTD47kGPmyRuvf2aFwhWbug/pl26
zP/NAI+B0S8JGmXMtiCHObELdnIUPtIUu7sCAwEAAaMgMB4wDAYDVR0TAQH/BAIw
ADAOBgNVHQ8BAf8EBAMCB4AwDQYJKoZIhvcNAQELBQADggEBAAEw9L6diVkE21Rn
h1CLA2XDaPQlI/mViP3NmnGQMvIQwJp0TwQAwZ6ibfVawcuh73uwVLqD1QEUcV5X
VnvdhDiOJYGjS4/sVr+eiXjGkhkNI4OqKw5B4KDSHmidTXFOpLFROa4rrM7pY4Ld
7FtTYPVrSeyT5zIaOvxIler6Z6kPxbClz4/fIe4/tSgtZRt2xaApnmqYDpbzOCGR
lNz2ngpQh5QVxoLA/zhilalwx5hCG6xSbdJLX5K42KLmAa3oJDVxtMBkEwfN6Vxd
JDN2xL0zx7yrERuAg79U0pIHcegqLZLM9BOL/JVQ74bEEGpb1DUCZm+3dqsHM23t
6fE+ALE=
-----END CERTIFICATE-----
