Certificate:
    Data:
        Version: 3 (0x2)
        Serial Number: 20 (0x14)
        Signature Algorithm: sha256WithRSAEncryption
        Issuer: C=US, ST=California, L=Santa Clara, O=pkg5, CN=ch1_ta3/emailAddress=ch1_ta3
        Validity
            Not Before: Jan  1 01:01:01 2035 GMT
            Not After : Jan  2 01:01:01 2035 GMT
        Subject: C=US, ST=California, L=Santa Clara, O=pkg5, CN=cs4_ch1_ta3/emailAddress=cs4_ch1_ta3
        Subject Public Key Info:
            Public Key Algorithm: rsaEncryption
                Public-Key: (2048 bit)
                Modulus:
                    00:91:85:44:de:ef:e0:4e:9c:a7:57:e1:ca:aa:45:
                    15:8f:eb:3c:a6:18:6b:cd:e6:d5:30:78:71:38:32:
                    ba:40:76:3d:00:1c:50:89:37:e5:13:46:7a:ca:5e:
                    9c:a9:8d:40:ca:2f:14:1b:11:bf:c0:9d:0f:49:1f:
                    65:76:f7:00:45:8c:f1:2a:ac:c1:b9:f6:6c:5b:47:
                    67:f0:a4:65:38:3d:30:df:f3:bc:1d:9e:c8:b7:bd:
                    96:27:d7:d4:86:4f:ad:7a:9f:0d:13:52:53:85:1a:
                    b5:6c:9d:58:93:14:4d:f0:bb:69:1d:69:a2:ca:8f:
                    37:e3:bc:32:8b:59:22:ed:53:c9:6c:ca:ca:b0:06:
                    5a:7b:57:b9:86:ff:ff:8c:a2:ea:ce:be:7a:bb:3e:
                    0b:84:80:ce:57:f2:ae:69:f5:a6:b5:4a:38:4f:5a:
                    cb:be:53:9c:d3:a0:aa:12:61:00:4d:af:c7:82:d5:
                    4a:00:d2:77:ef:0c:82:ff:ae:e6:72:82:b3:41:30:
                    4e:53:3a:5d:e3:3c:2a:e2:f3:f0:18:16:e8:69:60:
                    d7:90:7d:c7:a1:c7:7c:ca:b8:c5:70:b4:5d:10:80:
                    2f:f5:a3:e2:6c:94:be:2c:ad:78:5f:1b:6d:83:29:
                    f1:69:69:00:ec:29:41:e6:b5:9a:b3:c0:cb:36:16:
                    ac:37
                Exponent: 65537 (0x10001)
        X509v3 extensions:
            X509v3 Basic Constraints: critical
                CA:FALSE
            X509v3 Key Usage: critical
                Digital Signature
            X509v3 Subject Key Identifier: 
                54:5E:EC:11:5D:04:28:8E:5C:4B:89:6E:7E:4D:A7:58:F3:C0:68:43
            X509v3 Authority Key Identifier: 
                D9:5E:2F:ED:23:64:CE:9F:A3:C2:6F:7D:FD:22:C9:21:6D:C3:CE:2F
    Signature Algorithm: sha256WithRSAEncryption
    Signature Value:
        3c:82:91:71:33:e5:0d:38:08:8c:d8:65:3a:0f:54:22:3e:90:
        78:5d:bb:68:ef:42:f8:74:69:16:6d:c6:36:22:06:d2:8d:f0:
        6d:92:f6:c3:13:4d:8b:f6:c3:0b:77:23:56:dc:1c:10:d5:0b:
        68:9f:66:ed:d5:c6:bf:8f:ed:31:03:15:18:b3:79:13:b4:ae:
        2c:93:8f:37:3c:cc:4d:20:2b:74:31:cf:8a:2b:23:a5:30:30:
        03:3c:70:b2:83:a1:f8:5a:ba:54:7f:18:ab:6f:87:62:3e:41:
        a9:f7:42:f7:6b:d9:18:ac:0b:33:c8:34:b8:83:4f:db:c8:35:
        6c:9e:5d:a6:f0:55:80:d4:84:29:a6:84:f7:80:40:80:09:9f:
        18:50:7a:a8:b6:38:af:dd:3a:f0:82:66:53:b5:20:f3:90:87:
        34:59:ee:2c:dc:e4:31:7f:89:cb:ce:ca:d3:7f:fe:41:ff:dd:
        dd:57:7d:ea:b2:b4:7c:2a:ee:b7:ad:eb:79:4b:70:e9:a5:8f:
        10:22:96:fa:a0:d7:b8:77:58:b2:93:aa:29:57:60:36:3b:a4:
        77:c3:ea:3c:da:b1:8e:c4:f5:84:f7:fc:ec:17:46:5c:d8:e3:
        26:8b:89:a0:dc:2a:eb:5e:09:9f:ba:50:67:84:81:5e:dd:08:
        a9:93:60:bf
-----BEGIN CERTIFICATE-----
MIIDxTCCAq2gAwIBAgIBFDANBgkqhkiG9w0BAQsFADBxMQswCQYDVQQGEwJVUzET
MBEGA1UECAwKQ2FsaWZvcm5pYTEUMBIGA1UEBwwLU2FudGEgQ2xhcmExDTALBgNV
BAoMBHBrZzUxEDAOBgNVBAMMB2NoMV90YTMxFjAUBgkqhkiG9w0BCQEWB2NoMV90
YTMwHhcNMzUwMTAxMDEwMTAxWhcNMzUwMTAyMDEwMTAxWjB5MQswCQYDVQQGEwJV
UzETMBEGA1UECAwKQ2FsaWZvcm5pYTEUMBIGA1UEBwwLU2FudGEgQ2xhcmExDTAL
BgNVBAoMBHBrZzUxFDASBgNVBAMMC2NzNF9jaDFfdGEzMRowGAYJKoZIhvcNAQkB
FgtjczRfY2gxX3RhMzCCASIwDQYJKoZIhvcNAQEBBQADggEPADCCAQoCggEBAJGF
RN7v4E6cp1fhyqpFFY/rPKYYa83m1TB4cTgyukB2PQAcUIk35RNGespenKmNQMov
FBsRv8CdD0kfZXb3AEWM8Sqswbn2bFtHZ/CkZTg9MN/zvB2eyLe9lifX1IZPrXqf
DRNSU4UatWydWJMUTfC7aR1posqPN+O8MotZIu1TyWzKyrAGWntXuYb//4yi6s6+
ers+C4SAzlfyrmn1prVKOE9ay75TnNOgqhJhAE2vx4LVSgDSd+8Mgv+u5nKCs0Ew
TlM6XeM8KuLz8BgW6Glg15B9x6HHfMq4xXC0XRCAL/Wj4myUviyteF8bbYMp8Wlp
AOwpQea1mrPAyzYWrDcCAwEAAaNgMF4wDAYDVR0TAQH/BAIwADAOBgNVHQ8BAf8E
BAMCB4AwHQYDVR0OBBYEFFRe7BFdBCiOXEuJbn5Np1jzwGhDMB8GA1UdIwQYMBaA
FNleL+0jZM6fo8Jvff0iySFtw84vMA0GCSqGSIb3DQEBCwUAA4IBAQA8gpFxM+UN
OAiM2GU6D1QiPpB4Xbto70L4dGkWbcY2IgbSjfBtkvbDE02L9sMLdyNW3BwQ1Qto
n2bt1ca/j+0xAxUYs3kTtK4sk483PMxNICt0Mc+KKyOlMDADPHCyg6H4WrpUfxir
b4diPkGp90L3a9kYrAszyDS4g0/byDVsnl2m8FWA1IQppoT3gECACZ8YUHqotjiv
3TrwgmZTtSDzkIc0We4s3OQxf4nLzsrTf/5B/93dV33qsrR8Ku63ret5S3DppY8Q
Ipb6oNe4d1iyk6opV2A2O6R3w+o82rGOxPWE9/zsF0Zc2OMmi4mg3CrrXgmfulBn
hIFe3Qipk2C/
-----END CERTIFICATE-----
