Certificate:
    Data:
        Version: 3 (0x2)
        Serial Number: 20 (0x14)
    Signature Algorithm: sha256WithRSAEncryption
        Issuer: C=US, ST=California, L=Santa Clara, O=pkg5, CN=ch1_ta3/emailAddress=ch1_ta3
        Validity
            Not Before: Jan  1 01:01:01 2035 GMT
            Not After : Jan  2 01:01:01 2035 GMT
        Subject: C=US, ST=California, L=Santa Clara, O=pkg5, CN=cs4_ch1_ta3/emailAddress=cs4_ch1_ta3
        Subject Public Key Info:
            Public Key Algorithm: rsaEncryption
                Public-Key: (1024 bit)
                Modulus:
                    00:cb:2c:5a:74:59:a7:60:a1:a4:1b:36:25:92:c1:
                    aa:39:3f:7c:17:de:d0:36:c3:1c:bf:c6:25:30:e0:
                    10:7b:d7:76:7d:de:d6:71:6c:81:df:95:22:a4:dd:
                    80:55:2a:5e:fd:82:df:94:a0:aa:f9:8e:b1:e9:20:
                    be:04:26:18:17:e8:04:9e:af:67:ca:57:8e:f6:92:
                    2c:6e:76:02:4b:84:d8:2b:78:2b:32:74:8e:4c:ea:
                    ab:3c:61:62:cb:95:af:5c:77:74:19:b2:0e:4f:49:
                    63:8a:72:ac:c1:77:6a:42:ed:91:6f:be:a4:df:c8:
                    0b:1b:b4:32:18:46:dc:b9:f5
                Exponent: 65537 (0x10001)
        X509v3 extensions:
            X509v3 Basic Constraints: critical
                CA:FALSE
            X509v3 Key Usage: critical
                Digital Signature
    Signature Algorithm: sha256WithRSAEncryption
         40:91:53:35:b9:b9:31:8d:16:de:85:84:2f:b4:5e:35:7a:da:
         a8:31:06:29:14:94:80:ee:0a:55:7d:8f:02:2f:74:f4:94:5e:
         00:d1:c7:8b:2a:71:21:8d:3c:d6:f2:b6:50:84:fe:45:f1:56:
         bd:36:68:72:b7:73:c6:b7:38:3b:fe:be:22:af:77:43:0d:32:
         f7:7e:ce:2e:e9:1f:24:5a:b9:bb:ae:b3:fd:cd:ea:87:1a:43:
         7b:22:71:2f:6b:16:74:e6:73:6b:af:38:17:c6:a4:c6:8c:01:
         a9:c4:76:be:a3:02:8b:47:35:e1:53:c8:27:87:1e:5c:ad:cb:
         93:4e
-----BEGIN CERTIFICATE-----
MIICgDCCAemgAwIBAgIBFDANBgkqhkiG9w0BAQsFADBxMQswCQYDVQQGEwJVUzET
MBEGA1UECAwKQ2FsaWZvcm5pYTEUMBIGA1UEBwwLU2FudGEgQ2xhcmExDTALBgNV
BAoMBHBrZzUxEDAOBgNVBAMMB2NoMV90YTMxFjAUBgkqhkiG9w0BCQEWB2NoMV90
YTMwHhcNMzUwMTAxMDEwMTAxWhcNMzUwMTAyMDEwMTAxWjB5MQswCQYDVQQGEwJV
UzETMBEGA1UECAwKQ2FsaWZvcm5pYTEUMBIGA1UEBwwLU2FudGEgQ2xhcmExDTAL
BgNVBAoMBHBrZzUxFDASBgNVBAMMC2NzNF9jaDFfdGEzMRowGAYJKoZIhvcNAQkB
FgtjczRfY2gxX3RhMzCBnzANBgkqhkiG9w0BAQEFAAOBjQAwgYkCgYEAyyxadFmn
YKGkGzYlksGqOT98F97QNsMcv8YlMOAQe9d2fd7WcWyB35UipN2AVSpe/YLflKCq
+Y6x6SC+BCYYF+gEnq9nyleO9pIsbnYCS4TYK3grMnSOTOqrPGFiy5WvXHd0GbIO
T0ljinKswXdqQu2Rb76k38gLG7QyGEbcufUCAwEAAaMgMB4wDAYDVR0TAQH/BAIw
ADAOBgNVHQ8BAf8EBAMCB4AwDQYJKoZIhvcNAQELBQADgYEAQJFTNbm5MY0W3oWE
L7ReNXraqDEGKRSUgO4KVX2PAi909JReANHHiypxIY081vK2UIT+RfFWvTZocrdz
xrc4O/6+Iq93Qw0y937OLukfJFq5u66z/c3qhxpDeyJxL2sWdOZza684F8akxowB
qcR2vqMCi0c14VPIJ4ceXK3Lk04=
-----END CERTIFICATE-----
