Certificate:
    Data:
        Version: 3 (0x2)
        Serial Number: 20 (0x14)
        Signature Algorithm: sha256WithRSAEncryption
        Issuer: C=US, ST=California, L=Menlo Park, O=pkg5, CN=pubCA3_ta3/emailAddress=pubCA3_ta3
        Validity
            Not Before: Aug  4 20:59:27 2010 GMT
            Not After : Apr 30 20:59:27 2013 GMT
        Subject: C=US, ST=California, L=Menlo Park, O=pkg5, CN=cs1_p3_ta3/emailAddress=cs1_p3_ta3
        Subject Public Key Info:
            Public Key Algorithm: rsaEncryption
            RSA Public Key: (1024 bit)
                Modulus (1024 bit):
                    00:bc:82:7d:df:49:1f:1f:4c:7e:ee:25:51:96:e4:
                    49:a8:fb:ee:b0:51:b5:10:e9:cc:f0:36:07:59:61:
                    37:a8:95:70:5f:53:3e:54:ef:02:46:d9:12:84:20:
                    8f:65:c4:53:99:e6:cc:d9:de:d0:e5:d2:51:2b:3d:
                    3d:08:88:a3:35:d3:7e:bf:c9:70:d3:65:81:16:30:
                    18:0e:7f:22:66:52:05:65:d0:e4:65:11:06:8d:df:
                    a1:97:df:74:c4:f3:be:d2:6f:ee:12:8d:1a:dd:15:
                    b8:e4:7e:cd:12:ce:d4:47:4d:d5:e9:d7:c8:3b:e0:
                    0a:43:7a:4a:cc:11:6a:38:31
                Exponent: 65537 (0x10001)
        X509v3 extensions:
            X509v3 Basic Constraints: critical
                CA:FALSE
            X509v3 Key Usage: 
                Digital Signature
    Signature Algorithm: sha256WithRSAEncryption
        33:5c:cd:75:6d:2d:67:ce:9a:bb:c9:86:9d:07:59:66:9c:b2:
        36:0f:a6:6d:5a:a4:dc:11:0a:b6:0a:80:78:5d:93:8a:c6:6b:
        e1:81:01:70:31:5b:0c:ad:8e:04:35:4a:6b:c6:54:d5:28:fd:
        8d:bb:c6:90:b2:66:58:3a:8c:a6:e5:98:dc:e5:ed:5f:ad:55:
        48:99:68:2a:7f:5a:b4:48:e7:96:29:97:9a:af:d5:b4:be:08:
        e9:cd:34:7f:15:98:3c:f7:30:f6:a8:ed:4b:4a:57:f5:1c:18:
        2a:96:36:f6:ec:a0:d4:bc:50:b6:68:0f:cd:ac:44:0c:97:c5:
        89:59
-----BEGIN CERTIFICATE-----
MIICfzCCAeigAwIBAgIBFDANBgkqhkiG9w0BAQsFADB2MQswCQYDVQQGEwJVUzET
MBEGA1UECBMKQ2FsaWZvcm5pYTETMBEGA1UEBxMKTWVubG8gUGFyazENMAsGA1UE
ChMEcGtnNTETMBEGA1UEAxQKcHViQ0EzX3RhMzEZMBcGCSqGSIb3DQEJARYKcHVi
Q0EzX3RhMzAeFw0xMDA4MDQyMDU5MjdaFw0xMzA0MzAyMDU5MjdaMHYxCzAJBgNV
BAYTAlVTMRMwEQYDVQQIEwpDYWxpZm9ybmlhMRMwEQYDVQQHEwpNZW5sbyBQYXJr
MQ0wCwYDVQQKEwRwa2c1MRMwEQYDVQQDFApjczFfcDNfdGEzMRkwFwYJKoZIhvcN
AQkBFgpjczFfcDNfdGEzMIGfMA0GCSqGSIb3DQEBAQUAA4GNADCBiQKBgQC8gn3f
SR8fTH7uJVGW5Emo++6wUbUQ6czwNgdZYTeolXBfUz5U7wJG2RKEII9lxFOZ5szZ
3tDl0lErPT0IiKM1036/yXDTZYEWMBgOfyJmUgVl0ORlEQaN36GX33TE877Sb+4S
jRrdFbjkfs0SztRHTdXp18g74ApDekrMEWo4MQIDAQABox0wGzAMBgNVHRMBAf8E
AjAAMAsGA1UdDwQEAwIHgDANBgkqhkiG9w0BAQsFAAOBgQAzXM11bS1nzpq7yYad
B1lmnLI2D6ZtWqTcEQq2CoB4XZOKxmvhgQFwMVsMrY4ENUprxlTVKP2Nu8aQsmZY
Ooym5Zjc5e1frVVImWgqf1q0SOeWKZear9W0vgjpzTR/FZg89zD2qO1LSlf1HBgq
ljb27KDUvFC2aA/NrEQMl8WJWQ==
-----END CERTIFICATE-----
