Certificate:
    Data:
        Version: 3 (0x2)
        Serial Number: 21 (0x15)
        Signature Algorithm: sha256WithRSAEncryption
        Issuer: C=US, ST=California, L=Menlo Park, O=pkg5, CN=ch1_ta3/emailAddress=ch1_ta3
        Validity
            Not Before: Apr 11 22:37:45 2011 GMT
            Not After : Jan  5 22:37:45 2014 GMT
        Subject: C=US, ST=California, L=Menlo Park, O=pkg5, CN=cs5_ch1_ta3/emailAddress=cs5_ch1_ta3
        Subject Public Key Info:
            Public Key Algorithm: rsaEncryption
            RSA Public Key: (1024 bit)
                Modulus (1024 bit):
                    00:c0:be:66:e6:55:cb:9e:d6:d2:7b:d3:b2:34:fb:
                    c9:74:d5:30:4f:62:1c:68:bd:13:97:08:b7:8c:b6:
                    4e:dd:7f:98:a5:e2:2f:2e:9c:74:92:01:43:62:8e:
                    9c:62:23:3e:b6:e4:e2:18:2b:3f:ae:fb:17:e7:d8:
                    c4:28:27:27:d9:3e:5c:d1:8f:51:b7:10:4c:44:f6:
                    bb:6b:24:7c:2e:09:bc:fb:8a:af:fa:e4:ce:94:2f:
                    27:cd:3d:e7:be:93:4b:62:37:f5:f1:a8:8e:7e:76:
                    92:62:7b:02:41:98:c2:f6:ff:68:8e:d2:1d:fb:9e:
                    f1:45:f5:6a:9c:8d:28:23:c1
                Exponent: 65537 (0x10001)
        X509v3 extensions:
            X509v3 Basic Constraints: critical
                CA:FALSE
            X509v3 Key Usage: 
                Encipher Only
    Signature Algorithm: sha256WithRSAEncryption
        26:c1:64:ae:88:f7:19:f6:4f:f6:89:c9:d4:4e:46:cc:8f:51:
        d3:b0:1c:d5:54:08:b0:5c:a7:51:48:24:be:e5:9f:d1:79:8b:
        fb:92:84:aa:92:c6:2f:b1:76:e2:f2:21:f7:f1:5d:05:c3:5c:
        01:90:20:8c:46:9e:a2:b9:dd:71:4f:a4:b9:3a:15:d3:74:98:
        59:bf:f8:44:c5:a4:99:67:01:e7:d6:52:8d:2f:02:3a:f4:e8:
        c8:b3:9c:f3:35:18:4e:41:03:a7:b6:b3:5c:84:61:43:6b:95:
        b4:84:d1:c1:72:29:ac:d5:6f:e4:6c:f1:86:b6:eb:09:77:1e:
        89:92
-----BEGIN CERTIFICATE-----
MIICezCCAeSgAwIBAgIBFTANBgkqhkiG9w0BAQsFADBwMQswCQYDVQQGEwJVUzET
MBEGA1UECBMKQ2FsaWZvcm5pYTETMBEGA1UEBxMKTWVubG8gUGFyazENMAsGA1UE
ChMEcGtnNTEQMA4GA1UEAxQHY2gxX3RhMzEWMBQGCSqGSIb3DQEJARYHY2gxX3Rh
MzAeFw0xMTA0MTEyMjM3NDVaFw0xNDAxMDUyMjM3NDVaMHgxCzAJBgNVBAYTAlVT
MRMwEQYDVQQIEwpDYWxpZm9ybmlhMRMwEQYDVQQHEwpNZW5sbyBQYXJrMQ0wCwYD
VQQKEwRwa2c1MRQwEgYDVQQDFAtjczVfY2gxX3RhMzEaMBgGCSqGSIb3DQEJARYL
Y3M1X2NoMV90YTMwgZ8wDQYJKoZIhvcNAQEBBQADgY0AMIGJAoGBAMC+ZuZVy57W
0nvTsjT7yXTVME9iHGi9E5cIt4y2Tt1/mKXiLy6cdJIBQ2KOnGIjPrbk4hgrP677
F+fYxCgnJ9k+XNGPUbcQTET2u2skfC4JvPuKr/rkzpQvJ809576TS2I39fGojn52
kmJ7AkGYwvb/aI7SHfue8UX1apyNKCPBAgMBAAGjHTAbMAwGA1UdEwEB/wQCMAAw
CwYDVR0PBAQDAgABMA0GCSqGSIb3DQEBCwUAA4GBACbBZK6I9xn2T/aJydRORsyP
UdOwHNVUCLBcp1FIJL7ln9F5i/uShKqSxi+xduLyIffxXQXDXAGQIIxGnqK53XFP
pLk6FdN0mFm/+ETFpJlnAefWUo0vAjr06MiznPM1GE5BA6e2s1yEYUNrlbSE0cFy
KazVb+Rs8Ya26wl3HomS
-----END CERTIFICATE-----
