Certificate:
    Data:
        Version: 3 (0x2)
        Serial Number: 22 (0x16)
    Signature Algorithm: sha256WithRSAEncryption
        Issuer: C=US, ST=California, L=Santa Clara, O=pkg5, CN=ch1_ta3/emailAddress=ch1_ta3
        Validity
            Not Before: Sep 22 05:33:24 2021 GMT
            Not After : Jun 18 05:33:24 2024 GMT
        Subject: C=US, ST=California, L=Santa Clara, O=pkg5, CN=cs7_ch1_ta3/emailAddress=cs7_ch1_ta3
        Subject Public Key Info:
            Public Key Algorithm: rsaEncryption
                Public-Key: (1024 bit)
                Modulus:
                    00:9e:5b:fd:c0:23:9c:04:36:d0:32:d5:e0:26:fb:
                    f4:66:b2:d9:a6:3c:01:06:0f:a0:17:1f:88:a8:5f:
                    7f:12:d7:05:b9:f3:f6:74:cd:15:c8:19:9e:9e:6f:
                    03:57:aa:86:6c:b8:43:95:14:08:9c:5d:b6:48:b7:
                    76:53:2a:76:c2:73:0c:07:67:48:ee:52:92:63:80:
                    70:d8:c8:b6:ea:df:1e:2d:07:2f:70:e3:02:25:ed:
                    18:e9:c1:eb:f0:bc:df:31:de:21:47:da:28:86:1b:
                    9f:09:8a:40:9b:5d:14:cc:70:e0:d1:2d:d9:68:e6:
                    9d:dd:e2:92:61:29:50:77:d3
                Exponent: 65537 (0x10001)
        X509v3 extensions:
            X509v3 Basic Constraints: critical
                CA:FALSE
    Signature Algorithm: sha256WithRSAEncryption
         46:5f:3e:a0:c6:98:8f:dd:9a:62:82:3c:a2:65:eb:0e:a3:4b:
         95:a7:bd:2c:55:41:62:af:51:57:84:4d:c8:a5:74:ad:f8:07:
         f0:e4:b6:97:bc:e6:20:b0:60:f3:62:9a:fb:07:05:46:7c:cc:
         0a:42:5b:ba:1c:3f:7e:f1:3e:43:c9:1e:9f:b5:a9:82:2d:68:
         de:3d:b7:87:07:89:60:47:2f:2e:35:50:7b:5b:4d:78:53:19:
         d6:05:19:b2:ec:97:86:8c:ad:fb:70:6b:ac:ea:75:36:14:da:
         c8:b4:19:3d:64:44:3a:9b:76:3a:6d:24:5f:bf:49:6e:10:ab:
         3e:eb:65:3d:d9:ed:a9:c8:44:13:b0:a4:a8:97:b2:bd:d4:91:
         43:62:3d:b6:50:07:61:da:da:3f:bd:99:19:71:f0:5d:51:c4:
         48:fa:74:e5:65:13:2f:8e:e8:a6:4f:17:28:b9:bb:b9:7d:ff:
         bb:59:98:f4:ae:11:9f:e2:f0:37:2a:05:d8:43:e3:5a:3d:a4:
         fd:a9:c1:48:17:b2:9c:f9:0a:26:00:1b:2f:5a:2b:44:47:f2:
         8d:0f:c1:15:09:4d:ea:2f:6a:5e:4d:04:84:64:a5:d9:eb:79:
         05:f8:63:b3:98:72:ac:e5:52:8d:40:bf:7d:f9:24:77:fb:04:
         0d:3c:cb:40
-----BEGIN CERTIFICATE-----
MIIC8TCCAdmgAwIBAgIBFjANBgkqhkiG9w0BAQsFADBxMQswCQYDVQQGEwJVUzET
MBEGA1UECAwKQ2FsaWZvcm5pYTEUMBIGA1UEBwwLU2FudGEgQ2xhcmExDTALBgNV
BAoMBHBrZzUxEDAOBgNVBAMMB2NoMV90YTMxFjAUBgkqhkiG9w0BCQEWB2NoMV90
YTMwHhcNMjEwOTIyMDUzMzI0WhcNMjQwNjE4MDUzMzI0WjB5MQswCQYDVQQGEwJV
UzETMBEGA1UECAwKQ2FsaWZvcm5pYTEUMBIGA1UEBwwLU2FudGEgQ2xhcmExDTAL
BgNVBAoMBHBrZzUxFDASBgNVBAMMC2NzN19jaDFfdGEzMRowGAYJKoZIhvcNAQkB
FgtjczdfY2gxX3RhMzCBnzANBgkqhkiG9w0BAQEFAAOBjQAwgYkCgYEAnlv9wCOc
BDbQMtXgJvv0ZrLZpjwBBg+gFx+IqF9/EtcFufP2dM0VyBmenm8DV6qGbLhDlRQI
nF22SLd2Uyp2wnMMB2dI7lKSY4Bw2Mi26t8eLQcvcOMCJe0Y6cHr8LzfMd4hR9oo
hhufCYpAm10UzHDg0S3ZaOad3eKSYSlQd9MCAwEAAaMQMA4wDAYDVR0TAQH/BAIw
ADANBgkqhkiG9w0BAQsFAAOCAQEARl8+oMaYj92aYoI8omXrDqNLlae9LFVBYq9R
V4RNyKV0rfgH8OS2l7zmILBg82Ka+wcFRnzMCkJbuhw/fvE+Q8ken7Wpgi1o3j23
hweJYEcvLjVQe1tNeFMZ1gUZsuyXhoyt+3BrrOp1NhTayLQZPWREOpt2Om0kX79J
bhCrPutlPdntqchEE7CkqJeyvdSRQ2I9tlAHYdraP72ZGXHwXVHESPp05WUTL47o
pk8XKLm7uX3/u1mY9K4Rn+LwNyoF2EPjWj2k/anBSBeynPkKJgAbL1orREfyjQ/B
FQlN6i9qXk0EhGSl2et5Bfhjs5hyrOVSjUC/ffkkd/sEDTzLQA==
-----END CERTIFICATE-----
