Certificate:
    Data:
        Version: 3 (0x2)
        Serial Number: 22 (0x16)
        Signature Algorithm: sha256WithRSAEncryption
        Issuer: C=US, ST=California, L=Santa Clara, O=pkg5, CN=ch1_ta3/emailAddress=ch1_ta3
        Validity
            Not Before: Mar 18 08:51:35 2026 GMT
            Not After : Dec 12 08:51:35 2028 GMT
        Subject: C=US, ST=California, L=Santa Clara, O=pkg5, CN=cs7_ch1_ta3/emailAddress=cs7_ch1_ta3
        Subject Public Key Info:
            Public Key Algorithm: rsaEncryption
                Public-Key: (2048 bit)
                Modulus:
                    00:d4:8f:ed:77:60:62:a0:d4:2f:34:39:d5:79:22:
                    62:75:be:c0:0e:b2:59:0a:8c:fe:9c:80:cb:bf:c7:
                    cd:f4:7b:8f:1b:93:af:91:b4:26:c9:10:43:6b:5d:
                    44:b0:5b:96:34:b6:e8:54:64:af:d5:ea:ab:98:7b:
                    ae:b2:a7:60:ee:56:5b:83:2f:45:ba:ae:52:a4:02:
                    3d:6a:e8:39:26:07:b5:a2:c0:47:9f:98:74:bc:d3:
                    f3:44:0b:fb:c2:cf:b5:0f:a0:b1:29:70:1e:b7:55:
                    24:e5:5c:7d:7d:21:eb:42:31:1c:f2:6d:9c:f5:01:
                    34:d6:ac:93:cb:f3:60:b6:f7:39:27:a2:85:82:34:
                    c8:1f:61:43:aa:47:d6:18:2a:67:29:ed:dd:14:8f:
                    1b:36:15:8f:96:e6:47:ec:8b:4f:65:ac:79:38:47:
                    4f:8c:36:e7:5b:4a:cf:97:cf:7a:00:cc:fc:ac:b4:
                    ce:2f:a4:ee:cf:a7:4b:00:cc:a4:54:2f:cf:88:3d:
                    a2:2e:4a:c2:2c:1e:fa:ec:ee:21:07:ef:5b:9d:bd:
                    f6:a9:bb:60:3e:a5:fa:61:f6:8b:05:5c:04:5a:ef:
                    e8:94:80:79:44:69:ab:3a:56:c6:c3:80:fb:a5:8e:
                    45:31:9b:75:a8:ff:57:a9:f6:09:d1:2a:f5:42:c1:
                    23:c1
                Exponent: 65537 (0x10001)
        X509v3 extensions:
            X509v3 Basic Constraints: critical
                CA:FALSE
            X509v3 Subject Key Identifier: 
                EF:E3:34:C7:62:CF:FF:AF:87:CF:B7:BC:23:12:36:89:F6:A2:22:FA
            X509v3 Authority Key Identifier: 
                D9:5E:2F:ED:23:64:CE:9F:A3:C2:6F:7D:FD:22:C9:21:6D:C3:CE:2F
    Signature Algorithm: sha256WithRSAEncryption
    Signature Value:
        54:c4:d9:44:92:1d:b5:7c:2e:e5:9c:e4:6b:d3:0b:9b:1a:9c:
        ac:91:67:cc:ce:57:0f:67:9b:e1:2c:2e:40:34:cb:7d:4f:73:
        15:a6:be:ef:1c:7e:c0:a7:bc:27:5c:86:2a:6b:7b:32:67:3c:
        2d:bd:0d:45:d5:2b:62:2b:04:68:09:47:42:bc:6c:be:9b:cb:
        b0:8d:e9:db:b4:1d:f5:59:c6:a1:57:24:dd:d8:20:7d:2e:58:
        a6:f1:30:39:25:4e:d3:41:56:cd:a4:05:d5:0f:e5:00:5c:d2:
        cc:4d:0e:2a:2f:b2:50:7e:54:bb:98:03:6e:30:09:97:25:64:
        03:78:aa:c3:ef:6c:1e:f5:1c:4e:3d:50:da:c1:5e:41:16:fe:
        53:7f:40:6b:a4:b4:a2:90:91:26:6d:2f:15:43:73:ad:3d:3d:
        fe:44:18:ce:3b:e1:a2:bd:8f:0c:22:fd:8e:42:e2:6e:e9:08:
        39:75:33:cb:69:63:af:37:f3:5e:28:1a:9e:ff:f9:7b:08:9a:
        a3:d4:0f:b9:1c:0c:f2:a0:0e:52:12:d4:eb:3c:ca:80:42:8b:
        51:7b:02:5d:2b:38:20:48:64:cf:5e:d6:a9:7e:ba:c5:4b:a8:
        53:22:c1:77:1b:44:44:5e:2c:ae:8b:ee:09:3b:e4:27:52:b0:
        4c:f1:13:52
-----BEGIN CERTIFICATE-----
MIIDtTCCAp2gAwIBAgIBFjANBgkqhkiG9w0BAQsFADBxMQswCQYDVQQGEwJVUzET
MBEGA1UECAwKQ2FsaWZvcm5pYTEUMBIGA1UEBwwLU2FudGEgQ2xhcmExDTALBgNV
BAoMBHBrZzUxEDAOBgNVBAMMB2NoMV90YTMxFjAUBgkqhkiG9w0BCQEWB2NoMV90
YTMwHhcNMjYwMzE4MDg1MTM1WhcNMjgxMjEyMDg1MTM1WjB5MQswCQYDVQQGEwJV
UzETMBEGA1UECAwKQ2FsaWZvcm5pYTEUMBIGA1UEBwwLU2FudGEgQ2xhcmExDTAL
BgNVBAoMBHBrZzUxFDASBgNVBAMMC2NzN19jaDFfdGEzMRowGAYJKoZIhvcNAQkB
FgtjczdfY2gxX3RhMzCCASIwDQYJKoZIhvcNAQEBBQADggEPADCCAQoCggEBANSP
7XdgYqDULzQ51XkiYnW+wA6yWQqM/pyAy7/HzfR7jxuTr5G0JskQQ2tdRLBbljS2
6FRkr9Xqq5h7rrKnYO5WW4MvRbquUqQCPWroOSYHtaLAR5+YdLzT80QL+8LPtQ+g
sSlwHrdVJOVcfX0h60IxHPJtnPUBNNask8vzYLb3OSeihYI0yB9hQ6pH1hgqZynt
3RSPGzYVj5bmR+yLT2WseThHT4w251tKz5fPegDM/Ky0zi+k7s+nSwDMpFQvz4g9
oi5Kwiwe+uzuIQfvW5299qm7YD6l+mH2iwVcBFrv6JSAeURpqzpWxsOA+6WORTGb
daj/V6n2CdEq9ULBI8ECAwEAAaNQME4wDAYDVR0TAQH/BAIwADAdBgNVHQ4EFgQU
7+M0x2LP/6+Hz7e8IxI2ifaiIvowHwYDVR0jBBgwFoAU2V4v7SNkzp+jwm99/SLJ
IW3Dzi8wDQYJKoZIhvcNAQELBQADggEBAFTE2USSHbV8LuWc5GvTC5sanKyRZ8zO
Vw9nm+EsLkA0y31PcxWmvu8cfsCnvCdchiprezJnPC29DUXVK2IrBGgJR0K8bL6b
y7CN6du0HfVZxqFXJN3YIH0uWKbxMDklTtNBVs2kBdUP5QBc0sxNDiovslB+VLuY
A24wCZclZAN4qsPvbB71HE49UNrBXkEW/lN/QGuktKKQkSZtLxVDc609Pf5EGM47
4aK9jwwi/Y5C4m7pCDl1M8tpY683814oGp7/+XsImqPUD7kcDPKgDlIS1Os8yoBC
i1F7Al0rOCBIZM9e1ql+usVLqFMiwXcbREReLK6L7gk75CdSsEzxE1I=
-----END CERTIFICATE-----
