Certificate:
    Data:
        Version: 3 (0x2)
        Serial Number: 22 (0x16)
        Signature Algorithm: sha256WithRSAEncryption
        Issuer: C=US, ST=California, L=Menlo Park, O=pkg5, CN=pubCA4_ta3/emailAddress=pubCA4_ta3
        Validity
            Not Before: Aug  4 20:59:28 2010 GMT
            Not After : Apr 30 20:59:28 2013 GMT
        Subject: C=US, ST=California, L=Menlo Park, O=pkg5, CN=cs1_p4_ta3/emailAddress=cs1_p4_ta3
        Subject Public Key Info:
            Public Key Algorithm: rsaEncryption
            RSA Public Key: (1024 bit)
                Modulus (1024 bit):
                    00:bf:42:c9:e7:65:b4:c1:88:85:cc:9a:49:29:db:
                    64:05:14:60:b4:c4:ab:44:7d:86:51:9d:c0:ba:c2:
                    41:c2:80:fc:e7:ea:26:14:f2:73:af:90:98:98:c8:
                    ed:eb:89:d4:1f:a7:9a:7a:4f:8d:0a:4a:b5:54:de:
                    3c:1a:5c:cc:18:1d:39:dd:f5:2b:97:a6:1c:b3:75:
                    4c:da:1f:86:bb:1f:0f:67:b1:a0:e9:1c:f9:21:e0:
                    2e:98:de:5c:64:66:7f:39:42:78:14:a5:ce:2c:b2:
                    9b:fc:f2:54:a1:a2:af:cc:73:80:a3:6d:d0:d3:29:
                    f9:ae:9b:e1:d6:9c:3a:19:89
                Exponent: 65537 (0x10001)
        X509v3 extensions:
            X509v3 Basic Constraints: critical
                CA:FALSE
            X509v3 Key Usage: 
                Digital Signature
    Signature Algorithm: sha256WithRSAEncryption
        1b:81:d7:ec:0d:02:2c:b0:29:3c:62:f1:f5:e3:71:50:ac:a2:
        d5:66:86:8c:98:c2:5a:79:2c:25:cf:a1:55:0f:4f:17:5d:93:
        c6:89:fc:d6:14:ad:3e:2a:56:4e:ab:2d:1b:5d:37:30:2e:50:
        78:22:d7:74:46:63:76:a0:23:5c:77:ad:ae:47:7e:db:a0:7e:
        2c:17:27:df:0a:e8:2e:ff:4d:58:53:99:d2:36:08:78:45:a6:
        af:eb:e9:fd:48:a1:e1:20:f1:70:ad:e9:77:51:d8:22:e5:e6:
        f2:a6:06:04:31:eb:fe:3c:f1:75:5f:51:36:a9:b1:fc:8f:6c:
        d8:4e
-----BEGIN CERTIFICATE-----
MIICfzCCAeigAwIBAgIBFjANBgkqhkiG9w0BAQsFADB2MQswCQYDVQQGEwJVUzET
MBEGA1UECBMKQ2FsaWZvcm5pYTETMBEGA1UEBxMKTWVubG8gUGFyazENMAsGA1UE
ChMEcGtnNTETMBEGA1UEAxQKcHViQ0E0X3RhMzEZMBcGCSqGSIb3DQEJARYKcHVi
Q0E0X3RhMzAeFw0xMDA4MDQyMDU5MjhaFw0xMzA0MzAyMDU5MjhaMHYxCzAJBgNV
BAYTAlVTMRMwEQYDVQQIEwpDYWxpZm9ybmlhMRMwEQYDVQQHEwpNZW5sbyBQYXJr
MQ0wCwYDVQQKEwRwa2c1MRMwEQYDVQQDFApjczFfcDRfdGEzMRkwFwYJKoZIhvcN
AQkBFgpjczFfcDRfdGEzMIGfMA0GCSqGSIb3DQEBAQUAA4GNADCBiQKBgQC/Qsnn
ZbTBiIXMmkkp22QFFGC0xKtEfYZRncC6wkHCgPzn6iYU8nOvkJiYyO3ridQfp5p6
T40KSrVU3jwaXMwYHTnd9SuXphyzdUzaH4a7Hw9nsaDpHPkh4C6Y3lxkZn85QngU
pc4sspv88lShoq/Mc4CjbdDTKfmum+HWnDoZiQIDAQABox0wGzAMBgNVHRMBAf8E
AjAAMAsGA1UdDwQEAwIHgDANBgkqhkiG9w0BAQsFAAOBgQAbgdfsDQIssCk8YvH1
43FQrKLVZoaMmMJaeSwlz6FVD08XXZPGifzWFK0+KlZOqy0bXTcwLlB4Itd0RmN2
oCNcd62uR37boH4sFyffCugu/01YU5nSNgh4Raav6+n9SKHhIPFwrel3Udgi5eby
pgYEMev+PPF1X1E2qbH8j2zYTg==
-----END CERTIFICATE-----
