Certificate:
    Data:
        Version: 3 (0x2)
        Serial Number: 22 (0x16)
    Signature Algorithm: sha256WithRSAEncryption
        Issuer: C=US, ST=California, L=Santa Clara, O=pkg5, CN=ch1_ta3/emailAddress=ch1_ta3
        Validity
            Not Before: Jan 22 15:33:10 2019 GMT
            Not After : Oct 18 15:33:10 2021 GMT
        Subject: C=US, ST=California, L=Santa Clara, O=pkg5, CN=cs7_ch1_ta3/emailAddress=cs7_ch1_ta3
        Subject Public Key Info:
            Public Key Algorithm: rsaEncryption
                Public-Key: (1024 bit)
                Modulus:
                    00:d0:eb:67:1b:c3:c8:b9:2a:d8:5d:45:13:57:e0:
                    b4:e5:30:48:b8:8c:b9:2e:2a:e0:29:f3:e7:93:b1:
                    ca:e5:78:7b:b1:41:15:91:22:2e:1d:aa:b7:22:70:
                    8f:1f:e9:24:77:5b:8e:24:56:45:f6:76:80:fa:48:
                    ed:45:2e:a4:03:63:5e:cf:e0:16:6f:6e:3b:ff:73:
                    44:ad:e1:ea:70:9a:fe:63:b9:fe:07:04:0e:47:77:
                    59:a5:65:d9:01:2a:54:31:01:d1:25:77:2d:33:21:
                    b1:a9:15:0d:07:1e:27:a7:e9:40:56:1b:b8:0f:e6:
                    0c:4f:f6:02:3d:b8:76:43:af
                Exponent: 65537 (0x10001)
        X509v3 extensions:
            X509v3 Basic Constraints: critical
                CA:FALSE
    Signature Algorithm: sha256WithRSAEncryption
         7b:48:0e:67:92:9a:8b:a6:d6:98:df:96:96:c4:26:68:e8:9e:
         db:0c:fd:64:de:1b:b1:3d:be:50:a7:54:22:de:47:00:40:b9:
         3d:cd:47:90:73:c4:fd:ec:3c:b4:e7:b6:17:59:3a:1a:29:b3:
         c7:8b:6d:79:a4:16:67:f3:2e:7c:0a:f7:aa:7b:66:bc:5c:b9:
         49:33:95:63:69:7d:05:c6:af:a7:41:be:3f:a9:79:44:ee:a2:
         48:45:bc:8d:7b:63:28:6e:25:70:9f:0a:cf:1a:ed:65:5e:83:
         fb:29:ed:89:bc:be:f3:73:cc:1f:8a:39:15:c0:07:8a:d2:9e:
         37:44:a5:6c:79:e2:d4:a1:d1:60:49:ca:77:35:ed:68:4c:fc:
         ec:0e:9d:4a:9c:c0:33:54:c9:6d:69:71:0b:81:b2:2d:fb:78:
         ea:32:6e:a8:78:1d:f3:06:23:b2:61:c6:90:dc:c1:d0:f8:14:
         23:02:6f:75:88:d8:c0:59:1e:8c:c3:02:86:d2:e2:96:ca:68:
         6c:7c:44:32:61:24:f2:38:da:a9:b8:ae:32:65:de:bb:e6:f8:
         38:0b:91:df:a3:f1:33:21:c4:67:4c:b9:d4:18:14:bb:7a:e3:
         66:1d:5f:57:2c:2f:6d:d8:f5:df:47:b7:9a:99:46:81:56:e5:
         d1:91:1d:53
-----BEGIN CERTIFICATE-----
MIIC8TCCAdmgAwIBAgIBFjANBgkqhkiG9w0BAQsFADBxMQswCQYDVQQGEwJVUzET
MBEGA1UECAwKQ2FsaWZvcm5pYTEUMBIGA1UEBwwLU2FudGEgQ2xhcmExDTALBgNV
BAoMBHBrZzUxEDAOBgNVBAMMB2NoMV90YTMxFjAUBgkqhkiG9w0BCQEWB2NoMV90
YTMwHhcNMTkwMTIyMTUzMzEwWhcNMjExMDE4MTUzMzEwWjB5MQswCQYDVQQGEwJV
UzETMBEGA1UECAwKQ2FsaWZvcm5pYTEUMBIGA1UEBwwLU2FudGEgQ2xhcmExDTAL
BgNVBAoMBHBrZzUxFDASBgNVBAMMC2NzN19jaDFfdGEzMRowGAYJKoZIhvcNAQkB
FgtjczdfY2gxX3RhMzCBnzANBgkqhkiG9w0BAQEFAAOBjQAwgYkCgYEA0OtnG8PI
uSrYXUUTV+C05TBIuIy5LirgKfPnk7HK5Xh7sUEVkSIuHaq3InCPH+kkd1uOJFZF
9naA+kjtRS6kA2Nez+AWb247/3NEreHqcJr+Y7n+BwQOR3dZpWXZASpUMQHRJXct
MyGxqRUNBx4np+lAVhu4D+YMT/YCPbh2Q68CAwEAAaMQMA4wDAYDVR0TAQH/BAIw
ADANBgkqhkiG9w0BAQsFAAOCAQEAe0gOZ5Kai6bWmN+WlsQmaOie2wz9ZN4bsT2+
UKdUIt5HAEC5Pc1HkHPE/ew8tOe2F1k6Gimzx4tteaQWZ/MufAr3qntmvFy5STOV
Y2l9Bcavp0G+P6l5RO6iSEW8jXtjKG4lcJ8KzxrtZV6D+yntiby+83PMH4o5FcAH
itKeN0SlbHni1KHRYEnKdzXtaEz87A6dSpzAM1TJbWlxC4GyLft46jJuqHgd8wYj
smHGkNzB0PgUIwJvdYjYwFkejMMChtLilspobHxEMmEk8jjaqbiuMmXeu+b4OAuR
36PxMyHEZ0y51BgUu3rjZh1fVywvbdj130e3mplGgVbl0ZEdUw==
-----END CERTIFICATE-----
