Certificate:
    Data:
        Version: 3 (0x2)
        Serial Number: 22 (0x16)
        Signature Algorithm: sha256WithRSAEncryption
        Issuer: C=US, ST=California, L=Menlo Park, O=pkg5, CN=ch1_ta3/emailAddress=ch1_ta3
        Validity
            Not Before: Apr 11 22:37:45 2011 GMT
            Not After : Jan  5 22:37:45 2014 GMT
        Subject: C=US, ST=California, L=Menlo Park, O=pkg5, CN=cs6_ch1_ta3/emailAddress=cs6_ch1_ta3
        Subject Public Key Info:
            Public Key Algorithm: rsaEncryption
            RSA Public Key: (1024 bit)
                Modulus (1024 bit):
                    00:c7:77:32:f6:35:5a:29:de:dc:61:89:a9:7e:d3:
                    4f:ac:a1:db:f1:7f:58:1c:d3:46:a8:eb:61:62:80:
                    d0:cf:40:6b:a4:39:ac:fb:f3:e4:a2:47:53:78:d4:
                    cd:5a:5f:b1:c0:e8:2c:81:2d:00:98:d5:2f:6b:e9:
                    e7:85:e6:0e:1e:46:d6:22:b9:f3:a7:e0:6c:18:ea:
                    42:33:cd:c0:9c:e0:98:ec:29:67:39:c4:a3:f7:69:
                    8b:04:66:f5:a2:3c:08:1b:24:e5:ba:d4:57:5b:14:
                    f1:f2:c8:2b:0f:22:ae:6e:d1:ca:85:01:e6:75:82:
                    03:df:7a:ed:96:8a:64:2f:5f
                Exponent: 65537 (0x10001)
        X509v3 extensions:
            X509v3 Basic Constraints: critical
                CA:FALSE
            X509v3 Key Usage: critical
                Encipher Only
    Signature Algorithm: sha256WithRSAEncryption
        7b:52:05:af:d4:77:41:4d:3f:cf:39:bd:33:a2:82:96:38:df:
        a5:f7:ab:44:a3:b4:fc:13:ad:f5:d0:48:81:34:10:12:e9:c7:
        47:3f:13:1d:0a:20:8c:a7:df:23:a1:f5:5c:05:58:7a:ff:58:
        61:57:25:2c:36:22:10:e6:a4:d4:e3:f4:ad:b3:35:a9:91:93:
        24:52:f6:28:4c:90:12:98:31:9b:31:8c:64:2f:79:df:d1:f1:
        6e:d2:43:84:fe:bf:e5:ea:a9:74:6c:ce:cd:44:89:6b:df:bf:
        7c:dd:77:24:0b:18:07:42:89:41:b3:2c:60:30:db:75:05:82:
        15:85
-----BEGIN CERTIFICATE-----
MIICfjCCAeegAwIBAgIBFjANBgkqhkiG9w0BAQsFADBwMQswCQYDVQQGEwJVUzET
MBEGA1UECBMKQ2FsaWZvcm5pYTETMBEGA1UEBxMKTWVubG8gUGFyazENMAsGA1UE
ChMEcGtnNTEQMA4GA1UEAxQHY2gxX3RhMzEWMBQGCSqGSIb3DQEJARYHY2gxX3Rh
MzAeFw0xMTA0MTEyMjM3NDVaFw0xNDAxMDUyMjM3NDVaMHgxCzAJBgNVBAYTAlVT
MRMwEQYDVQQIEwpDYWxpZm9ybmlhMRMwEQYDVQQHEwpNZW5sbyBQYXJrMQ0wCwYD
VQQKEwRwa2c1MRQwEgYDVQQDFAtjczZfY2gxX3RhMzEaMBgGCSqGSIb3DQEJARYL
Y3M2X2NoMV90YTMwgZ8wDQYJKoZIhvcNAQEBBQADgY0AMIGJAoGBAMd3MvY1Wine
3GGJqX7TT6yh2/F/WBzTRqjrYWKA0M9Aa6Q5rPvz5KJHU3jUzVpfscDoLIEtAJjV
L2vp54XmDh5G1iK586fgbBjqQjPNwJzgmOwpZznEo/dpiwRm9aI8CBsk5brUV1sU
8fLIKw8irm7RyoUB5nWCA9967ZaKZC9fAgMBAAGjIDAeMAwGA1UdEwEB/wQCMAAw
DgYDVR0PAQH/BAQDAgABMA0GCSqGSIb3DQEBCwUAA4GBAHtSBa/Ud0FNP885vTOi
gpY436X3q0SjtPwTrfXQSIE0EBLpx0c/Ex0KIIyn3yOh9VwFWHr/WGFXJSw2IhDm
pNTj9K2zNamRkyRS9ihMkBKYMZsxjGQved/R8W7SQ4T+v+XqqXRszs1EiWvfv3zd
dyQLGAdCiUGzLGAw23UFghWF
-----END CERTIFICATE-----
