Certificate:
    Data:
        Version: 3 (0x2)
        Serial Number: 22 (0x16)
    Signature Algorithm: sha256WithRSAEncryption
        Issuer: C=US, ST=California, L=Santa Clara, O=pkg5, CN=ch1_ta3/emailAddress=ch1_ta3
        Validity
            Not Before: Jul 19 11:35:47 2023 GMT
            Not After : Apr 14 11:35:47 2026 GMT
        Subject: C=US, ST=California, L=Santa Clara, O=pkg5, CN=cs7_ch1_ta3/emailAddress=cs7_ch1_ta3
        Subject Public Key Info:
            Public Key Algorithm: rsaEncryption
                Public-Key: (2048 bit)
                Modulus:
                    00:f0:02:26:cb:ee:a7:82:b0:77:48:33:a8:4d:af:
                    8b:87:e6:e4:90:7c:5f:f4:be:f3:22:e9:bc:29:ad:
                    0c:77:39:85:37:cf:56:42:fd:ea:47:0d:a5:55:27:
                    e2:32:b6:34:68:3c:3f:50:0b:9c:3f:17:3f:ca:f0:
                    cf:a7:bf:62:aa:e0:36:06:47:9b:74:1a:0d:e6:14:
                    d9:b6:a6:38:9d:34:06:78:d6:f1:35:63:d4:71:70:
                    ce:fd:63:10:0f:80:6c:1e:83:b4:59:98:27:ec:43:
                    54:c3:5d:19:1a:40:ca:76:69:c3:22:e6:ea:68:e3:
                    69:48:be:f7:2d:0a:53:0f:ed:c7:c0:79:69:56:a4:
                    2f:d7:51:e1:80:ab:8d:bb:fa:63:7f:06:66:b5:64:
                    67:45:b0:62:22:7c:f1:ba:cc:b6:0c:7a:a6:54:a4:
                    67:af:ba:fa:29:3c:6a:8b:0d:b1:24:47:b2:52:53:
                    df:db:c3:83:64:d5:aa:8e:c9:74:c6:d1:a4:2c:fa:
                    28:2d:fd:3a:fa:99:d5:12:a1:75:34:b4:1e:25:12:
                    1a:c9:64:8a:46:ca:77:ab:18:d8:d8:ac:87:70:3e:
                    af:c6:72:21:5d:76:f0:29:99:d9:c9:36:15:5d:ec:
                    f5:4e:66:70:6f:f9:d9:ad:8d:7e:d0:79:55:3d:11:
                    e8:01
                Exponent: 65537 (0x10001)
        X509v3 extensions:
            X509v3 Basic Constraints: critical
                CA:FALSE
    Signature Algorithm: sha256WithRSAEncryption
         a5:a6:92:f3:3c:d6:de:b3:1f:a3:2c:aa:3c:f7:4c:4e:57:48:
         95:f8:9f:49:af:23:39:d0:00:c2:3e:65:8e:c5:59:75:42:27:
         29:ca:57:b4:bc:c8:e6:22:55:52:b3:02:28:63:56:55:04:aa:
         76:e7:ca:b3:16:67:ef:dd:64:c0:fc:5f:1b:47:77:b2:89:e8:
         09:8b:60:ac:47:ac:3c:d1:57:b4:40:a3:55:7d:c2:60:22:16:
         fe:a9:2b:ab:94:51:fd:b5:a9:cc:5e:11:3f:c3:54:0f:54:eb:
         b0:4c:b2:25:3e:53:c1:56:b6:74:9f:27:1e:7b:0b:9a:33:67:
         21:30:42:02:b4:f0:bb:85:0f:0c:67:23:af:ed:9d:d2:c6:75:
         ec:5f:b6:75:cc:a7:c5:35:bf:49:1e:59:44:70:aa:0c:e1:a7:
         eb:ac:81:9e:bf:69:d1:9e:55:8c:2e:52:1a:2a:42:9d:d8:09:
         3e:d1:09:40:a1:60:46:28:6a:38:ff:fb:48:89:7d:ed:bd:ff:
         bf:3e:07:e6:7e:de:4e:19:32:cb:3f:71:35:9c:3b:ef:1d:09:
         c8:97:51:8f:ae:27:af:9d:8f:99:1f:35:52:9f:60:dc:d1:ab:
         bf:6f:63:7b:ed:18:12:28:9a:dc:b4:cf:fc:ae:49:cb:e1:37:
         1c:ab:35:84
-----BEGIN CERTIFICATE-----
MIIDdTCCAl2gAwIBAgIBFjANBgkqhkiG9w0BAQsFADBxMQswCQYDVQQGEwJVUzET
MBEGA1UECAwKQ2FsaWZvcm5pYTEUMBIGA1UEBwwLU2FudGEgQ2xhcmExDTALBgNV
BAoMBHBrZzUxEDAOBgNVBAMMB2NoMV90YTMxFjAUBgkqhkiG9w0BCQEWB2NoMV90
YTMwHhcNMjMwNzE5MTEzNTQ3WhcNMjYwNDE0MTEzNTQ3WjB5MQswCQYDVQQGEwJV
UzETMBEGA1UECAwKQ2FsaWZvcm5pYTEUMBIGA1UEBwwLU2FudGEgQ2xhcmExDTAL
BgNVBAoMBHBrZzUxFDASBgNVBAMMC2NzN19jaDFfdGEzMRowGAYJKoZIhvcNAQkB
FgtjczdfY2gxX3RhMzCCASIwDQYJKoZIhvcNAQEBBQADggEPADCCAQoCggEBAPAC
Jsvup4Kwd0gzqE2vi4fm5JB8X/S+8yLpvCmtDHc5hTfPVkL96kcNpVUn4jK2NGg8
P1ALnD8XP8rwz6e/YqrgNgZHm3QaDeYU2bamOJ00BnjW8TVj1HFwzv1jEA+AbB6D
tFmYJ+xDVMNdGRpAynZpwyLm6mjjaUi+9y0KUw/tx8B5aVakL9dR4YCrjbv6Y38G
ZrVkZ0WwYiJ88brMtgx6plSkZ6+6+ik8aosNsSRHslJT39vDg2TVqo7JdMbRpCz6
KC39OvqZ1RKhdTS0HiUSGslkikbKd6sY2Nish3A+r8ZyIV128CmZ2ck2FV3s9U5m
cG/52a2NftB5VT0R6AECAwEAAaMQMA4wDAYDVR0TAQH/BAIwADANBgkqhkiG9w0B
AQsFAAOCAQEApaaS8zzW3rMfoyyqPPdMTldIlfifSa8jOdAAwj5ljsVZdUInKcpX
tLzI5iJVUrMCKGNWVQSqdufKsxZn791kwPxfG0d3sonoCYtgrEesPNFXtECjVX3C
YCIW/qkrq5RR/bWpzF4RP8NUD1TrsEyyJT5TwVa2dJ8nHnsLmjNnITBCArTwu4UP
DGcjr+2d0sZ17F+2dcynxTW/SR5ZRHCqDOGn66yBnr9p0Z5VjC5SGipCndgJPtEJ
QKFgRihqOP/7SIl97b3/vz4H5n7eThkyyz9xNZw77x0JyJdRj64nr52PmR81Up9g
3NGrv29je+0YEiia3LTP/K5Jy+E3HKs1hA==
-----END CERTIFICATE-----
