Certificate:
    Data:
        Version: 3 (0x2)
        Serial Number: 22 (0x16)
    Signature Algorithm: sha256WithRSAEncryption
        Issuer: C=US, ST=California, L=Santa Clara, O=pkg5, CN=ch1_ta3/emailAddress=ch1_ta3
        Validity
            Not Before: Jan 22 01:57:57 2016 GMT
            Not After : Oct 18 01:57:57 2018 GMT
        Subject: C=US, ST=California, L=Santa Clara, O=pkg5, CN=cs6_ch1_ta3/emailAddress=cs6_ch1_ta3
        Subject Public Key Info:
            Public Key Algorithm: rsaEncryption
                Public-Key: (1024 bit)
                Modulus:
                    00:b1:3f:87:1b:dc:95:5e:04:08:cc:ff:c2:9a:91:
                    c2:1d:ee:5d:b0:43:15:df:8d:8a:3a:fc:a5:0a:49:
                    27:7a:e1:27:38:dd:c8:5a:47:76:6f:8d:df:c4:b8:
                    81:23:ce:45:64:6a:ea:63:88:92:26:d8:74:d7:ee:
                    28:17:31:f4:54:e6:74:be:dc:8c:dc:9d:29:24:87:
                    34:02:2b:56:f9:2b:01:89:9a:3b:12:fe:99:42:92:
                    22:55:89:fa:c4:40:58:ba:ef:23:85:60:33:4f:49:
                    20:66:a0:6f:0f:36:ae:9c:7c:1c:39:78:97:94:f1:
                    47:96:f6:ab:d1:d8:9b:c1:bb
                Exponent: 65537 (0x10001)
        X509v3 extensions:
            X509v3 Basic Constraints: critical
                CA:FALSE
            X509v3 Key Usage: critical
                Key Agreement, Encipher Only
    Signature Algorithm: sha256WithRSAEncryption
         7b:4f:6a:70:e6:38:de:2d:d6:6c:e3:10:94:d8:3f:80:ed:0d:
         7c:7b:f7:ec:cc:36:c8:2d:84:3c:78:5b:c3:c5:92:be:45:f1:
         bc:52:c6:09:f9:cc:54:4b:01:30:b8:e4:4d:3e:43:00:93:ea:
         b8:9f:71:18:35:37:3c:03:70:70:27:8f:8c:8c:ee:a7:06:aa:
         60:a1:b7:c0:77:84:52:cb:4a:35:bc:e7:e7:95:42:8f:62:db:
         14:83:80:fd:32:c0:30:7b:a0:94:b2:33:f6:da:31:5d:11:6b:
         09:f6:32:57:0b:97:ed:e9:9e:ad:f3:f0:91:dc:c1:df:fe:db:
         0a:88:da:e1:eb:77:f9:8c:d6:c4:29:a5:ef:35:bc:bd:9a:07:
         9a:a0:8f:b1:1c:05:07:fe:00:50:4e:3d:71:bf:0f:27:ec:a8:
         14:48:5a:31:ae:a0:66:74:9b:2e:b8:ef:d0:69:2b:3e:7a:cf:
         cc:0d:2e:f1:78:6d:a7:72:c2:46:b8:4c:93:ad:10:73:2c:13:
         10:71:b0:38:e0:03:eb:d2:c0:28:79:a1:e6:a5:e6:91:52:cb:
         f2:ab:8e:a5:1b:0f:28:ae:13:57:db:87:92:13:fa:22:e4:3c:
         a2:94:6b:0d:7a:fc:7f:e1:10:e5:36:87:55:b3:15:5a:ed:e5:
         36:40:ac:d9
-----BEGIN CERTIFICATE-----
MIIDATCCAemgAwIBAgIBFjANBgkqhkiG9w0BAQsFADBxMQswCQYDVQQGEwJVUzET
MBEGA1UECAwKQ2FsaWZvcm5pYTEUMBIGA1UEBwwLU2FudGEgQ2xhcmExDTALBgNV
BAoMBHBrZzUxEDAOBgNVBAMMB2NoMV90YTMxFjAUBgkqhkiG9w0BCQEWB2NoMV90
YTMwHhcNMTYwMTIyMDE1NzU3WhcNMTgxMDE4MDE1NzU3WjB5MQswCQYDVQQGEwJV
UzETMBEGA1UECAwKQ2FsaWZvcm5pYTEUMBIGA1UEBwwLU2FudGEgQ2xhcmExDTAL
BgNVBAoMBHBrZzUxFDASBgNVBAMMC2NzNl9jaDFfdGEzMRowGAYJKoZIhvcNAQkB
FgtjczZfY2gxX3RhMzCBnzANBgkqhkiG9w0BAQEFAAOBjQAwgYkCgYEAsT+HG9yV
XgQIzP/CmpHCHe5dsEMV342KOvylCkkneuEnON3IWkd2b43fxLiBI85FZGrqY4iS
Jth01+4oFzH0VOZ0vtyM3J0pJIc0AitW+SsBiZo7Ev6ZQpIiVYn6xEBYuu8jhWAz
T0kgZqBvDzaunHwcOXiXlPFHlvar0dibwbsCAwEAAaMgMB4wDAYDVR0TAQH/BAIw
ADAOBgNVHQ8BAf8EBAMCAAkwDQYJKoZIhvcNAQELBQADggEBAHtPanDmON4t1mzj
EJTYP4DtDXx79+zMNsgthDx4W8PFkr5F8bxSxgn5zFRLATC45E0+QwCT6rifcRg1
NzwDcHAnj4yM7qcGqmCht8B3hFLLSjW85+eVQo9i2xSDgP0ywDB7oJSyM/baMV0R
awn2MlcLl+3pnq3z8JHcwd/+2wqI2uHrd/mM1sQppe81vL2aB5qgj7EcBQf+AFBO
PXG/DyfsqBRIWjGuoGZ0my6479BpKz56z8wNLvF4badywka4TJOtEHMsExBxsDjg
A+vSwCh5oeal5pFSy/KrjqUbDyiuE1fbh5IT+iLkPKKUaw16/H/hEOU2h1WzFVrt
5TZArNk=
-----END CERTIFICATE-----
