Certificate:
    Data:
        Version: 3 (0x2)
        Serial Number: 23 (0x17)
        Signature Algorithm: sha256WithRSAEncryption
        Issuer: C=US, ST=California, L=Menlo Park, O=pkg5, CN=pubCA2_ta3/emailAddress=pubCA2_ta3
        Validity
            Not Before: Jan 28 02:54:21 2011 GMT
            Not After : Oct 24 02:54:21 2013 GMT
        Subject: C=US, ST=California, L=Menlo Park, O=pkg5, CN=cs1_p2_ta3/emailAddress=cs1_p2_ta3
        Subject Public Key Info:
            Public Key Algorithm: rsaEncryption
            RSA Public Key: (1024 bit)
                Modulus (1024 bit):
                    00:c6:07:89:ed:17:4d:1d:4c:e9:1f:c3:10:f8:63:
                    50:5e:60:65:9b:13:41:07:a9:5a:b1:5e:e9:4d:6f:
                    f7:15:b4:23:87:2b:91:c2:71:9f:4f:68:71:f3:24:
                    a4:d6:bb:65:78:9b:8e:c5:ac:a4:1d:eb:ac:73:24:
                    19:67:63:95:34:b3:18:56:62:0b:05:c6:4d:9e:92:
                    cb:31:30:58:28:8e:e7:b8:f1:32:bc:cf:76:e2:22:
                    a5:56:d2:18:a5:ec:83:65:6f:71:85:0c:62:09:a9:
                    94:c7:ef:c9:39:a0:6f:14:0f:b3:66:36:60:95:c5:
                    c2:f2:a6:2c:c6:00:4a:fb:6b
                Exponent: 65537 (0x10001)
        X509v3 extensions:
            X509v3 Basic Constraints: critical
                CA:FALSE
            X509v3 Key Usage: critical
                Digital Signature
    Signature Algorithm: sha256WithRSAEncryption
        8e:38:49:09:7d:23:2f:61:62:28:7c:78:5f:28:8b:1c:ba:8d:
        cf:6d:ec:49:20:d2:17:1c:57:0e:e0:b4:c9:0b:75:d6:9c:41:
        61:f0:60:69:1c:81:2c:0e:58:4c:2b:6c:65:51:0f:63:ab:61:
        90:d2:99:7b:45:26:a3:68:18:da:b9:28:5c:15:6e:f1:9b:ac:
        cf:06:93:b5:00:33:aa:8c:a0:5d:45:5c:6a:e3:61:78:b8:1a:
        5b:bc:77:47:e6:36:58:b4:8e:16:01:4d:9a:2b:b3:8b:77:3c:
        fd:14:4b:c6:ee:9d:cf:15:71:ad:9f:c8:b1:e5:16:68:aa:cd:
        11:47
-----BEGIN CERTIFICATE-----
MIICgjCCAeugAwIBAgIBFzANBgkqhkiG9w0BAQsFADB2MQswCQYDVQQGEwJVUzET
MBEGA1UECBMKQ2FsaWZvcm5pYTETMBEGA1UEBxMKTWVubG8gUGFyazENMAsGA1UE
ChMEcGtnNTETMBEGA1UEAxQKcHViQ0EyX3RhMzEZMBcGCSqGSIb3DQEJARYKcHVi
Q0EyX3RhMzAeFw0xMTAxMjgwMjU0MjFaFw0xMzEwMjQwMjU0MjFaMHYxCzAJBgNV
BAYTAlVTMRMwEQYDVQQIEwpDYWxpZm9ybmlhMRMwEQYDVQQHEwpNZW5sbyBQYXJr
MQ0wCwYDVQQKEwRwa2c1MRMwEQYDVQQDFApjczFfcDJfdGEzMRkwFwYJKoZIhvcN
AQkBFgpjczFfcDJfdGEzMIGfMA0GCSqGSIb3DQEBAQUAA4GNADCBiQKBgQDGB4nt
F00dTOkfwxD4Y1BeYGWbE0EHqVqxXulNb/cVtCOHK5HCcZ9PaHHzJKTWu2V4m47F
rKQd66xzJBlnY5U0sxhWYgsFxk2ekssxMFgojue48TK8z3biIqVW0hil7INlb3GF
DGIJqZTH78k5oG8UD7NmNmCVxcLypizGAEr7awIDAQABoyAwHjAMBgNVHRMBAf8E
AjAAMA4GA1UdDwEB/wQEAwIHgDANBgkqhkiG9w0BAQsFAAOBgQCOOEkJfSMvYWIo
fHhfKIscuo3PbexJINIXHFcO4LTJC3XWnEFh8GBpHIEsDlhMK2xlUQ9jq2GQ0pl7
RSajaBjauShcFW7xm6zPBpO1ADOqjKBdRVxq42F4uBpbvHdH5jZYtI4WAU2aK7OL
dzz9FEvG7p3PFXGtn8ix5RZoqs0RRw==
-----END CERTIFICATE-----
