Certificate:
    Data:
        Version: 3 (0x2)
        Serial Number: 23 (0x17)
        Signature Algorithm: sha256WithRSAEncryption
        Issuer: C=US, ST=California, L=Menlo Park, O=pkg5, CN=ch1_ta3/emailAddress=ch1_ta3
        Validity
            Not Before: Apr 11 22:37:46 2011 GMT
            Not After : Jan  5 22:37:46 2014 GMT
        Subject: C=US, ST=California, L=Menlo Park, O=pkg5, CN=cs7_ch1_ta3/emailAddress=cs7_ch1_ta3
        Subject Public Key Info:
            Public Key Algorithm: rsaEncryption
            RSA Public Key: (1024 bit)
                Modulus (1024 bit):
                    00:c8:97:06:72:77:82:e7:03:53:56:f7:71:5c:f4:
                    b5:ae:e1:22:08:f7:a7:70:47:2f:ad:6f:af:a9:39:
                    c3:73:ca:f5:d5:54:e9:3d:46:f8:a4:a1:1a:27:d5:
                    1a:c6:90:c9:4b:c1:21:32:06:9b:56:d7:23:3c:23:
                    d9:aa:2a:17:15:61:0c:cc:08:e7:60:af:55:e6:9e:
                    e2:24:bd:1f:e9:04:e8:09:ed:f4:a3:d8:5e:24:91:
                    95:3e:9f:7e:f7:64:66:60:08:7d:cf:ac:b6:f4:6b:
                    72:28:61:8c:dc:51:4d:00:3e:4d:67:70:0e:ae:3c:
                    37:99:28:47:e7:61:fe:a3:73
                Exponent: 65537 (0x10001)
        X509v3 extensions:
            X509v3 Basic Constraints: critical
                CA:FALSE
    Signature Algorithm: sha256WithRSAEncryption
        7a:58:f4:9c:bc:64:08:aa:dc:9c:e2:d3:a0:92:cb:1a:b3:75:
        c9:c7:39:07:84:cb:4a:0f:07:2c:b8:5d:8a:a3:22:69:2e:63:
        04:d8:16:5f:8d:e8:11:de:fc:f5:df:a3:6c:c9:f0:c2:d7:5d:
        6c:43:3c:e2:ae:ed:b2:01:cf:e1:77:b3:85:76:bb:76:f7:c9:
        cd:50:7f:17:b7:82:22:ed:d9:1c:82:bf:da:3f:28:72:c5:45:
        e3:08:96:ba:45:22:76:bb:b4:9d:f6:e1:a0:64:36:9b:a2:e2:
        83:64:b1:76:1d:09:2f:6c:4b:a9:9b:00:e3:79:cf:7d:0b:91:
        b3:95
-----BEGIN CERTIFICATE-----
MIICbjCCAdegAwIBAgIBFzANBgkqhkiG9w0BAQsFADBwMQswCQYDVQQGEwJVUzET
MBEGA1UECBMKQ2FsaWZvcm5pYTETMBEGA1UEBxMKTWVubG8gUGFyazENMAsGA1UE
ChMEcGtnNTEQMA4GA1UEAxQHY2gxX3RhMzEWMBQGCSqGSIb3DQEJARYHY2gxX3Rh
MzAeFw0xMTA0MTEyMjM3NDZaFw0xNDAxMDUyMjM3NDZaMHgxCzAJBgNVBAYTAlVT
MRMwEQYDVQQIEwpDYWxpZm9ybmlhMRMwEQYDVQQHEwpNZW5sbyBQYXJrMQ0wCwYD
VQQKEwRwa2c1MRQwEgYDVQQDFAtjczdfY2gxX3RhMzEaMBgGCSqGSIb3DQEJARYL
Y3M3X2NoMV90YTMwgZ8wDQYJKoZIhvcNAQEBBQADgY0AMIGJAoGBAMiXBnJ3gucD
U1b3cVz0ta7hIgj3p3BHL61vr6k5w3PK9dVU6T1G+KShGifVGsaQyUvBITIGm1bX
Izwj2aoqFxVhDMwI52CvVeae4iS9H+kE6Ant9KPYXiSRlT6ffvdkZmAIfc+stvRr
cihhjNxRTQA+TWdwDq48N5koR+dh/qNzAgMBAAGjEDAOMAwGA1UdEwEB/wQCMAAw
DQYJKoZIhvcNAQELBQADgYEAelj0nLxkCKrcnOLToJLLGrN1ycc5B4TLSg8HLLhd
iqMiaS5jBNgWX43oEd789d+jbMnwwtddbEM84q7tsgHP4XezhXa7dvfJzVB/F7eC
Iu3ZHIK/2j8ocsVF4wiWukUidru0nfbhoGQ2m6Lig2Sxdh0JL2xLqZsA43nPfQuR
s5U=
-----END CERTIFICATE-----
