Certificate:
    Data:
        Version: 3 (0x2)
        Serial Number: 23 (0x17)
    Signature Algorithm: sha256WithRSAEncryption
        Issuer: C=US, ST=California, L=Santa Clara, O=pkg5, CN=ch1_ta3/emailAddress=ch1_ta3
        Validity
            Not Before: Dec 13 00:13:36 2013 GMT
            Not After : Sep  8 00:13:36 2016 GMT
        Subject: C=US, ST=California, L=Santa Clara, O=pkg5, CN=cs7_ch1_ta3/emailAddress=cs7_ch1_ta3
        Subject Public Key Info:
            Public Key Algorithm: rsaEncryption
                Public-Key: (1024 bit)
                Modulus:
                    00:bc:52:93:cc:6b:6d:63:bb:fe:a2:33:3d:40:a4:
                    ba:3f:12:4c:72:69:a0:87:80:32:50:47:91:8f:39:
                    6f:8a:78:78:9a:f6:34:83:2d:7d:6a:19:90:36:9f:
                    fb:7c:1c:c8:13:f9:13:b2:6a:75:1a:2c:3a:76:2b:
                    10:d2:f3:90:1f:65:df:65:04:0c:97:a2:fa:43:53:
                    33:32:f8:8f:f3:30:a7:1c:4a:67:9c:da:81:b8:7a:
                    55:c4:30:1d:59:5d:f1:0a:bc:b6:52:b3:09:41:24:
                    1f:30:6b:ed:95:ba:90:cf:0d:af:eb:c7:fb:31:35:
                    c5:5b:ff:67:9a:8a:1b:34:09
                Exponent: 65537 (0x10001)
        X509v3 extensions:
            X509v3 Basic Constraints: critical
                CA:FALSE
    Signature Algorithm: sha256WithRSAEncryption
         68:79:a6:5a:7f:1d:50:2a:e9:60:26:b2:31:e8:66:e2:c1:5e:
         12:78:d9:32:fc:0c:07:5d:15:22:f7:f7:22:52:96:0d:35:8e:
         bd:dd:60:ab:0f:d9:dc:6b:4e:a5:d8:57:83:ff:d1:60:a5:c1:
         c7:0c:49:c3:05:c4:9a:9f:87:ba:ff:47:9f:51:dd:04:2a:90:
         53:b1:f9:8d:fa:34:97:a2:4b:4b:70:84:67:1d:de:f4:e6:e6:
         bd:0e:c4:24:8a:e2:8b:fa:ac:06:2c:09:ed:bd:7d:b3:1e:df:
         a9:be:4c:c5:49:c1:72:bd:d8:a7:3f:25:89:15:3f:1c:19:e6:
         84:15
-----BEGIN CERTIFICATE-----
MIICcDCCAdmgAwIBAgIBFzANBgkqhkiG9w0BAQsFADBxMQswCQYDVQQGEwJVUzET
MBEGA1UECAwKQ2FsaWZvcm5pYTEUMBIGA1UEBwwLU2FudGEgQ2xhcmExDTALBgNV
BAoMBHBrZzUxEDAOBgNVBAMMB2NoMV90YTMxFjAUBgkqhkiG9w0BCQEWB2NoMV90
YTMwHhcNMTMxMjEzMDAxMzM2WhcNMTYwOTA4MDAxMzM2WjB5MQswCQYDVQQGEwJV
UzETMBEGA1UECAwKQ2FsaWZvcm5pYTEUMBIGA1UEBwwLU2FudGEgQ2xhcmExDTAL
BgNVBAoMBHBrZzUxFDASBgNVBAMMC2NzN19jaDFfdGEzMRowGAYJKoZIhvcNAQkB
FgtjczdfY2gxX3RhMzCBnzANBgkqhkiG9w0BAQEFAAOBjQAwgYkCgYEAvFKTzGtt
Y7v+ojM9QKS6PxJMcmmgh4AyUEeRjzlvinh4mvY0gy19ahmQNp/7fBzIE/kTsmp1
Giw6disQ0vOQH2XfZQQMl6L6Q1MzMviP8zCnHEpnnNqBuHpVxDAdWV3xCry2UrMJ
QSQfMGvtlbqQzw2v68f7MTXFW/9nmoobNAkCAwEAAaMQMA4wDAYDVR0TAQH/BAIw
ADANBgkqhkiG9w0BAQsFAAOBgQBoeaZafx1QKulgJrIx6GbiwV4SeNky/AwHXRUi
9/ciUpYNNY693WCrD9nca06l2FeD/9FgpcHHDEnDBcSan4e6/0efUd0EKpBTsfmN
+jSXoktLcIRnHd705ua9DsQkiuKL+qwGLAntvX2zHt+pvkzFScFyvdinPyWJFT8c
GeaEFQ==
-----END CERTIFICATE-----
