Certificate:
    Data:
        Version: 3 (0x2)
        Serial Number: 23 (0x17)
        Signature Algorithm: sha256WithRSAEncryption
        Issuer: C=US, ST=California, L=Santa Clara, O=pkg5, CN=ch1_ta3/emailAddress=ch1_ta3
        Validity
            Not Before: Mar 18 08:51:36 2026 GMT
            Not After : Dec 12 08:51:36 2028 GMT
        Subject: C=US, ST=California, L=Santa Clara, O=pkg5, CN=cs8_ch1_ta3/emailAddress=cs8_ch1_ta3
        Subject Public Key Info:
            Public Key Algorithm: rsaEncryption
                Public-Key: (2048 bit)
                Modulus:
                    00:ce:73:26:b9:e7:1c:b8:b1:1b:2a:9d:2e:c7:04:
                    ae:ef:72:22:40:50:b8:29:bd:e9:98:95:6e:5a:30:
                    9f:f1:df:2d:37:05:09:75:14:f4:ab:1f:59:88:d1:
                    3c:90:9a:a8:93:aa:88:e9:24:0e:8a:2f:0e:c9:5f:
                    03:8c:6c:ba:5e:8f:08:37:ea:5c:5b:a5:fe:3d:fa:
                    4d:5a:c0:a9:9f:cd:78:35:19:a7:26:50:d5:fd:6e:
                    eb:6a:44:b1:42:93:9b:c4:81:be:3a:e8:a5:1c:1e:
                    72:c0:d7:14:24:b1:65:af:76:4b:02:eb:e8:5a:bc:
                    91:1d:15:32:ae:60:df:e0:33:6d:b2:4e:55:a0:6b:
                    03:46:a1:02:b0:93:e1:d6:35:99:20:38:fe:0c:e9:
                    f2:4d:71:15:33:4a:ea:1f:62:a7:46:67:c8:7c:48:
                    be:2c:29:e6:35:d9:f7:af:02:d4:ab:87:af:c0:81:
                    be:e2:cd:73:da:1a:24:30:e9:fc:98:8a:2c:a1:61:
                    aa:8a:db:ea:63:32:2e:6a:d2:6b:c7:90:2d:42:c3:
                    86:3f:00:31:2e:60:10:44:cb:89:c0:59:a4:b9:fa:
                    c0:c5:25:ef:94:fb:76:0c:4d:25:62:f5:fa:04:2f:
                    86:c6:4f:97:40:be:67:77:93:c8:7d:a2:b6:d9:59:
                    38:01
                Exponent: 65537 (0x10001)
        X509v3 extensions:
            X509v3 Basic Constraints: critical
                CA:TRUE
            X509v3 Key Usage: critical
                Digital Signature
            X509v3 Subject Key Identifier: 
                06:06:DA:52:9C:73:28:71:5D:0B:1E:54:96:49:BC:8D:5E:43:AA:BA
            X509v3 Authority Key Identifier: 
                D9:5E:2F:ED:23:64:CE:9F:A3:C2:6F:7D:FD:22:C9:21:6D:C3:CE:2F
    Signature Algorithm: sha256WithRSAEncryption
    Signature Value:
        4d:79:0f:9d:de:05:e9:72:1b:90:06:ed:59:d2:5b:22:7a:36:
        6f:c0:83:a3:c2:7e:96:35:47:b7:89:9a:e2:cf:5d:ca:39:1c:
        6e:11:92:0b:bf:b6:bb:5f:f5:f9:d0:45:c7:f6:c9:b7:11:fa:
        cd:90:91:b3:36:57:3c:6d:83:f9:8e:8d:61:7b:d3:d5:9b:7c:
        db:5f:c7:62:32:a7:9e:6e:72:67:6c:90:2a:2a:28:35:c2:da:
        7a:79:ab:62:66:b6:9d:ac:8c:1a:6b:05:49:ee:9d:2d:01:ef:
        51:d7:36:01:44:eb:69:cf:75:b6:a1:33:0e:99:07:df:c7:c1:
        5c:27:ce:67:0c:65:2e:c7:1c:41:76:0e:2f:e8:09:4f:77:ea:
        21:09:df:16:a9:14:7b:d4:5d:ac:6e:e9:4f:c4:80:88:17:9d:
        f2:da:13:19:69:8c:ba:4d:5b:e2:cd:65:9d:a4:8f:90:2c:56:
        87:de:55:d7:53:c2:27:1f:7b:8c:a2:63:4d:fe:d8:0c:de:f8:
        f5:e2:f0:b9:62:c9:15:73:ac:ae:55:ff:7d:f0:77:72:79:2b:
        03:02:2a:77:7f:18:28:5b:a4:41:43:9a:76:da:29:ff:d8:f7:
        65:0c:59:69:b2:44:3f:b5:6f:9c:17:cd:80:a6:6a:21:d2:99:
        c2:d8:3f:59
-----BEGIN CERTIFICATE-----
MIIDyDCCArCgAwIBAgIBFzANBgkqhkiG9w0BAQsFADBxMQswCQYDVQQGEwJVUzET
MBEGA1UECAwKQ2FsaWZvcm5pYTEUMBIGA1UEBwwLU2FudGEgQ2xhcmExDTALBgNV
BAoMBHBrZzUxEDAOBgNVBAMMB2NoMV90YTMxFjAUBgkqhkiG9w0BCQEWB2NoMV90
YTMwHhcNMjYwMzE4MDg1MTM2WhcNMjgxMjEyMDg1MTM2WjB5MQswCQYDVQQGEwJV
UzETMBEGA1UECAwKQ2FsaWZvcm5pYTEUMBIGA1UEBwwLU2FudGEgQ2xhcmExDTAL
BgNVBAoMBHBrZzUxFDASBgNVBAMMC2NzOF9jaDFfdGEzMRowGAYJKoZIhvcNAQkB
FgtjczhfY2gxX3RhMzCCASIwDQYJKoZIhvcNAQEBBQADggEPADCCAQoCggEBAM5z
JrnnHLixGyqdLscEru9yIkBQuCm96ZiVblown/HfLTcFCXUU9KsfWYjRPJCaqJOq
iOkkDoovDslfA4xsul6PCDfqXFul/j36TVrAqZ/NeDUZpyZQ1f1u62pEsUKTm8SB
vjropRwecsDXFCSxZa92SwLr6Fq8kR0VMq5g3+AzbbJOVaBrA0ahArCT4dY1mSA4
/gzp8k1xFTNK6h9ip0ZnyHxIviwp5jXZ968C1KuHr8CBvuLNc9oaJDDp/JiKLKFh
qorb6mMyLmrSa8eQLULDhj8AMS5gEETLicBZpLn6wMUl75T7dgxNJWL1+gQvhsZP
l0C+Z3eTyH2ittlZOAECAwEAAaNjMGEwDwYDVR0TAQH/BAUwAwEB/zAOBgNVHQ8B
Af8EBAMCB4AwHQYDVR0OBBYEFAYG2lKccyhxXQseVJZJvI1eQ6q6MB8GA1UdIwQY
MBaAFNleL+0jZM6fo8Jvff0iySFtw84vMA0GCSqGSIb3DQEBCwUAA4IBAQBNeQ+d
3gXpchuQBu1Z0lsiejZvwIOjwn6WNUe3iZriz13KORxuEZILv7a7X/X50EXH9sm3
EfrNkJGzNlc8bYP5jo1he9PVm3zbX8diMqeebnJnbJAqKig1wtp6eatiZradrIwa
awVJ7p0tAe9R1zYBROtpz3W2oTMOmQffx8FcJ85nDGUuxxxBdg4v6AlPd+ohCd8W
qRR71F2sbulPxICIF53y2hMZaYy6TVvizWWdpI+QLFaH3lXXU8InH3uMomNN/tgM
3vj14vC5YskVc6yuVf998HdyeSsDAip3fxgoW6RBQ5p22in/2PdlDFlpskQ/tW+c
F82Apmoh0pnC2D9Z
-----END CERTIFICATE-----
