Certificate:
    Data:
        Version: 3 (0x2)
        Serial Number: 24 (0x18)
    Signature Algorithm: sha256WithRSAEncryption
        Issuer: C=US, ST=California, L=Santa Clara, O=pkg5, CN=ch1_ta3/emailAddress=ch1_ta3
        Validity
            Not Before: Dec 13 00:13:36 2013 GMT
            Not After : Sep  8 00:13:36 2016 GMT
        Subject: C=US, ST=California, L=Santa Clara, O=pkg5, CN=cs8_ch1_ta3/emailAddress=cs8_ch1_ta3
        Subject Public Key Info:
            Public Key Algorithm: rsaEncryption
                Public-Key: (1024 bit)
                Modulus:
                    00:de:50:67:d6:8e:a7:53:1b:73:03:fe:c7:ef:59:
                    82:0c:d7:74:ef:ad:21:33:68:78:46:27:7f:f1:0c:
                    76:67:8d:be:ba:f8:36:00:c7:1b:eb:82:1f:70:58:
                    71:02:db:6a:9e:11:37:a8:b0:28:27:b4:9f:be:1d:
                    2a:fb:67:4f:a1:3a:ce:e2:70:d2:d8:81:eb:92:5a:
                    c6:3f:97:ec:2c:49:b5:5b:8a:e1:ea:60:35:28:6a:
                    e8:37:b6:7a:1e:83:36:32:52:3f:c0:a5:b2:74:19:
                    b1:32:34:66:da:f8:fc:e1:92:42:b2:a6:87:48:56:
                    37:66:e3:3c:6f:58:73:26:a1
                Exponent: 65537 (0x10001)
        X509v3 extensions:
            X509v3 Basic Constraints: critical
                CA:TRUE
            X509v3 Key Usage: critical
                Digital Signature
    Signature Algorithm: sha256WithRSAEncryption
         55:cb:0c:50:d9:e0:bd:c9:b2:60:0f:0d:3e:ac:e3:e0:e2:2f:
         02:a9:5b:5b:2d:4c:bb:55:e0:5a:83:63:46:46:92:cc:1f:f3:
         8b:24:de:6f:9e:c6:b5:f5:ca:57:1d:07:d4:97:4e:d3:9b:a9:
         17:56:6c:fa:57:7f:cd:a4:55:ab:64:b7:57:b4:59:a4:be:d6:
         8c:6d:70:8a:4f:f4:13:20:e1:70:89:18:98:77:e9:91:87:a9:
         01:66:07:43:df:df:4d:ac:e1:1b:b1:c5:d8:20:3f:fc:fd:5f:
         1d:fc:61:8e:43:b9:ca:ed:db:83:88:e2:0f:4a:a9:f2:20:ee:
         e6:54
-----BEGIN CERTIFICATE-----
MIICgzCCAeygAwIBAgIBGDANBgkqhkiG9w0BAQsFADBxMQswCQYDVQQGEwJVUzET
MBEGA1UECAwKQ2FsaWZvcm5pYTEUMBIGA1UEBwwLU2FudGEgQ2xhcmExDTALBgNV
BAoMBHBrZzUxEDAOBgNVBAMMB2NoMV90YTMxFjAUBgkqhkiG9w0BCQEWB2NoMV90
YTMwHhcNMTMxMjEzMDAxMzM2WhcNMTYwOTA4MDAxMzM2WjB5MQswCQYDVQQGEwJV
UzETMBEGA1UECAwKQ2FsaWZvcm5pYTEUMBIGA1UEBwwLU2FudGEgQ2xhcmExDTAL
BgNVBAoMBHBrZzUxFDASBgNVBAMMC2NzOF9jaDFfdGEzMRowGAYJKoZIhvcNAQkB
FgtjczhfY2gxX3RhMzCBnzANBgkqhkiG9w0BAQEFAAOBjQAwgYkCgYEA3lBn1o6n
UxtzA/7H71mCDNd0760hM2h4Rid/8Qx2Z42+uvg2AMcb64IfcFhxAttqnhE3qLAo
J7Sfvh0q+2dPoTrO4nDS2IHrklrGP5fsLEm1W4rh6mA1KGroN7Z6HoM2MlI/wKWy
dBmxMjRm2vj84ZJCsqaHSFY3ZuM8b1hzJqECAwEAAaMjMCEwDwYDVR0TAQH/BAUw
AwEB/zAOBgNVHQ8BAf8EBAMCB4AwDQYJKoZIhvcNAQELBQADgYEAVcsMUNngvcmy
YA8NPqzj4OIvAqlbWy1Mu1XgWoNjRkaSzB/ziyTeb57GtfXKVx0H1JdO05upF1Zs
+ld/zaRVq2S3V7RZpL7WjG1wik/0EyDhcIkYmHfpkYepAWYHQ9/fTazhG7HF2CA/
/P1fHfxhjkO5yu3bg4jiD0qp8iDu5lQ=
-----END CERTIFICATE-----
