Certificate:
    Data:
        Version: 3 (0x2)
        Serial Number: 24 (0x18)
        Signature Algorithm: sha256WithRSAEncryption
        Issuer: C=US, ST=California, L=Menlo Park, O=pkg5, CN=ch1_ta3/emailAddress=ch1_ta3
        Validity
            Not Before: Apr 11 22:37:46 2011 GMT
            Not After : Jan  5 22:37:46 2014 GMT
        Subject: C=US, ST=California, L=Menlo Park, O=pkg5, CN=cs8_ch1_ta3/emailAddress=cs8_ch1_ta3
        Subject Public Key Info:
            Public Key Algorithm: rsaEncryption
            RSA Public Key: (1024 bit)
                Modulus (1024 bit):
                    00:c4:da:c4:d3:72:c2:65:ec:7f:b8:41:e3:c7:14:
                    83:bb:fc:9e:d5:87:15:5f:eb:52:da:cb:f4:c7:db:
                    2f:58:65:01:0e:0e:d5:27:cf:c5:e5:2c:ce:99:7f:
                    0f:48:8c:4f:54:47:6b:4b:5e:90:3f:95:96:60:b8:
                    8e:39:1f:a9:cc:38:b6:9f:21:6d:4e:69:2e:14:c5:
                    71:fe:e1:e1:44:24:d4:74:45:4a:9f:88:64:36:96:
                    f7:ba:74:1e:88:f9:6d:ac:e9:25:f0:74:58:c6:13:
                    b9:05:ab:fa:0e:5c:77:fc:a1:3d:48:9c:78:90:f8:
                    67:41:99:7c:bf:45:6a:67:ef
                Exponent: 65537 (0x10001)
        X509v3 extensions:
            X509v3 Basic Constraints: critical
                CA:TRUE
            X509v3 Key Usage: critical
                Digital Signature
    Signature Algorithm: sha256WithRSAEncryption
        1d:d4:91:76:de:42:bb:70:5b:57:39:fe:bd:50:85:66:ee:7c:
        c7:7c:7c:00:18:71:73:50:5a:70:04:43:ca:81:23:2a:42:c8:
        8e:34:91:b9:8b:b8:f7:37:b0:08:3f:ee:b2:5f:a2:fd:03:b1:
        59:d1:ff:cf:b6:73:f6:82:51:0a:73:a0:43:79:36:a2:c4:fb:
        98:6c:64:bc:3a:f5:b9:c5:e7:c1:cf:76:fb:73:23:d3:47:e2:
        a9:19:60:08:a7:c8:1b:c3:73:24:f9:8d:dc:bf:ae:5d:5b:fe:
        48:d0:06:a7:33:e5:d8:db:4c:c9:82:a0:32:c1:1e:45:67:67:
        ce:54
-----BEGIN CERTIFICATE-----
MIICgTCCAeqgAwIBAgIBGDANBgkqhkiG9w0BAQsFADBwMQswCQYDVQQGEwJVUzET
MBEGA1UECBMKQ2FsaWZvcm5pYTETMBEGA1UEBxMKTWVubG8gUGFyazENMAsGA1UE
ChMEcGtnNTEQMA4GA1UEAxQHY2gxX3RhMzEWMBQGCSqGSIb3DQEJARYHY2gxX3Rh
MzAeFw0xMTA0MTEyMjM3NDZaFw0xNDAxMDUyMjM3NDZaMHgxCzAJBgNVBAYTAlVT
MRMwEQYDVQQIEwpDYWxpZm9ybmlhMRMwEQYDVQQHEwpNZW5sbyBQYXJrMQ0wCwYD
VQQKEwRwa2c1MRQwEgYDVQQDFAtjczhfY2gxX3RhMzEaMBgGCSqGSIb3DQEJARYL
Y3M4X2NoMV90YTMwgZ8wDQYJKoZIhvcNAQEBBQADgY0AMIGJAoGBAMTaxNNywmXs
f7hB48cUg7v8ntWHFV/rUtrL9MfbL1hlAQ4O1SfPxeUszpl/D0iMT1RHa0tekD+V
lmC4jjkfqcw4tp8hbU5pLhTFcf7h4UQk1HRFSp+IZDaW97p0Hoj5bazpJfB0WMYT
uQWr+g5cd/yhPUiceJD4Z0GZfL9FamfvAgMBAAGjIzAhMA8GA1UdEwEB/wQFMAMB
Af8wDgYDVR0PAQH/BAQDAgeAMA0GCSqGSIb3DQEBCwUAA4GBAB3UkXbeQrtwW1c5
/r1QhWbufMd8fAAYcXNQWnAEQ8qBIypCyI40kbmLuPc3sAg/7rJfov0DsVnR/8+2
c/aCUQpzoEN5NqLE+5hsZLw69bnF58HPdvtzI9NH4qkZYAinyBvDcyT5jdy/rl1b
/kjQBqcz5djbTMmCoDLBHkVnZ85U
-----END CERTIFICATE-----
