Certificate:
    Data:
        Version: 3 (0x2)
        Serial Number: 24 (0x18)
    Signature Algorithm: sha256WithRSAEncryption
        Issuer: C=US, ST=California, L=Santa Clara, O=pkg5, CN=cs8_ch1_ta3/emailAddress=cs8_ch1_ta3
        Validity
            Not Before: Sep 22 05:33:25 2021 GMT
            Not After : Jun 18 05:33:25 2024 GMT
        Subject: C=US, ST=California, L=Santa Clara, O=pkg5, CN=cs1_cs8_ch1_ta3/emailAddress=cs1_cs8_ch1_ta3
        Subject Public Key Info:
            Public Key Algorithm: rsaEncryption
                Public-Key: (1024 bit)
                Modulus:
                    00:b7:80:5c:fc:89:b8:75:47:0c:c5:a1:f8:b1:85:
                    0a:12:96:1c:05:43:0c:74:67:c7:6f:cc:18:4b:64:
                    73:6e:10:75:6e:c9:9a:81:bd:1a:bb:39:c3:de:73:
                    cc:ff:ba:5c:d4:d0:be:8c:38:f6:fb:b8:9a:8d:e2:
                    68:cc:80:8f:95:9b:d6:b8:10:1c:7c:ed:5c:49:3e:
                    8c:1c:21:67:46:24:07:f6:28:ba:3a:43:85:c7:53:
                    9c:b7:8d:b4:c7:c9:43:2f:c4:42:a4:55:7a:32:0c:
                    e3:18:91:11:aa:91:74:3d:5c:9d:36:01:c2:51:4c:
                    8b:8b:e8:62:f9:de:17:07:b5
                Exponent: 65537 (0x10001)
        X509v3 extensions:
            X509v3 Basic Constraints: critical
                CA:FALSE
            X509v3 Key Usage: critical
                Digital Signature
    Signature Algorithm: sha256WithRSAEncryption
         1c:ee:e7:79:63:38:88:78:b6:7f:f0:3e:f6:39:96:e2:1c:00:
         17:d1:da:2e:f9:d6:52:9f:d7:6d:de:27:90:fa:99:a9:1f:56:
         40:c8:9d:7d:ae:d4:80:ae:e9:c1:9a:dd:31:43:74:97:f7:05:
         5c:0d:d7:7d:f4:45:dd:fa:29:9a:ef:f5:23:fe:0b:76:28:2c:
         b0:49:fc:26:02:4b:18:17:44:3a:f7:42:53:24:26:d5:5f:6d:
         d6:25:06:9c:98:2b:24:33:97:a7:5b:0f:fc:da:97:81:11:60:
         04:cd:68:5e:a6:6d:9e:78:f9:6c:3c:e4:81:69:7f:20:ee:eb:
         26:2f
-----BEGIN CERTIFICATE-----
MIICkTCCAfqgAwIBAgIBGDANBgkqhkiG9w0BAQsFADB5MQswCQYDVQQGEwJVUzET
MBEGA1UECAwKQ2FsaWZvcm5pYTEUMBIGA1UEBwwLU2FudGEgQ2xhcmExDTALBgNV
BAoMBHBrZzUxFDASBgNVBAMMC2NzOF9jaDFfdGEzMRowGAYJKoZIhvcNAQkBFgtj
czhfY2gxX3RhMzAeFw0yMTA5MjIwNTMzMjVaFw0yNDA2MTgwNTMzMjVaMIGBMQsw
CQYDVQQGEwJVUzETMBEGA1UECAwKQ2FsaWZvcm5pYTEUMBIGA1UEBwwLU2FudGEg
Q2xhcmExDTALBgNVBAoMBHBrZzUxGDAWBgNVBAMMD2NzMV9jczhfY2gxX3RhMzEe
MBwGCSqGSIb3DQEJARYPY3MxX2NzOF9jaDFfdGEzMIGfMA0GCSqGSIb3DQEBAQUA
A4GNADCBiQKBgQC3gFz8ibh1RwzFofixhQoSlhwFQwx0Z8dvzBhLZHNuEHVuyZqB
vRq7OcPec8z/ulzU0L6MOPb7uJqN4mjMgI+Vm9a4EBx87VxJPowcIWdGJAf2KLo6
Q4XHU5y3jbTHyUMvxEKkVXoyDOMYkRGqkXQ9XJ02AcJRTIuL6GL53hcHtQIDAQAB
oyAwHjAMBgNVHRMBAf8EAjAAMA4GA1UdDwEB/wQEAwIHgDANBgkqhkiG9w0BAQsF
AAOBgQAc7ud5YziIeLZ/8D72OZbiHAAX0dou+dZSn9dt3ieQ+pmpH1ZAyJ19rtSA
runBmt0xQ3SX9wVcDdd99EXd+ima7/Uj/gt2KCywSfwmAksYF0Q690JTJCbVX23W
JQacmCskM5enWw/82peBEWAEzWhepm2eePlsPOSBaX8g7usmLw==
-----END CERTIFICATE-----
