Certificate:
    Data:
        Version: 3 (0x2)
        Serial Number: 25 (0x19)
    Signature Algorithm: sha256WithRSAEncryption
        Issuer: C=US, ST=California, L=Santa Clara, O=pkg5, CN=ch1_ta3/emailAddress=ch1_ta3
        Validity
            Not Before: Sep 22 05:33:25 2021 GMT
            Not After : Jun 18 05:33:25 2024 GMT
        Subject: C=US, ST=California, L=Santa Clara, O=pkg5, CN=cs9_ch1_ta3/emailAddress=cs9_ch1_ta3
        Subject Public Key Info:
            Public Key Algorithm: rsaEncryption
                Public-Key: (1024 bit)
                Modulus:
                    00:c5:fe:30:4d:c1:10:c8:6a:d0:67:72:1f:b9:ab:
                    c5:94:02:6b:98:ff:40:8b:2f:87:63:3a:5d:c9:ec:
                    4d:20:c9:20:af:de:75:58:79:42:89:21:11:aa:be:
                    e0:ae:e0:1c:30:cc:7f:8f:f0:8d:fe:1c:c9:14:da:
                    83:0d:ab:05:9f:21:e4:30:5f:a6:e2:1d:d3:90:c1:
                    d7:b7:2e:95:97:72:10:07:9c:37:25:d2:fd:11:54:
                    a2:30:87:1c:62:11:53:cd:2d:67:2b:db:13:d7:6a:
                    60:34:13:1d:48:69:c7:dd:3a:22:94:12:2c:83:5e:
                    fe:9e:fd:54:53:8c:61:35:57
                Exponent: 65537 (0x10001)
        X509v3 extensions:
            X509v3 Basic Constraints: critical
                CA:FALSE
            X509v3 Key Usage: 
                Encipher Only
    Signature Algorithm: sha256WithRSAEncryption
         a9:ba:68:a8:b7:b1:9e:06:18:d8:44:d1:16:3a:ab:e4:10:b0:
         55:b2:31:ab:e3:3a:c9:2e:ce:0c:bf:2f:9a:a6:31:b7:4f:0a:
         01:56:75:69:6c:a4:af:fc:f2:ba:cd:29:46:91:c6:97:aa:14:
         8a:89:1b:28:d9:1a:99:4b:f4:02:ed:a6:a5:d7:54:89:59:c5:
         5d:1d:41:6c:a8:ed:71:60:ff:42:31:d9:fa:04:28:96:33:c0:
         57:61:1a:9b:9d:70:37:a6:97:8c:fe:ad:ec:85:63:fb:ac:0f:
         ce:19:3b:21:96:ae:fa:05:d7:29:29:d3:0b:be:5c:5f:e5:e5:
         36:12:1d:4a:6f:22:5f:3d:bb:eb:41:b8:20:a9:48:35:d1:f8:
         e7:33:27:b6:fd:fe:a2:61:ca:8e:aa:37:f1:07:3b:76:bb:31:
         c4:9f:88:17:2e:2b:4c:07:a1:7b:a7:00:83:a9:67:93:0e:5b:
         76:1c:6a:19:bc:ea:33:e9:d4:0e:48:79:c8:c5:66:26:f7:f2:
         9e:58:38:46:37:06:d5:11:a3:52:d4:e8:cf:da:5c:2c:dd:78:
         18:e9:5c:25:34:01:4c:ae:c0:13:4c:7e:dc:6b:c8:0e:d0:da:
         db:80:e6:92:ca:ca:db:46:40:6c:f5:5e:5e:25:1b:3b:88:30:
         9f:a3:2d:47
-----BEGIN CERTIFICATE-----
MIIC/jCCAeagAwIBAgIBGTANBgkqhkiG9w0BAQsFADBxMQswCQYDVQQGEwJVUzET
MBEGA1UECAwKQ2FsaWZvcm5pYTEUMBIGA1UEBwwLU2FudGEgQ2xhcmExDTALBgNV
BAoMBHBrZzUxEDAOBgNVBAMMB2NoMV90YTMxFjAUBgkqhkiG9w0BCQEWB2NoMV90
YTMwHhcNMjEwOTIyMDUzMzI1WhcNMjQwNjE4MDUzMzI1WjB5MQswCQYDVQQGEwJV
UzETMBEGA1UECAwKQ2FsaWZvcm5pYTEUMBIGA1UEBwwLU2FudGEgQ2xhcmExDTAL
BgNVBAoMBHBrZzUxFDASBgNVBAMMC2NzOV9jaDFfdGEzMRowGAYJKoZIhvcNAQkB
FgtjczlfY2gxX3RhMzCBnzANBgkqhkiG9w0BAQEFAAOBjQAwgYkCgYEAxf4wTcEQ
yGrQZ3IfuavFlAJrmP9Aiy+HYzpdyexNIMkgr951WHlCiSERqr7gruAcMMx/j/CN
/hzJFNqDDasFnyHkMF+m4h3TkMHXty6Vl3IQB5w3JdL9EVSiMIccYhFTzS1nK9sT
12pgNBMdSGnH3ToilBIsg17+nv1UU4xhNVcCAwEAAaMdMBswDAYDVR0TAQH/BAIw
ADALBgNVHQ8EBAMCAAEwDQYJKoZIhvcNAQELBQADggEBAKm6aKi3sZ4GGNhE0RY6
q+QQsFWyMavjOskuzgy/L5qmMbdPCgFWdWlspK/88rrNKUaRxpeqFIqJGyjZGplL
9ALtpqXXVIlZxV0dQWyo7XFg/0Ix2foEKJYzwFdhGpudcDeml4z+reyFY/usD84Z
OyGWrvoF1ykp0wu+XF/l5TYSHUpvIl89u+tBuCCpSDXR+OczJ7b9/qJhyo6qN/EH
O3a7McSfiBcuK0wHoXunAIOpZ5MOW3Ycahm86jPp1A5IecjFZib38p5YOEY3BtUR
o1LU6M/aXCzdeBjpXCU0AUyuwBNMftxryA7Q2tuA5pLKyttGQGz1Xl4lGzuIMJ+j
LUc=
-----END CERTIFICATE-----
