Certificate:
    Data:
        Version: 3 (0x2)
        Serial Number: 25 (0x19)
    Signature Algorithm: sha256WithRSAEncryption
        Issuer: C=US, ST=California, L=Santa Clara, O=pkg5, CN=ch1_ta3/emailAddress=ch1_ta3
        Validity
            Not Before: Jul 19 11:35:47 2023 GMT
            Not After : Apr 14 11:35:47 2026 GMT
        Subject: C=US, ST=California, L=Santa Clara, O=pkg5, CN=cs9_ch1_ta3/emailAddress=cs9_ch1_ta3
        Subject Public Key Info:
            Public Key Algorithm: rsaEncryption
                Public-Key: (2048 bit)
                Modulus:
                    00:eb:38:7c:da:c7:08:0d:4b:3a:cc:33:95:15:0e:
                    8a:5c:e1:7b:1a:54:de:5b:82:52:c0:ff:b7:db:f2:
                    ae:bf:6a:b4:a0:c7:48:44:73:b7:75:44:80:7a:2e:
                    b9:8f:19:06:3f:5f:77:d2:61:94:fe:4e:a9:3a:0d:
                    0e:f4:71:11:43:6f:38:7e:21:64:89:cb:c7:63:1a:
                    b7:2c:c0:95:21:b4:af:ec:15:01:c1:f6:f4:59:71:
                    7c:4d:20:bd:e3:34:2d:11:74:14:70:ef:2f:6a:c0:
                    4f:75:04:0f:dd:42:c4:25:eb:96:4e:a6:3e:e2:7c:
                    ee:97:5f:5a:8e:f2:1e:fa:8d:15:dd:07:f2:07:ab:
                    ce:88:6c:d8:47:12:7e:d0:7b:18:e0:c9:fc:e5:44:
                    18:c6:b6:a4:b4:61:16:4b:60:82:e5:37:e2:30:4e:
                    ab:a9:e3:73:a3:45:5d:3f:be:29:56:86:d4:4c:80:
                    1b:2d:d1:2d:a1:ba:ac:35:24:e0:dd:0b:fe:7a:f0:
                    9c:03:59:68:74:06:33:7c:34:22:a7:1b:67:e5:e7:
                    dc:0c:12:d9:97:fa:e0:59:f8:a7:6f:4b:6f:e2:ef:
                    9e:20:a3:4d:90:9f:03:0a:d2:e9:12:cc:5e:23:2e:
                    c3:cb:92:2b:a7:6c:40:35:9a:69:17:79:1f:c4:d3:
                    2f:37
                Exponent: 65537 (0x10001)
        X509v3 extensions:
            X509v3 Basic Constraints: critical
                CA:FALSE
            X509v3 Key Usage: 
                Encipher Only
    Signature Algorithm: sha256WithRSAEncryption
         75:d9:a9:6d:fb:d2:99:e1:2f:b5:76:71:09:15:56:bc:d1:c5:
         c3:45:86:03:d6:ae:fc:31:04:de:b3:a4:01:ef:b7:56:fa:a9:
         b0:66:a4:d3:96:33:ce:26:a6:64:cf:b0:c5:61:85:76:b5:c5:
         e8:1b:7b:1d:9a:39:d6:3f:a5:f0:31:f2:48:de:c6:7b:8a:94:
         53:64:82:c4:5c:e0:59:d8:b2:da:0f:a5:31:35:82:3d:5c:93:
         8e:f3:01:ce:ec:0a:95:cf:4f:d6:74:cc:f6:c1:98:7d:9c:34:
         c6:57:6e:e1:71:c2:75:34:fd:fb:d9:1a:d1:10:4c:5b:3c:ad:
         77:45:96:e2:ae:49:29:5f:2b:5b:cb:24:e2:60:e9:f4:56:a8:
         e0:62:5d:a8:5f:21:8d:df:9b:3e:af:12:3b:8b:73:e1:c3:a7:
         2d:a6:43:4e:a7:13:d7:59:e6:15:e9:23:61:a2:d8:89:ae:51:
         8c:96:20:9a:c1:53:17:85:c3:b8:87:7a:d5:8a:c3:1f:21:85:
         c9:1c:32:0d:88:96:c9:17:5e:0d:49:5e:b0:f1:e8:64:05:6a:
         b8:d2:c1:65:b1:0b:75:e1:ad:73:92:a1:96:be:5c:30:65:eb:
         38:b1:8b:3f:83:8a:05:91:30:cd:4d:e2:8f:11:4b:bc:8f:f9:
         88:d9:95:2e
-----BEGIN CERTIFICATE-----
MIIDgjCCAmqgAwIBAgIBGTANBgkqhkiG9w0BAQsFADBxMQswCQYDVQQGEwJVUzET
MBEGA1UECAwKQ2FsaWZvcm5pYTEUMBIGA1UEBwwLU2FudGEgQ2xhcmExDTALBgNV
BAoMBHBrZzUxEDAOBgNVBAMMB2NoMV90YTMxFjAUBgkqhkiG9w0BCQEWB2NoMV90
YTMwHhcNMjMwNzE5MTEzNTQ3WhcNMjYwNDE0MTEzNTQ3WjB5MQswCQYDVQQGEwJV
UzETMBEGA1UECAwKQ2FsaWZvcm5pYTEUMBIGA1UEBwwLU2FudGEgQ2xhcmExDTAL
BgNVBAoMBHBrZzUxFDASBgNVBAMMC2NzOV9jaDFfdGEzMRowGAYJKoZIhvcNAQkB
FgtjczlfY2gxX3RhMzCCASIwDQYJKoZIhvcNAQEBBQADggEPADCCAQoCggEBAOs4
fNrHCA1LOswzlRUOilzhexpU3luCUsD/t9vyrr9qtKDHSERzt3VEgHouuY8ZBj9f
d9JhlP5OqToNDvRxEUNvOH4hZInLx2MatyzAlSG0r+wVAcH29FlxfE0gveM0LRF0
FHDvL2rAT3UED91CxCXrlk6mPuJ87pdfWo7yHvqNFd0H8gerzohs2EcSftB7GODJ
/OVEGMa2pLRhFktgguU34jBOq6njc6NFXT++KVaG1EyAGy3RLaG6rDUk4N0L/nrw
nANZaHQGM3w0IqcbZ+Xn3AwS2Zf64Fn4p29Lb+LvniCjTZCfAwrS6RLMXiMuw8uS
K6dsQDWaaRd5H8TTLzcCAwEAAaMdMBswDAYDVR0TAQH/BAIwADALBgNVHQ8EBAMC
AAEwDQYJKoZIhvcNAQELBQADggEBAHXZqW370pnhL7V2cQkVVrzRxcNFhgPWrvwx
BN6zpAHvt1b6qbBmpNOWM84mpmTPsMVhhXa1xegbex2aOdY/pfAx8kjexnuKlFNk
gsRc4FnYstoPpTE1gj1ck47zAc7sCpXPT9Z0zPbBmH2cNMZXbuFxwnU0/fvZGtEQ
TFs8rXdFluKuSSlfK1vLJOJg6fRWqOBiXahfIY3fmz6vEjuLc+HDpy2mQ06nE9dZ
5hXpI2Gi2ImuUYyWIJrBUxeFw7iHetWKwx8hhckcMg2IlskXXg1JXrDx6GQFarjS
wWWxC3XhrXOSoZa+XDBl6zixiz+DigWRMM1N4o8RS7yP+YjZlS4=
-----END CERTIFICATE-----
