Certificate:
    Data:
        Version: 3 (0x2)
        Serial Number: 26 (0x1a)
    Signature Algorithm: sha256WithRSAEncryption
        Issuer: C=US, ST=California, L=Santa Clara, O=pkg5, CN=ch1_ta3/emailAddress=ch1_ta3
        Validity
            Not Before: Jan 22 01:57:57 2016 GMT
            Not After : Oct 18 01:57:57 2018 GMT
        Subject: C=US, ST=California, L=Santa Clara, O=pkg5, CN=cs9_ch1_ta3/emailAddress=cs9_ch1_ta3
        Subject Public Key Info:
            Public Key Algorithm: rsaEncryption
                Public-Key: (1024 bit)
                Modulus:
                    00:f1:9e:0f:c5:b0:f7:40:a2:38:b4:f5:2b:0b:8b:
                    bf:f4:bc:7f:3f:c1:ce:b8:5c:5f:f2:c5:94:89:87:
                    4f:f8:d7:c7:48:df:78:0c:a8:62:b3:99:06:63:aa:
                    a6:35:1b:93:d2:b8:b8:8c:a3:ce:ac:99:2f:5c:1a:
                    2d:5e:fe:e6:97:99:16:0d:78:d9:01:89:5d:8d:df:
                    25:48:0b:0e:5b:21:a0:ec:e6:66:f4:e5:8c:c4:66:
                    7f:3f:76:45:1e:ce:8c:c3:fb:17:6b:fc:34:8e:18:
                    90:0d:a5:1d:25:86:82:2d:37:72:23:7e:c9:a8:4b:
                    2f:0f:d5:68:b1:76:0c:2d:67
                Exponent: 65537 (0x10001)
        X509v3 extensions:
            X509v3 Basic Constraints: critical
                CA:FALSE
            X509v3 Key Usage: 
                Encipher Only
    Signature Algorithm: sha256WithRSAEncryption
         4b:28:e0:24:01:c9:89:2d:10:77:2b:5b:07:c8:aa:0f:17:75:
         e8:84:f1:4d:7b:bb:c6:a9:88:73:5c:67:7e:ce:38:ba:51:99:
         5a:19:76:fc:0d:4a:a2:c5:23:61:d6:07:c9:f5:c8:a2:e3:96:
         a4:5a:6a:31:a6:12:4c:63:3b:9e:f8:37:a2:96:73:b0:06:7d:
         c5:96:94:7c:5c:91:13:ff:7f:24:8d:89:a6:c2:99:70:2b:65:
         8c:5a:62:35:9f:13:41:eb:95:70:22:62:1d:ed:09:55:67:fd:
         24:c9:59:53:9d:25:ed:5d:4b:ef:79:a0:87:be:37:aa:4f:ec:
         4c:ea:97:72:b8:d2:39:f7:3d:50:75:47:92:a4:f3:cb:06:28:
         9c:75:1e:ea:8c:56:85:20:b2:74:96:f5:de:b5:3f:92:7c:47:
         5c:46:cc:70:a6:12:02:fb:1c:bb:50:b7:ae:b7:27:03:3f:42:
         4d:bd:9a:db:43:b7:ad:e5:9c:65:af:91:ed:8d:d0:66:c1:21:
         67:be:6e:e3:f0:ba:1d:65:61:4e:0c:a7:6b:08:c7:3a:af:35:
         51:9b:8c:63:02:b7:71:a8:8b:89:e4:22:b8:4c:31:92:6e:16:
         0c:c8:b6:7e:e7:c3:10:d1:a1:13:00:f4:67:08:3f:69:e5:80:
         52:70:95:0c
-----BEGIN CERTIFICATE-----
MIIC/jCCAeagAwIBAgIBGjANBgkqhkiG9w0BAQsFADBxMQswCQYDVQQGEwJVUzET
MBEGA1UECAwKQ2FsaWZvcm5pYTEUMBIGA1UEBwwLU2FudGEgQ2xhcmExDTALBgNV
BAoMBHBrZzUxEDAOBgNVBAMMB2NoMV90YTMxFjAUBgkqhkiG9w0BCQEWB2NoMV90
YTMwHhcNMTYwMTIyMDE1NzU3WhcNMTgxMDE4MDE1NzU3WjB5MQswCQYDVQQGEwJV
UzETMBEGA1UECAwKQ2FsaWZvcm5pYTEUMBIGA1UEBwwLU2FudGEgQ2xhcmExDTAL
BgNVBAoMBHBrZzUxFDASBgNVBAMMC2NzOV9jaDFfdGEzMRowGAYJKoZIhvcNAQkB
FgtjczlfY2gxX3RhMzCBnzANBgkqhkiG9w0BAQEFAAOBjQAwgYkCgYEA8Z4PxbD3
QKI4tPUrC4u/9Lx/P8HOuFxf8sWUiYdP+NfHSN94DKhis5kGY6qmNRuT0ri4jKPO
rJkvXBotXv7ml5kWDXjZAYldjd8lSAsOWyGg7OZm9OWMxGZ/P3ZFHs6Mw/sXa/w0
jhiQDaUdJYaCLTdyI37JqEsvD9VosXYMLWcCAwEAAaMdMBswDAYDVR0TAQH/BAIw
ADALBgNVHQ8EBAMCAAEwDQYJKoZIhvcNAQELBQADggEBAEso4CQByYktEHcrWwfI
qg8XdeiE8U17u8apiHNcZ37OOLpRmVoZdvwNSqLFI2HWB8n1yKLjlqRaajGmEkxj
O574N6KWc7AGfcWWlHxckRP/fySNiabCmXArZYxaYjWfE0HrlXAiYh3tCVVn/STJ
WVOdJe1dS+95oIe+N6pP7Ezql3K40jn3PVB1R5Kk88sGKJx1HuqMVoUgsnSW9d61
P5J8R1xGzHCmEgL7HLtQt663JwM/Qk29mttDt63lnGWvke2N0GbBIWe+buPwuh1l
YU4Mp2sIxzqvNVGbjGMCt3Goi4nkIrhMMZJuFgzItn7nwxDRoRMA9GcIP2nlgFJw
lQw=
-----END CERTIFICATE-----
