Certificate:
    Data:
        Version: 3 (0x2)
        Serial Number: 27 (0x1b)
        Signature Algorithm: sha256WithRSAEncryption
        Issuer: C=US, ST=California, L=Menlo Park, O=pkg5, CN=ch1.1_ta3/emailAddress=ch1.1_ta3
        Validity
            Not Before: Apr 11 22:37:47 2011 GMT
            Not After : Jan  5 22:37:47 2014 GMT
        Subject: C=US, ST=California, L=Menlo Park, O=pkg5, CN=cs1_ch1.1_ta3/emailAddress=cs1_ch1.1_ta3
        Subject Public Key Info:
            Public Key Algorithm: rsaEncryption
            RSA Public Key: (1024 bit)
                Modulus (1024 bit):
                    00:eb:05:16:da:3a:66:0f:5c:d8:26:83:38:fa:4f:
                    60:0f:8c:42:06:b6:45:be:2e:ca:6c:fd:d8:a7:5f:
                    14:70:e9:04:ee:f2:c7:40:b2:28:f4:d9:99:65:b0:
                    2e:a2:e6:2c:df:42:72:12:92:ca:c1:6e:4d:2f:76:
                    41:aa:22:bc:8d:f4:e8:40:78:61:b5:92:a7:43:ef:
                    1c:55:19:31:a8:45:23:0f:b6:d5:32:44:35:dd:78:
                    d4:f1:80:39:68:d1:ac:c1:4d:18:e2:e5:4d:eb:a9:
                    cb:95:51:6c:c7:3a:50:ba:d3:4a:dc:7d:21:ad:ee:
                    5a:36:5b:ce:34:1c:58:a7:d3
                Exponent: 65537 (0x10001)
        X509v3 extensions:
            X509v3 Basic Constraints: critical
                CA:FALSE
            X509v3 Key Usage: critical
                Digital Signature
    Signature Algorithm: sha256WithRSAEncryption
        1d:bc:1d:73:ed:03:34:4b:73:87:24:58:03:61:5a:67:fc:64:
        f5:5e:a0:db:84:be:f0:9d:91:37:36:fc:db:86:90:99:3a:c3:
        07:23:07:90:e5:5a:68:97:8f:b1:e8:d1:57:e5:a8:7e:b0:19:
        2b:b6:25:b0:42:56:da:0c:3c:a9:82:4d:af:8f:f0:b7:c0:c3:
        d7:d2:4d:9f:c9:40:5c:72:c4:95:86:de:28:5d:64:fe:7d:fd:
        3d:51:33:90:7b:c0:9f:2b:5c:2f:36:29:a8:72:4f:4f:ad:44:
        0a:d5:b4:fe:1f:d4:01:82:07:ed:36:81:8b:b3:1d:1d:42:ab:
        53:bc
-----BEGIN CERTIFICATE-----
MIIChjCCAe+gAwIBAgIBGzANBgkqhkiG9w0BAQsFADB0MQswCQYDVQQGEwJVUzET
MBEGA1UECBMKQ2FsaWZvcm5pYTETMBEGA1UEBxMKTWVubG8gUGFyazENMAsGA1UE
ChMEcGtnNTESMBAGA1UEAxQJY2gxLjFfdGEzMRgwFgYJKoZIhvcNAQkBFgljaDEu
MV90YTMwHhcNMTEwNDExMjIzNzQ3WhcNMTQwMTA1MjIzNzQ3WjB8MQswCQYDVQQG
EwJVUzETMBEGA1UECBMKQ2FsaWZvcm5pYTETMBEGA1UEBxMKTWVubG8gUGFyazEN
MAsGA1UEChMEcGtnNTEWMBQGA1UEAxQNY3MxX2NoMS4xX3RhMzEcMBoGCSqGSIb3
DQEJARYNY3MxX2NoMS4xX3RhMzCBnzANBgkqhkiG9w0BAQEFAAOBjQAwgYkCgYEA
6wUW2jpmD1zYJoM4+k9gD4xCBrZFvi7KbP3Yp18UcOkE7vLHQLIo9NmZZbAuouYs
30JyEpLKwW5NL3ZBqiK8jfToQHhhtZKnQ+8cVRkxqEUjD7bVMkQ13XjU8YA5aNGs
wU0Y4uVN66nLlVFsxzpQutNK3H0hre5aNlvONBxYp9MCAwEAAaMgMB4wDAYDVR0T
AQH/BAIwADAOBgNVHQ8BAf8EBAMCB4AwDQYJKoZIhvcNAQELBQADgYEAHbwdc+0D
NEtzhyRYA2FaZ/xk9V6g24S+8J2RNzb824aQmTrDByMHkOVaaJePsejRV+WofrAZ
K7YlsEJW2gw8qYJNr4/wt8DD19JNn8lAXHLElYbeKF1k/n39PVEzkHvAnytcLzYp
qHJPT61ECtW0/h/UAYIH7TaBi7MdHUKrU7w=
-----END CERTIFICATE-----
