Certificate:
    Data:
        Version: 3 (0x2)
        Serial Number: 27 (0x1b)
    Signature Algorithm: sha256WithRSAEncryption
        Issuer: C=US, ST=California, L=Santa Clara, O=pkg5, CN=ch1.1_ta3/emailAddress=ch1.1_ta3
        Validity
            Not Before: Jan 22 15:33:11 2019 GMT
            Not After : Oct 18 15:33:11 2021 GMT
        Subject: C=US, ST=California, L=Santa Clara, O=pkg5, CN=cs1_ch1.1_ta3/emailAddress=cs1_ch1.1_ta3
        Subject Public Key Info:
            Public Key Algorithm: rsaEncryption
                Public-Key: (1024 bit)
                Modulus:
                    00:ac:1d:c2:16:7b:09:d5:63:49:f5:12:8f:f4:73:
                    7c:e7:ee:1d:87:41:6a:cb:ae:dd:59:f5:35:22:84:
                    d6:3d:a1:fc:bc:b4:c1:f0:25:a6:65:64:ce:cb:3a:
                    5c:30:c9:3b:4d:a6:af:a7:ba:48:a8:c0:6a:e0:e2:
                    00:4d:58:5e:26:83:7d:d4:af:e2:24:48:53:71:a1:
                    3c:01:b9:6a:04:1c:a6:c7:2a:f2:52:d4:7d:cd:29:
                    91:09:c7:5a:aa:31:82:4f:cc:49:17:f3:72:8a:17:
                    8d:d0:c5:2f:ff:d1:84:ef:27:dd:f5:42:bd:ce:e3:
                    f0:3a:3c:20:75:30:3a:98:cd
                Exponent: 65537 (0x10001)
        X509v3 extensions:
            X509v3 Basic Constraints: critical
                CA:FALSE
            X509v3 Key Usage: critical
                Digital Signature
    Signature Algorithm: sha256WithRSAEncryption
         8f:1b:bf:36:08:b9:1a:da:79:2f:30:5c:e3:8a:cd:83:ff:88:
         b7:ba:68:cf:83:6e:c9:e3:1e:da:b9:c9:65:fe:df:4a:49:de:
         67:38:e4:3b:4e:70:ea:08:02:1a:15:b1:9d:21:fc:a0:e5:e2:
         4b:a1:d2:08:3f:a5:06:d1:a3:7f:fe:7e:ce:a3:93:81:59:70:
         ee:14:be:da:dd:5e:a7:8f:3b:8f:65:96:14:e9:99:cf:c3:a8:
         06:20:aa:66:70:48:60:9a:a5:be:82:82:de:4f:08:64:de:11:
         53:f2:77:68:52:aa:48:b0:ec:20:00:2e:ff:88:26:e1:0c:82:
         d2:49:f2:16:5b:cd:dd:20:e0:cb:b0:76:29:28:19:52:84:89:
         92:6f:1c:f7:2c:b2:69:3b:b6:02:03:85:cb:9f:27:b8:38:46:
         8a:59:4f:73:da:6d:29:50:f8:e3:a0:da:29:c6:79:5c:e3:7a:
         aa:75:3f:8b:aa:90:87:97:af:e7:88:99:7e:f8:99:75:0e:21:
         1f:66:02:0a:81:f9:90:13:fc:79:4a:0f:b5:ba:5a:3e:e2:9d:
         35:2b:3a:4b:9f:a5:5b:00:bb:39:f8:e2:d0:02:a5:c7:55:68:
         1f:a3:50:59:a1:48:b9:cc:c3:83:6e:3d:b4:9b:93:f1:66:f8:
         95:10:ef:9c
-----BEGIN CERTIFICATE-----
MIIDCTCCAfGgAwIBAgIBGzANBgkqhkiG9w0BAQsFADB1MQswCQYDVQQGEwJVUzET
MBEGA1UECAwKQ2FsaWZvcm5pYTEUMBIGA1UEBwwLU2FudGEgQ2xhcmExDTALBgNV
BAoMBHBrZzUxEjAQBgNVBAMMCWNoMS4xX3RhMzEYMBYGCSqGSIb3DQEJARYJY2gx
LjFfdGEzMB4XDTE5MDEyMjE1MzMxMVoXDTIxMTAxODE1MzMxMVowfTELMAkGA1UE
BhMCVVMxEzARBgNVBAgMCkNhbGlmb3JuaWExFDASBgNVBAcMC1NhbnRhIENsYXJh
MQ0wCwYDVQQKDARwa2c1MRYwFAYDVQQDDA1jczFfY2gxLjFfdGEzMRwwGgYJKoZI
hvcNAQkBFg1jczFfY2gxLjFfdGEzMIGfMA0GCSqGSIb3DQEBAQUAA4GNADCBiQKB
gQCsHcIWewnVY0n1Eo/0c3zn7h2HQWrLrt1Z9TUihNY9ofy8tMHwJaZlZM7LOlww
yTtNpq+nukiowGrg4gBNWF4mg33Ur+IkSFNxoTwBuWoEHKbHKvJS1H3NKZEJx1qq
MYJPzEkX83KKF43QxS//0YTvJ931Qr3O4/A6PCB1MDqYzQIDAQABoyAwHjAMBgNV
HRMBAf8EAjAAMA4GA1UdDwEB/wQEAwIHgDANBgkqhkiG9w0BAQsFAAOCAQEAjxu/
Ngi5Gtp5LzBc44rNg/+It7poz4NuyeMe2rnJZf7fSkneZzjkO05w6ggCGhWxnSH8
oOXiS6HSCD+lBtGjf/5+zqOTgVlw7hS+2t1ep487j2WWFOmZz8OoBiCqZnBIYJql
voKC3k8IZN4RU/J3aFKqSLDsIAAu/4gm4QyC0knyFlvN3SDgy7B2KSgZUoSJkm8c
9yyyaTu2AgOFy58nuDhGillPc9ptKVD446DaKcZ5XON6qnU/i6qQh5ev54iZfviZ
dQ4hH2YCCoH5kBP8eUoPtbpaPuKdNSs6S5+lWwC7Ofji0AKlx1VoH6NQWaFIuczD
g249tJuT8Wb4lRDvnA==
-----END CERTIFICATE-----
