Certificate:
    Data:
        Version: 3 (0x2)
        Serial Number: 27 (0x1b)
    Signature Algorithm: sha256WithRSAEncryption
        Issuer: C=US, ST=California, L=Santa Clara, O=pkg5, CN=ch1.1_ta3/emailAddress=ch1.1_ta3
        Validity
            Not Before: Dec 13 00:13:36 2013 GMT
            Not After : Sep  8 00:13:36 2016 GMT
        Subject: C=US, ST=California, L=Santa Clara, O=pkg5, CN=cs1_ch1.1_ta3/emailAddress=cs1_ch1.1_ta3
        Subject Public Key Info:
            Public Key Algorithm: rsaEncryption
                Public-Key: (1024 bit)
                Modulus:
                    00:cb:04:cf:d4:10:a0:b8:0a:41:51:cc:92:ed:1d:
                    e6:42:d0:be:20:9c:08:f4:eb:67:d9:88:86:90:3c:
                    f5:44:60:42:95:d3:0c:27:9a:90:f5:af:c6:4d:22:
                    36:ba:9f:e2:74:17:f7:dd:2a:04:50:db:f3:2b:df:
                    68:16:d9:ae:83:3b:2a:fa:7e:05:00:4e:64:a5:1e:
                    c1:8e:99:11:b5:99:64:ae:36:0c:6d:41:42:72:a6:
                    b0:2f:8d:e7:f1:b6:a8:1a:88:e5:ce:bc:dc:3c:9a:
                    d1:39:ad:09:ab:c7:a0:bd:3c:36:92:b2:31:12:f9:
                    76:1a:68:24:e6:70:e3:2e:25
                Exponent: 65537 (0x10001)
        X509v3 extensions:
            X509v3 Basic Constraints: critical
                CA:FALSE
            X509v3 Key Usage: critical
                Digital Signature
    Signature Algorithm: sha256WithRSAEncryption
         86:83:0a:12:5d:ac:ff:51:37:a3:5f:b2:62:5b:87:29:77:27:
         49:73:d0:01:ed:f1:a9:53:02:ad:8e:f5:51:d7:7c:56:76:68:
         75:f5:9d:b1:6c:0a:99:4e:59:85:16:58:fd:d2:3d:83:41:9d:
         5f:6e:3a:90:8f:1a:dd:8d:96:8e:91:3c:d2:bb:ed:94:c3:0f:
         86:dd:07:35:cf:b9:7b:ac:3d:1d:4a:15:c7:c4:21:14:91:46:
         0e:42:9f:41:4b:44:e7:3b:5d:68:f0:65:2c:ef:3a:76:cd:c5:
         cc:db:be:21:d0:bc:a1:8e:8d:ce:a5:e8:b5:e7:a0:ae:cf:74:
         72:24
-----BEGIN CERTIFICATE-----
MIICiDCCAfGgAwIBAgIBGzANBgkqhkiG9w0BAQsFADB1MQswCQYDVQQGEwJVUzET
MBEGA1UECAwKQ2FsaWZvcm5pYTEUMBIGA1UEBwwLU2FudGEgQ2xhcmExDTALBgNV
BAoMBHBrZzUxEjAQBgNVBAMMCWNoMS4xX3RhMzEYMBYGCSqGSIb3DQEJARYJY2gx
LjFfdGEzMB4XDTEzMTIxMzAwMTMzNloXDTE2MDkwODAwMTMzNlowfTELMAkGA1UE
BhMCVVMxEzARBgNVBAgMCkNhbGlmb3JuaWExFDASBgNVBAcMC1NhbnRhIENsYXJh
MQ0wCwYDVQQKDARwa2c1MRYwFAYDVQQDDA1jczFfY2gxLjFfdGEzMRwwGgYJKoZI
hvcNAQkBFg1jczFfY2gxLjFfdGEzMIGfMA0GCSqGSIb3DQEBAQUAA4GNADCBiQKB
gQDLBM/UEKC4CkFRzJLtHeZC0L4gnAj062fZiIaQPPVEYEKV0wwnmpD1r8ZNIja6
n+J0F/fdKgRQ2/Mr32gW2a6DOyr6fgUATmSlHsGOmRG1mWSuNgxtQUJyprAvjefx
tqgaiOXOvNw8mtE5rQmrx6C9PDaSsjES+XYaaCTmcOMuJQIDAQABoyAwHjAMBgNV
HRMBAf8EAjAAMA4GA1UdDwEB/wQEAwIHgDANBgkqhkiG9w0BAQsFAAOBgQCGgwoS
Xaz/UTejX7JiW4cpdydJc9AB7fGpUwKtjvVR13xWdmh19Z2xbAqZTlmFFlj90j2D
QZ1fbjqQjxrdjZaOkTzSu+2Uww+G3Qc1z7l7rD0dShXHxCEUkUYOQp9BS0TnO11o
8GUs7zp2zcXM274h0Lyhjo3Opei156Cuz3RyJA==
-----END CERTIFICATE-----
