Certificate:
    Data:
        Version: 3 (0x2)
        Serial Number: 27 (0x1b)
        Signature Algorithm: sha256WithRSAEncryption
        Issuer: C=US, ST=California, L=Menlo Park, O=pkg5, CN=pubCA4_ta3/emailAddress=pubCA4_ta3
        Validity
            Not Before: Jan 28 02:54:21 2011 GMT
            Not After : Oct 24 02:54:21 2013 GMT
        Subject: C=US, ST=California, L=Menlo Park, O=pkg5, CN=cs1_p4_ta3/emailAddress=cs1_p4_ta3
        Subject Public Key Info:
            Public Key Algorithm: rsaEncryption
            RSA Public Key: (1024 bit)
                Modulus (1024 bit):
                    00:c8:26:36:d7:20:0b:17:ac:dc:e5:21:93:5f:12:
                    cc:69:bc:3a:38:c8:78:8a:8c:f9:a8:6a:f3:25:ca:
                    24:ec:71:78:ea:52:45:15:c8:8c:96:0b:95:02:ed:
                    46:80:43:76:fd:e0:45:c8:34:26:ac:cd:c0:63:e7:
                    d0:87:29:24:1a:d6:05:94:88:6d:0b:cd:1a:eb:c4:
                    bf:5f:6f:01:d5:ab:a6:cf:01:61:aa:e9:77:93:f5:
                    9f:a1:78:7e:e0:5e:99:e0:c8:c8:cb:6b:7e:55:ab:
                    1b:a2:87:a0:d6:27:2d:3e:e1:f9:56:4a:c4:ca:cc:
                    41:f1:6a:59:cd:23:c4:93:13
                Exponent: 65537 (0x10001)
        X509v3 extensions:
            X509v3 Basic Constraints: critical
                CA:FALSE
            X509v3 Key Usage: critical
                Digital Signature
    Signature Algorithm: sha256WithRSAEncryption
        6d:63:cd:fa:b7:a9:1e:6b:2f:31:e5:a5:84:4b:97:f2:ed:33:
        21:a8:99:64:fe:72:97:a6:5e:a2:83:8c:20:fe:56:bc:6b:a5:
        63:39:dd:6d:d7:c6:8c:0e:2c:9a:fb:ad:06:b8:be:6e:bd:f1:
        54:02:ad:92:c8:52:23:ea:47:53:c3:9a:87:ff:62:56:d9:9e:
        3b:6b:90:c9:e2:8c:e2:bc:f0:5c:25:b6:cd:a0:e2:cd:23:45:
        e3:b3:21:ad:ee:69:8b:fd:5a:8d:9f:89:29:59:e4:03:ff:be:
        2f:e5:97:4c:bc:ee:8e:e4:a3:bb:48:6c:25:ed:2f:b3:92:f3:
        39:80
-----BEGIN CERTIFICATE-----
MIICgjCCAeugAwIBAgIBGzANBgkqhkiG9w0BAQsFADB2MQswCQYDVQQGEwJVUzET
MBEGA1UECBMKQ2FsaWZvcm5pYTETMBEGA1UEBxMKTWVubG8gUGFyazENMAsGA1UE
ChMEcGtnNTETMBEGA1UEAxQKcHViQ0E0X3RhMzEZMBcGCSqGSIb3DQEJARYKcHVi
Q0E0X3RhMzAeFw0xMTAxMjgwMjU0MjFaFw0xMzEwMjQwMjU0MjFaMHYxCzAJBgNV
BAYTAlVTMRMwEQYDVQQIEwpDYWxpZm9ybmlhMRMwEQYDVQQHEwpNZW5sbyBQYXJr
MQ0wCwYDVQQKEwRwa2c1MRMwEQYDVQQDFApjczFfcDRfdGEzMRkwFwYJKoZIhvcN
AQkBFgpjczFfcDRfdGEzMIGfMA0GCSqGSIb3DQEBAQUAA4GNADCBiQKBgQDIJjbX
IAsXrNzlIZNfEsxpvDo4yHiKjPmoavMlyiTscXjqUkUVyIyWC5UC7UaAQ3b94EXI
NCaszcBj59CHKSQa1gWUiG0LzRrrxL9fbwHVq6bPAWGq6XeT9Z+heH7gXpngyMjL
a35Vqxuih6DWJy0+4flWSsTKzEHxalnNI8STEwIDAQABoyAwHjAMBgNVHRMBAf8E
AjAAMA4GA1UdDwEB/wQEAwIHgDANBgkqhkiG9w0BAQsFAAOBgQBtY836t6keay8x
5aWES5fy7TMhqJlk/nKXpl6ig4wg/la8a6VjOd1t18aMDiya+60GuL5uvfFUAq2S
yFIj6kdTw5qH/2JW2Z47a5DJ4ozivPBcJbbNoOLNI0XjsyGt7mmL/VqNn4kpWeQD
/74v5ZdMvO6O5KO7SGwl7S+zkvM5gA==
-----END CERTIFICATE-----
