Certificate:
    Data:
        Version: 3 (0x2)
        Serial Number: 28 (0x1c)
    Signature Algorithm: sha256WithRSAEncryption
        Issuer: C=US, ST=California, L=Santa Clara, O=pkg5, CN=ch1.1_ta3/emailAddress=ch1.1_ta3
        Validity
            Not Before: Jan 22 01:57:57 2016 GMT
            Not After : Oct 18 01:57:57 2018 GMT
        Subject: C=US, ST=California, L=Santa Clara, O=pkg5, CN=cs1_ch1.1_ta3/emailAddress=cs1_ch1.1_ta3
        Subject Public Key Info:
            Public Key Algorithm: rsaEncryption
                Public-Key: (1024 bit)
                Modulus:
                    00:e5:d1:85:84:69:40:a5:bf:e4:d4:1a:58:4b:1a:
                    e1:80:c9:89:8a:84:45:7c:8c:b1:4b:db:87:e8:32:
                    42:3a:fd:e8:68:18:57:00:e6:4e:7d:a1:31:b3:11:
                    a1:21:90:31:df:03:e6:a1:ba:fe:28:36:ba:98:e7:
                    df:19:cf:26:83:5f:f6:16:be:fd:4b:fd:56:1d:b6:
                    84:3f:17:df:9a:55:28:70:43:4e:47:4f:15:7b:f7:
                    8e:62:c7:7c:b8:8c:22:c6:b0:40:d2:ef:3c:fd:4c:
                    4e:6f:31:b6:02:c8:01:bb:59:62:a2:49:43:90:cf:
                    3a:b0:44:87:bb:bb:6f:16:b9
                Exponent: 65537 (0x10001)
        X509v3 extensions:
            X509v3 Basic Constraints: critical
                CA:FALSE
            X509v3 Key Usage: critical
                Digital Signature
    Signature Algorithm: sha256WithRSAEncryption
         88:bd:f1:29:0a:96:7d:d6:95:11:fe:8d:88:35:29:20:ca:f2:
         92:80:d2:1d:0e:19:5a:be:fa:67:d9:f5:ba:36:11:70:cd:09:
         3d:f5:99:51:77:05:eb:5b:79:4d:56:7e:4f:77:94:64:7e:14:
         cb:d9:3a:6e:c4:f3:6e:98:b5:77:06:c7:60:5f:9a:20:ae:12:
         28:4b:55:1d:1b:5f:ea:af:49:8c:9e:f6:f9:ac:bf:18:69:c2:
         e7:23:f4:da:03:86:f8:f0:32:9d:db:45:6d:15:83:9c:18:91:
         0a:ec:ef:02:d5:93:a8:ac:4a:4f:4d:6a:f6:62:54:3c:64:88:
         1d:95:ea:87:dc:89:5e:db:ff:d9:79:e4:90:0d:43:21:73:75:
         32:74:c1:b5:5d:5e:fc:cd:65:0c:bd:a7:99:59:3e:5a:7e:ae:
         1d:7e:ff:bb:0d:0d:38:7a:f1:1f:8e:40:53:93:56:56:b1:a9:
         4d:e9:0d:96:86:e9:a3:a8:84:4c:90:6b:ad:c9:75:f9:6c:85:
         62:27:06:75:7d:f8:03:59:c0:05:f8:37:83:e7:24:b9:a3:c9:
         b6:94:fb:dc:9c:a3:99:49:28:80:72:22:87:c7:0e:24:dc:17:
         72:17:5d:9a:ec:7f:f4:3f:fa:f3:10:e0:00:ac:7b:81:da:3f:
         9c:50:e2:73
-----BEGIN CERTIFICATE-----
MIIDCTCCAfGgAwIBAgIBHDANBgkqhkiG9w0BAQsFADB1MQswCQYDVQQGEwJVUzET
MBEGA1UECAwKQ2FsaWZvcm5pYTEUMBIGA1UEBwwLU2FudGEgQ2xhcmExDTALBgNV
BAoMBHBrZzUxEjAQBgNVBAMMCWNoMS4xX3RhMzEYMBYGCSqGSIb3DQEJARYJY2gx
LjFfdGEzMB4XDTE2MDEyMjAxNTc1N1oXDTE4MTAxODAxNTc1N1owfTELMAkGA1UE
BhMCVVMxEzARBgNVBAgMCkNhbGlmb3JuaWExFDASBgNVBAcMC1NhbnRhIENsYXJh
MQ0wCwYDVQQKDARwa2c1MRYwFAYDVQQDDA1jczFfY2gxLjFfdGEzMRwwGgYJKoZI
hvcNAQkBFg1jczFfY2gxLjFfdGEzMIGfMA0GCSqGSIb3DQEBAQUAA4GNADCBiQKB
gQDl0YWEaUClv+TUGlhLGuGAyYmKhEV8jLFL24foMkI6/ehoGFcA5k59oTGzEaEh
kDHfA+ahuv4oNrqY598ZzyaDX/YWvv1L/VYdtoQ/F9+aVShwQ05HTxV7945ix3y4
jCLGsEDS7zz9TE5vMbYCyAG7WWKiSUOQzzqwRIe7u28WuQIDAQABoyAwHjAMBgNV
HRMBAf8EAjAAMA4GA1UdDwEB/wQEAwIHgDANBgkqhkiG9w0BAQsFAAOCAQEAiL3x
KQqWfdaVEf6NiDUpIMrykoDSHQ4ZWr76Z9n1ujYRcM0JPfWZUXcF61t5TVZ+T3eU
ZH4Uy9k6bsTzbpi1dwbHYF+aIK4SKEtVHRtf6q9JjJ72+ay/GGnC5yP02gOG+PAy
ndtFbRWDnBiRCuzvAtWTqKxKT01q9mJUPGSIHZXqh9yJXtv/2XnkkA1DIXN1MnTB
tV1e/M1lDL2nmVk+Wn6uHX7/uw0NOHrxH45AU5NWVrGpTekNlobpo6iETJBrrcl1
+WyFYicGdX34A1nABfg3g+ckuaPJtpT73JyjmUkogHIih8cOJNwXchddmux/9D/6
8xDgAKx7gdo/nFDicw==
-----END CERTIFICATE-----
