Certificate:
    Data:
        Version: 3 (0x2)
        Serial Number: 28 (0x1c)
        Signature Algorithm: sha256WithRSAEncryption
        Issuer: C=US, ST=California, L=Menlo Park, O=pkg5, CN=pubCA1_ta5/emailAddress=pubCA1_ta5
        Validity
            Not Before: Aug  4 20:59:29 2010 GMT
            Not After : Apr 30 20:59:29 2013 GMT
        Subject: C=US, ST=California, L=Menlo Park, O=pkg5, CN=cs1_ta5/emailAddress=cs1_ta5
        Subject Public Key Info:
            Public Key Algorithm: rsaEncryption
            RSA Public Key: (1024 bit)
                Modulus (1024 bit):
                    00:a7:58:5a:64:49:1e:65:e8:63:d7:6c:d2:b4:65:
                    73:47:16:10:1b:a9:45:7e:22:fe:87:7b:30:58:2e:
                    81:7f:d0:69:be:49:06:c5:44:2b:8d:32:0c:91:8f:
                    48:d4:d9:e4:51:25:52:56:bc:40:92:a8:05:e7:65:
                    82:c4:79:49:ac:42:fc:d4:41:71:9c:cb:7a:f0:5f:
                    35:d7:08:11:03:3b:d3:4b:c1:cb:37:7a:cd:58:64:
                    ec:1b:83:25:3e:3a:f3:99:23:e0:13:c5:85:9a:1a:
                    d4:79:53:d2:32:4c:c9:50:3b:19:66:6f:22:fc:c8:
                    5a:6b:ef:97:d9:77:01:3a:a3
                Exponent: 65537 (0x10001)
        X509v3 extensions:
            X509v3 Basic Constraints: critical
                CA:FALSE
            X509v3 Key Usage: 
                Digital Signature
    Signature Algorithm: sha256WithRSAEncryption
        38:eb:26:f5:12:ed:5c:37:ad:86:d2:0f:b8:7e:a2:87:88:35:
        b2:c3:50:92:41:65:48:b3:fe:fd:a6:81:a5:bc:07:70:d6:54:
        3a:e5:dd:a9:c6:0a:fe:5d:5f:2b:97:0b:4c:5d:d0:59:9d:76:
        95:9a:7c:d8:fa:4a:59:6c:16:27:b6:91:b2:98:8d:fe:15:23:
        18:f0:79:0b:9c:f3:35:bb:a7:e1:31:b3:03:83:e9:3a:b1:f6:
        1f:c2:f9:15:85:c6:0f:3d:b4:78:a4:20:e4:46:96:43:85:7c:
        9e:ad:e0:8e:78:47:3d:f9:7b:2e:14:90:45:39:68:d4:34:fc:
        f3:c2
-----BEGIN CERTIFICATE-----
MIICeTCCAeKgAwIBAgIBHDANBgkqhkiG9w0BAQsFADB2MQswCQYDVQQGEwJVUzET
MBEGA1UECBMKQ2FsaWZvcm5pYTETMBEGA1UEBxMKTWVubG8gUGFyazENMAsGA1UE
ChMEcGtnNTETMBEGA1UEAxQKcHViQ0ExX3RhNTEZMBcGCSqGSIb3DQEJARYKcHVi
Q0ExX3RhNTAeFw0xMDA4MDQyMDU5MjlaFw0xMzA0MzAyMDU5MjlaMHAxCzAJBgNV
BAYTAlVTMRMwEQYDVQQIEwpDYWxpZm9ybmlhMRMwEQYDVQQHEwpNZW5sbyBQYXJr
MQ0wCwYDVQQKEwRwa2c1MRAwDgYDVQQDFAdjczFfdGE1MRYwFAYJKoZIhvcNAQkB
FgdjczFfdGE1MIGfMA0GCSqGSIb3DQEBAQUAA4GNADCBiQKBgQCnWFpkSR5l6GPX
bNK0ZXNHFhAbqUV+Iv6HezBYLoF/0Gm+SQbFRCuNMgyRj0jU2eRRJVJWvECSqAXn
ZYLEeUmsQvzUQXGcy3rwXzXXCBEDO9NLwcs3es1YZOwbgyU+OvOZI+ATxYWaGtR5
U9IyTMlQOxlmbyL8yFpr75fZdwE6owIDAQABox0wGzAMBgNVHRMBAf8EAjAAMAsG
A1UdDwQEAwIHgDANBgkqhkiG9w0BAQsFAAOBgQA46yb1Eu1cN62G0g+4fqKHiDWy
w1CSQWVIs/79poGlvAdw1lQ65d2pxgr+XV8rlwtMXdBZnXaVmnzY+kpZbBYntpGy
mI3+FSMY8HkLnPM1u6fhMbMDg+k6sfYfwvkVhcYPPbR4pCDkRpZDhXyereCOeEc9
+XsuFJBFOWjUNPzzwg==
-----END CERTIFICATE-----
