Certificate:
    Data:
        Version: 3 (0x2)
        Serial Number: 29 (0x1d)
    Signature Algorithm: sha256WithRSAEncryption
        Issuer: C=US, ST=California, L=Santa Clara, O=pkg5, CN=ch1.2_ta3/emailAddress=ch1.2_ta3
        Validity
            Not Before: Jul 19 11:35:48 2023 GMT
            Not After : Apr 14 11:35:48 2026 GMT
        Subject: C=US, ST=California, L=Santa Clara, O=pkg5, CN=cs1_ch1.2_ta3/emailAddress=cs1_ch1.2_ta3
        Subject Public Key Info:
            Public Key Algorithm: rsaEncryption
                Public-Key: (2048 bit)
                Modulus:
                    00:b9:f6:69:9d:a4:6b:d6:9e:d4:86:6c:74:f0:90:
                    83:5e:8f:d3:4f:e9:e4:58:42:19:34:b3:ac:54:dd:
                    51:d2:bb:b8:f4:10:03:36:b9:11:f1:ab:08:96:74:
                    a4:fb:70:8a:a7:3a:43:5a:01:31:03:33:5e:2a:ce:
                    c4:8d:66:b6:d2:8e:a8:9a:f6:15:45:3c:37:3b:0e:
                    e9:0e:4e:76:ac:23:35:41:ea:19:f5:92:6b:74:26:
                    2e:7c:7a:c5:03:28:95:f4:cd:34:0e:df:14:7a:86:
                    df:fa:64:8c:97:6d:58:02:46:22:1e:48:4f:8c:96:
                    39:88:2d:e0:29:00:c4:33:e1:02:6e:09:1f:f5:5f:
                    59:c8:1b:4e:8b:26:d7:33:c5:52:f8:75:12:3c:58:
                    9c:53:00:38:53:28:e7:1b:1c:be:1a:96:37:bb:36:
                    75:a2:20:c9:4d:5f:c1:c1:71:70:d8:8a:01:d8:9d:
                    4e:f5:68:42:45:7d:92:e1:f1:19:57:b7:ed:9f:76:
                    aa:fd:01:04:09:5c:04:0b:e5:b8:ef:56:dd:39:42:
                    0b:56:9f:ec:65:35:a4:25:9f:09:22:b8:db:a3:b2:
                    e7:4b:a5:93:64:07:b0:09:b0:2f:27:7f:0c:dc:6c:
                    62:97:0f:29:09:06:9b:9a:59:be:88:48:bd:03:74:
                    cb:65
                Exponent: 65537 (0x10001)
        X509v3 extensions:
            X509v3 Basic Constraints: critical
                CA:FALSE
            X509v3 Key Usage: critical
                Digital Signature
    Signature Algorithm: sha256WithRSAEncryption
         44:bb:cd:90:64:70:c8:35:0e:67:52:10:30:f6:6f:20:00:97:
         b6:d6:e1:2a:d0:06:28:ad:55:84:79:63:b7:4b:64:4e:e6:39:
         bc:2b:b0:eb:cc:8f:be:49:4f:b9:38:76:dc:8a:a1:43:9f:77:
         2b:ff:72:23:98:b2:1e:f7:f8:c6:ac:86:a1:6e:ec:27:7d:5c:
         65:e0:50:cf:cb:cf:71:84:fd:f3:b2:e2:39:d9:2e:72:9d:9c:
         b8:c2:21:cb:44:0b:7c:16:84:18:52:e9:af:f4:f6:33:98:bd:
         cc:3b:a7:bd:2e:a8:a3:aa:4a:81:ec:04:c5:39:a2:9e:4b:6e:
         77:66:9c:d6:f4:98:ff:48:15:b4:fc:56:ca:07:60:48:5e:8c:
         4f:3a:6b:02:06:2f:28:3f:47:01:74:77:8f:73:bf:1e:a0:4c:
         61:81:bf:9f:7f:ed:4c:77:0b:78:9c:35:8a:31:2a:f7:8f:a2:
         ec:e0:bc:b5:64:e0:a8:fd:61:4e:6c:37:67:05:6b:d8:24:d7:
         c5:c2:6a:03:0e:4a:f0:60:92:5a:a2:53:c3:b4:36:03:54:5e:
         87:62:cf:24:1a:a7:2b:5d:55:66:60:1f:43:9b:5a:b1:0f:24:
         9c:89:b3:2c:75:e3:f5:d8:16:f5:6f:94:54:8e:c5:1e:7a:b8:
         33:55:5e:25
-----BEGIN CERTIFICATE-----
MIIDjTCCAnWgAwIBAgIBHTANBgkqhkiG9w0BAQsFADB1MQswCQYDVQQGEwJVUzET
MBEGA1UECAwKQ2FsaWZvcm5pYTEUMBIGA1UEBwwLU2FudGEgQ2xhcmExDTALBgNV
BAoMBHBrZzUxEjAQBgNVBAMMCWNoMS4yX3RhMzEYMBYGCSqGSIb3DQEJARYJY2gx
LjJfdGEzMB4XDTIzMDcxOTExMzU0OFoXDTI2MDQxNDExMzU0OFowfTELMAkGA1UE
BhMCVVMxEzARBgNVBAgMCkNhbGlmb3JuaWExFDASBgNVBAcMC1NhbnRhIENsYXJh
MQ0wCwYDVQQKDARwa2c1MRYwFAYDVQQDDA1jczFfY2gxLjJfdGEzMRwwGgYJKoZI
hvcNAQkBFg1jczFfY2gxLjJfdGEzMIIBIjANBgkqhkiG9w0BAQEFAAOCAQ8AMIIB
CgKCAQEAufZpnaRr1p7Uhmx08JCDXo/TT+nkWEIZNLOsVN1R0ru49BADNrkR8asI
lnSk+3CKpzpDWgExAzNeKs7EjWa20o6omvYVRTw3Ow7pDk52rCM1QeoZ9ZJrdCYu
fHrFAyiV9M00Dt8Ueobf+mSMl21YAkYiHkhPjJY5iC3gKQDEM+ECbgkf9V9ZyBtO
iybXM8VS+HUSPFicUwA4UyjnGxy+GpY3uzZ1oiDJTV/BwXFw2IoB2J1O9WhCRX2S
4fEZV7ftn3aq/QEECVwEC+W471bdOUILVp/sZTWkJZ8JIrjbo7LnS6WTZAewCbAv
J38M3Gxilw8pCQabmlm+iEi9A3TLZQIDAQABoyAwHjAMBgNVHRMBAf8EAjAAMA4G
A1UdDwEB/wQEAwIHgDANBgkqhkiG9w0BAQsFAAOCAQEARLvNkGRwyDUOZ1IQMPZv
IACXttbhKtAGKK1VhHljt0tkTuY5vCuw68yPvklPuTh23IqhQ593K/9yI5iyHvf4
xqyGoW7sJ31cZeBQz8vPcYT987LiOdkucp2cuMIhy0QLfBaEGFLpr/T2M5i9zDun
vS6oo6pKgewExTminktud2ac1vSY/0gVtPxWygdgSF6MTzprAgYvKD9HAXR3j3O/
HqBMYYG/n3/tTHcLeJw1ijEq94+i7OC8tWTgqP1hTmw3ZwVr2CTXxcJqAw5K8GCS
WqJTw7Q2A1Reh2LPJBqnK11VZmAfQ5tasQ8knImzLHXj9dgW9W+UVI7FHnq4M1Ve
JQ==
-----END CERTIFICATE-----
