Certificate:
    Data:
        Version: 3 (0x2)
        Serial Number: 29 (0x1d)
        Signature Algorithm: sha256WithRSAEncryption
        Issuer: C=US, ST=California, L=Santa Clara, O=pkg5, CN=ch1.2_ta3/emailAddress=ch1.2_ta3
        Validity
            Not Before: Mar 18 08:51:40 2026 GMT
            Not After : Dec 12 08:51:40 2028 GMT
        Subject: C=US, ST=California, L=Santa Clara, O=pkg5, CN=cs1_ch1.2_ta3/emailAddress=cs1_ch1.2_ta3
        Subject Public Key Info:
            Public Key Algorithm: rsaEncryption
                Public-Key: (2048 bit)
                Modulus:
                    00:ab:ee:9f:72:4d:f5:e2:c9:79:49:ce:ba:71:55:
                    79:e9:bc:45:6f:4e:bd:83:22:68:02:84:c8:4b:30:
                    0a:50:d5:60:e3:2a:af:00:3d:05:40:3a:c6:71:c2:
                    d3:cc:9d:83:a6:94:21:5a:98:59:e6:55:51:cf:28:
                    90:c3:8b:14:68:f1:73:10:b3:1c:33:4a:64:a6:ba:
                    2d:dc:16:83:38:97:ff:87:d4:27:33:51:d6:26:79:
                    a6:8f:7f:d9:c8:39:02:b9:2f:32:e7:d5:9d:ba:73:
                    64:59:38:33:d9:92:92:82:84:0a:27:35:03:57:81:
                    fd:85:25:22:85:cb:52:8c:a6:54:aa:fe:5f:b2:76:
                    99:c6:af:cf:ab:18:c1:37:d4:24:f2:bc:7e:bf:2f:
                    7f:84:fb:56:a6:1e:5b:cb:98:08:21:6e:4d:cd:45:
                    40:24:0c:74:e3:c8:76:5f:fd:f0:1b:58:56:30:d0:
                    c2:db:ef:7a:26:70:89:b1:3b:f9:44:ed:a0:e6:e9:
                    ed:b2:29:0d:77:f0:1f:cd:07:76:b6:79:eb:b8:9b:
                    ca:d3:ac:35:c7:b2:53:55:a2:a1:43:0f:6e:ef:84:
                    75:a3:79:01:c2:0f:96:20:9a:cb:3d:7f:86:e2:42:
                    fe:a6:1a:60:59:8a:dc:14:09:56:81:85:a8:39:39:
                    eb:0b
                Exponent: 65537 (0x10001)
        X509v3 extensions:
            X509v3 Basic Constraints: critical
                CA:FALSE
            X509v3 Key Usage: critical
                Digital Signature
            X509v3 Subject Key Identifier: 
                32:A7:FB:71:17:84:2C:06:FF:AD:6C:0E:12:52:93:3C:F5:16:51:33
            X509v3 Authority Key Identifier: 
                85:A4:00:6F:28:FB:CD:04:5E:71:40:0F:22:9F:3E:81:C9:52:7A:60
    Signature Algorithm: sha256WithRSAEncryption
    Signature Value:
        74:ad:d3:a7:d3:d4:7b:cd:a7:73:fd:40:5a:a0:32:e0:6c:78:
        17:b2:a4:cb:d8:fb:e5:c7:b4:d8:34:0a:4c:aa:cb:1a:9c:42:
        45:4f:63:20:09:cd:e4:cc:6a:1d:eb:af:88:02:35:9d:ac:89:
        fe:ea:ac:b6:f0:92:5c:74:a9:0a:39:8e:ce:c4:be:23:ff:2f:
        0e:27:33:49:89:31:dc:ed:b8:6c:11:bb:4d:ac:a9:30:06:89:
        4e:ce:d4:b8:14:9d:3e:59:83:bd:28:f1:79:4f:c0:45:39:e5:
        8d:04:83:f8:36:d4:6e:98:50:c3:aa:00:b1:7a:6f:a8:e5:25:
        55:ca:dc:85:4c:e4:c1:00:70:06:46:d9:7d:d9:69:04:59:ae:
        2f:3c:f8:0a:b6:8d:90:61:5f:9a:f8:b7:6f:e1:c3:e8:e9:d9:
        21:8e:e3:e8:11:c3:3d:d5:f6:3a:ad:60:04:89:f0:7a:80:e9:
        3b:70:11:ab:c0:36:76:ca:cd:d1:7d:0a:40:f0:6f:ca:3e:da:
        6b:1e:53:63:08:65:c5:bb:05:e4:64:6b:b5:a0:09:d3:d7:8d:
        cc:b6:bb:39:df:74:d3:41:56:94:99:21:ab:f8:2c:83:8b:c8:
        c3:12:e8:83:65:44:a2:96:2b:f8:d1:2c:21:bc:8b:8c:ba:78:
        ee:69:fd:da
-----BEGIN CERTIFICATE-----
MIIDzTCCArWgAwIBAgIBHTANBgkqhkiG9w0BAQsFADB1MQswCQYDVQQGEwJVUzET
MBEGA1UECAwKQ2FsaWZvcm5pYTEUMBIGA1UEBwwLU2FudGEgQ2xhcmExDTALBgNV
BAoMBHBrZzUxEjAQBgNVBAMMCWNoMS4yX3RhMzEYMBYGCSqGSIb3DQEJARYJY2gx
LjJfdGEzMB4XDTI2MDMxODA4NTE0MFoXDTI4MTIxMjA4NTE0MFowfTELMAkGA1UE
BhMCVVMxEzARBgNVBAgMCkNhbGlmb3JuaWExFDASBgNVBAcMC1NhbnRhIENsYXJh
MQ0wCwYDVQQKDARwa2c1MRYwFAYDVQQDDA1jczFfY2gxLjJfdGEzMRwwGgYJKoZI
hvcNAQkBFg1jczFfY2gxLjJfdGEzMIIBIjANBgkqhkiG9w0BAQEFAAOCAQ8AMIIB
CgKCAQEAq+6fck314sl5Sc66cVV56bxFb069gyJoAoTISzAKUNVg4yqvAD0FQDrG
ccLTzJ2DppQhWphZ5lVRzyiQw4sUaPFzELMcM0pkprot3BaDOJf/h9QnM1HWJnmm
j3/ZyDkCuS8y59WdunNkWTgz2ZKSgoQKJzUDV4H9hSUihctSjKZUqv5fsnaZxq/P
qxjBN9Qk8rx+vy9/hPtWph5by5gIIW5NzUVAJAx048h2X/3wG1hWMNDC2+96JnCJ
sTv5RO2g5untsikNd/AfzQd2tnnruJvK06w1x7JTVaKhQw9u74R1o3kBwg+WIJrL
PX+G4kL+phpgWYrcFAlWgYWoOTnrCwIDAQABo2AwXjAMBgNVHRMBAf8EAjAAMA4G
A1UdDwEB/wQEAwIHgDAdBgNVHQ4EFgQUMqf7cReELAb/rWwOElKTPPUWUTMwHwYD
VR0jBBgwFoAUhaQAbyj7zQRecUAPIp8+gclSemAwDQYJKoZIhvcNAQELBQADggEB
AHSt06fT1HvNp3P9QFqgMuBseBeypMvY++XHtNg0CkyqyxqcQkVPYyAJzeTMah3r
r4gCNZ2sif7qrLbwklx0qQo5js7EviP/Lw4nM0mJMdztuGwRu02sqTAGiU7O1LgU
nT5Zg70o8XlPwEU55Y0Eg/g21G6YUMOqALF6b6jlJVXK3IVM5MEAcAZG2X3ZaQRZ
ri88+Aq2jZBhX5r4t2/hw+jp2SGO4+gRwz3V9jqtYASJ8HqA6TtwEavANnbKzdF9
CkDwb8o+2mseU2MIZcW7BeRka7WgCdPXjcy2uznfdNNBVpSZIav4LIOLyMMS6INl
RKKWK/jRLCG8i4y6eO5p/do=
-----END CERTIFICATE-----
