Certificate:
    Data:
        Version: 3 (0x2)
        Serial Number: 29 (0x1d)
    Signature Algorithm: sha256WithRSAEncryption
        Issuer: C=US, ST=California, L=Santa Clara, O=pkg5, CN=ch1.2_ta3/emailAddress=ch1.2_ta3
        Validity
            Not Before: Dec 13 00:13:36 2013 GMT
            Not After : Sep  8 00:13:36 2016 GMT
        Subject: C=US, ST=California, L=Santa Clara, O=pkg5, CN=cs1_ch1.2_ta3/emailAddress=cs1_ch1.2_ta3
        Subject Public Key Info:
            Public Key Algorithm: rsaEncryption
                Public-Key: (1024 bit)
                Modulus:
                    00:d0:f8:ae:0b:eb:1f:d2:8b:41:0a:36:62:76:eb:
                    5d:55:d4:b8:8a:eb:80:b8:05:58:ed:29:5d:9c:3f:
                    2b:84:e5:be:1e:f6:ab:dd:d4:32:04:ee:f4:9b:b2:
                    38:1c:59:0a:12:33:f8:b7:b6:e2:37:66:2e:58:e5:
                    3d:7e:b8:69:73:74:8c:ad:d1:ae:de:11:38:04:7e:
                    26:92:d4:2c:2e:68:15:09:4a:4f:d1:04:b6:ad:c7:
                    d8:d7:2a:6d:92:cc:ca:48:87:c6:68:a4:c5:37:af:
                    cc:20:6d:83:ba:f8:6b:f5:9b:8e:7d:df:d6:8b:7d:
                    f1:36:6f:a3:5b:0b:b1:e8:6b
                Exponent: 65537 (0x10001)
        X509v3 extensions:
            X509v3 Basic Constraints: critical
                CA:FALSE
            X509v3 Key Usage: critical
                Digital Signature
    Signature Algorithm: sha256WithRSAEncryption
         9f:2e:57:b4:bd:52:dd:f4:83:fb:24:d6:f1:99:36:97:b3:90:
         4f:0d:10:ff:09:00:a3:1a:1e:10:39:63:f6:a6:0a:ee:9f:52:
         55:b9:35:94:11:04:62:12:8a:c5:cf:c6:c5:2b:85:86:af:00:
         80:b1:8a:1d:d6:4d:c3:78:d6:67:60:54:27:2e:28:15:b7:22:
         23:47:4e:b0:89:8a:1a:03:24:db:5d:6a:a2:a7:af:cc:62:ca:
         cd:2e:fd:7d:e2:2c:fb:5b:89:fd:b6:38:8a:3d:37:61:a9:94:
         ad:31:d4:f3:d1:b6:91:d9:37:98:f1:ed:aa:11:da:0d:8f:93:
         1c:8e
-----BEGIN CERTIFICATE-----
MIICiDCCAfGgAwIBAgIBHTANBgkqhkiG9w0BAQsFADB1MQswCQYDVQQGEwJVUzET
MBEGA1UECAwKQ2FsaWZvcm5pYTEUMBIGA1UEBwwLU2FudGEgQ2xhcmExDTALBgNV
BAoMBHBrZzUxEjAQBgNVBAMMCWNoMS4yX3RhMzEYMBYGCSqGSIb3DQEJARYJY2gx
LjJfdGEzMB4XDTEzMTIxMzAwMTMzNloXDTE2MDkwODAwMTMzNlowfTELMAkGA1UE
BhMCVVMxEzARBgNVBAgMCkNhbGlmb3JuaWExFDASBgNVBAcMC1NhbnRhIENsYXJh
MQ0wCwYDVQQKDARwa2c1MRYwFAYDVQQDDA1jczFfY2gxLjJfdGEzMRwwGgYJKoZI
hvcNAQkBFg1jczFfY2gxLjJfdGEzMIGfMA0GCSqGSIb3DQEBAQUAA4GNADCBiQKB
gQDQ+K4L6x/Si0EKNmJ2611V1LiK64C4BVjtKV2cPyuE5b4e9qvd1DIE7vSbsjgc
WQoSM/i3tuI3Zi5Y5T1+uGlzdIyt0a7eETgEfiaS1CwuaBUJSk/RBLatx9jXKm2S
zMpIh8ZopMU3r8wgbYO6+Gv1m45939aLffE2b6NbC7HoawIDAQABoyAwHjAMBgNV
HRMBAf8EAjAAMA4GA1UdDwEB/wQEAwIHgDANBgkqhkiG9w0BAQsFAAOBgQCfLle0
vVLd9IP7JNbxmTaXs5BPDRD/CQCjGh4QOWP2pgrun1JVuTWUEQRiEorFz8bFK4WG
rwCAsYod1k3DeNZnYFQnLigVtyIjR06wiYoaAyTbXWqip6/MYsrNLv194iz7W4n9
tjiKPTdhqZStMdTz0baR2TeY8e2qEdoNj5Mcjg==
-----END CERTIFICATE-----
