Certificate:
    Data:
        Version: 3 (0x2)
        Serial Number: 29 (0x1d)
        Signature Algorithm: sha256WithRSAEncryption
        Issuer: C=US, ST=California, L=Menlo Park, O=pkg5, CN=ch1.2_ta3/emailAddress=ch1.2_ta3
        Validity
            Not Before: Apr 11 22:37:48 2011 GMT
            Not After : Jan  5 22:37:48 2014 GMT
        Subject: C=US, ST=California, L=Menlo Park, O=pkg5, CN=cs1_ch1.2_ta3/emailAddress=cs1_ch1.2_ta3
        Subject Public Key Info:
            Public Key Algorithm: rsaEncryption
            RSA Public Key: (1024 bit)
                Modulus (1024 bit):
                    00:d7:e5:0a:18:00:54:5b:ee:5a:de:78:35:85:4f:
                    db:06:0c:e0:87:10:97:78:78:dc:2b:ab:95:86:3c:
                    35:c4:42:1a:e8:c3:98:c8:5d:a1:25:a5:94:d6:8b:
                    8e:73:e5:75:82:0a:e7:a0:47:3d:d3:16:86:3d:55:
                    4c:2e:65:75:1b:6f:90:48:a6:4b:84:ee:76:81:56:
                    a0:36:17:9b:58:0c:45:a6:0c:b3:0c:f1:34:11:df:
                    14:8e:99:be:22:a2:a5:62:65:f0:a8:57:57:39:b9:
                    13:1c:8b:97:6d:fd:56:b7:ce:1b:cb:ff:ad:80:c6:
                    a3:0d:42:fe:bc:82:8f:4a:03
                Exponent: 65537 (0x10001)
        X509v3 extensions:
            X509v3 Basic Constraints: critical
                CA:FALSE
            X509v3 Key Usage: critical
                Digital Signature
    Signature Algorithm: sha256WithRSAEncryption
        6b:92:5b:ba:16:e4:ff:58:0a:03:6e:d0:db:10:cb:1d:b3:b1:
        0f:b5:b7:51:52:82:41:8c:0f:c2:3a:75:9c:26:bf:1d:25:91:
        bc:b4:ca:17:79:ee:d8:61:89:1c:de:b1:23:4f:35:58:4f:2d:
        d9:f4:e8:9f:56:d1:83:cc:ac:70:cd:3c:51:6f:45:e1:50:47:
        06:17:61:cb:85:ed:d2:61:da:72:c6:79:4c:b9:7c:44:3a:c6:
        a0:91:27:67:e5:e7:be:47:ee:fc:f4:c7:49:11:e5:65:3e:87:
        f2:54:10:a9:41:24:6e:fb:ad:e5:4c:c8:e6:3f:9c:1c:61:41:
        cd:a0
-----BEGIN CERTIFICATE-----
MIIChjCCAe+gAwIBAgIBHTANBgkqhkiG9w0BAQsFADB0MQswCQYDVQQGEwJVUzET
MBEGA1UECBMKQ2FsaWZvcm5pYTETMBEGA1UEBxMKTWVubG8gUGFyazENMAsGA1UE
ChMEcGtnNTESMBAGA1UEAxQJY2gxLjJfdGEzMRgwFgYJKoZIhvcNAQkBFgljaDEu
Ml90YTMwHhcNMTEwNDExMjIzNzQ4WhcNMTQwMTA1MjIzNzQ4WjB8MQswCQYDVQQG
EwJVUzETMBEGA1UECBMKQ2FsaWZvcm5pYTETMBEGA1UEBxMKTWVubG8gUGFyazEN
MAsGA1UEChMEcGtnNTEWMBQGA1UEAxQNY3MxX2NoMS4yX3RhMzEcMBoGCSqGSIb3
DQEJARYNY3MxX2NoMS4yX3RhMzCBnzANBgkqhkiG9w0BAQEFAAOBjQAwgYkCgYEA
1+UKGABUW+5a3ng1hU/bBgzghxCXeHjcK6uVhjw1xEIa6MOYyF2hJaWU1ouOc+V1
ggrnoEc90xaGPVVMLmV1G2+QSKZLhO52gVagNhebWAxFpgyzDPE0Ed8Ujpm+IqKl
YmXwqFdXObkTHIuXbf1Wt84by/+tgMajDUL+vIKPSgMCAwEAAaMgMB4wDAYDVR0T
AQH/BAIwADAOBgNVHQ8BAf8EBAMCB4AwDQYJKoZIhvcNAQELBQADgYEAa5Jbuhbk
/1gKA27Q2xDLHbOxD7W3UVKCQYwPwjp1nCa/HSWRvLTKF3nu2GGJHN6xI081WE8t
2fTon1bRg8yscM08UW9F4VBHBhdhy4Xt0mHacsZ5TLl8RDrGoJEnZ+Xnvkfu/PTH
SRHlZT6H8lQQqUEkbvut5UzI5j+cHGFBzaA=
-----END CERTIFICATE-----
