Certificate:
    Data:
        Version: 3 (0x2)
        Serial Number: 29 (0x1d)
    Signature Algorithm: sha256WithRSAEncryption
        Issuer: C=US, ST=California, L=Santa Clara, O=pkg5, CN=ch1.2_ta3/emailAddress=ch1.2_ta3
        Validity
            Not Before: Jan 22 15:33:11 2019 GMT
            Not After : Oct 18 15:33:11 2021 GMT
        Subject: C=US, ST=California, L=Santa Clara, O=pkg5, CN=cs1_ch1.2_ta3/emailAddress=cs1_ch1.2_ta3
        Subject Public Key Info:
            Public Key Algorithm: rsaEncryption
                Public-Key: (1024 bit)
                Modulus:
                    00:e1:cd:41:42:6c:9d:1e:d6:e5:b3:74:e6:d7:41:
                    4e:a4:8a:ee:2d:c4:9a:1a:46:c6:1f:d3:e8:64:e7:
                    4c:29:f7:5a:ca:24:ac:13:6c:67:6f:eb:66:7e:13:
                    d0:c4:75:0c:df:fa:48:1a:1a:2a:e6:3b:f8:2d:b3:
                    9c:d7:ff:8f:29:f3:63:af:6e:f5:ad:be:c7:2e:2d:
                    00:7d:94:97:6a:5f:a3:59:d3:f2:91:b6:00:ec:ea:
                    b4:64:d5:7d:09:29:94:b4:71:ed:ae:26:51:31:73:
                    d1:26:6e:f7:8c:30:e6:fc:b5:7c:7f:25:00:af:cf:
                    cd:94:be:f8:43:5e:6e:39:dd
                Exponent: 65537 (0x10001)
        X509v3 extensions:
            X509v3 Basic Constraints: critical
                CA:FALSE
            X509v3 Key Usage: critical
                Digital Signature
    Signature Algorithm: sha256WithRSAEncryption
         87:8d:6f:12:24:f2:b8:ec:7b:2c:eb:47:d5:fb:e8:76:ec:c5:
         25:3a:1b:9a:05:d6:f4:75:3a:e8:d3:14:f2:dc:c1:4e:63:d6:
         33:9a:dd:4e:3e:75:9e:c5:23:d2:c3:b7:25:87:31:e0:5f:fd:
         a0:44:b1:a8:29:8c:6b:2b:d5:11:f2:ba:83:c5:2e:cd:80:54:
         65:72:96:71:c0:0d:a7:58:2c:cb:dc:96:5e:0e:63:94:ff:de:
         35:15:3f:f0:f2:70:34:10:a4:84:57:9b:bc:63:ae:a5:f5:46:
         2c:84:2c:49:0a:71:85:b0:db:dc:c5:ac:34:f4:00:3d:36:3b:
         f0:a7:b0:53:c4:94:7a:83:c5:66:e2:45:de:40:75:40:d8:85:
         93:86:71:a1:c9:76:79:d3:f8:f5:a5:d1:71:0d:21:e4:4e:f2:
         49:9c:57:26:8b:65:dd:2c:00:2b:3e:a0:41:00:ca:b2:e0:8a:
         b4:07:22:4b:8c:06:27:51:55:40:81:51:16:ad:35:6d:dd:37:
         76:30:3c:91:b3:7e:10:00:42:86:df:1a:61:19:64:76:a9:27:
         b8:2d:2d:2a:82:4a:42:34:e4:2b:8b:f6:1d:7f:bf:fc:ff:4c:
         14:83:29:5a:5b:cc:9b:b7:cd:99:28:4f:17:c9:e0:2c:2e:dc:
         d8:0e:65:65
-----BEGIN CERTIFICATE-----
MIIDCTCCAfGgAwIBAgIBHTANBgkqhkiG9w0BAQsFADB1MQswCQYDVQQGEwJVUzET
MBEGA1UECAwKQ2FsaWZvcm5pYTEUMBIGA1UEBwwLU2FudGEgQ2xhcmExDTALBgNV
BAoMBHBrZzUxEjAQBgNVBAMMCWNoMS4yX3RhMzEYMBYGCSqGSIb3DQEJARYJY2gx
LjJfdGEzMB4XDTE5MDEyMjE1MzMxMVoXDTIxMTAxODE1MzMxMVowfTELMAkGA1UE
BhMCVVMxEzARBgNVBAgMCkNhbGlmb3JuaWExFDASBgNVBAcMC1NhbnRhIENsYXJh
MQ0wCwYDVQQKDARwa2c1MRYwFAYDVQQDDA1jczFfY2gxLjJfdGEzMRwwGgYJKoZI
hvcNAQkBFg1jczFfY2gxLjJfdGEzMIGfMA0GCSqGSIb3DQEBAQUAA4GNADCBiQKB
gQDhzUFCbJ0e1uWzdObXQU6kiu4txJoaRsYf0+hk50wp91rKJKwTbGdv62Z+E9DE
dQzf+kgaGirmO/gts5zX/48p82OvbvWtvscuLQB9lJdqX6NZ0/KRtgDs6rRk1X0J
KZS0ce2uJlExc9EmbveMMOb8tXx/JQCvz82UvvhDXm453QIDAQABoyAwHjAMBgNV
HRMBAf8EAjAAMA4GA1UdDwEB/wQEAwIHgDANBgkqhkiG9w0BAQsFAAOCAQEAh41v
EiTyuOx7LOtH1fvoduzFJTobmgXW9HU66NMU8tzBTmPWM5rdTj51nsUj0sO3JYcx
4F/9oESxqCmMayvVEfK6g8UuzYBUZXKWccANp1gsy9yWXg5jlP/eNRU/8PJwNBCk
hFebvGOupfVGLIQsSQpxhbDb3MWsNPQAPTY78KewU8SUeoPFZuJF3kB1QNiFk4Zx
ocl2edP49aXRcQ0h5E7ySZxXJotl3SwAKz6gQQDKsuCKtAciS4wGJ1FVQIFRFq01
bd03djA8kbN+EABCht8aYRlkdqknuC0tKoJKQjTkK4v2HX+//P9MFIMpWlvMm7fN
mShPF8ngLC7c2A5lZQ==
-----END CERTIFICATE-----
