Certificate:
    Data:
        Version: 3 (0x2)
        Serial Number: 30 (0x1e)
    Signature Algorithm: sha256WithRSAEncryption
        Issuer: C=US, ST=California, L=Santa Clara, O=pkg5, CN=ch1.2_ta3/emailAddress=ch1.2_ta3
        Validity
            Not Before: Jan 22 01:57:58 2016 GMT
            Not After : Oct 18 01:57:58 2018 GMT
        Subject: C=US, ST=California, L=Santa Clara, O=pkg5, CN=cs1_ch1.2_ta3/emailAddress=cs1_ch1.2_ta3
        Subject Public Key Info:
            Public Key Algorithm: rsaEncryption
                Public-Key: (1024 bit)
                Modulus:
                    00:d1:b4:07:9d:27:96:3d:18:72:47:69:78:1e:d3:
                    9a:89:41:3d:67:8b:db:bc:dc:30:59:3f:d3:65:66:
                    91:72:11:d1:c0:3a:09:37:0e:7c:a3:4f:09:c4:f9:
                    4c:59:34:10:3c:55:a6:ee:e0:e4:a8:11:6d:63:27:
                    49:96:32:f4:21:5f:b2:00:e9:2d:32:72:f0:94:d2:
                    9e:47:73:48:e3:73:04:19:ca:f1:08:26:6e:e2:c9:
                    9c:69:1d:86:37:64:be:90:d8:a2:b2:e2:69:44:07:
                    7e:14:b2:fa:76:5b:9c:42:e3:33:01:bb:6c:c8:58:
                    9c:e4:de:b2:e3:b6:b5:e4:e7
                Exponent: 65537 (0x10001)
        X509v3 extensions:
            X509v3 Basic Constraints: critical
                CA:FALSE
            X509v3 Key Usage: critical
                Digital Signature
    Signature Algorithm: sha256WithRSAEncryption
         36:8e:1b:77:ea:3e:0e:8f:b4:b5:56:49:2d:93:32:fb:d5:cf:
         91:a7:86:b2:f8:30:7f:e5:08:18:e4:72:21:78:70:ed:5b:54:
         ff:ce:e9:87:b3:66:32:2a:6c:9b:26:44:0a:d7:ea:f5:03:b7:
         7d:7f:bd:af:39:38:be:b5:d9:92:38:dd:10:4d:fe:27:b8:fe:
         d3:7a:58:c1:67:8c:78:15:a1:07:61:35:1b:63:2b:48:f7:c9:
         c4:b7:54:ff:c4:b3:eb:be:16:27:7a:01:cd:da:43:be:fc:f8:
         7e:a6:f8:46:ed:54:7a:dc:06:62:d4:3f:b2:a3:68:de:3d:84:
         28:20:ed:f9:20:60:29:40:ee:6e:d9:d1:27:45:ff:d6:be:86:
         c8:e2:c1:74:85:86:ad:12:53:2c:f0:45:3c:fe:fa:43:9a:21:
         c4:b5:47:03:99:1b:0f:4e:ff:72:79:d1:a0:16:88:f3:71:fc:
         9a:47:34:c4:91:8b:f8:b4:01:77:84:de:04:40:a7:6c:a9:23:
         25:4e:3d:82:48:6e:61:7e:05:aa:b1:97:14:41:4d:83:f2:5e:
         27:95:f4:2a:28:31:ed:38:39:81:22:1c:60:d9:de:23:4f:59:
         05:14:11:40:21:70:1a:f4:dc:c6:58:ff:d1:13:0b:97:9b:da:
         d0:45:0d:d7
-----BEGIN CERTIFICATE-----
MIIDCTCCAfGgAwIBAgIBHjANBgkqhkiG9w0BAQsFADB1MQswCQYDVQQGEwJVUzET
MBEGA1UECAwKQ2FsaWZvcm5pYTEUMBIGA1UEBwwLU2FudGEgQ2xhcmExDTALBgNV
BAoMBHBrZzUxEjAQBgNVBAMMCWNoMS4yX3RhMzEYMBYGCSqGSIb3DQEJARYJY2gx
LjJfdGEzMB4XDTE2MDEyMjAxNTc1OFoXDTE4MTAxODAxNTc1OFowfTELMAkGA1UE
BhMCVVMxEzARBgNVBAgMCkNhbGlmb3JuaWExFDASBgNVBAcMC1NhbnRhIENsYXJh
MQ0wCwYDVQQKDARwa2c1MRYwFAYDVQQDDA1jczFfY2gxLjJfdGEzMRwwGgYJKoZI
hvcNAQkBFg1jczFfY2gxLjJfdGEzMIGfMA0GCSqGSIb3DQEBAQUAA4GNADCBiQKB
gQDRtAedJ5Y9GHJHaXge05qJQT1ni9u83DBZP9NlZpFyEdHAOgk3DnyjTwnE+UxZ
NBA8Vabu4OSoEW1jJ0mWMvQhX7IA6S0ycvCU0p5Hc0jjcwQZyvEIJm7iyZxpHYY3
ZL6Q2KKy4mlEB34Usvp2W5xC4zMBu2zIWJzk3rLjtrXk5wIDAQABoyAwHjAMBgNV
HRMBAf8EAjAAMA4GA1UdDwEB/wQEAwIHgDANBgkqhkiG9w0BAQsFAAOCAQEANo4b
d+o+Do+0tVZJLZMy+9XPkaeGsvgwf+UIGORyIXhw7VtU/87ph7NmMipsmyZECtfq
9QO3fX+9rzk4vrXZkjjdEE3+J7j+03pYwWeMeBWhB2E1G2MrSPfJxLdU/8Sz674W
J3oBzdpDvvz4fqb4Ru1UetwGYtQ/sqNo3j2EKCDt+SBgKUDubtnRJ0X/1r6GyOLB
dIWGrRJTLPBFPP76Q5ohxLVHA5kbD07/cnnRoBaI83H8mkc0xJGL+LQBd4TeBECn
bKkjJU49gkhuYX4FqrGXFEFNg/JeJ5X0Kigx7Tg5gSIcYNneI09ZBRQRQCFwGvTc
xlj/0RMLl5va0EUN1w==
-----END CERTIFICATE-----
