Certificate:
    Data:
        Version: 3 (0x2)
        Serial Number: 31 (0x1f)
        Signature Algorithm: sha256WithRSAEncryption
        Issuer: C=US, ST=California, L=Santa Clara, O=pkg5, CN=ch1.3_ta3/emailAddress=ch1.3_ta3
        Validity
            Not Before: Mar 18 08:51:40 2026 GMT
            Not After : Dec 12 08:51:40 2028 GMT
        Subject: C=US, ST=California, L=Santa Clara, O=pkg5, CN=cs1_ch1.3_ta3/emailAddress=cs1_ch1.3_ta3
        Subject Public Key Info:
            Public Key Algorithm: rsaEncryption
                Public-Key: (2048 bit)
                Modulus:
                    00:c7:c8:07:3f:79:42:97:5a:52:1c:16:ee:2a:81:
                    80:8b:d5:df:ad:07:2f:09:5f:a8:e0:f4:10:3d:62:
                    44:31:6c:34:ec:63:25:7e:11:4e:d5:fa:07:73:67:
                    5d:05:3d:63:6b:cf:cd:a4:5e:ed:32:b8:f1:cc:04:
                    42:07:bf:2b:a7:0c:ae:38:db:9a:11:ea:58:d1:ce:
                    e0:ec:f2:5b:2a:91:1f:24:e6:12:8c:b6:6d:10:f8:
                    33:74:c4:53:ee:bc:c2:f8:04:49:69:32:27:13:dc:
                    53:54:60:fc:c8:73:b4:28:c8:ec:1c:48:fe:85:dc:
                    1d:99:87:7f:78:64:f2:f8:15:dc:2b:d8:55:fc:31:
                    97:3f:da:b1:9b:98:a7:66:89:6f:6a:65:b6:6d:01:
                    f0:91:39:1a:16:51:db:eb:06:71:f0:c4:a2:87:8b:
                    96:e2:93:08:7a:99:80:5c:d6:0b:e4:d6:c3:ca:c1:
                    31:32:aa:a2:b8:2f:44:28:d9:9b:60:23:e0:ff:ad:
                    0e:f7:f3:5f:79:47:e2:73:37:70:53:32:4a:4b:43:
                    ac:5f:0f:ce:a3:30:23:ce:5d:a8:0e:8e:a7:c3:0b:
                    33:92:c6:ec:04:3f:d2:e5:e7:92:2f:80:7a:a0:17:
                    e0:f8:72:bb:6a:12:8e:e6:86:ad:b5:3f:97:1d:af:
                    d5:73
                Exponent: 65537 (0x10001)
        X509v3 extensions:
            X509v3 Basic Constraints: critical
                CA:FALSE
            X509v3 Key Usage: critical
                Digital Signature
            X509v3 Subject Key Identifier: 
                FE:E3:D0:E9:8A:E6:4F:6D:09:8E:B0:54:9C:25:CB:08:76:3F:BC:AB
            X509v3 Authority Key Identifier: 
                11:34:B4:0D:40:C9:78:3E:38:B3:97:FC:8B:BF:ED:DF:C9:EB:9A:49
    Signature Algorithm: sha256WithRSAEncryption
    Signature Value:
        6e:0e:15:db:d9:e6:d0:df:99:cb:ad:47:04:ca:b2:ba:65:dc:
        a0:d9:fa:9a:9b:72:e1:9e:fc:3c:00:0e:ba:58:b7:8a:58:83:
        76:66:df:f5:d2:9b:ce:3d:48:fe:cb:25:c8:f7:57:e0:e4:7e:
        7b:d3:66:71:a8:7e:93:8d:2f:bf:10:9d:64:57:76:d2:d8:34:
        df:b4:56:67:8f:f7:d9:c2:43:b0:3a:01:4a:7a:c2:f0:db:a5:
        e1:7f:07:b2:fb:08:c0:46:da:a4:d3:e9:1a:77:7d:a2:e4:f9:
        0e:d0:e9:f9:3b:43:8c:b3:d1:d3:cb:71:4a:17:77:a1:3f:9e:
        40:fc:2d:db:cc:59:0e:88:a0:3b:13:fc:07:50:82:a7:35:be:
        67:ef:e5:d2:29:02:c2:52:e4:27:07:13:b9:ba:c8:13:97:a9:
        1a:84:32:a6:21:77:74:41:24:ed:5f:49:de:c1:59:3b:7f:0e:
        2a:87:4c:26:84:5e:d7:b8:e6:2b:19:b5:25:28:08:6e:02:d4:
        f9:97:7d:d2:1b:54:ca:de:5d:d1:d2:03:c0:c4:e9:ef:7c:02:
        04:d9:26:76:3d:87:61:f7:ad:44:93:d9:5b:13:fe:ab:08:1f:
        c4:a2:fe:9a:9f:bd:01:45:0c:23:40:73:81:90:fe:39:34:c6:
        c6:a5:8a:1d
-----BEGIN CERTIFICATE-----
MIIDzTCCArWgAwIBAgIBHzANBgkqhkiG9w0BAQsFADB1MQswCQYDVQQGEwJVUzET
MBEGA1UECAwKQ2FsaWZvcm5pYTEUMBIGA1UEBwwLU2FudGEgQ2xhcmExDTALBgNV
BAoMBHBrZzUxEjAQBgNVBAMMCWNoMS4zX3RhMzEYMBYGCSqGSIb3DQEJARYJY2gx
LjNfdGEzMB4XDTI2MDMxODA4NTE0MFoXDTI4MTIxMjA4NTE0MFowfTELMAkGA1UE
BhMCVVMxEzARBgNVBAgMCkNhbGlmb3JuaWExFDASBgNVBAcMC1NhbnRhIENsYXJh
MQ0wCwYDVQQKDARwa2c1MRYwFAYDVQQDDA1jczFfY2gxLjNfdGEzMRwwGgYJKoZI
hvcNAQkBFg1jczFfY2gxLjNfdGEzMIIBIjANBgkqhkiG9w0BAQEFAAOCAQ8AMIIB
CgKCAQEAx8gHP3lCl1pSHBbuKoGAi9XfrQcvCV+o4PQQPWJEMWw07GMlfhFO1foH
c2ddBT1ja8/NpF7tMrjxzARCB78rpwyuONuaEepY0c7g7PJbKpEfJOYSjLZtEPgz
dMRT7rzC+ARJaTInE9xTVGD8yHO0KMjsHEj+hdwdmYd/eGTy+BXcK9hV/DGXP9qx
m5inZolvamW2bQHwkTkaFlHb6wZx8MSih4uW4pMIepmAXNYL5NbDysExMqqiuC9E
KNmbYCPg/60O9/NfeUficzdwUzJKS0OsXw/OozAjzl2oDo6nwwszksbsBD/S5eeS
L4B6oBfg+HK7ahKO5oattT+XHa/VcwIDAQABo2AwXjAMBgNVHRMBAf8EAjAAMA4G
A1UdDwEB/wQEAwIHgDAdBgNVHQ4EFgQU/uPQ6YrmT20JjrBUnCXLCHY/vKswHwYD
VR0jBBgwFoAUETS0DUDJeD44s5f8i7/t38nrmkkwDQYJKoZIhvcNAQELBQADggEB
AG4OFdvZ5tDfmcutRwTKsrpl3KDZ+pqbcuGe/DwADrpYt4pYg3Zm3/XSm849SP7L
Jcj3V+DkfnvTZnGofpONL78QnWRXdtLYNN+0VmeP99nCQ7A6AUp6wvDbpeF/B7L7
CMBG2qTT6Rp3faLk+Q7Q6fk7Q4yz0dPLcUoXd6E/nkD8LdvMWQ6IoDsT/AdQgqc1
vmfv5dIpAsJS5CcHE7m6yBOXqRqEMqYhd3RBJO1fSd7BWTt/DiqHTCaEXte45isZ
tSUoCG4C1PmXfdIbVMreXdHSA8DE6e98AgTZJnY9h2H3rUST2VsT/qsIH8Si/pqf
vQFFDCNAc4GQ/jk0xsalih0=
-----END CERTIFICATE-----
