Certificate:
    Data:
        Version: 3 (0x2)
        Serial Number: 31 (0x1f)
    Signature Algorithm: sha256WithRSAEncryption
        Issuer: C=US, ST=California, L=Santa Clara, O=pkg5, CN=ch1.3_ta3/emailAddress=ch1.3_ta3
        Validity
            Not Before: Jan 22 15:33:12 2019 GMT
            Not After : Oct 18 15:33:12 2021 GMT
        Subject: C=US, ST=California, L=Santa Clara, O=pkg5, CN=cs1_ch1.3_ta3/emailAddress=cs1_ch1.3_ta3
        Subject Public Key Info:
            Public Key Algorithm: rsaEncryption
                Public-Key: (1024 bit)
                Modulus:
                    00:9a:f5:99:35:bb:50:39:3b:9c:25:94:d3:39:38:
                    98:99:1d:eb:2a:fa:6f:2b:49:ff:15:e9:97:70:2a:
                    be:fa:8c:9f:11:e9:2f:d8:b7:2c:ad:72:61:f6:33:
                    a3:b2:d1:87:96:e8:45:e6:d9:c7:98:fa:e6:54:ec:
                    10:1f:fd:51:65:d1:cd:2d:80:6d:fd:ca:9a:a2:76:
                    b9:bd:ce:a0:ca:1a:24:e5:3f:56:58:b4:f3:55:f9:
                    ff:c3:a2:68:29:51:71:10:21:60:e5:30:df:3d:fd:
                    32:14:8c:0c:04:54:b3:ff:a4:ea:0e:bf:79:00:3d:
                    06:6e:09:39:7c:3d:dc:88:a9
                Exponent: 65537 (0x10001)
        X509v3 extensions:
            X509v3 Basic Constraints: critical
                CA:FALSE
            X509v3 Key Usage: critical
                Digital Signature
    Signature Algorithm: sha256WithRSAEncryption
         88:ae:bc:7f:a6:f4:08:6d:52:a7:6c:9e:b5:50:03:2b:fd:39:
         8d:2e:19:87:1f:b7:05:f7:ef:da:42:e8:2c:9a:84:70:4a:a9:
         d3:e0:04:0a:64:ab:b4:a2:db:e2:c7:15:c6:17:db:f1:49:e4:
         89:df:ee:1b:0e:16:f4:f7:b8:3f:53:64:88:74:89:cf:a2:89:
         99:04:6b:bc:17:a6:c6:4d:d7:1b:7f:7c:cd:a0:a0:72:e7:78:
         96:75:c4:80:d8:11:81:3e:b1:d3:32:8e:e8:d2:5d:0b:91:50:
         b8:9f:4a:dc:d3:35:b5:36:c8:7a:75:db:76:54:dd:dd:4a:19:
         ea:fe:e3:6c:83:4d:35:e6:31:81:f4:8b:2e:1e:7c:2e:03:14:
         43:17:f1:49:02:d4:c7:c0:19:04:f3:08:34:14:1f:9d:d9:9a:
         d2:2d:b1:8b:b8:ca:b6:09:d1:2a:aa:84:45:66:e1:07:de:d0:
         a9:4e:fc:d4:11:db:0c:58:28:20:73:4e:17:5d:14:ca:4c:a6:
         c6:91:5d:1d:ea:31:4c:75:6b:b7:7d:70:3b:04:19:27:91:ab:
         77:d4:2c:15:25:d7:ba:09:fb:9d:af:d3:a3:40:90:97:bc:37:
         8e:fa:98:34:e8:60:e0:05:de:fa:fe:ec:02:82:64:73:c2:36:
         17:80:98:b3
-----BEGIN CERTIFICATE-----
MIIDCTCCAfGgAwIBAgIBHzANBgkqhkiG9w0BAQsFADB1MQswCQYDVQQGEwJVUzET
MBEGA1UECAwKQ2FsaWZvcm5pYTEUMBIGA1UEBwwLU2FudGEgQ2xhcmExDTALBgNV
BAoMBHBrZzUxEjAQBgNVBAMMCWNoMS4zX3RhMzEYMBYGCSqGSIb3DQEJARYJY2gx
LjNfdGEzMB4XDTE5MDEyMjE1MzMxMloXDTIxMTAxODE1MzMxMlowfTELMAkGA1UE
BhMCVVMxEzARBgNVBAgMCkNhbGlmb3JuaWExFDASBgNVBAcMC1NhbnRhIENsYXJh
MQ0wCwYDVQQKDARwa2c1MRYwFAYDVQQDDA1jczFfY2gxLjNfdGEzMRwwGgYJKoZI
hvcNAQkBFg1jczFfY2gxLjNfdGEzMIGfMA0GCSqGSIb3DQEBAQUAA4GNADCBiQKB
gQCa9Zk1u1A5O5wllNM5OJiZHesq+m8rSf8V6ZdwKr76jJ8R6S/YtyytcmH2M6Oy
0YeW6EXm2ceY+uZU7BAf/VFl0c0tgG39ypqidrm9zqDKGiTlP1ZYtPNV+f/Domgp
UXEQIWDlMN89/TIUjAwEVLP/pOoOv3kAPQZuCTl8PdyIqQIDAQABoyAwHjAMBgNV
HRMBAf8EAjAAMA4GA1UdDwEB/wQEAwIHgDANBgkqhkiG9w0BAQsFAAOCAQEAiK68
f6b0CG1Sp2yetVADK/05jS4Zhx+3Bffv2kLoLJqEcEqp0+AECmSrtKLb4scVxhfb
8Unkid/uGw4W9Pe4P1NkiHSJz6KJmQRrvBemxk3XG398zaCgcud4lnXEgNgRgT6x
0zKO6NJdC5FQuJ9K3NM1tTbIenXbdlTd3UoZ6v7jbINNNeYxgfSLLh58LgMUQxfx
SQLUx8AZBPMINBQfndma0i2xi7jKtgnRKqqERWbhB97QqU781BHbDFgoIHNOF10U
ykymxpFdHeoxTHVrt31wOwQZJ5Grd9QsFSXXugn7na/To0CQl7w3jvqYNOhg4AXe
+v7sAoJkc8I2F4CYsw==
-----END CERTIFICATE-----
