Certificate:
    Data:
        Version: 3 (0x2)
        Serial Number: 31 (0x1f)
        Signature Algorithm: sha256WithRSAEncryption
        Issuer: C=US, ST=California, L=Menlo Park, O=pkg5, CN=pubCA1_ta4/emailAddress=pubCA1_ta4
        Validity
            Not Before: Jan 28 02:54:22 2011 GMT
            Not After : Oct 24 02:54:22 2013 GMT
        Subject: C=US, ST=California, L=Menlo Park, O=pkg5, CN=cs1_ta4/emailAddress=cs1_ta4
        Subject Public Key Info:
            Public Key Algorithm: rsaEncryption
            RSA Public Key: (1024 bit)
                Modulus (1024 bit):
                    00:95:55:70:3f:0a:52:f5:90:a0:00:22:11:4d:bf:
                    05:f7:8b:55:2d:8a:1e:66:41:7f:4c:bd:55:09:d3:
                    ba:67:0a:c8:80:36:85:a9:90:b2:d3:95:e5:e7:2a:
                    f6:91:b6:b3:3c:81:ef:1c:0c:fb:85:91:51:0a:74:
                    05:97:9d:25:17:be:fe:0d:8c:b4:84:37:74:0a:b0:
                    e0:f6:74:20:7d:2c:b1:3b:c0:0e:3f:fc:9c:05:26:
                    be:0f:41:23:ff:d9:1d:a3:5d:08:f0:33:de:43:d3:
                    d2:e5:f1:00:3d:aa:c2:24:cd:4f:35:cc:d1:9b:5b:
                    e1:e0:61:11:93:26:e1:ba:ef
                Exponent: 65537 (0x10001)
        X509v3 extensions:
            X509v3 Basic Constraints: critical
                CA:FALSE
            X509v3 CRL Distribution Points: 
                URI:http://localhost:12001/file/0/pubCA1_ta4_crl.pem

    Signature Algorithm: sha256WithRSAEncryption
        45:36:7b:d8:11:49:e9:43:46:59:2a:a4:46:1f:43:37:1e:88:
        7c:f6:35:f4:e3:b0:a5:8d:cf:77:80:94:84:01:5a:13:9d:1f:
        84:d5:81:e1:9d:fd:8a:ef:ca:41:f2:df:9c:6f:d5:04:29:e6:
        55:ab:0b:5c:40:88:a4:8e:d2:48:4b:12:d7:03:91:ec:75:4b:
        40:b0:37:dd:8c:66:32:36:9c:1e:9d:56:6b:d3:40:91:ca:89:
        1f:1f:3e:f9:71:e3:d6:d8:fe:09:34:03:dd:b5:3e:e8:66:be:
        88:a4:3b:94:25:b5:a9:a8:49:d1:bb:44:1a:d3:40:d6:01:d3:
        1f:58
-----BEGIN CERTIFICATE-----
MIICrzCCAhigAwIBAgIBHzANBgkqhkiG9w0BAQsFADB2MQswCQYDVQQGEwJVUzET
MBEGA1UECBMKQ2FsaWZvcm5pYTETMBEGA1UEBxMKTWVubG8gUGFyazENMAsGA1UE
ChMEcGtnNTETMBEGA1UEAxQKcHViQ0ExX3RhNDEZMBcGCSqGSIb3DQEJARYKcHVi
Q0ExX3RhNDAeFw0xMTAxMjgwMjU0MjJaFw0xMzEwMjQwMjU0MjJaMHAxCzAJBgNV
BAYTAlVTMRMwEQYDVQQIEwpDYWxpZm9ybmlhMRMwEQYDVQQHEwpNZW5sbyBQYXJr
MQ0wCwYDVQQKEwRwa2c1MRAwDgYDVQQDFAdjczFfdGE0MRYwFAYJKoZIhvcNAQkB
FgdjczFfdGE0MIGfMA0GCSqGSIb3DQEBAQUAA4GNADCBiQKBgQCVVXA/ClL1kKAA
IhFNvwX3i1Utih5mQX9MvVUJ07pnCsiANoWpkLLTleXnKvaRtrM8ge8cDPuFkVEK
dAWXnSUXvv4NjLSEN3QKsOD2dCB9LLE7wA4//JwFJr4PQSP/2R2jXQjwM95D09Ll
8QA9qsIkzU81zNGbW+HgYRGTJuG67wIDAQABo1MwUTAMBgNVHRMBAf8EAjAAMEEG
A1UdHwQ6MDgwNqA0oDKGMGh0dHA6Ly9sb2NhbGhvc3Q6MTIwMDEvZmlsZS8wL3B1
YkNBMV90YTRfY3JsLnBlbTANBgkqhkiG9w0BAQsFAAOBgQBFNnvYEUnpQ0ZZKqRG
H0M3Hoh89jX047Cljc93gJSEAVoTnR+E1YHhnf2K78pB8t+cb9UEKeZVqwtcQIik
jtJISxLXA5HsdUtAsDfdjGYyNpwenVZr00CRyokfHz75cePW2P4JNAPdtT7oZr6I
pDuUJbWpqEnRu0Qa00DWAdMfWA==
-----END CERTIFICATE-----
