Certificate:
    Data:
        Version: 3 (0x2)
        Serial Number: 32 (0x20)
    Signature Algorithm: sha256WithRSAEncryption
        Issuer: C=US, ST=California, L=Santa Clara, O=pkg5, CN=ch1.3_ta3/emailAddress=ch1.3_ta3
        Validity
            Not Before: Jan 22 01:57:58 2016 GMT
            Not After : Oct 18 01:57:58 2018 GMT
        Subject: C=US, ST=California, L=Santa Clara, O=pkg5, CN=cs1_ch1.3_ta3/emailAddress=cs1_ch1.3_ta3
        Subject Public Key Info:
            Public Key Algorithm: rsaEncryption
                Public-Key: (1024 bit)
                Modulus:
                    00:e1:94:49:db:86:53:c7:d5:a5:c6:73:c5:a0:9a:
                    c5:ff:9c:8f:62:6a:4b:01:ae:cc:de:5b:c1:86:42:
                    08:c0:c0:b7:8e:79:de:4b:8e:74:10:6d:ea:d4:1e:
                    17:7b:30:55:ca:3a:86:4a:f6:79:da:06:8d:93:92:
                    39:ec:22:fc:08:6e:14:23:ae:01:91:92:c0:71:7d:
                    c7:df:82:52:ce:ed:06:2e:b4:ee:73:2f:80:4f:49:
                    aa:f7:32:a8:c2:dd:44:43:e6:c0:86:f3:15:ca:19:
                    0a:fa:e6:d0:a6:db:84:76:16:31:40:ca:dc:bf:78:
                    45:3f:dd:c7:45:1f:0f:25:91
                Exponent: 65537 (0x10001)
        X509v3 extensions:
            X509v3 Basic Constraints: critical
                CA:FALSE
            X509v3 Key Usage: critical
                Digital Signature
    Signature Algorithm: sha256WithRSAEncryption
         34:21:1f:89:e0:2b:74:1a:b3:84:d8:a0:30:4f:66:94:0e:f1:
         c8:b7:26:ea:85:fb:77:f1:05:7d:9d:69:8a:17:fb:83:6e:9a:
         28:00:08:c7:c0:5b:65:f4:59:de:ec:4b:c6:8a:5d:01:c3:3c:
         5d:7a:73:c4:9b:2e:ba:d6:3e:d1:d6:6d:30:fc:2f:e2:08:94:
         58:00:88:76:6d:0d:d5:69:ea:e1:22:f0:d5:42:b3:2d:f2:41:
         37:42:63:ba:d5:3f:45:54:4f:fb:a5:b4:84:3b:74:f7:d1:28:
         c9:b1:a0:81:d8:d8:c1:e5:84:ff:e8:59:6e:d9:ea:5b:40:0f:
         d9:73:f7:e5:c6:99:92:a1:0a:a6:4c:51:c1:9b:10:c8:af:04:
         7c:89:04:78:b2:e9:8d:ff:d7:c6:f6:89:4d:4e:c3:b9:40:cd:
         4e:9d:7f:f2:6f:f4:ff:22:2d:e3:5b:9f:f7:76:e1:6f:8d:fb:
         1a:0d:e8:ee:6e:dc:06:14:70:aa:cd:c2:05:b0:47:ab:53:79:
         c4:5d:bd:7f:55:da:cf:8c:a8:3f:ec:af:6a:f0:bf:88:2b:cd:
         28:20:83:80:8f:eb:9d:ee:76:20:62:49:ac:66:84:51:e5:c6:
         e6:74:6a:f0:30:13:95:3c:36:09:60:d7:7d:a0:3a:bc:9d:1b:
         67:9e:c3:29
-----BEGIN CERTIFICATE-----
MIIDCTCCAfGgAwIBAgIBIDANBgkqhkiG9w0BAQsFADB1MQswCQYDVQQGEwJVUzET
MBEGA1UECAwKQ2FsaWZvcm5pYTEUMBIGA1UEBwwLU2FudGEgQ2xhcmExDTALBgNV
BAoMBHBrZzUxEjAQBgNVBAMMCWNoMS4zX3RhMzEYMBYGCSqGSIb3DQEJARYJY2gx
LjNfdGEzMB4XDTE2MDEyMjAxNTc1OFoXDTE4MTAxODAxNTc1OFowfTELMAkGA1UE
BhMCVVMxEzARBgNVBAgMCkNhbGlmb3JuaWExFDASBgNVBAcMC1NhbnRhIENsYXJh
MQ0wCwYDVQQKDARwa2c1MRYwFAYDVQQDDA1jczFfY2gxLjNfdGEzMRwwGgYJKoZI
hvcNAQkBFg1jczFfY2gxLjNfdGEzMIGfMA0GCSqGSIb3DQEBAQUAA4GNADCBiQKB
gQDhlEnbhlPH1aXGc8WgmsX/nI9iaksBrszeW8GGQgjAwLeOed5LjnQQberUHhd7
MFXKOoZK9nnaBo2TkjnsIvwIbhQjrgGRksBxfcffglLO7QYutO5zL4BPSar3MqjC
3URD5sCG8xXKGQr65tCm24R2FjFAyty/eEU/3cdFHw8lkQIDAQABoyAwHjAMBgNV
HRMBAf8EAjAAMA4GA1UdDwEB/wQEAwIHgDANBgkqhkiG9w0BAQsFAAOCAQEANCEf
ieArdBqzhNigME9mlA7xyLcm6oX7d/EFfZ1pihf7g26aKAAIx8BbZfRZ3uxLxopd
AcM8XXpzxJsuutY+0dZtMPwv4giUWACIdm0N1Wnq4SLw1UKzLfJBN0JjutU/RVRP
+6W0hDt099EoybGggdjYweWE/+hZbtnqW0AP2XP35caZkqEKpkxRwZsQyK8EfIkE
eLLpjf/XxvaJTU7DuUDNTp1/8m/0/yIt41uf93bhb437Gg3o7m7cBhRwqs3CBbBH
q1N5xF29f1Xaz4yoP+yvavC/iCvNKCCDgI/rne52IGJJrGaEUeXG5nRq8DATlTw2
CWDXfaA6vJ0bZ57DKQ==
-----END CERTIFICATE-----
