Certificate:
    Data:
        Version: 3 (0x2)
        Serial Number: 32 (0x20)
        Signature Algorithm: sha256WithRSAEncryption
        Issuer: C=US, ST=California, L=Menlo Park, O=pkg5, CN=pubCA1_ta4/emailAddress=pubCA1_ta4
        Validity
            Not Before: Jan 28 02:54:23 2011 GMT
            Not After : Oct 24 02:54:23 2013 GMT
        Subject: C=US, ST=California, L=Menlo Park, O=pkg5, CN=cs2_ta4/emailAddress=cs2_ta4
        Subject Public Key Info:
            Public Key Algorithm: rsaEncryption
            RSA Public Key: (1024 bit)
                Modulus (1024 bit):
                    00:97:56:b9:2f:de:53:80:7f:22:c6:a7:29:ce:40:
                    5e:85:76:ad:87:36:38:f2:31:66:99:32:e0:34:2e:
                    bd:10:a9:26:f5:1e:dc:27:6e:57:4e:9d:37:1b:ad:
                    14:d2:ba:60:44:2c:13:b2:fc:61:25:33:6f:a9:9e:
                    d4:4a:52:28:16:51:3d:6c:3a:f1:43:80:6b:c1:69:
                    d7:71:3a:6e:f7:04:8a:ae:2e:95:70:2a:fc:f0:25:
                    50:9d:c6:bd:04:4b:89:1c:ae:22:83:cb:45:2e:d3:
                    7b:74:c4:92:77:ff:bf:5b:a9:73:99:16:30:c9:26:
                    c2:16:b9:c2:63:93:e6:5b:a7
                Exponent: 65537 (0x10001)
        X509v3 extensions:
            X509v3 Subject Key Identifier: 
                55:DA:B0:E8:E1:F8:5F:D8:68:15:30:36:72:6A:69:CF:9D:A5:F3:FC
            X509v3 Authority Key Identifier: 
                keyid:D3:DE:A8:63:F4:5C:5D:8E:DD:53:9F:D7:9E:90:14:71:D1:21:88:4B
                DirName:/C=US/ST=California/L=Menlo Park/O=pkg5/CN=ta4/emailAddress=ta4
                serial:1E

            X509v3 Basic Constraints: critical
                CA:FALSE
            X509v3 CRL Distribution Points: 
                URI:http://localhost:12001/file/0/example_file

    Signature Algorithm: sha256WithRSAEncryption
        a4:03:ef:02:5d:84:d8:d3:87:f1:57:35:ae:ec:f1:10:22:4c:
        26:35:fc:8c:25:c3:2e:e6:5b:0c:46:1a:bf:19:8f:af:b4:f3:
        ad:3e:f0:e2:f5:86:6e:67:fa:d7:9e:d3:db:27:64:df:a5:90:
        5f:b7:65:8a:47:8a:76:fb:7c:d9:3d:d3:39:17:bc:cc:d6:fc:
        43:d3:9a:db:8d:10:35:56:7d:88:0e:2c:e8:37:fd:dd:2a:bc:
        de:79:9e:e2:04:d5:7f:93:fb:1f:e2:de:ca:66:27:10:c5:ea:
        b2:41:1b:c0:55:04:37:aa:52:65:9c:d1:cd:39:04:e6:6c:45:
        e0:18
-----BEGIN CERTIFICATE-----
MIIDYDCCAsmgAwIBAgIBIDANBgkqhkiG9w0BAQsFADB2MQswCQYDVQQGEwJVUzET
MBEGA1UECBMKQ2FsaWZvcm5pYTETMBEGA1UEBxMKTWVubG8gUGFyazENMAsGA1UE
ChMEcGtnNTETMBEGA1UEAxQKcHViQ0ExX3RhNDEZMBcGCSqGSIb3DQEJARYKcHVi
Q0ExX3RhNDAeFw0xMTAxMjgwMjU0MjNaFw0xMzEwMjQwMjU0MjNaMHAxCzAJBgNV
BAYTAlVTMRMwEQYDVQQIEwpDYWxpZm9ybmlhMRMwEQYDVQQHEwpNZW5sbyBQYXJr
MQ0wCwYDVQQKEwRwa2c1MRAwDgYDVQQDFAdjczJfdGE0MRYwFAYJKoZIhvcNAQkB
FgdjczJfdGE0MIGfMA0GCSqGSIb3DQEBAQUAA4GNADCBiQKBgQCXVrkv3lOAfyLG
pynOQF6Fdq2HNjjyMWaZMuA0Lr0QqSb1HtwnbldOnTcbrRTSumBELBOy/GElM2+p
ntRKUigWUT1sOvFDgGvBaddxOm73BIquLpVwKvzwJVCdxr0ES4kcriKDy0Uu03t0
xJJ3/79bqXOZFjDJJsIWucJjk+ZbpwIDAQABo4IBAjCB/zAdBgNVHQ4EFgQUVdqw
6OH4X9hoFTA2cmppz52l8/wwgZIGA1UdIwSBijCBh4AU096oY/RcXY7dU5/XnpAU
cdEhiEuhbKRqMGgxCzAJBgNVBAYTAlVTMRMwEQYDVQQIEwpDYWxpZm9ybmlhMRMw
EQYDVQQHEwpNZW5sbyBQYXJrMQ0wCwYDVQQKEwRwa2c1MQwwCgYDVQQDEwN0YTQx
EjAQBgkqhkiG9w0BCQEWA3RhNIIBHjAMBgNVHRMBAf8EAjAAMDsGA1UdHwQ0MDIw
MKAuoCyGKmh0dHA6Ly9sb2NhbGhvc3Q6MTIwMDEvZmlsZS8wL2V4YW1wbGVfZmls
ZTANBgkqhkiG9w0BAQsFAAOBgQCkA+8CXYTY04fxVzWu7PEQIkwmNfyMJcMu5lsM
Rhq/GY+vtPOtPvDi9YZuZ/rXntPbJ2TfpZBft2WKR4p2+3zZPdM5F7zM1vxD05rb
jRA1Vn2IDizoN/3dKrzeeZ7iBNV/k/sf4t7KZicQxeqyQRvAVQQ3qlJlnNHNOQTm
bEXgGA==
-----END CERTIFICATE-----
