Certificate:
    Data:
        Version: 3 (0x2)
        Serial Number: 33 (0x21)
    Signature Algorithm: sha256WithRSAEncryption
        Issuer: C=US, ST=California, L=Santa Clara, O=pkg5, CN=ch1.4_ta3/emailAddress=ch1.4_ta3
        Validity
            Not Before: Jan 22 15:33:12 2019 GMT
            Not After : Oct 18 15:33:12 2021 GMT
        Subject: C=US, ST=California, L=Santa Clara, O=pkg5, CN=cs1_ch1.4_ta3/emailAddress=cs1_ch1.4_ta3
        Subject Public Key Info:
            Public Key Algorithm: rsaEncryption
                Public-Key: (1024 bit)
                Modulus:
                    00:e8:90:b3:df:80:ec:b6:d5:7e:c6:f5:e4:d9:a3:
                    cb:6b:de:de:42:2c:38:73:fd:8d:8c:1f:4c:e9:07:
                    be:44:40:c1:b1:35:86:63:4e:70:31:c4:5e:51:00:
                    bb:69:fb:dc:5b:db:d8:0f:4e:62:a7:eb:6a:f5:eb:
                    92:ab:17:79:8b:0d:63:25:e1:08:7f:76:87:54:aa:
                    46:49:73:7b:d2:f7:90:f4:99:81:fd:23:99:af:b0:
                    69:19:94:a7:6a:da:a2:0f:ea:4f:32:76:5f:a3:d7:
                    fb:69:6a:fe:ec:2f:01:b6:e8:5f:18:2d:86:94:9f:
                    c4:74:c6:75:6f:53:23:40:fb
                Exponent: 65537 (0x10001)
        X509v3 extensions:
            X509v3 Basic Constraints: critical
                CA:FALSE
            X509v3 Key Usage: critical
                Digital Signature
    Signature Algorithm: sha256WithRSAEncryption
         9d:dd:15:3b:d6:42:25:b0:2c:71:08:5f:f4:e7:c3:50:d4:c1:
         8f:01:49:f4:9f:80:4e:a2:33:e4:0c:88:9d:45:23:c4:b6:2c:
         df:d4:5a:9d:bd:65:f8:f1:78:c3:23:c7:b3:03:06:a3:19:d6:
         9a:43:c6:d7:32:5f:fa:67:02:fa:cd:44:76:4e:89:ea:d9:20:
         d5:f7:58:4f:62:1d:4f:ea:cd:3e:69:fa:5d:32:f4:12:46:1a:
         e3:c6:38:18:eb:57:90:55:8f:27:a0:02:c4:92:05:c2:49:e6:
         f7:1b:1a:9c:58:82:6e:05:c4:65:7f:0e:6c:b4:dc:62:69:aa:
         bf:8c:0c:75:6c:de:49:0d:a9:c1:cb:06:8c:b3:9b:b5:1b:5c:
         aa:eb:90:04:11:04:6a:23:ad:18:62:2c:8f:46:f0:4f:af:63:
         17:d6:f5:2c:d3:af:21:d4:f3:e1:27:04:46:f7:f5:da:07:bc:
         64:0e:63:c9:7e:03:0f:a4:ea:aa:50:3d:7b:92:94:99:79:cc:
         f6:0d:13:04:de:20:49:62:a7:51:28:f7:e9:5b:e8:af:7f:bc:
         24:98:6a:40:22:74:f1:e2:7d:da:7d:56:97:04:a8:a6:ec:a8:
         f6:6f:93:a8:34:70:fb:ce:ab:d0:9f:e0:a5:f5:f9:99:80:4c:
         ca:5c:96:71
-----BEGIN CERTIFICATE-----
MIIDCTCCAfGgAwIBAgIBITANBgkqhkiG9w0BAQsFADB1MQswCQYDVQQGEwJVUzET
MBEGA1UECAwKQ2FsaWZvcm5pYTEUMBIGA1UEBwwLU2FudGEgQ2xhcmExDTALBgNV
BAoMBHBrZzUxEjAQBgNVBAMMCWNoMS40X3RhMzEYMBYGCSqGSIb3DQEJARYJY2gx
LjRfdGEzMB4XDTE5MDEyMjE1MzMxMloXDTIxMTAxODE1MzMxMlowfTELMAkGA1UE
BhMCVVMxEzARBgNVBAgMCkNhbGlmb3JuaWExFDASBgNVBAcMC1NhbnRhIENsYXJh
MQ0wCwYDVQQKDARwa2c1MRYwFAYDVQQDDA1jczFfY2gxLjRfdGEzMRwwGgYJKoZI
hvcNAQkBFg1jczFfY2gxLjRfdGEzMIGfMA0GCSqGSIb3DQEBAQUAA4GNADCBiQKB
gQDokLPfgOy21X7G9eTZo8tr3t5CLDhz/Y2MH0zpB75EQMGxNYZjTnAxxF5RALtp
+9xb29gPTmKn62r165KrF3mLDWMl4Qh/dodUqkZJc3vS95D0mYH9I5mvsGkZlKdq
2qIP6k8ydl+j1/tpav7sLwG26F8YLYaUn8R0xnVvUyNA+wIDAQABoyAwHjAMBgNV
HRMBAf8EAjAAMA4GA1UdDwEB/wQEAwIHgDANBgkqhkiG9w0BAQsFAAOCAQEAnd0V
O9ZCJbAscQhf9OfDUNTBjwFJ9J+ATqIz5AyInUUjxLYs39Ranb1l+PF4wyPHswMG
oxnWmkPG1zJf+mcC+s1Edk6J6tkg1fdYT2IdT+rNPmn6XTL0EkYa48Y4GOtXkFWP
J6ACxJIFwknm9xsanFiCbgXEZX8ObLTcYmmqv4wMdWzeSQ2pwcsGjLObtRtcquuQ
BBEEaiOtGGIsj0bwT69jF9b1LNOvIdTz4ScERvf12ge8ZA5jyX4DD6TqqlA9e5KU
mXnM9g0TBN4gSWKnUSj36Vvor3+8JJhqQCJ08eJ92n1WlwSopuyo9m+TqDRw+86r
0J/gpfX5mYBMylyWcQ==
-----END CERTIFICATE-----
