Certificate:
    Data:
        Version: 3 (0x2)
        Serial Number: 33 (0x21)
        Signature Algorithm: sha256WithRSAEncryption
        Issuer: C=US, ST=California, L=Menlo Park, O=pkg5, CN=pubCA1_ta4/emailAddress=pubCA1_ta4
        Validity
            Not Before: Jan 28 02:54:24 2011 GMT
            Not After : Oct 24 02:54:24 2013 GMT
        Subject: C=US, ST=California, L=Menlo Park, O=pkg5, CN=cs3_ta4/emailAddress=cs3_ta4
        Subject Public Key Info:
            Public Key Algorithm: rsaEncryption
            RSA Public Key: (1024 bit)
                Modulus (1024 bit):
                    00:df:30:e0:c4:9f:26:44:f8:b3:84:3f:7a:f8:a9:
                    76:a5:47:03:03:2f:c9:56:78:95:3c:0a:57:da:06:
                    2d:45:bf:fd:b3:72:5c:e9:89:44:c7:cd:4e:de:a1:
                    c7:02:33:c2:26:4e:06:34:77:62:5e:85:2f:79:e9:
                    9b:91:de:c2:24:dc:b7:7c:b3:9d:fe:41:66:26:6c:
                    8f:37:31:d1:43:ee:ec:8b:ba:b8:86:38:7a:9d:79:
                    65:ac:f6:ca:fe:a8:ff:36:6a:7c:46:54:80:b7:90:
                    82:fd:87:85:ac:1a:9a:0d:81:2f:f8:fb:4d:d3:72:
                    a3:86:5a:85:0f:21:a2:94:b9
                Exponent: 65537 (0x10001)
        X509v3 extensions:
            X509v3 Subject Key Identifier: 
                11:88:8F:A2:52:4A:58:E7:DF:84:EC:BF:D8:4F:8B:88:81:5A:A4:B0
            X509v3 Authority Key Identifier: 
                keyid:D3:DE:A8:63:F4:5C:5D:8E:DD:53:9F:D7:9E:90:14:71:D1:21:88:4B
                DirName:/C=US/ST=California/L=Menlo Park/O=pkg5/CN=ta4/emailAddress=ta4
                serial:1E

            X509v3 Basic Constraints: critical
                CA:FALSE
            X509v3 CRL Distribution Points: 
                URI:foo://bar/baz

    Signature Algorithm: sha256WithRSAEncryption
        ac:a1:4c:cc:d5:75:ae:d4:85:75:01:b3:f6:a0:88:d0:48:25:
        1b:ca:76:6e:2c:69:df:da:1e:53:89:4e:ed:31:64:a9:a5:96:
        25:63:15:a1:f5:49:fa:a7:21:5e:8d:84:82:75:74:31:0b:24:
        03:2d:c0:96:66:f8:40:fb:a4:ca:de:44:1a:a7:ab:08:27:ea:
        f5:eb:a6:fe:34:a8:8b:61:95:53:51:e7:01:3d:ba:a9:93:be:
        49:71:11:0d:dd:02:b7:97:15:ff:e6:8d:98:58:0d:fb:4d:5c:
        e0:28:db:8e:34:3c:40:14:85:84:2d:38:24:56:2d:5c:5f:ac:
        64:a9
-----BEGIN CERTIFICATE-----
MIIDQjCCAqugAwIBAgIBITANBgkqhkiG9w0BAQsFADB2MQswCQYDVQQGEwJVUzET
MBEGA1UECBMKQ2FsaWZvcm5pYTETMBEGA1UEBxMKTWVubG8gUGFyazENMAsGA1UE
ChMEcGtnNTETMBEGA1UEAxQKcHViQ0ExX3RhNDEZMBcGCSqGSIb3DQEJARYKcHVi
Q0ExX3RhNDAeFw0xMTAxMjgwMjU0MjRaFw0xMzEwMjQwMjU0MjRaMHAxCzAJBgNV
BAYTAlVTMRMwEQYDVQQIEwpDYWxpZm9ybmlhMRMwEQYDVQQHEwpNZW5sbyBQYXJr
MQ0wCwYDVQQKEwRwa2c1MRAwDgYDVQQDFAdjczNfdGE0MRYwFAYJKoZIhvcNAQkB
FgdjczNfdGE0MIGfMA0GCSqGSIb3DQEBAQUAA4GNADCBiQKBgQDfMODEnyZE+LOE
P3r4qXalRwMDL8lWeJU8ClfaBi1Fv/2zclzpiUTHzU7eoccCM8ImTgY0d2JehS95
6ZuR3sIk3Ld8s53+QWYmbI83MdFD7uyLuriGOHqdeWWs9sr+qP82anxGVIC3kIL9
h4WsGpoNgS/4+03TcqOGWoUPIaKUuQIDAQABo4HlMIHiMB0GA1UdDgQWBBQRiI+i
UkpY59+E7L/YT4uIgVqksDCBkgYDVR0jBIGKMIGHgBTT3qhj9Fxdjt1Tn9eekBRx
0SGIS6FspGowaDELMAkGA1UEBhMCVVMxEzARBgNVBAgTCkNhbGlmb3JuaWExEzAR
BgNVBAcTCk1lbmxvIFBhcmsxDTALBgNVBAoTBHBrZzUxDDAKBgNVBAMTA3RhNDES
MBAGCSqGSIb3DQEJARYDdGE0ggEeMAwGA1UdEwEB/wQCMAAwHgYDVR0fBBcwFTAT
oBGgD4YNZm9vOi8vYmFyL2JhejANBgkqhkiG9w0BAQsFAAOBgQCsoUzM1XWu1IV1
AbP2oIjQSCUbynZuLGnf2h5TiU7tMWSppZYlYxWh9Un6pyFejYSCdXQxCyQDLcCW
ZvhA+6TK3kQap6sIJ+r166b+NKiLYZVTUecBPbqpk75JcREN3QK3lxX/5o2YWA37
TVzgKNuONDxAFIWELTgkVi1cX6xkqQ==
-----END CERTIFICATE-----
