Certificate:
    Data:
        Version: 3 (0x2)
        Serial Number: 33 (0x21)
    Signature Algorithm: sha256WithRSAEncryption
        Issuer: C=US, ST=California, L=Santa Clara, O=pkg5, CN=ch1.4_ta3/emailAddress=ch1.4_ta3
        Validity
            Not Before: Jul 19 11:35:49 2023 GMT
            Not After : Apr 14 11:35:49 2026 GMT
        Subject: C=US, ST=California, L=Santa Clara, O=pkg5, CN=cs1_ch1.4_ta3/emailAddress=cs1_ch1.4_ta3
        Subject Public Key Info:
            Public Key Algorithm: rsaEncryption
                Public-Key: (2048 bit)
                Modulus:
                    00:98:39:f3:7d:96:87:39:7f:94:5d:cd:a7:3e:15:
                    d6:7b:c3:70:8a:2c:de:b2:33:13:cc:f5:c6:55:79:
                    62:c3:fb:08:6b:cf:a4:af:47:57:23:43:db:9a:f5:
                    2d:0e:e4:10:c0:48:31:4e:0c:df:65:5c:0d:3a:3e:
                    12:d0:8e:7c:10:a8:19:9d:c6:47:6b:94:51:2b:ac:
                    ba:35:56:67:94:ad:47:3d:4b:fa:77:6e:98:c8:44:
                    36:e3:e7:d9:a5:d1:d1:3b:82:8a:c0:85:cc:6f:ff:
                    3a:3f:56:55:48:55:7a:88:8a:ec:6e:80:38:a9:d6:
                    ec:a5:d4:d4:ae:83:df:bd:a9:ff:df:0b:1a:36:c0:
                    e5:83:77:91:c2:5a:d2:55:4d:04:71:de:98:51:f8:
                    18:77:96:f2:e7:f5:dd:9e:89:a4:9a:23:8b:ed:8e:
                    ce:97:54:96:66:78:08:9e:28:44:fa:0f:e0:56:1d:
                    6f:c5:ea:5c:58:27:bc:f4:b2:f3:5e:0f:1b:b5:c9:
                    3e:99:78:64:30:60:84:f3:b3:91:51:fe:75:87:8a:
                    b8:78:82:a4:b7:9c:66:f3:5d:bb:15:5c:03:71:6c:
                    66:5b:3f:33:75:95:1d:c9:ca:cf:ea:61:09:c8:a2:
                    c3:c4:04:da:eb:95:19:fe:ff:87:03:4e:7a:98:6f:
                    42:07
                Exponent: 65537 (0x10001)
        X509v3 extensions:
            X509v3 Basic Constraints: critical
                CA:FALSE
            X509v3 Key Usage: critical
                Digital Signature
    Signature Algorithm: sha256WithRSAEncryption
         19:31:8c:72:5f:71:d8:8f:18:f7:d5:dd:1f:01:98:a8:e1:35:
         42:8b:c4:e6:05:f0:3b:b8:aa:e7:97:0d:ca:af:e6:50:66:cc:
         b0:55:f3:0c:b3:f4:a8:fb:52:df:27:42:ec:e7:0c:ec:be:9b:
         56:b6:75:28:8d:a3:20:ba:ee:2a:49:a3:9c:eb:78:b0:89:e6:
         f8:7b:3a:c5:19:47:3e:df:28:b5:ee:d1:9f:4e:86:c9:5f:de:
         9d:53:ac:11:df:03:9f:1d:87:95:b8:45:f3:cb:e1:4d:a6:11:
         ab:32:b0:e7:6c:a4:03:2f:18:b9:fb:fa:47:be:3b:19:36:ce:
         e9:c0:90:f7:57:7d:4b:3c:92:5e:3a:02:f1:25:78:16:0a:24:
         bc:3e:62:19:d8:eb:b6:a2:fd:1b:45:05:b7:23:08:38:2a:36:
         ae:e3:07:02:4c:60:87:7f:e0:51:85:6c:64:36:32:ba:08:62:
         13:53:96:6e:bb:85:75:ca:87:3b:b1:84:8e:5f:25:f8:b1:e0:
         d9:1a:86:13:f3:e9:ff:66:ff:13:76:08:a6:44:05:53:2a:a2:
         c8:89:7f:fe:eb:ea:f1:b0:06:b2:8b:3d:8d:fa:d9:65:26:65:
         b0:2b:c6:ae:9d:32:c4:80:a2:e5:f2:32:7a:cc:7a:a3:d7:84:
         c9:e8:73:ef
-----BEGIN CERTIFICATE-----
MIIDjTCCAnWgAwIBAgIBITANBgkqhkiG9w0BAQsFADB1MQswCQYDVQQGEwJVUzET
MBEGA1UECAwKQ2FsaWZvcm5pYTEUMBIGA1UEBwwLU2FudGEgQ2xhcmExDTALBgNV
BAoMBHBrZzUxEjAQBgNVBAMMCWNoMS40X3RhMzEYMBYGCSqGSIb3DQEJARYJY2gx
LjRfdGEzMB4XDTIzMDcxOTExMzU0OVoXDTI2MDQxNDExMzU0OVowfTELMAkGA1UE
BhMCVVMxEzARBgNVBAgMCkNhbGlmb3JuaWExFDASBgNVBAcMC1NhbnRhIENsYXJh
MQ0wCwYDVQQKDARwa2c1MRYwFAYDVQQDDA1jczFfY2gxLjRfdGEzMRwwGgYJKoZI
hvcNAQkBFg1jczFfY2gxLjRfdGEzMIIBIjANBgkqhkiG9w0BAQEFAAOCAQ8AMIIB
CgKCAQEAmDnzfZaHOX+UXc2nPhXWe8NwiizesjMTzPXGVXliw/sIa8+kr0dXI0Pb
mvUtDuQQwEgxTgzfZVwNOj4S0I58EKgZncZHa5RRK6y6NVZnlK1HPUv6d26YyEQ2
4+fZpdHRO4KKwIXMb/86P1ZVSFV6iIrsboA4qdbspdTUroPfvan/3wsaNsDlg3eR
wlrSVU0Ecd6YUfgYd5by5/XdnomkmiOL7Y7Ol1SWZngInihE+g/gVh1vxepcWCe8
9LLzXg8btck+mXhkMGCE87ORUf51h4q4eIKkt5xm8127FVwDcWxmWz8zdZUdycrP
6mEJyKLDxATa65UZ/v+HA056mG9CBwIDAQABoyAwHjAMBgNVHRMBAf8EAjAAMA4G
A1UdDwEB/wQEAwIHgDANBgkqhkiG9w0BAQsFAAOCAQEAGTGMcl9x2I8Y99XdHwGY
qOE1QovE5gXwO7iq55cNyq/mUGbMsFXzDLP0qPtS3ydC7OcM7L6bVrZ1KI2jILru
KkmjnOt4sInm+Hs6xRlHPt8ote7Rn06GyV/enVOsEd8Dnx2HlbhF88vhTaYRqzKw
52ykAy8Yufv6R747GTbO6cCQ91d9SzySXjoC8SV4FgokvD5iGdjrtqL9G0UFtyMI
OCo2ruMHAkxgh3/gUYVsZDYyughiE1OWbruFdcqHO7GEjl8l+LHg2RqGE/Pp/2b/
E3YIpkQFUyqiyIl//uvq8bAGsos9jfrZZSZlsCvGrp0yxICi5fIyesx6o9eEyehz
7w==
-----END CERTIFICATE-----
