Certificate:
    Data:
        Version: 3 (0x2)
        Serial Number: 33 (0x21)
    Signature Algorithm: sha256WithRSAEncryption
        Issuer: C=US, ST=California, L=Santa Clara, O=pkg5, CN=ch1.4_ta3/emailAddress=ch1.4_ta3
        Validity
            Not Before: Sep 22 05:33:29 2021 GMT
            Not After : Jun 18 05:33:29 2024 GMT
        Subject: C=US, ST=California, L=Santa Clara, O=pkg5, CN=cs1_ch1.4_ta3/emailAddress=cs1_ch1.4_ta3
        Subject Public Key Info:
            Public Key Algorithm: rsaEncryption
                Public-Key: (1024 bit)
                Modulus:
                    00:c4:60:13:9a:30:55:d3:64:14:9a:81:f1:af:73:
                    e2:af:61:71:bc:bb:f2:33:52:8d:3c:da:f5:04:b6:
                    af:66:fc:02:10:98:2c:98:44:de:65:cf:d9:98:4f:
                    90:86:e1:74:e8:77:f2:b5:f6:10:4a:8e:e4:48:6b:
                    32:6d:b9:18:5f:3c:06:59:75:c3:69:c2:af:90:80:
                    e5:dc:3b:fa:e6:c9:31:c7:7e:3f:77:16:cb:c3:13:
                    fc:44:4f:88:f4:35:ee:86:c5:bb:2c:47:f1:fe:0f:
                    d8:ae:a1:23:c0:e8:fe:41:4c:67:13:78:40:53:ac:
                    43:b4:85:33:fc:86:00:d2:bd
                Exponent: 65537 (0x10001)
        X509v3 extensions:
            X509v3 Basic Constraints: critical
                CA:FALSE
            X509v3 Key Usage: critical
                Digital Signature
    Signature Algorithm: sha256WithRSAEncryption
         a2:6e:47:90:9c:07:37:15:13:7e:11:76:f1:03:a6:09:e8:22:
         fc:83:33:a2:88:2f:4a:cd:a5:2d:96:8f:83:57:ca:aa:07:0d:
         4e:82:42:9e:a1:4e:bb:8e:4a:a4:7e:5e:32:88:38:24:12:67:
         b9:8b:33:1f:8b:06:e1:71:a1:82:64:b7:ff:9a:8c:ac:40:eb:
         e8:eb:70:04:70:52:6e:6d:18:07:ba:cd:75:b6:a3:39:50:f9:
         fc:a5:e6:f9:3d:69:67:ef:23:18:9a:53:13:ba:d9:c3:ce:cf:
         ae:7a:9b:fb:dd:3c:64:90:bc:b9:41:f2:07:d9:44:48:26:66:
         ef:46:9f:19:ef:2f:ca:1d:78:d7:07:f9:18:85:34:c9:7f:f2:
         3d:d4:ff:33:1b:4e:a5:9d:b3:60:05:52:5d:4f:ea:7e:ea:3d:
         b9:4c:d1:c7:31:11:94:c2:b8:7a:f0:cc:a0:90:4f:ba:a4:1e:
         5d:9b:52:62:d9:fb:c8:6c:ff:c9:2e:e3:e0:57:c4:57:33:d1:
         31:1e:cd:62:01:d4:55:1b:6f:8e:9e:c9:df:ca:4c:2a:5e:4d:
         de:32:63:e4:05:a7:64:66:38:39:1a:e9:93:ff:c1:76:04:52:
         2e:59:8c:9f:63:17:1b:30:c5:57:61:57:2a:53:d8:9e:f7:b7:
         a5:c6:ce:96
-----BEGIN CERTIFICATE-----
MIIDCTCCAfGgAwIBAgIBITANBgkqhkiG9w0BAQsFADB1MQswCQYDVQQGEwJVUzET
MBEGA1UECAwKQ2FsaWZvcm5pYTEUMBIGA1UEBwwLU2FudGEgQ2xhcmExDTALBgNV
BAoMBHBrZzUxEjAQBgNVBAMMCWNoMS40X3RhMzEYMBYGCSqGSIb3DQEJARYJY2gx
LjRfdGEzMB4XDTIxMDkyMjA1MzMyOVoXDTI0MDYxODA1MzMyOVowfTELMAkGA1UE
BhMCVVMxEzARBgNVBAgMCkNhbGlmb3JuaWExFDASBgNVBAcMC1NhbnRhIENsYXJh
MQ0wCwYDVQQKDARwa2c1MRYwFAYDVQQDDA1jczFfY2gxLjRfdGEzMRwwGgYJKoZI
hvcNAQkBFg1jczFfY2gxLjRfdGEzMIGfMA0GCSqGSIb3DQEBAQUAA4GNADCBiQKB
gQDEYBOaMFXTZBSagfGvc+KvYXG8u/IzUo082vUEtq9m/AIQmCyYRN5lz9mYT5CG
4XTod/K19hBKjuRIazJtuRhfPAZZdcNpwq+QgOXcO/rmyTHHfj93FsvDE/xET4j0
Ne6GxbssR/H+D9iuoSPA6P5BTGcTeEBTrEO0hTP8hgDSvQIDAQABoyAwHjAMBgNV
HRMBAf8EAjAAMA4GA1UdDwEB/wQEAwIHgDANBgkqhkiG9w0BAQsFAAOCAQEAom5H
kJwHNxUTfhF28QOmCegi/IMzoogvSs2lLZaPg1fKqgcNToJCnqFOu45KpH5eMog4
JBJnuYszH4sG4XGhgmS3/5qMrEDr6OtwBHBSbm0YB7rNdbajOVD5/KXm+T1pZ+8j
GJpTE7rZw87Prnqb+908ZJC8uUHyB9lESCZm70afGe8vyh141wf5GIU0yX/yPdT/
MxtOpZ2zYAVSXU/qfuo9uUzRxzERlMK4evDMoJBPuqQeXZtSYtn7yGz/yS7j4FfE
VzPRMR7NYgHUVRtvjp7J38pMKl5N3jJj5AWnZGY4ORrpk//BdgRSLlmMn2MXGzDF
V2FXKlPYnve3pcbOlg==
-----END CERTIFICATE-----
