Certificate:
    Data:
        Version: 3 (0x2)
        Serial Number: 34 (0x22)
    Signature Algorithm: sha256WithRSAEncryption
        Issuer: C=US, ST=California, L=Santa Clara, O=pkg5, CN=ch1.4_ta3/emailAddress=ch1.4_ta3
        Validity
            Not Before: Jan 22 01:57:58 2016 GMT
            Not After : Oct 18 01:57:58 2018 GMT
        Subject: C=US, ST=California, L=Santa Clara, O=pkg5, CN=cs1_ch1.4_ta3/emailAddress=cs1_ch1.4_ta3
        Subject Public Key Info:
            Public Key Algorithm: rsaEncryption
                Public-Key: (1024 bit)
                Modulus:
                    00:9b:79:d3:26:3a:19:88:c8:0f:f9:f2:9b:7b:05:
                    b7:35:92:0f:bb:2a:86:c3:09:56:46:06:49:96:aa:
                    1e:d3:dd:82:7a:d4:48:73:10:ed:84:05:4c:80:48:
                    04:a6:40:a9:00:26:80:44:ab:c0:a5:c3:b6:62:29:
                    ab:a1:c4:98:92:ed:9c:ef:8b:eb:f8:20:82:02:2e:
                    b0:fb:7c:f4:14:83:fb:cd:63:a0:ee:ac:b3:87:03:
                    43:b4:0a:b2:d2:31:90:3e:d9:e1:c7:b6:5e:07:d0:
                    76:e1:6b:18:f2:5f:1d:18:1d:66:82:76:26:0d:79:
                    d2:cd:33:65:1f:c2:a1:3a:77
                Exponent: 65537 (0x10001)
        X509v3 extensions:
            X509v3 Basic Constraints: critical
                CA:FALSE
            X509v3 Key Usage: critical
                Digital Signature
    Signature Algorithm: sha256WithRSAEncryption
         3d:5e:84:bd:77:2a:ea:28:5e:54:10:ab:5f:c6:78:9a:95:11:
         68:da:dc:c1:a0:26:5e:33:a4:e0:67:5a:38:dc:0e:7a:6e:8d:
         86:d7:2a:b0:27:df:ac:aa:14:d2:69:00:ce:52:c5:d3:d9:9c:
         b6:05:79:a2:db:37:cd:96:06:20:b4:ac:8c:85:c7:02:ba:cc:
         52:67:47:9d:fe:02:82:63:24:cb:6b:62:5a:f9:33:cb:90:0c:
         29:6c:1b:94:90:9b:6c:f3:0f:91:c7:7a:58:6c:fa:29:77:c2:
         fa:39:d0:bf:4a:e4:e8:20:40:39:29:f8:99:2e:35:e6:18:7f:
         dc:a5:34:a5:cf:c2:a4:fc:01:c0:ba:c2:00:56:28:a5:17:8f:
         d8:9b:e2:b3:a2:12:df:89:ad:8c:71:8d:00:b3:9b:57:e4:4f:
         e8:85:ec:cc:9b:e9:cb:31:06:00:7a:c8:4e:df:e1:a8:91:ed:
         07:0b:0d:d2:79:15:0c:b8:dc:1b:ab:a3:f4:bb:8e:36:2b:31:
         c5:47:98:73:8f:a4:12:31:aa:84:a2:28:29:bc:1a:41:13:75:
         56:f3:8c:7a:18:9d:44:57:15:c8:a0:e5:00:eb:03:67:b6:ce:
         62:44:1d:45:34:e8:f0:d4:dd:25:28:ae:65:d4:a6:54:11:eb:
         94:ef:41:90
-----BEGIN CERTIFICATE-----
MIIDCTCCAfGgAwIBAgIBIjANBgkqhkiG9w0BAQsFADB1MQswCQYDVQQGEwJVUzET
MBEGA1UECAwKQ2FsaWZvcm5pYTEUMBIGA1UEBwwLU2FudGEgQ2xhcmExDTALBgNV
BAoMBHBrZzUxEjAQBgNVBAMMCWNoMS40X3RhMzEYMBYGCSqGSIb3DQEJARYJY2gx
LjRfdGEzMB4XDTE2MDEyMjAxNTc1OFoXDTE4MTAxODAxNTc1OFowfTELMAkGA1UE
BhMCVVMxEzARBgNVBAgMCkNhbGlmb3JuaWExFDASBgNVBAcMC1NhbnRhIENsYXJh
MQ0wCwYDVQQKDARwa2c1MRYwFAYDVQQDDA1jczFfY2gxLjRfdGEzMRwwGgYJKoZI
hvcNAQkBFg1jczFfY2gxLjRfdGEzMIGfMA0GCSqGSIb3DQEBAQUAA4GNADCBiQKB
gQCbedMmOhmIyA/58pt7Bbc1kg+7KobDCVZGBkmWqh7T3YJ61EhzEO2EBUyASASm
QKkAJoBEq8Clw7ZiKauhxJiS7Zzvi+v4IIICLrD7fPQUg/vNY6DurLOHA0O0CrLS
MZA+2eHHtl4H0HbhaxjyXx0YHWaCdiYNedLNM2UfwqE6dwIDAQABoyAwHjAMBgNV
HRMBAf8EAjAAMA4GA1UdDwEB/wQEAwIHgDANBgkqhkiG9w0BAQsFAAOCAQEAPV6E
vXcq6iheVBCrX8Z4mpURaNrcwaAmXjOk4GdaONwOem6NhtcqsCffrKoU0mkAzlLF
09mctgV5ots3zZYGILSsjIXHArrMUmdHnf4CgmMky2tiWvkzy5AMKWwblJCbbPMP
kcd6WGz6KXfC+jnQv0rk6CBAOSn4mS415hh/3KU0pc/CpPwBwLrCAFYopReP2Jvi
s6IS34mtjHGNALObV+RP6IXszJvpyzEGAHrITt/hqJHtBwsN0nkVDLjcG6uj9LuO
NisxxUeYc4+kEjGqhKIoKbwaQRN1VvOMehidRFcVyKDlAOsDZ7bOYkQdRTTo8NTd
JSiuZdSmVBHrlO9BkA==
-----END CERTIFICATE-----
