Certificate:
    Data:
        Version: 3 (0x2)
        Serial Number: 35 (0x23)
    Signature Algorithm: sha256WithRSAEncryption
        Issuer: C=US, ST=California, L=Santa Clara, O=pkg5, CN=ch1_ta4/emailAddress=ch1_ta4
        Validity
            Not Before: Jul 19 11:35:50 2023 GMT
            Not After : Apr 14 11:35:50 2026 GMT
        Subject: C=US, ST=California, L=Santa Clara, O=pkg5, CN=cs1_ch1_ta4/emailAddress=cs1_ch1_ta4
        Subject Public Key Info:
            Public Key Algorithm: rsaEncryption
                Public-Key: (2048 bit)
                Modulus:
                    00:ca:06:2f:cf:a2:bc:31:2e:4d:ff:6e:62:6a:8e:
                    cd:4d:08:8c:7f:3f:a9:86:2b:b6:a2:27:29:1c:3e:
                    72:d2:3e:42:37:18:51:f2:0f:98:56:02:36:33:1e:
                    43:01:c5:95:08:ad:e5:75:1c:a6:de:a6:dd:a5:7a:
                    eb:ec:e6:d3:89:dc:a7:c8:65:ce:c3:ef:f4:a5:8c:
                    30:d5:57:c7:6d:da:88:8f:a0:48:d6:0f:b2:d1:ed:
                    a2:36:2e:74:81:86:ba:cf:32:85:fc:c1:c0:5b:b0:
                    cd:e4:60:08:e7:a3:35:e0:6e:bf:14:1a:a8:22:21:
                    52:0d:79:a7:24:1e:3c:92:f6:65:88:38:a7:27:72:
                    c9:76:f9:7b:05:d7:70:0a:fa:b4:18:64:61:a3:f5:
                    ec:21:23:0b:0c:38:0f:bf:32:cb:67:52:3f:f7:2e:
                    ae:fd:0c:e7:c6:e6:cd:14:d5:c8:38:ae:cc:99:b9:
                    b4:08:53:c3:58:31:38:8d:22:b5:e6:95:55:ca:0c:
                    47:49:f7:01:aa:1b:71:e2:2b:71:44:ca:e3:89:f5:
                    a6:75:0a:4f:62:5a:9e:d6:ed:a6:b8:87:7f:51:6f:
                    80:36:f8:e1:2d:5d:0f:bb:91:38:d1:ac:25:d4:89:
                    ba:40:b5:35:ee:ca:c4:3a:c6:88:f8:18:87:c9:39:
                    d8:57
                Exponent: 65537 (0x10001)
        X509v3 extensions:
            X509v3 Basic Constraints: critical
                CA:FALSE
            X509v3 CRL Distribution Points: 

                Full Name:
                  URI:http://localhost:12001/file/0/ch1_ta4_crl.pem

    Signature Algorithm: sha256WithRSAEncryption
         90:33:8b:0f:4a:c5:07:08:51:b8:c3:fa:28:ad:3e:af:d0:a5:
         d9:69:15:24:66:f7:31:d6:2d:2d:88:88:17:0b:63:3d:26:3d:
         63:01:9b:96:f6:c2:6c:ff:71:53:aa:ac:4d:63:b3:a8:a9:a1:
         8b:9f:89:34:aa:b8:1c:de:d1:4d:fc:9b:34:f9:9e:5b:84:c7:
         5b:be:aa:5e:b1:32:d0:3b:34:6c:8b:8d:da:d2:51:fd:4a:1b:
         2c:f1:f1:0f:40:f2:60:a3:d6:aa:19:f2:c1:a4:45:b6:d4:d8:
         b0:6f:83:74:57:5a:06:e3:3c:38:7f:17:c0:bd:76:21:94:b7:
         82:94:f9:2f:14:78:46:fb:45:db:d7:36:b0:54:3d:d8:0f:86:
         ee:a1:4d:1c:1c:76:4e:a4:08:a0:c1:57:8a:b8:d9:3a:9d:19:
         5f:22:9e:e3:d8:a3:71:d5:ab:1d:3b:01:dc:30:1b:a4:c3:7f:
         fb:40:5b:90:13:8e:98:ac:79:51:68:54:3c:99:9a:f0:86:86:
         6c:7b:0d:54:c1:4a:6e:e6:ff:9a:06:b8:62:67:15:b2:9d:12:
         c1:da:4b:24:25:7f:fd:84:eb:4c:cc:ae:0c:8e:8f:e3:1f:29:
         ef:a0:d3:63:bb:81:16:dc:2c:2a:2d:29:81:30:96:0f:dd:7f:
         d1:d5:9b:1b
-----BEGIN CERTIFICATE-----
MIIDtTCCAp2gAwIBAgIBIzANBgkqhkiG9w0BAQsFADBxMQswCQYDVQQGEwJVUzET
MBEGA1UECAwKQ2FsaWZvcm5pYTEUMBIGA1UEBwwLU2FudGEgQ2xhcmExDTALBgNV
BAoMBHBrZzUxEDAOBgNVBAMMB2NoMV90YTQxFjAUBgkqhkiG9w0BCQEWB2NoMV90
YTQwHhcNMjMwNzE5MTEzNTUwWhcNMjYwNDE0MTEzNTUwWjB5MQswCQYDVQQGEwJV
UzETMBEGA1UECAwKQ2FsaWZvcm5pYTEUMBIGA1UEBwwLU2FudGEgQ2xhcmExDTAL
BgNVBAoMBHBrZzUxFDASBgNVBAMMC2NzMV9jaDFfdGE0MRowGAYJKoZIhvcNAQkB
FgtjczFfY2gxX3RhNDCCASIwDQYJKoZIhvcNAQEBBQADggEPADCCAQoCggEBAMoG
L8+ivDEuTf9uYmqOzU0IjH8/qYYrtqInKRw+ctI+QjcYUfIPmFYCNjMeQwHFlQit
5XUcpt6m3aV66+zm04ncp8hlzsPv9KWMMNVXx23aiI+gSNYPstHtojYudIGGus8y
hfzBwFuwzeRgCOejNeBuvxQaqCIhUg15pyQePJL2ZYg4pydyyXb5ewXXcAr6tBhk
YaP17CEjCww4D78yy2dSP/curv0M58bmzRTVyDiuzJm5tAhTw1gxOI0iteaVVcoM
R0n3AaobceIrcUTK44n1pnUKT2JantbtpriHf1FvgDb44S1dD7uRONGsJdSJukC1
Ne7KxDrGiPgYh8k52FcCAwEAAaNQME4wDAYDVR0TAQH/BAIwADA+BgNVHR8ENzA1
MDOgMaAvhi1odHRwOi8vbG9jYWxob3N0OjEyMDAxL2ZpbGUvMC9jaDFfdGE0X2Ny
bC5wZW0wDQYJKoZIhvcNAQELBQADggEBAJAziw9KxQcIUbjD+iitPq/QpdlpFSRm
9zHWLS2IiBcLYz0mPWMBm5b2wmz/cVOqrE1js6ipoYufiTSquBze0U38mzT5nluE
x1u+ql6xMtA7NGyLjdrSUf1KGyzx8Q9A8mCj1qoZ8sGkRbbU2LBvg3RXWgbjPDh/
F8C9diGUt4KU+S8UeEb7RdvXNrBUPdgPhu6hTRwcdk6kCKDBV4q42TqdGV8inuPY
o3HVqx07AdwwG6TDf/tAW5ATjpiseVFoVDyZmvCGhmx7DVTBSm7m/5oGuGJnFbKd
EsHaSyQlf/2E60zMrgyOj+MfKe+g02O7gRbcLCotKYEwlg/df9HVmxs=
-----END CERTIFICATE-----
