Certificate:
    Data:
        Version: 3 (0x2)
        Serial Number: 35 (0x23)
        Signature Algorithm: sha256WithRSAEncryption
        Issuer: C=US, ST=California, L=Santa Clara, O=pkg5, CN=ch1_ta4/emailAddress=ch1_ta4
        Validity
            Not Before: Mar 18 08:51:42 2026 GMT
            Not After : Dec 12 08:51:42 2028 GMT
        Subject: C=US, ST=California, L=Santa Clara, O=pkg5, CN=cs1_ch1_ta4/emailAddress=cs1_ch1_ta4
        Subject Public Key Info:
            Public Key Algorithm: rsaEncryption
                Public-Key: (2048 bit)
                Modulus:
                    00:b8:3b:e2:da:5b:b5:12:53:3b:43:f2:93:0f:df:
                    a6:96:92:08:7a:93:d1:bf:f1:26:cb:db:9e:6a:07:
                    02:97:04:fc:8e:5c:81:d7:8d:b0:dc:48:d5:e3:da:
                    4d:b7:e9:50:39:d2:43:11:31:e2:fd:8b:0b:85:1c:
                    c7:5c:99:f6:06:7e:89:69:f1:06:b6:03:90:da:10:
                    f2:21:ba:94:ef:31:70:e9:bb:51:a5:36:ca:58:78:
                    84:80:26:de:4f:e8:a0:c8:16:d8:cc:cf:0b:1a:e6:
                    91:9b:ce:09:f2:36:aa:97:ec:c1:93:cc:48:4d:76:
                    ea:e2:c4:e5:0b:75:95:84:30:f1:39:c1:1e:b3:54:
                    ea:c9:11:bf:46:50:23:e6:5a:ff:7d:a6:6a:58:88:
                    0f:c3:50:90:ab:40:3f:a7:91:c4:97:65:cd:2c:b8:
                    9d:0e:78:ad:30:74:70:ed:3c:51:57:cf:b4:f9:83:
                    41:66:3e:db:20:1d:85:c1:be:af:43:73:c4:67:4d:
                    07:05:45:d1:46:e2:1d:1b:dc:cc:43:24:65:de:b1:
                    20:95:3b:ef:e6:f0:95:43:3c:44:55:d0:4b:66:86:
                    b2:d1:33:6e:8b:cc:e5:5e:f1:fb:5f:63:50:d6:fc:
                    1b:28:fa:05:77:a8:60:1c:1a:1a:26:d6:3e:91:62:
                    5f:bd
                Exponent: 65537 (0x10001)
        X509v3 extensions:
            X509v3 Basic Constraints: critical
                CA:FALSE
            X509v3 CRL Distribution Points: 
                Full Name:
                  URI:http://localhost:12001/file/0/ch1_ta4_crl.pem
            X509v3 Subject Key Identifier: 
                BA:41:DB:0A:DA:13:D9:F0:7E:53:39:FE:73:A4:4E:B8:FD:0A:45:B8
            X509v3 Authority Key Identifier: 
                85:4B:6A:83:21:30:D9:83:25:BA:5C:5A:91:81:AE:95:B1:27:64:46
    Signature Algorithm: sha256WithRSAEncryption
    Signature Value:
        58:c7:52:0b:5c:26:a8:3f:24:f9:f6:ae:53:cd:89:b6:af:b6:
        bc:9f:5a:54:51:ea:6b:0b:6e:29:cf:6c:2f:ab:da:4a:34:cc:
        d4:1f:03:36:e9:aa:0d:2d:1e:1e:16:79:bd:39:dd:40:09:c5:
        92:a8:6c:5e:17:6a:69:3a:33:48:2e:4b:6d:c3:2d:4c:a5:fa:
        7a:ac:8c:48:c0:44:74:c6:aa:ad:e9:02:7a:d4:f2:15:46:f2:
        5e:8b:c4:d0:6a:ce:7c:55:d2:22:db:d5:9f:8b:5e:2b:53:05:
        8b:e2:ec:f3:05:f3:cb:e9:90:09:40:b3:09:06:bf:37:2b:3a:
        d1:c8:6a:fd:3e:ce:dc:82:68:89:74:b0:1c:a2:93:a4:81:f7:
        fe:15:ee:6a:5a:6d:06:83:08:d0:01:27:fd:d8:c7:cd:35:a1:
        eb:1b:5e:3e:b9:6e:4f:fe:d8:da:49:06:2f:4f:c2:ea:31:12:
        6d:77:90:4e:ac:2f:c4:4a:eb:83:86:79:20:0f:35:74:c5:83:
        63:dd:c1:f2:a2:c4:9a:00:50:aa:6c:93:5d:10:6b:00:37:1d:
        09:98:48:ec:18:b1:90:b9:0e:72:2a:84:cc:81:49:49:f6:5c:
        6e:8d:be:a0:47:1c:96:00:d6:00:05:a9:00:73:45:e5:28:b8:
        e6:1b:a2:0c
-----BEGIN CERTIFICATE-----
MIID9zCCAt+gAwIBAgIBIzANBgkqhkiG9w0BAQsFADBxMQswCQYDVQQGEwJVUzET
MBEGA1UECAwKQ2FsaWZvcm5pYTEUMBIGA1UEBwwLU2FudGEgQ2xhcmExDTALBgNV
BAoMBHBrZzUxEDAOBgNVBAMMB2NoMV90YTQxFjAUBgkqhkiG9w0BCQEWB2NoMV90
YTQwHhcNMjYwMzE4MDg1MTQyWhcNMjgxMjEyMDg1MTQyWjB5MQswCQYDVQQGEwJV
UzETMBEGA1UECAwKQ2FsaWZvcm5pYTEUMBIGA1UEBwwLU2FudGEgQ2xhcmExDTAL
BgNVBAoMBHBrZzUxFDASBgNVBAMMC2NzMV9jaDFfdGE0MRowGAYJKoZIhvcNAQkB
FgtjczFfY2gxX3RhNDCCASIwDQYJKoZIhvcNAQEBBQADggEPADCCAQoCggEBALg7
4tpbtRJTO0Pykw/fppaSCHqT0b/xJsvbnmoHApcE/I5cgdeNsNxI1ePaTbfpUDnS
QxEx4v2LC4Ucx1yZ9gZ+iWnxBrYDkNoQ8iG6lO8xcOm7UaU2ylh4hIAm3k/ooMgW
2MzPCxrmkZvOCfI2qpfswZPMSE126uLE5Qt1lYQw8TnBHrNU6skRv0ZQI+Za/32m
aliID8NQkKtAP6eRxJdlzSy4nQ54rTB0cO08UVfPtPmDQWY+2yAdhcG+r0NzxGdN
BwVF0UbiHRvczEMkZd6xIJU77+bwlUM8RFXQS2aGstEzbovM5V7x+19jUNb8Gyj6
BXeoYBwaGibWPpFiX70CAwEAAaOBkTCBjjAMBgNVHRMBAf8EAjAAMD4GA1UdHwQ3
MDUwM6AxoC+GLWh0dHA6Ly9sb2NhbGhvc3Q6MTIwMDEvZmlsZS8wL2NoMV90YTRf
Y3JsLnBlbTAdBgNVHQ4EFgQUukHbCtoT2fB+Uzn+c6ROuP0KRbgwHwYDVR0jBBgw
FoAUhUtqgyEw2YMlulxakYGulbEnZEYwDQYJKoZIhvcNAQELBQADggEBAFjHUgtc
Jqg/JPn2rlPNibavtryfWlRR6msLbinPbC+r2ko0zNQfAzbpqg0tHh4Web053UAJ
xZKobF4Xamk6M0guS23DLUyl+nqsjEjARHTGqq3pAnrU8hVG8l6LxNBqznxV0iLb
1Z+LXitTBYvi7PMF88vpkAlAswkGvzcrOtHIav0+ztyCaIl0sByik6SB9/4V7mpa
bQaDCNABJ/3Yx801oesbXj65bk/+2NpJBi9PwuoxEm13kE6sL8RK64OGeSAPNXTF
g2PdwfKixJoAUKpsk10QawA3HQmYSOwYsZC5DnIqhMyBSUn2XG6NvqBHHJYA1gAF
qQBzReUouOYbogw=
-----END CERTIFICATE-----
