Certificate:
    Data:
        Version: 3 (0x2)
        Serial Number: 35 (0x23)
    Signature Algorithm: sha256WithRSAEncryption
        Issuer: C=US, ST=California, L=Santa Clara, O=pkg5, CN=ch1_ta4/emailAddress=ch1_ta4
        Validity
            Not Before: Jan 22 15:33:13 2019 GMT
            Not After : Oct 18 15:33:13 2021 GMT
        Subject: C=US, ST=California, L=Santa Clara, O=pkg5, CN=cs1_ch1_ta4/emailAddress=cs1_ch1_ta4
        Subject Public Key Info:
            Public Key Algorithm: rsaEncryption
                Public-Key: (1024 bit)
                Modulus:
                    00:d1:e9:15:3c:5c:4c:14:63:6a:42:e5:79:93:64:
                    6b:37:27:83:61:ca:17:24:0e:b1:07:b1:11:7b:89:
                    49:2e:5e:a9:d6:ca:2b:7a:73:2a:45:54:f2:81:2a:
                    29:ba:5e:59:10:a4:a3:84:f1:4e:ab:72:54:61:d1:
                    04:9b:6e:5e:84:10:d1:03:4e:a6:d6:63:5a:27:fc:
                    73:6a:58:a6:65:33:7b:ac:6b:60:32:5f:33:ce:fc:
                    4a:a9:f6:fa:67:44:32:0c:20:cc:a6:75:bd:86:d5:
                    17:83:6a:43:ae:f0:48:3d:ca:80:6f:22:89:77:f6:
                    bd:e5:b2:29:82:ed:76:11:91
                Exponent: 65537 (0x10001)
        X509v3 extensions:
            X509v3 Basic Constraints: critical
                CA:FALSE
            X509v3 CRL Distribution Points: 

                Full Name:
                  URI:http://localhost:12001/file/0/ch1_ta4_crl.pem

    Signature Algorithm: sha256WithRSAEncryption
         5e:98:9b:17:7f:ec:4b:c0:8c:3e:71:22:2f:b2:1a:7f:23:dd:
         a3:4f:15:d7:49:03:fe:a5:aa:9d:31:f7:88:a4:5f:3e:a3:33:
         72:a5:b0:0c:a3:27:5c:21:cd:eb:c9:77:aa:10:a5:2e:99:c5:
         f1:18:46:bb:86:ee:89:fc:9c:60:14:59:75:46:41:e3:de:be:
         04:54:46:6c:fb:60:93:13:8a:8e:7a:16:80:79:1b:d2:6a:2a:
         cb:54:05:33:22:7b:88:5e:a4:9a:4d:08:dc:ae:75:b1:ad:0b:
         b9:3f:53:50:94:3c:27:1b:7e:69:ae:83:6b:14:2a:80:82:ca:
         3f:0d:57:76:03:4c:c2:cb:f9:fd:73:70:f3:6e:a6:5b:aa:a4:
         43:52:eb:0b:7e:ae:f1:60:a6:d7:96:16:13:0e:a8:88:e0:7e:
         d8:00:cd:02:90:18:5b:e3:da:c4:82:65:39:a8:71:f7:df:1c:
         15:a9:6e:a8:78:67:3b:7f:ea:00:04:ae:17:87:10:fd:ce:41:
         41:90:ff:d2:05:a5:58:a7:40:4c:7a:36:6d:05:1d:86:dd:4f:
         cb:70:0d:f0:35:16:73:b1:e2:2e:93:f3:41:6a:18:c4:2d:63:
         44:d0:8d:08:e7:6c:5a:42:e0:69:3d:3e:14:7b:6f:67:42:70:
         3c:c1:9a:e1
-----BEGIN CERTIFICATE-----
MIIDMTCCAhmgAwIBAgIBIzANBgkqhkiG9w0BAQsFADBxMQswCQYDVQQGEwJVUzET
MBEGA1UECAwKQ2FsaWZvcm5pYTEUMBIGA1UEBwwLU2FudGEgQ2xhcmExDTALBgNV
BAoMBHBrZzUxEDAOBgNVBAMMB2NoMV90YTQxFjAUBgkqhkiG9w0BCQEWB2NoMV90
YTQwHhcNMTkwMTIyMTUzMzEzWhcNMjExMDE4MTUzMzEzWjB5MQswCQYDVQQGEwJV
UzETMBEGA1UECAwKQ2FsaWZvcm5pYTEUMBIGA1UEBwwLU2FudGEgQ2xhcmExDTAL
BgNVBAoMBHBrZzUxFDASBgNVBAMMC2NzMV9jaDFfdGE0MRowGAYJKoZIhvcNAQkB
FgtjczFfY2gxX3RhNDCBnzANBgkqhkiG9w0BAQEFAAOBjQAwgYkCgYEA0ekVPFxM
FGNqQuV5k2RrNyeDYcoXJA6xB7ERe4lJLl6p1sorenMqRVTygSopul5ZEKSjhPFO
q3JUYdEEm25ehBDRA06m1mNaJ/xzalimZTN7rGtgMl8zzvxKqfb6Z0QyDCDMpnW9
htUXg2pDrvBIPcqAbyKJd/a95bIpgu12EZECAwEAAaNQME4wDAYDVR0TAQH/BAIw
ADA+BgNVHR8ENzA1MDOgMaAvhi1odHRwOi8vbG9jYWxob3N0OjEyMDAxL2ZpbGUv
MC9jaDFfdGE0X2NybC5wZW0wDQYJKoZIhvcNAQELBQADggEBAF6Ymxd/7EvAjD5x
Ii+yGn8j3aNPFddJA/6lqp0x94ikXz6jM3KlsAyjJ1whzevJd6oQpS6ZxfEYRruG
7on8nGAUWXVGQePevgRURmz7YJMTio56FoB5G9JqKstUBTMie4hepJpNCNyudbGt
C7k/U1CUPCcbfmmug2sUKoCCyj8NV3YDTMLL+f1zcPNupluqpENS6wt+rvFgpteW
FhMOqIjgftgAzQKQGFvj2sSCZTmocfffHBWpbqh4Zzt/6gAErheHEP3OQUGQ/9IF
pVinQEx6Nm0FHYbdT8twDfA1FnOx4i6T80FqGMQtY0TQjQjnbFpC4Gk9PhR7b2dC
cDzBmuE=
-----END CERTIFICATE-----
