Certificate:
    Data:
        Version: 3 (0x2)
        Serial Number: 35 (0x23)
    Signature Algorithm: sha256WithRSAEncryption
        Issuer: C=US, ST=California, L=Santa Clara, O=pkg5, CN=ch1_ta4/emailAddress=ch1_ta4
        Validity
            Not Before: Sep 22 05:33:30 2021 GMT
            Not After : Jun 18 05:33:30 2024 GMT
        Subject: C=US, ST=California, L=Santa Clara, O=pkg5, CN=cs1_ch1_ta4/emailAddress=cs1_ch1_ta4
        Subject Public Key Info:
            Public Key Algorithm: rsaEncryption
                Public-Key: (1024 bit)
                Modulus:
                    00:ef:3e:0d:98:f7:a7:77:aa:96:38:c9:e8:b1:63:
                    43:67:5c:27:cb:bc:47:0e:35:92:2e:60:af:62:ca:
                    f9:8b:61:15:58:80:c3:5e:73:d2:c9:15:1d:ff:57:
                    d9:3e:e9:4b:fc:42:74:c8:51:7c:3b:cb:53:f6:7e:
                    73:8f:22:35:c7:c3:f0:4d:6d:28:34:bd:17:9d:1c:
                    21:6c:b4:b4:18:1a:5c:94:3f:91:fe:3f:54:cf:7d:
                    04:fc:1c:d2:3d:f7:13:f1:31:41:02:47:e6:2e:8b:
                    bf:81:56:1b:8c:40:68:12:f8:eb:8a:a1:e0:79:69:
                    2d:50:e1:a5:7f:11:e2:b0:7d
                Exponent: 65537 (0x10001)
        X509v3 extensions:
            X509v3 Basic Constraints: critical
                CA:FALSE
            X509v3 CRL Distribution Points: 

                Full Name:
                  URI:http://localhost:12001/file/0/ch1_ta4_crl.pem

    Signature Algorithm: sha256WithRSAEncryption
         a0:cd:e4:f5:cc:1e:8b:ea:b8:5b:3c:ee:65:55:fd:53:78:4d:
         cf:81:bb:48:7b:54:ce:3a:7f:3f:cd:83:8e:3f:65:bc:d9:f1:
         0f:0b:fa:ac:22:41:67:d0:2d:c2:fc:4c:27:80:44:12:f4:73:
         0d:18:b0:31:fe:f6:eb:17:b6:ea:6d:84:28:e5:fc:a4:87:b6:
         46:4e:1c:3d:17:dc:08:b9:65:54:01:22:d5:62:16:b6:bc:c0:
         6b:7b:e6:73:2e:8a:5b:41:07:58:c8:ce:6e:a9:5c:35:45:e0:
         fb:2d:91:36:5c:3c:f4:74:b5:d9:48:7b:42:d3:35:aa:6a:f6:
         37:dd:37:98:77:10:f6:ed:9f:d3:0c:44:9c:7f:57:80:fe:74:
         34:64:32:0e:93:0b:65:1b:6a:f3:53:f2:6d:bf:c9:a9:85:58:
         2b:d4:03:72:91:cc:84:5a:18:f6:c1:17:1c:26:96:13:92:a5:
         f7:36:70:34:95:55:8d:07:67:4c:43:0e:18:c0:bd:e0:fc:67:
         bf:70:dc:07:4b:68:02:5c:a7:a4:ee:6e:d1:b4:c2:f8:e3:e2:
         0f:96:82:a6:db:68:70:14:55:98:19:9e:ff:ab:10:cd:3d:c4:
         08:9f:50:fd:bb:4f:3b:e4:9a:e8:bf:a0:a0:d3:97:25:10:da:
         a7:49:d3:12
-----BEGIN CERTIFICATE-----
MIIDMTCCAhmgAwIBAgIBIzANBgkqhkiG9w0BAQsFADBxMQswCQYDVQQGEwJVUzET
MBEGA1UECAwKQ2FsaWZvcm5pYTEUMBIGA1UEBwwLU2FudGEgQ2xhcmExDTALBgNV
BAoMBHBrZzUxEDAOBgNVBAMMB2NoMV90YTQxFjAUBgkqhkiG9w0BCQEWB2NoMV90
YTQwHhcNMjEwOTIyMDUzMzMwWhcNMjQwNjE4MDUzMzMwWjB5MQswCQYDVQQGEwJV
UzETMBEGA1UECAwKQ2FsaWZvcm5pYTEUMBIGA1UEBwwLU2FudGEgQ2xhcmExDTAL
BgNVBAoMBHBrZzUxFDASBgNVBAMMC2NzMV9jaDFfdGE0MRowGAYJKoZIhvcNAQkB
FgtjczFfY2gxX3RhNDCBnzANBgkqhkiG9w0BAQEFAAOBjQAwgYkCgYEA7z4NmPen
d6qWOMnosWNDZ1wny7xHDjWSLmCvYsr5i2EVWIDDXnPSyRUd/1fZPulL/EJ0yFF8
O8tT9n5zjyI1x8PwTW0oNL0XnRwhbLS0GBpclD+R/j9Uz30E/BzSPfcT8TFBAkfm
Lou/gVYbjEBoEvjriqHgeWktUOGlfxHisH0CAwEAAaNQME4wDAYDVR0TAQH/BAIw
ADA+BgNVHR8ENzA1MDOgMaAvhi1odHRwOi8vbG9jYWxob3N0OjEyMDAxL2ZpbGUv
MC9jaDFfdGE0X2NybC5wZW0wDQYJKoZIhvcNAQELBQADggEBAKDN5PXMHovquFs8
7mVV/VN4Tc+Bu0h7VM46fz/Ng44/ZbzZ8Q8L+qwiQWfQLcL8TCeARBL0cw0YsDH+
9usXtupthCjl/KSHtkZOHD0X3Ai5ZVQBItViFra8wGt75nMuiltBB1jIzm6pXDVF
4PstkTZcPPR0tdlIe0LTNapq9jfdN5h3EPbtn9MMRJx/V4D+dDRkMg6TC2UbavNT
8m2/yamFWCvUA3KRzIRaGPbBFxwmlhOSpfc2cDSVVY0HZ0xDDhjAveD8Z79w3AdL
aAJcp6TubtG0wvjj4g+WgqbbaHAUVZgZnv+rEM09xAifUP27Tzvkmui/oKDTlyUQ
2qdJ0xI=
-----END CERTIFICATE-----
