Certificate:
    Data:
        Version: 3 (0x2)
        Serial Number: 36 (0x24)
    Signature Algorithm: sha256WithRSAEncryption
        Issuer: C=US, ST=California, L=Santa Clara, O=pkg5, CN=ch1_ta4/emailAddress=ch1_ta4
        Validity
            Not Before: Jan 22 15:33:13 2019 GMT
            Not After : Oct 18 15:33:13 2021 GMT
        Subject: C=US, ST=California, L=Santa Clara, O=pkg5, CN=cs2_ch1_ta4/emailAddress=cs2_ch1_ta4
        Subject Public Key Info:
            Public Key Algorithm: rsaEncryption
                Public-Key: (1024 bit)
                Modulus:
                    00:bd:e3:44:55:bb:ac:81:d4:89:86:71:24:cc:03:
                    db:d6:04:6b:54:51:fc:06:74:1e:8e:85:f7:34:af:
                    38:3d:fb:bd:bd:39:76:46:18:01:0d:cf:45:e8:f5:
                    e4:9d:79:98:db:20:f5:61:eb:bc:3a:61:be:06:79:
                    18:b0:ed:74:6e:51:4d:63:38:54:e3:75:24:0d:ab:
                    fd:48:26:7c:75:31:08:71:a1:8c:46:52:5f:2d:89:
                    6c:4f:50:29:c6:6e:dd:ec:23:ba:78:10:c0:53:41:
                    c2:7d:54:00:3d:ac:a3:fd:4e:98:3a:f3:1a:6b:8e:
                    a5:99:ed:a5:57:df:3f:31:3b
                Exponent: 65537 (0x10001)
        X509v3 extensions:
            X509v3 Subject Key Identifier: 
                66:B7:6F:A6:15:BF:A6:C0:CC:4A:79:69:34:0B:F9:AD:E4:DF:82:60
            X509v3 Authority Key Identifier: 
                keyid:5B:89:13:79:3F:27:D8:77:12:6A:53:5F:0D:62:E0:B4:84:B0:F5:B9
                DirName:/C=US/ST=California/L=Santa Clara/O=pkg5/CN=ta4/emailAddress=ta4
                serial:22

            X509v3 Basic Constraints: critical
                CA:FALSE
            X509v3 CRL Distribution Points: 

                Full Name:
                  URI:http://localhost:12001/file/0/example_file

    Signature Algorithm: sha256WithRSAEncryption
         2e:64:23:bb:d7:b4:ee:2a:c7:8b:0e:b2:3b:cd:88:c1:65:23:
         1f:80:16:40:09:2c:92:0c:80:45:5b:be:e1:1c:33:9e:68:c1:
         4e:ff:09:94:24:02:fb:b9:b7:66:5d:7c:14:df:38:0e:e8:d9:
         19:93:63:b3:ca:16:be:56:cd:21:5e:f0:1a:e0:03:2c:1d:b5:
         4d:50:5d:63:19:e9:32:77:85:e4:d5:d7:45:de:4a:4a:24:c5:
         ac:14:bb:92:34:9a:25:a0:f7:dc:92:8d:c1:85:37:89:be:23:
         4d:31:26:66:bf:b7:d1:7c:78:42:a1:ea:86:70:05:dd:3b:aa:
         63:5b:c7:b0:e7:5c:e0:9a:02:47:30:6f:b8:55:48:45:6d:69:
         ce:15:a1:ab:0f:59:4d:89:d3:db:b2:47:4a:bc:bf:b6:18:0e:
         0e:8c:3e:ab:a3:9a:1a:01:2b:27:5e:63:94:19:5b:3f:64:61:
         58:8b:5e:cd:9e:e6:da:4e:c8:c6:77:16:bd:50:a4:49:ca:8e:
         6c:ae:3c:3b:e2:10:a5:dc:99:ba:de:24:03:83:a9:65:a1:b0:
         ff:ea:4b:a8:15:8b:2b:80:f2:79:6d:21:ad:04:bc:72:d5:a6:
         fb:19:45:ff:f9:c2:da:cd:67:eb:a9:e9:14:28:94:d4:10:be:
         48:95:6d:45
-----BEGIN CERTIFICATE-----
MIID5zCCAs+gAwIBAgIBJDANBgkqhkiG9w0BAQsFADBxMQswCQYDVQQGEwJVUzET
MBEGA1UECAwKQ2FsaWZvcm5pYTEUMBIGA1UEBwwLU2FudGEgQ2xhcmExDTALBgNV
BAoMBHBrZzUxEDAOBgNVBAMMB2NoMV90YTQxFjAUBgkqhkiG9w0BCQEWB2NoMV90
YTQwHhcNMTkwMTIyMTUzMzEzWhcNMjExMDE4MTUzMzEzWjB5MQswCQYDVQQGEwJV
UzETMBEGA1UECAwKQ2FsaWZvcm5pYTEUMBIGA1UEBwwLU2FudGEgQ2xhcmExDTAL
BgNVBAoMBHBrZzUxFDASBgNVBAMMC2NzMl9jaDFfdGE0MRowGAYJKoZIhvcNAQkB
FgtjczJfY2gxX3RhNDCBnzANBgkqhkiG9w0BAQEFAAOBjQAwgYkCgYEAveNEVbus
gdSJhnEkzAPb1gRrVFH8BnQejoX3NK84Pfu9vTl2RhgBDc9F6PXknXmY2yD1Yeu8
OmG+BnkYsO10blFNYzhU43UkDav9SCZ8dTEIcaGMRlJfLYlsT1Apxm7d7CO6eBDA
U0HCfVQAPayj/U6YOvMaa46lme2lV98/MTsCAwEAAaOCAQQwggEAMB0GA1UdDgQW
BBRmt2+mFb+mwMxKeWk0C/mt5N+CYDCBkwYDVR0jBIGLMIGIgBRbiRN5PyfYdxJq
U18NYuC0hLD1uaFtpGswaTELMAkGA1UEBhMCVVMxEzARBgNVBAgMCkNhbGlmb3Ju
aWExFDASBgNVBAcMC1NhbnRhIENsYXJhMQ0wCwYDVQQKDARwa2c1MQwwCgYDVQQD
DAN0YTQxEjAQBgkqhkiG9w0BCQEWA3RhNIIBIjAMBgNVHRMBAf8EAjAAMDsGA1Ud
HwQ0MDIwMKAuoCyGKmh0dHA6Ly9sb2NhbGhvc3Q6MTIwMDEvZmlsZS8wL2V4YW1w
bGVfZmlsZTANBgkqhkiG9w0BAQsFAAOCAQEALmQju9e07irHiw6yO82IwWUjH4AW
QAkskgyARVu+4RwznmjBTv8JlCQC+7m3Zl18FN84DujZGZNjs8oWvlbNIV7wGuAD
LB21TVBdYxnpMneF5NXXRd5KSiTFrBS7kjSaJaD33JKNwYU3ib4jTTEmZr+30Xx4
QqHqhnAF3TuqY1vHsOdc4JoCRzBvuFVIRW1pzhWhqw9ZTYnT27JHSry/thgODow+
q6OaGgErJ15jlBlbP2RhWItezZ7m2k7IxncWvVCkScqObK48O+IQpdyZut4kA4Op
ZaGw/+pLqBWLK4DyeW0hrQS8ctWm+xlF//nC2s1n66npFCiU1BC+SJVtRQ==
-----END CERTIFICATE-----
