Certificate:
    Data:
        Version: 3 (0x2)
        Serial Number: 36 (0x24)
    Signature Algorithm: sha256WithRSAEncryption
        Issuer: C=US, ST=California, L=Santa Clara, O=pkg5, CN=ch1_ta4/emailAddress=ch1_ta4
        Validity
            Not Before: Jul 19 11:35:50 2023 GMT
            Not After : Apr 14 11:35:50 2026 GMT
        Subject: C=US, ST=California, L=Santa Clara, O=pkg5, CN=cs2_ch1_ta4/emailAddress=cs2_ch1_ta4
        Subject Public Key Info:
            Public Key Algorithm: rsaEncryption
                Public-Key: (2048 bit)
                Modulus:
                    00:b5:77:50:1d:ce:03:56:93:6e:05:6b:58:8d:03:
                    5d:95:e5:4a:13:8d:21:42:8e:ee:30:9b:99:93:c2:
                    ed:53:62:08:13:32:55:49:c4:a4:c8:73:8b:92:ce:
                    61:49:9f:e3:b0:af:ad:e0:a7:f9:80:53:dc:ca:b0:
                    3e:bb:8a:bd:73:22:1f:89:67:93:1c:2b:3d:38:29:
                    23:3c:9d:4c:8f:38:ea:50:fe:0f:01:32:50:50:60:
                    04:5e:fb:a7:fc:7a:9b:67:c5:d3:01:13:a1:c0:c3:
                    86:fe:de:9e:c1:08:12:02:cb:c9:4f:9d:50:6b:6c:
                    ae:06:c8:6b:59:3e:65:1e:73:c3:97:ac:5c:7b:a8:
                    d5:38:43:6e:16:58:8a:c3:55:11:b3:9e:57:cb:e2:
                    e4:02:67:f3:e3:bf:cc:81:8e:b4:61:1d:32:8f:de:
                    57:bc:99:a1:3a:d6:e4:90:2c:99:23:a5:85:da:e2:
                    aa:c6:1c:11:bf:76:ca:91:cb:a0:e1:80:fc:f8:bc:
                    b4:45:44:4f:de:5e:41:0e:2f:d4:0e:bb:80:42:43:
                    05:52:a7:0d:d8:78:76:e9:e3:8b:46:5f:22:7d:5f:
                    db:45:88:4e:6e:1d:1b:3e:8e:86:cb:73:54:ac:84:
                    9c:ed:21:d2:79:23:d8:da:43:d5:6f:b5:6e:34:cd:
                    cf:61
                Exponent: 65537 (0x10001)
        X509v3 extensions:
            X509v3 Subject Key Identifier: 
                CF:1F:7A:AD:27:14:3D:7E:CC:7F:0E:D1:17:2C:48:FD:B4:C4:A6:DA
            X509v3 Authority Key Identifier: 
                keyid:CB:18:2F:57:88:8E:4D:15:81:27:6F:0F:8E:CF:86:45:3C:41:CC:EE
                DirName:/C=US/ST=California/L=Santa Clara/O=pkg5/CN=ta4/emailAddress=ta4
                serial:22

            X509v3 Basic Constraints: critical
                CA:FALSE
            X509v3 CRL Distribution Points: 

                Full Name:
                  URI:http://localhost:12001/file/0/example_file

    Signature Algorithm: sha256WithRSAEncryption
         3c:6f:a1:06:7e:e7:9c:a6:e1:9d:96:ed:8a:1a:b7:d8:0f:7d:
         e6:67:c3:92:99:23:4c:64:4b:e3:bd:f1:cf:a8:a9:5a:92:a6:
         84:35:55:02:8e:3c:ca:ce:d3:f4:b5:79:f4:ab:18:5e:a3:60:
         c4:59:a4:35:1d:77:1a:00:97:d3:17:bf:a4:91:d6:22:c6:e0:
         d2:ee:d5:9a:ae:5e:d3:5f:02:56:dc:67:aa:24:93:04:bb:77:
         84:e6:5a:b1:1c:d0:ca:f5:27:9a:5d:17:d9:73:28:02:3f:19:
         69:be:7f:c0:cc:8b:79:c8:6e:df:7b:68:56:6e:46:bf:e9:c8:
         23:b3:e2:af:65:dc:0e:da:02:0b:89:df:48:f0:fb:72:86:80:
         52:f0:13:9a:5f:5c:41:18:ce:b1:28:cc:2c:ae:09:f7:d0:72:
         bd:fc:3e:30:cb:80:f0:54:36:30:9b:91:ec:a7:a0:2c:9b:bb:
         21:c0:8a:5b:bf:f2:0e:0d:2c:63:94:43:50:36:09:17:9f:96:
         e1:71:b9:d8:72:b9:d1:7e:e4:ce:b5:48:50:e8:c5:0f:a6:7e:
         8b:70:2c:a7:f4:e6:d3:6c:88:05:3f:44:3d:5e:5a:8e:82:7c:
         8e:73:0c:be:7e:b9:01:96:2c:cc:36:88:e5:66:db:81:b8:84:
         16:d3:54:f3
-----BEGIN CERTIFICATE-----
MIIEazCCA1OgAwIBAgIBJDANBgkqhkiG9w0BAQsFADBxMQswCQYDVQQGEwJVUzET
MBEGA1UECAwKQ2FsaWZvcm5pYTEUMBIGA1UEBwwLU2FudGEgQ2xhcmExDTALBgNV
BAoMBHBrZzUxEDAOBgNVBAMMB2NoMV90YTQxFjAUBgkqhkiG9w0BCQEWB2NoMV90
YTQwHhcNMjMwNzE5MTEzNTUwWhcNMjYwNDE0MTEzNTUwWjB5MQswCQYDVQQGEwJV
UzETMBEGA1UECAwKQ2FsaWZvcm5pYTEUMBIGA1UEBwwLU2FudGEgQ2xhcmExDTAL
BgNVBAoMBHBrZzUxFDASBgNVBAMMC2NzMl9jaDFfdGE0MRowGAYJKoZIhvcNAQkB
FgtjczJfY2gxX3RhNDCCASIwDQYJKoZIhvcNAQEBBQADggEPADCCAQoCggEBALV3
UB3OA1aTbgVrWI0DXZXlShONIUKO7jCbmZPC7VNiCBMyVUnEpMhzi5LOYUmf47Cv
reCn+YBT3MqwPruKvXMiH4lnkxwrPTgpIzydTI846lD+DwEyUFBgBF77p/x6m2fF
0wETocDDhv7ensEIEgLLyU+dUGtsrgbIa1k+ZR5zw5esXHuo1ThDbhZYisNVEbOe
V8vi5AJn8+O/zIGOtGEdMo/eV7yZoTrW5JAsmSOlhdriqsYcEb92ypHLoOGA/Pi8
tEVET95eQQ4v1A67gEJDBVKnDdh4dunji0ZfIn1f20WITm4dGz6OhstzVKyEnO0h
0nkj2NpD1W+1bjTNz2ECAwEAAaOCAQQwggEAMB0GA1UdDgQWBBTPH3qtJxQ9fsx/
DtEXLEj9tMSm2jCBkwYDVR0jBIGLMIGIgBTLGC9XiI5NFYEnbw+Oz4ZFPEHM7qFt
pGswaTELMAkGA1UEBhMCVVMxEzARBgNVBAgMCkNhbGlmb3JuaWExFDASBgNVBAcM
C1NhbnRhIENsYXJhMQ0wCwYDVQQKDARwa2c1MQwwCgYDVQQDDAN0YTQxEjAQBgkq
hkiG9w0BCQEWA3RhNIIBIjAMBgNVHRMBAf8EAjAAMDsGA1UdHwQ0MDIwMKAuoCyG
Kmh0dHA6Ly9sb2NhbGhvc3Q6MTIwMDEvZmlsZS8wL2V4YW1wbGVfZmlsZTANBgkq
hkiG9w0BAQsFAAOCAQEAPG+hBn7nnKbhnZbtihq32A995mfDkpkjTGRL473xz6ip
WpKmhDVVAo48ys7T9LV59KsYXqNgxFmkNR13GgCX0xe/pJHWIsbg0u7Vmq5e018C
VtxnqiSTBLt3hOZasRzQyvUnml0X2XMoAj8Zab5/wMyLechu33toVm5Gv+nII7Pi
r2XcDtoCC4nfSPD7coaAUvATml9cQRjOsSjMLK4J99Byvfw+MMuA8FQ2MJuR7Keg
LJu7IcCKW7/yDg0sY5RDUDYJF5+W4XG52HK50X7kzrVIUOjFD6Z+i3Asp/Tm02yI
BT9EPV5ajoJ8jnMMvn65AZYszDaI5WbbgbiEFtNU8w==
-----END CERTIFICATE-----
