Certificate:
    Data:
        Version: 3 (0x2)
        Serial Number: 36 (0x24)
        Signature Algorithm: sha256WithRSAEncryption
        Issuer: C=US, ST=California, L=Menlo Park, O=pkg5, CN=ch1_ta4/emailAddress=ch1_ta4
        Validity
            Not Before: Mar 21 00:49:33 2011 GMT
            Not After : Dec 15 00:49:33 2013 GMT
        Subject: C=US, ST=California, L=Menlo Park, O=pkg5, CN=cs2_ch1_ta4/emailAddress=cs2_ch1_ta4
        Subject Public Key Info:
            Public Key Algorithm: rsaEncryption
            RSA Public Key: (1024 bit)
                Modulus (1024 bit):
                    00:b9:d6:fb:d3:60:e9:bc:e3:70:c9:6d:1b:26:94:
                    ae:f4:76:b6:aa:d8:ef:1a:b6:17:3c:f5:9c:35:8b:
                    28:55:c1:36:53:5a:1a:67:66:ee:34:4e:b7:f5:68:
                    8c:8a:1c:af:b4:52:c2:5b:22:d2:d6:0c:ad:d3:40:
                    89:a6:f5:d0:b9:12:1a:55:85:45:94:c6:3e:ac:b2:
                    51:8a:75:05:d5:60:c8:c0:f9:fb:d8:0b:0b:7c:ad:
                    e1:b4:78:f4:fb:84:34:bb:1a:66:6e:e6:a6:90:4d:
                    40:88:32:13:c3:cb:76:ac:02:eb:bb:04:24:9b:c5:
                    f8:b3:be:d1:44:ea:1f:f9:51
                Exponent: 65537 (0x10001)
        X509v3 extensions:
            X509v3 Subject Key Identifier: 
                24:E7:DA:6E:C1:38:4D:41:8C:B0:C1:B2:D1:D2:C6:32:21:4F:57:52
            X509v3 Authority Key Identifier: 
                keyid:AB:0B:EF:CE:AA:F0:43:97:3A:CD:58:D0:D9:C2:F9:C4:EB:8D:7C:FF
                DirName:/C=US/ST=California/L=Menlo Park/O=pkg5/CN=ta4/emailAddress=ta4
                serial:22

            X509v3 Basic Constraints: critical
                CA:FALSE
            X509v3 CRL Distribution Points: 
                URI:http://localhost:12001/file/0/example_file

    Signature Algorithm: sha256WithRSAEncryption
        5e:7f:21:56:d9:dc:06:15:22:71:7c:3a:a6:37:dc:ba:e9:25:
        c1:9e:8a:14:31:71:74:9d:bf:db:dd:88:db:da:ff:b1:05:bc:
        5b:1a:26:e0:f4:7d:c7:27:21:6c:e3:50:88:4f:2d:df:19:16:
        11:bf:5a:8e:fe:d6:ee:2c:53:cf:76:46:90:df:d3:e7:8c:94:
        b1:b3:11:a8:4b:56:d3:22:85:13:39:92:cb:69:5f:3e:e6:66:
        de:b1:b7:b1:6b:a8:60:cd:05:0a:6d:42:4e:f5:17:5d:62:e8:
        f5:46:0a:51:3f:52:aa:aa:d6:a9:3a:6c:a9:af:98:da:fa:99:
        74:c1
-----BEGIN CERTIFICATE-----
MIIDYjCCAsugAwIBAgIBJDANBgkqhkiG9w0BAQsFADBwMQswCQYDVQQGEwJVUzET
MBEGA1UECBMKQ2FsaWZvcm5pYTETMBEGA1UEBxMKTWVubG8gUGFyazENMAsGA1UE
ChMEcGtnNTEQMA4GA1UEAxQHY2gxX3RhNDEWMBQGCSqGSIb3DQEJARYHY2gxX3Rh
NDAeFw0xMTAzMjEwMDQ5MzNaFw0xMzEyMTUwMDQ5MzNaMHgxCzAJBgNVBAYTAlVT
MRMwEQYDVQQIEwpDYWxpZm9ybmlhMRMwEQYDVQQHEwpNZW5sbyBQYXJrMQ0wCwYD
VQQKEwRwa2c1MRQwEgYDVQQDFAtjczJfY2gxX3RhNDEaMBgGCSqGSIb3DQEJARYL
Y3MyX2NoMV90YTQwgZ8wDQYJKoZIhvcNAQEBBQADgY0AMIGJAoGBALnW+9Ng6bzj
cMltGyaUrvR2tqrY7xq2Fzz1nDWLKFXBNlNaGmdm7jROt/VojIocr7RSwlsi0tYM
rdNAiab10LkSGlWFRZTGPqyyUYp1BdVgyMD5+9gLC3yt4bR49PuENLsaZm7mppBN
QIgyE8PLdqwC67sEJJvF+LO+0UTqH/lRAgMBAAGjggECMIH/MB0GA1UdDgQWBBQk
59puwThNQYywwbLR0sYyIU9XUjCBkgYDVR0jBIGKMIGHgBSrC+/OqvBDlzrNWNDZ
wvnE6418/6FspGowaDELMAkGA1UEBhMCVVMxEzARBgNVBAgTCkNhbGlmb3JuaWEx
EzARBgNVBAcTCk1lbmxvIFBhcmsxDTALBgNVBAoTBHBrZzUxDDAKBgNVBAMTA3Rh
NDESMBAGCSqGSIb3DQEJARYDdGE0ggEiMAwGA1UdEwEB/wQCMAAwOwYDVR0fBDQw
MjAwoC6gLIYqaHR0cDovL2xvY2FsaG9zdDoxMjAwMS9maWxlLzAvZXhhbXBsZV9m
aWxlMA0GCSqGSIb3DQEBCwUAA4GBAF5/IVbZ3AYVInF8OqY33LrpJcGeihQxcXSd
v9vdiNva/7EFvFsaJuD0fccnIWzjUIhPLd8ZFhG/Wo7+1u4sU892RpDf0+eMlLGz
EahLVtMihRM5kstpXz7mZt6xt7FrqGDNBQptQk71F11i6PVGClE/Uqqq1qk6bKmv
mNr6mXTB
-----END CERTIFICATE-----
