Certificate:
    Data:
        Version: 3 (0x2)
        Serial Number: 37 (0x25)
    Signature Algorithm: sha256WithRSAEncryption
        Issuer: C=US, ST=California, L=Santa Clara, O=pkg5, CN=ch1_ta4/emailAddress=ch1_ta4
        Validity
            Not Before: Jul 19 11:35:50 2023 GMT
            Not After : Apr 14 11:35:50 2026 GMT
        Subject: C=US, ST=California, L=Santa Clara, O=pkg5, CN=cs3_ch1_ta4/emailAddress=cs3_ch1_ta4
        Subject Public Key Info:
            Public Key Algorithm: rsaEncryption
                Public-Key: (2048 bit)
                Modulus:
                    00:c8:16:65:3b:e2:3a:a8:32:b7:09:95:04:4d:f0:
                    29:1f:0d:aa:df:6c:fe:19:df:00:bb:5d:22:cd:d0:
                    96:65:62:85:b8:37:08:8b:83:3f:ff:f0:cd:bf:4f:
                    dc:25:24:d5:10:3e:63:4e:65:68:bc:e4:f6:23:54:
                    61:2d:ee:e4:ff:f0:d7:f6:38:df:b3:81:6d:3b:e7:
                    20:83:1a:ad:33:23:9e:a9:7b:80:bd:1c:a8:27:6c:
                    cf:ed:51:3f:d9:3c:85:26:af:d9:75:30:e7:4e:02:
                    26:7b:a7:4e:47:dc:92:88:3c:ff:b2:07:ae:a9:73:
                    c9:b7:27:01:56:22:ae:fb:41:3e:93:52:51:40:65:
                    c0:50:ac:3b:fa:cc:00:c1:cc:b1:7d:cf:45:72:56:
                    39:ce:b1:90:84:80:9e:43:e8:c9:8c:23:af:b8:cc:
                    7b:45:f3:12:c4:1f:a8:49:9a:18:aa:83:1c:fd:fc:
                    3c:54:f2:97:c9:9b:1a:3e:8c:0d:7d:ac:de:0a:c0:
                    35:4d:b8:79:88:59:a8:88:43:c5:2b:95:b9:a4:25:
                    53:1b:82:1a:6e:4c:9a:0a:c3:63:ac:5d:2a:29:ab:
                    bd:45:41:c2:ac:18:3e:40:70:07:58:8c:48:d0:f0:
                    a4:a7:ae:0d:59:1b:98:00:cf:18:ed:b6:fb:21:bf:
                    79:77
                Exponent: 65537 (0x10001)
        X509v3 extensions:
            X509v3 Subject Key Identifier: 
                57:C9:4E:29:77:FC:9B:52:61:24:11:38:CA:75:28:F3:F9:B0:79:62
            X509v3 Authority Key Identifier: 
                keyid:CB:18:2F:57:88:8E:4D:15:81:27:6F:0F:8E:CF:86:45:3C:41:CC:EE
                DirName:/C=US/ST=California/L=Santa Clara/O=pkg5/CN=ta4/emailAddress=ta4
                serial:22

            X509v3 Basic Constraints: critical
                CA:FALSE
            X509v3 CRL Distribution Points: 

                Full Name:
                  URI:foo://bar/baz

    Signature Algorithm: sha256WithRSAEncryption
         57:93:93:98:54:bc:81:86:de:5c:b2:96:02:90:a7:ec:71:0d:
         b8:d5:d0:89:7c:9f:bf:d2:c8:3e:5d:28:b9:c0:fd:d7:96:3f:
         44:45:a6:a7:96:90:90:a0:ce:7f:ff:3f:38:2c:4f:20:70:20:
         13:38:ed:cc:7f:75:2d:5d:3c:5c:06:33:45:35:e3:4b:4a:26:
         40:6c:9a:9d:2d:60:c0:2c:78:5e:6f:60:b4:1c:a2:61:e0:f1:
         e0:ed:e6:4b:52:4b:57:80:c6:4a:2d:75:91:b1:5e:93:34:ec:
         44:00:e6:63:c2:fc:28:13:82:e7:60:76:3a:43:7f:0d:7e:08:
         c6:e1:4a:81:dc:07:5c:b6:72:18:4e:75:33:72:17:65:9f:6d:
         1b:e1:54:80:05:ca:9a:1b:49:50:ae:91:53:da:07:45:6e:94:
         60:5d:c1:a3:cc:67:4a:1f:c3:47:02:6e:d3:2b:6b:53:45:37:
         cb:e0:7c:4c:8d:7e:b2:f8:d2:7b:58:a8:71:59:98:59:a8:db:
         56:63:04:c3:ab:43:3c:08:2a:66:16:62:4a:ba:a2:ae:bb:5c:
         7f:65:a3:9c:f2:c4:2d:e7:2c:0b:ae:c2:2c:3f:32:56:7d:f6:
         14:d9:83:46:9c:d8:99:b0:59:98:b5:41:f9:c0:a1:15:29:5b:
         d9:2d:e3:4d
-----BEGIN CERTIFICATE-----
MIIETDCCAzSgAwIBAgIBJTANBgkqhkiG9w0BAQsFADBxMQswCQYDVQQGEwJVUzET
MBEGA1UECAwKQ2FsaWZvcm5pYTEUMBIGA1UEBwwLU2FudGEgQ2xhcmExDTALBgNV
BAoMBHBrZzUxEDAOBgNVBAMMB2NoMV90YTQxFjAUBgkqhkiG9w0BCQEWB2NoMV90
YTQwHhcNMjMwNzE5MTEzNTUwWhcNMjYwNDE0MTEzNTUwWjB5MQswCQYDVQQGEwJV
UzETMBEGA1UECAwKQ2FsaWZvcm5pYTEUMBIGA1UEBwwLU2FudGEgQ2xhcmExDTAL
BgNVBAoMBHBrZzUxFDASBgNVBAMMC2NzM19jaDFfdGE0MRowGAYJKoZIhvcNAQkB
FgtjczNfY2gxX3RhNDCCASIwDQYJKoZIhvcNAQEBBQADggEPADCCAQoCggEBAMgW
ZTviOqgytwmVBE3wKR8Nqt9s/hnfALtdIs3QlmVihbg3CIuDP//wzb9P3CUk1RA+
Y05laLzk9iNUYS3u5P/w1/Y437OBbTvnIIMarTMjnql7gL0cqCdsz+1RP9k8hSav
2XUw504CJnunTkfckog8/7IHrqlzybcnAVYirvtBPpNSUUBlwFCsO/rMAMHMsX3P
RXJWOc6xkISAnkPoyYwjr7jMe0XzEsQfqEmaGKqDHP38PFTyl8mbGj6MDX2s3grA
NU24eYhZqIhDxSuVuaQlUxuCGm5MmgrDY6xdKimrvUVBwqwYPkBwB1iMSNDwpKeu
DVkbmADPGO22+yG/eXcCAwEAAaOB5jCB4zAdBgNVHQ4EFgQUV8lOKXf8m1JhJBE4
ynUo8/mweWIwgZMGA1UdIwSBizCBiIAUyxgvV4iOTRWBJ28Pjs+GRTxBzO6hbaRr
MGkxCzAJBgNVBAYTAlVTMRMwEQYDVQQIDApDYWxpZm9ybmlhMRQwEgYDVQQHDAtT
YW50YSBDbGFyYTENMAsGA1UECgwEcGtnNTEMMAoGA1UEAwwDdGE0MRIwEAYJKoZI
hvcNAQkBFgN0YTSCASIwDAYDVR0TAQH/BAIwADAeBgNVHR8EFzAVMBOgEaAPhg1m
b286Ly9iYXIvYmF6MA0GCSqGSIb3DQEBCwUAA4IBAQBXk5OYVLyBht5cspYCkKfs
cQ241dCJfJ+/0sg+XSi5wP3Xlj9ERaanlpCQoM5//z84LE8gcCATOO3Mf3UtXTxc
BjNFNeNLSiZAbJqdLWDALHheb2C0HKJh4PHg7eZLUktXgMZKLXWRsV6TNOxEAOZj
wvwoE4LnYHY6Q38NfgjG4UqB3AdctnIYTnUzchdln20b4VSABcqaG0lQrpFT2gdF
bpRgXcGjzGdKH8NHAm7TK2tTRTfL4HxMjX6y+NJ7WKhxWZhZqNtWYwTDq0M8CCpm
FmJKuqKuu1x/ZaOc8sQt5ywLrsIsPzJWffYU2YNGnNiZsFmYtUH5wKEVKVvZLeNN
-----END CERTIFICATE-----
