Certificate:
    Data:
        Version: 3 (0x2)
        Serial Number: 37 (0x25)
    Signature Algorithm: sha256WithRSAEncryption
        Issuer: C=US, ST=California, L=Santa Clara, O=pkg5, CN=ch1_ta4/emailAddress=ch1_ta4
        Validity
            Not Before: Jan 22 01:57:59 2016 GMT
            Not After : Oct 18 01:57:59 2018 GMT
        Subject: C=US, ST=California, L=Santa Clara, O=pkg5, CN=cs2_ch1_ta4/emailAddress=cs2_ch1_ta4
        Subject Public Key Info:
            Public Key Algorithm: rsaEncryption
                Public-Key: (1024 bit)
                Modulus:
                    00:c0:d1:12:2c:11:99:ac:d0:a7:4f:87:d5:3f:5c:
                    2b:e8:0a:f8:3e:41:24:d9:4a:75:fb:9e:c4:0e:0f:
                    12:bc:4d:dc:34:c3:42:79:b3:c3:59:9d:62:9e:db:
                    34:7f:2a:09:f3:80:42:b6:ec:7e:1b:63:2d:59:67:
                    f0:12:bc:9e:2c:a0:21:5b:e1:02:6b:df:ea:6c:c0:
                    4d:fc:a8:51:e2:1a:4f:42:89:4c:87:99:ab:3f:7d:
                    d5:30:e9:31:97:15:a4:c6:90:14:2c:f3:9c:bc:e9:
                    b2:05:5c:ed:fc:91:86:3d:da:56:76:b1:ec:c1:9a:
                    72:56:7b:aa:32:ca:50:9d:6b
                Exponent: 65537 (0x10001)
        X509v3 extensions:
            X509v3 Subject Key Identifier: 
                16:15:5A:65:F6:D0:00:FD:DC:69:C9:A2:42:1F:CF:61:90:E6:2F:46
            X509v3 Authority Key Identifier: 
                keyid:59:7F:0E:5C:5B:04:78:41:DB:55:AC:9E:07:50:E4:FB:9E:26:28:C8
                DirName:/C=US/ST=California/L=Santa Clara/O=pkg5/CN=ta4/emailAddress=ta4
                serial:23

            X509v3 Basic Constraints: critical
                CA:FALSE
            X509v3 CRL Distribution Points: 

                Full Name:
                  URI:http://localhost:12001/file/0/example_file

    Signature Algorithm: sha256WithRSAEncryption
         30:d6:e5:65:8d:a2:f1:d4:7b:80:08:3e:6e:37:56:fa:20:4b:
         cf:a5:82:05:6f:6c:3b:fd:88:66:1b:e0:7f:f8:fa:78:6d:f2:
         48:76:3f:61:51:a0:b7:a9:88:5e:0b:ba:df:91:b0:66:f2:1e:
         28:58:3f:14:d0:7f:fe:cb:97:c0:e7:3e:2c:aa:a6:e7:e7:a6:
         ce:1d:59:7e:97:0e:ff:ac:ec:bf:a7:66:21:4d:ee:48:93:0f:
         d7:24:7d:90:ef:3c:5f:59:b2:b7:7e:5c:61:55:a2:73:9f:b4:
         89:a1:d1:21:5b:55:fd:e5:58:aa:91:ce:5e:d1:f5:de:bc:6f:
         88:97:38:de:0d:cb:20:ac:0e:5f:4d:c0:9a:8a:5d:e3:e8:9e:
         3e:c5:06:07:80:d0:d8:a9:ef:1a:a0:da:1a:84:8f:4b:71:b1:
         dd:a3:18:bf:35:b5:c5:e6:26:ee:7f:3a:c6:a1:d4:bf:fd:6a:
         5e:a8:22:7e:40:a8:16:b2:ba:58:7f:e9:87:65:01:bc:53:af:
         03:95:d5:d9:6b:3d:23:18:42:93:78:47:d7:d7:49:1f:14:77:
         02:56:4c:5b:2f:24:5b:88:90:76:21:d7:d4:a6:f9:4b:00:6f:
         b0:94:4a:46:93:31:9f:14:af:bc:3d:ec:a0:58:00:a9:38:91:
         7a:c1:00:ff
-----BEGIN CERTIFICATE-----
MIID5zCCAs+gAwIBAgIBJTANBgkqhkiG9w0BAQsFADBxMQswCQYDVQQGEwJVUzET
MBEGA1UECAwKQ2FsaWZvcm5pYTEUMBIGA1UEBwwLU2FudGEgQ2xhcmExDTALBgNV
BAoMBHBrZzUxEDAOBgNVBAMMB2NoMV90YTQxFjAUBgkqhkiG9w0BCQEWB2NoMV90
YTQwHhcNMTYwMTIyMDE1NzU5WhcNMTgxMDE4MDE1NzU5WjB5MQswCQYDVQQGEwJV
UzETMBEGA1UECAwKQ2FsaWZvcm5pYTEUMBIGA1UEBwwLU2FudGEgQ2xhcmExDTAL
BgNVBAoMBHBrZzUxFDASBgNVBAMMC2NzMl9jaDFfdGE0MRowGAYJKoZIhvcNAQkB
FgtjczJfY2gxX3RhNDCBnzANBgkqhkiG9w0BAQEFAAOBjQAwgYkCgYEAwNESLBGZ
rNCnT4fVP1wr6Ar4PkEk2Up1+57EDg8SvE3cNMNCebPDWZ1ints0fyoJ84BCtux+
G2MtWWfwEryeLKAhW+ECa9/qbMBN/KhR4hpPQolMh5mrP33VMOkxlxWkxpAULPOc
vOmyBVzt/JGGPdpWdrHswZpyVnuqMspQnWsCAwEAAaOCAQQwggEAMB0GA1UdDgQW
BBQWFVpl9tAA/dxpyaJCH89hkOYvRjCBkwYDVR0jBIGLMIGIgBRZfw5cWwR4QdtV
rJ4HUOT7niYoyKFtpGswaTELMAkGA1UEBhMCVVMxEzARBgNVBAgMCkNhbGlmb3Ju
aWExFDASBgNVBAcMC1NhbnRhIENsYXJhMQ0wCwYDVQQKDARwa2c1MQwwCgYDVQQD
DAN0YTQxEjAQBgkqhkiG9w0BCQEWA3RhNIIBIzAMBgNVHRMBAf8EAjAAMDsGA1Ud
HwQ0MDIwMKAuoCyGKmh0dHA6Ly9sb2NhbGhvc3Q6MTIwMDEvZmlsZS8wL2V4YW1w
bGVfZmlsZTANBgkqhkiG9w0BAQsFAAOCAQEAMNblZY2i8dR7gAg+bjdW+iBLz6WC
BW9sO/2IZhvgf/j6eG3ySHY/YVGgt6mIXgu635GwZvIeKFg/FNB//suXwOc+LKqm
5+emzh1ZfpcO/6zsv6dmIU3uSJMP1yR9kO88X1myt35cYVWic5+0iaHRIVtV/eVY
qpHOXtH13rxviJc43g3LIKwOX03Amopd4+iePsUGB4DQ2KnvGqDaGoSPS3Gx3aMY
vzW1xeYm7n86xqHUv/1qXqgifkCoFrK6WH/ph2UBvFOvA5XV2Ws9IxhCk3hH19dJ
HxR3AlZMWy8kW4iQdiHX1Kb5SwBvsJRKRpMxnxSvvD3soFgAqTiResEA/w==
-----END CERTIFICATE-----
