Certificate:
    Data:
        Version: 3 (0x2)
        Serial Number: 37 (0x25)
        Signature Algorithm: sha256WithRSAEncryption
        Issuer: C=US, ST=California, L=Menlo Park, O=pkg5, CN=pubCA1_ta5/emailAddress=pubCA1_ta5
        Validity
            Not Before: Jan 28 02:54:25 2011 GMT
            Not After : Oct 24 02:54:25 2013 GMT
        Subject: C=US, ST=California, L=Menlo Park, O=pkg5, CN=cs1_ta5/emailAddress=cs1_ta5
        Subject Public Key Info:
            Public Key Algorithm: rsaEncryption
            RSA Public Key: (1024 bit)
                Modulus (1024 bit):
                    00:c4:23:9b:a5:a6:bb:de:48:a0:b4:2e:2d:54:4f:
                    e7:61:e4:9d:df:ad:01:7e:70:55:12:35:36:d4:71:
                    e5:1f:fe:00:d9:0f:1b:de:62:57:2c:d7:46:67:28:
                    67:84:c7:b3:c3:99:6a:ec:89:c1:e9:d2:60:a8:48:
                    d1:06:c9:68:c9:87:d6:82:88:aa:4c:33:d6:60:a4:
                    bb:2b:38:0d:e8:11:ae:73:4c:b7:29:39:24:55:3d:
                    c2:64:b0:54:e8:8d:67:1f:79:94:8d:6f:4c:95:cd:
                    d6:00:9f:cb:f6:90:bd:07:52:f1:fe:16:b2:25:0e:
                    49:40:c0:cf:66:3c:9d:78:89
                Exponent: 65537 (0x10001)
        X509v3 extensions:
            X509v3 Basic Constraints: critical
                CA:FALSE
            X509v3 Key Usage: critical
                Digital Signature
    Signature Algorithm: sha256WithRSAEncryption
        86:7e:5b:75:75:be:0f:f3:ba:dd:6c:2c:db:1b:70:e1:3c:30:
        37:7b:86:54:ad:5a:01:cc:64:e5:c2:67:c8:75:53:7d:65:80:
        0b:0a:b5:8c:71:e5:42:25:fc:5a:48:6e:e2:5c:ef:19:fe:c1:
        02:01:16:a7:f0:07:bc:ed:62:3f:2e:b0:7f:c3:73:27:c6:92:
        69:36:ef:90:fd:1a:f6:7d:f6:5a:98:be:c8:63:da:65:e2:41:
        3a:0a:4b:40:b2:a7:90:8e:96:d6:8d:d5:4d:a8:a5:60:89:b0:
        96:d6:c6:cf:d3:3e:8f:0d:4c:34:c9:e8:af:65:d8:6d:fe:ed:
        88:d1
-----BEGIN CERTIFICATE-----
MIICfDCCAeWgAwIBAgIBJTANBgkqhkiG9w0BAQsFADB2MQswCQYDVQQGEwJVUzET
MBEGA1UECBMKQ2FsaWZvcm5pYTETMBEGA1UEBxMKTWVubG8gUGFyazENMAsGA1UE
ChMEcGtnNTETMBEGA1UEAxQKcHViQ0ExX3RhNTEZMBcGCSqGSIb3DQEJARYKcHVi
Q0ExX3RhNTAeFw0xMTAxMjgwMjU0MjVaFw0xMzEwMjQwMjU0MjVaMHAxCzAJBgNV
BAYTAlVTMRMwEQYDVQQIEwpDYWxpZm9ybmlhMRMwEQYDVQQHEwpNZW5sbyBQYXJr
MQ0wCwYDVQQKEwRwa2c1MRAwDgYDVQQDFAdjczFfdGE1MRYwFAYJKoZIhvcNAQkB
FgdjczFfdGE1MIGfMA0GCSqGSIb3DQEBAQUAA4GNADCBiQKBgQDEI5ulprveSKC0
Li1UT+dh5J3frQF+cFUSNTbUceUf/gDZDxveYlcs10ZnKGeEx7PDmWrsicHp0mCo
SNEGyWjJh9aCiKpMM9ZgpLsrOA3oEa5zTLcpOSRVPcJksFTojWcfeZSNb0yVzdYA
n8v2kL0HUvH+FrIlDklAwM9mPJ14iQIDAQABoyAwHjAMBgNVHRMBAf8EAjAAMA4G
A1UdDwEB/wQEAwIHgDANBgkqhkiG9w0BAQsFAAOBgQCGflt1db4P87rdbCzbG3Dh
PDA3e4ZUrVoBzGTlwmfIdVN9ZYALCrWMceVCJfxaSG7iXO8Z/sECARan8Ae87WI/
LrB/w3MnxpJpNu+Q/Rr2ffZamL7IY9pl4kE6CktAsqeQjpbWjdVNqKVgibCW1sbP
0z6PDUw0yeivZdht/u2I0Q==
-----END CERTIFICATE-----
