Certificate:
    Data:
        Version: 3 (0x2)
        Serial Number: 37 (0x25)
    Signature Algorithm: sha256WithRSAEncryption
        Issuer: C=US, ST=California, L=Santa Clara, O=pkg5, CN=ch1_ta4/emailAddress=ch1_ta4
        Validity
            Not Before: Dec 13 00:13:37 2013 GMT
            Not After : Sep  8 00:13:37 2016 GMT
        Subject: C=US, ST=California, L=Santa Clara, O=pkg5, CN=cs3_ch1_ta4/emailAddress=cs3_ch1_ta4
        Subject Public Key Info:
            Public Key Algorithm: rsaEncryption
                Public-Key: (1024 bit)
                Modulus:
                    00:d6:0b:65:25:4a:ab:c6:97:60:f0:0a:13:02:12:
                    58:0a:26:26:7f:ba:10:82:a4:68:2e:59:dc:9e:63:
                    71:4c:03:85:55:7b:c0:20:c8:3b:f3:12:24:8c:e5:
                    4d:d4:41:10:5f:5d:be:b6:76:77:41:e5:57:48:c7:
                    01:42:be:18:a0:f7:39:fa:3f:30:07:e9:6f:05:16:
                    00:43:98:5e:fa:62:46:36:79:b1:6a:84:22:15:36:
                    16:2b:23:e5:6f:2f:c6:ca:ae:dc:72:95:7a:48:9b:
                    9b:ae:72:bd:f0:ff:d2:0b:fe:82:ec:53:38:23:cd:
                    6d:65:28:ba:53:5c:74:6f:5f
                Exponent: 65537 (0x10001)
        X509v3 extensions:
            X509v3 Subject Key Identifier: 
                83:0A:1B:8B:11:B9:64:BB:0F:67:12:12:45:12:74:32:7C:36:15:F9
            X509v3 Authority Key Identifier: 
                keyid:29:7A:F9:B4:E3:1B:8F:19:63:52:FA:19:A0:AB:DA:37:E4:70:A9:71
                DirName:/C=US/ST=California/L=Santa Clara/O=pkg5/CN=ta4/emailAddress=ta4
                serial:22

            X509v3 Basic Constraints: critical
                CA:FALSE
            X509v3 CRL Distribution Points: 

                Full Name:
                  URI:foo://bar/baz

    Signature Algorithm: sha256WithRSAEncryption
         35:54:4b:75:7e:93:ad:b6:4a:01:0d:0b:90:a6:b8:97:82:f1:
         53:14:12:ce:da:83:cd:0a:d2:57:68:c4:a2:b2:54:94:dc:f8:
         fb:21:a5:e6:37:63:07:6a:eb:99:c9:61:b2:41:6f:76:a0:94:
         97:ad:a3:7c:38:b8:da:4a:ff:cb:cd:e6:d2:75:1e:c3:ae:c3:
         4f:28:32:7a:71:8d:58:c3:df:79:bb:f8:38:b8:2e:bb:fb:01:
         dc:81:c8:85:91:66:2c:46:ee:0e:96:32:4c:3c:63:ba:7e:71:
         ea:41:e1:2d:13:ac:34:2c:de:0e:9b:47:4c:41:24:0e:8a:ab:
         c7:65
-----BEGIN CERTIFICATE-----
MIIDRzCCArCgAwIBAgIBJTANBgkqhkiG9w0BAQsFADBxMQswCQYDVQQGEwJVUzET
MBEGA1UECAwKQ2FsaWZvcm5pYTEUMBIGA1UEBwwLU2FudGEgQ2xhcmExDTALBgNV
BAoMBHBrZzUxEDAOBgNVBAMMB2NoMV90YTQxFjAUBgkqhkiG9w0BCQEWB2NoMV90
YTQwHhcNMTMxMjEzMDAxMzM3WhcNMTYwOTA4MDAxMzM3WjB5MQswCQYDVQQGEwJV
UzETMBEGA1UECAwKQ2FsaWZvcm5pYTEUMBIGA1UEBwwLU2FudGEgQ2xhcmExDTAL
BgNVBAoMBHBrZzUxFDASBgNVBAMMC2NzM19jaDFfdGE0MRowGAYJKoZIhvcNAQkB
FgtjczNfY2gxX3RhNDCBnzANBgkqhkiG9w0BAQEFAAOBjQAwgYkCgYEA1gtlJUqr
xpdg8AoTAhJYCiYmf7oQgqRoLlncnmNxTAOFVXvAIMg78xIkjOVN1EEQX12+tnZ3
QeVXSMcBQr4YoPc5+j8wB+lvBRYAQ5he+mJGNnmxaoQiFTYWKyPlby/Gyq7ccpV6
SJubrnK98P/SC/6C7FM4I81tZSi6U1x0b18CAwEAAaOB5jCB4zAdBgNVHQ4EFgQU
gwobixG5ZLsPZxISRRJ0Mnw2FfkwgZMGA1UdIwSBizCBiIAUKXr5tOMbjxljUvoZ
oKvaN+RwqXGhbaRrMGkxCzAJBgNVBAYTAlVTMRMwEQYDVQQIDApDYWxpZm9ybmlh
MRQwEgYDVQQHDAtTYW50YSBDbGFyYTENMAsGA1UECgwEcGtnNTEMMAoGA1UEAwwD
dGE0MRIwEAYJKoZIhvcNAQkBFgN0YTSCASIwDAYDVR0TAQH/BAIwADAeBgNVHR8E
FzAVMBOgEaAPhg1mb286Ly9iYXIvYmF6MA0GCSqGSIb3DQEBCwUAA4GBADVUS3V+
k622SgENC5CmuJeC8VMUEs7ag80K0ldoxKKyVJTc+PshpeY3Ywdq65nJYbJBb3ag
lJeto3w4uNpK/8vN5tJ1HsOuw08oMnpxjVjD33m7+Di4Lrv7AdyByIWRZixG7g6W
Mkw8Y7p+cepB4S0TrDQs3g6bR0xBJA6Kq8dl
-----END CERTIFICATE-----
