Certificate:
    Data:
        Version: 3 (0x2)
        Serial Number: 37 (0x25)
    Signature Algorithm: sha256WithRSAEncryption
        Issuer: C=US, ST=California, L=Santa Clara, O=pkg5, CN=ch1_ta4/emailAddress=ch1_ta4
        Validity
            Not Before: Jan 22 15:33:13 2019 GMT
            Not After : Oct 18 15:33:13 2021 GMT
        Subject: C=US, ST=California, L=Santa Clara, O=pkg5, CN=cs3_ch1_ta4/emailAddress=cs3_ch1_ta4
        Subject Public Key Info:
            Public Key Algorithm: rsaEncryption
                Public-Key: (1024 bit)
                Modulus:
                    00:b9:ae:e4:92:1e:35:2f:74:ce:6a:f6:ac:7b:52:
                    7c:d5:bd:2d:32:24:ef:e4:44:64:1f:85:7f:fc:4f:
                    f5:2e:f8:96:cf:00:87:d6:89:ab:18:32:10:00:85:
                    57:54:d1:3f:32:4f:e7:bf:02:89:ca:f7:f6:d7:6d:
                    7d:7e:80:c5:14:1f:ff:a1:72:57:da:46:43:97:a0:
                    99:4a:c1:bf:0f:6f:ef:ec:8c:a1:52:9a:28:4d:42:
                    c0:ba:c1:f4:77:75:cf:19:59:71:b0:a0:f8:18:94:
                    b3:1f:ee:82:63:dc:ae:b2:12:e1:87:7d:c2:b3:bc:
                    07:2b:b0:6f:10:5f:13:e7:53
                Exponent: 65537 (0x10001)
        X509v3 extensions:
            X509v3 Subject Key Identifier: 
                D6:25:75:C8:1B:CF:AB:A9:FF:1E:A5:95:6C:09:78:FE:2A:AB:96:2B
            X509v3 Authority Key Identifier: 
                keyid:5B:89:13:79:3F:27:D8:77:12:6A:53:5F:0D:62:E0:B4:84:B0:F5:B9
                DirName:/C=US/ST=California/L=Santa Clara/O=pkg5/CN=ta4/emailAddress=ta4
                serial:22

            X509v3 Basic Constraints: critical
                CA:FALSE
            X509v3 CRL Distribution Points: 

                Full Name:
                  URI:foo://bar/baz

    Signature Algorithm: sha256WithRSAEncryption
         28:0f:11:04:e9:c6:02:00:93:f0:cd:2a:db:b4:f6:32:b3:0b:
         0f:e9:4f:6c:0c:70:8c:55:87:75:5e:c6:44:4c:c4:35:1f:82:
         16:cf:16:c6:6f:de:ba:3b:d8:b2:d4:b4:9c:ce:e5:87:cc:93:
         9e:e7:0d:e8:42:c5:db:ed:82:81:f1:2c:1e:d4:53:bf:aa:89:
         42:5b:a7:74:40:12:ca:1b:cf:47:01:57:19:81:e0:40:29:18:
         59:7b:61:71:40:99:34:a9:86:8b:42:07:3b:da:90:d5:c2:bd:
         0b:d2:ad:82:47:92:9b:48:6e:bb:df:31:c5:c7:e1:fb:83:3a:
         96:7c:97:80:53:65:f0:7f:b2:1f:4d:42:6e:5c:bb:6d:6c:45:
         1c:9b:27:31:79:ab:2e:03:8f:d0:4c:50:81:0c:97:4a:dd:93:
         84:46:53:c8:a0:5b:33:79:c7:30:4a:f6:4b:13:df:a4:d5:7d:
         98:51:0c:92:08:4e:9f:cd:fd:7b:11:10:66:72:49:f2:02:38:
         68:b6:1f:e0:ad:c2:a4:9b:0f:88:19:af:63:5f:4f:28:d1:c2:
         6f:83:04:1f:bd:01:c3:6c:6f:75:58:2a:28:c0:06:67:f1:87:
         41:3c:a1:b7:55:be:de:d8:f1:6c:c4:6c:14:7a:59:ca:cf:56:
         5d:0d:6b:c4
-----BEGIN CERTIFICATE-----
MIIDyDCCArCgAwIBAgIBJTANBgkqhkiG9w0BAQsFADBxMQswCQYDVQQGEwJVUzET
MBEGA1UECAwKQ2FsaWZvcm5pYTEUMBIGA1UEBwwLU2FudGEgQ2xhcmExDTALBgNV
BAoMBHBrZzUxEDAOBgNVBAMMB2NoMV90YTQxFjAUBgkqhkiG9w0BCQEWB2NoMV90
YTQwHhcNMTkwMTIyMTUzMzEzWhcNMjExMDE4MTUzMzEzWjB5MQswCQYDVQQGEwJV
UzETMBEGA1UECAwKQ2FsaWZvcm5pYTEUMBIGA1UEBwwLU2FudGEgQ2xhcmExDTAL
BgNVBAoMBHBrZzUxFDASBgNVBAMMC2NzM19jaDFfdGE0MRowGAYJKoZIhvcNAQkB
FgtjczNfY2gxX3RhNDCBnzANBgkqhkiG9w0BAQEFAAOBjQAwgYkCgYEAua7kkh41
L3TOavase1J81b0tMiTv5ERkH4V//E/1LviWzwCH1omrGDIQAIVXVNE/Mk/nvwKJ
yvf21219foDFFB//oXJX2kZDl6CZSsG/D2/v7IyhUpooTULAusH0d3XPGVlxsKD4
GJSzH+6CY9yushLhh33Cs7wHK7BvEF8T51MCAwEAAaOB5jCB4zAdBgNVHQ4EFgQU
1iV1yBvPq6n/HqWVbAl4/iqrliswgZMGA1UdIwSBizCBiIAUW4kTeT8n2HcSalNf
DWLgtISw9bmhbaRrMGkxCzAJBgNVBAYTAlVTMRMwEQYDVQQIDApDYWxpZm9ybmlh
MRQwEgYDVQQHDAtTYW50YSBDbGFyYTENMAsGA1UECgwEcGtnNTEMMAoGA1UEAwwD
dGE0MRIwEAYJKoZIhvcNAQkBFgN0YTSCASIwDAYDVR0TAQH/BAIwADAeBgNVHR8E
FzAVMBOgEaAPhg1mb286Ly9iYXIvYmF6MA0GCSqGSIb3DQEBCwUAA4IBAQAoDxEE
6cYCAJPwzSrbtPYyswsP6U9sDHCMVYd1XsZETMQ1H4IWzxbGb966O9iy1LSczuWH
zJOe5w3oQsXb7YKB8Swe1FO/qolCW6d0QBLKG89HAVcZgeBAKRhZe2FxQJk0qYaL
Qgc72pDVwr0L0q2CR5KbSG673zHFx+H7gzqWfJeAU2Xwf7IfTUJuXLttbEUcmycx
easuA4/QTFCBDJdK3ZOERlPIoFszeccwSvZLE9+k1X2YUQySCE6fzf17ERBmckny
Ajhoth/grcKkmw+IGa9jX08o0cJvgwQfvQHDbG91WCoowAZn8YdBPKG3Vb7e2PFs
xGwUelnKz1ZdDWvE
-----END CERTIFICATE-----
