Certificate:
    Data:
        Version: 3 (0x2)
        Serial Number: 37 (0x25)
    Signature Algorithm: sha256WithRSAEncryption
        Issuer: C=US, ST=California, L=Santa Clara, O=pkg5, CN=ch1_ta4/emailAddress=ch1_ta4
        Validity
            Not Before: Sep 22 05:33:31 2021 GMT
            Not After : Jun 18 05:33:31 2024 GMT
        Subject: C=US, ST=California, L=Santa Clara, O=pkg5, CN=cs3_ch1_ta4/emailAddress=cs3_ch1_ta4
        Subject Public Key Info:
            Public Key Algorithm: rsaEncryption
                Public-Key: (1024 bit)
                Modulus:
                    00:af:bc:05:16:a7:f5:50:8c:f4:a8:6c:51:43:eb:
                    0e:a0:0c:f9:23:0f:c3:bb:9f:20:18:a3:47:b3:a7:
                    40:7f:8d:dc:85:43:1a:ca:ae:30:80:19:14:22:1a:
                    36:d8:06:90:8b:01:d4:89:e8:09:2e:9e:f8:c7:13:
                    dc:b8:93:1f:9f:5d:99:3a:46:8b:a9:f2:77:f1:14:
                    dd:a0:c1:40:eb:82:ba:aa:4b:d4:de:9d:18:f0:44:
                    9d:85:be:cb:01:00:93:18:ee:33:7f:02:d2:de:24:
                    59:bb:0f:aa:ab:13:44:5a:9c:82:be:68:eb:87:cc:
                    0c:b8:71:c1:73:21:21:18:3f
                Exponent: 65537 (0x10001)
        X509v3 extensions:
            X509v3 Subject Key Identifier: 
                9D:2B:0A:FE:55:CB:C9:A4:59:70:D2:52:6C:E7:25:FA:55:4E:3E:6A
            X509v3 Authority Key Identifier: 
                keyid:E3:7C:EE:D8:69:24:F4:F6:A2:B5:52:49:4C:3B:10:57:03:DA:97:06
                DirName:/C=US/ST=California/L=Santa Clara/O=pkg5/CN=ta4/emailAddress=ta4
                serial:22

            X509v3 Basic Constraints: critical
                CA:FALSE
            X509v3 CRL Distribution Points: 

                Full Name:
                  URI:foo://bar/baz

    Signature Algorithm: sha256WithRSAEncryption
         80:6a:3f:ee:6f:92:d3:c8:95:dc:b8:91:6f:b7:59:95:cf:0b:
         f6:66:55:ca:d0:8e:ea:ff:12:7f:77:66:90:21:75:3d:c4:fa:
         8c:60:7b:81:fc:18:7e:34:e5:ac:59:ba:95:e3:4f:5d:ba:5d:
         34:f4:34:53:49:57:e1:e1:e7:8c:39:ac:70:a4:f5:b3:f1:9f:
         70:c0:10:9f:97:6e:68:fa:42:c6:37:6b:cc:b2:eb:00:5b:72:
         ec:88:6a:e9:7e:a4:18:fc:f2:6c:29:8f:fe:8a:4c:3c:59:05:
         9a:86:f5:d8:17:fb:b4:79:32:78:24:ef:cf:36:2e:b1:26:19:
         0e:d2:62:a3:0e:29:27:e3:69:f2:a5:0a:bc:34:22:d8:44:4e:
         db:cd:7d:2e:07:15:6c:02:78:b3:46:6a:e8:e3:32:40:b3:41:
         4b:b7:bf:73:02:71:59:c9:b0:ed:f8:9d:ec:a4:a5:8a:72:d4:
         21:f8:bf:90:ac:59:31:fe:09:65:5f:e6:1b:c1:25:31:4a:80:
         3e:2f:4b:a9:38:2e:84:c5:34:40:bc:3f:fa:b4:d6:c2:7c:bc:
         80:bb:ee:d7:98:20:0d:da:f4:06:f4:5f:05:ff:46:01:13:12:
         11:6f:d5:3d:07:2e:b0:28:ad:07:2c:22:4a:09:6a:fa:3c:e5:
         22:95:64:4c
-----BEGIN CERTIFICATE-----
MIIDyDCCArCgAwIBAgIBJTANBgkqhkiG9w0BAQsFADBxMQswCQYDVQQGEwJVUzET
MBEGA1UECAwKQ2FsaWZvcm5pYTEUMBIGA1UEBwwLU2FudGEgQ2xhcmExDTALBgNV
BAoMBHBrZzUxEDAOBgNVBAMMB2NoMV90YTQxFjAUBgkqhkiG9w0BCQEWB2NoMV90
YTQwHhcNMjEwOTIyMDUzMzMxWhcNMjQwNjE4MDUzMzMxWjB5MQswCQYDVQQGEwJV
UzETMBEGA1UECAwKQ2FsaWZvcm5pYTEUMBIGA1UEBwwLU2FudGEgQ2xhcmExDTAL
BgNVBAoMBHBrZzUxFDASBgNVBAMMC2NzM19jaDFfdGE0MRowGAYJKoZIhvcNAQkB
FgtjczNfY2gxX3RhNDCBnzANBgkqhkiG9w0BAQEFAAOBjQAwgYkCgYEAr7wFFqf1
UIz0qGxRQ+sOoAz5Iw/Du58gGKNHs6dAf43chUMayq4wgBkUIho22AaQiwHUiegJ
Lp74xxPcuJMfn12ZOkaLqfJ38RTdoMFA64K6qkvU3p0Y8ESdhb7LAQCTGO4zfwLS
3iRZuw+qqxNEWpyCvmjrh8wMuHHBcyEhGD8CAwEAAaOB5jCB4zAdBgNVHQ4EFgQU
nSsK/lXLyaRZcNJSbOcl+lVOPmowgZMGA1UdIwSBizCBiIAU43zu2Gkk9PaitVJJ
TDsQVwPalwahbaRrMGkxCzAJBgNVBAYTAlVTMRMwEQYDVQQIDApDYWxpZm9ybmlh
MRQwEgYDVQQHDAtTYW50YSBDbGFyYTENMAsGA1UECgwEcGtnNTEMMAoGA1UEAwwD
dGE0MRIwEAYJKoZIhvcNAQkBFgN0YTSCASIwDAYDVR0TAQH/BAIwADAeBgNVHR8E
FzAVMBOgEaAPhg1mb286Ly9iYXIvYmF6MA0GCSqGSIb3DQEBCwUAA4IBAQCAaj/u
b5LTyJXcuJFvt1mVzwv2ZlXK0I7q/xJ/d2aQIXU9xPqMYHuB/Bh+NOWsWbqV409d
ul009DRTSVfh4eeMOaxwpPWz8Z9wwBCfl25o+kLGN2vMsusAW3LsiGrpfqQY/PJs
KY/+ikw8WQWahvXYF/u0eTJ4JO/PNi6xJhkO0mKjDikn42nypQq8NCLYRE7bzX0u
BxVsAnizRmro4zJAs0FLt79zAnFZybDt+J3spKWKctQh+L+QrFkx/gllX+YbwSUx
SoA+L0upOC6ExTRAvD/6tNbCfLyAu+7XmCAN2vQG9F8F/0YBExIRb9U9By6wKK0H
LCJKCWr6POUilWRM
-----END CERTIFICATE-----
