Certificate:
    Data:
        Version: 3 (0x2)
        Serial Number: 38 (0x26)
    Signature Algorithm: sha256WithRSAEncryption
        Issuer: C=US, ST=California, L=Santa Clara, O=pkg5, CN=ch1_ta4/emailAddress=ch1_ta4
        Validity
            Not Before: Jan 22 01:57:59 2016 GMT
            Not After : Oct 18 01:57:59 2018 GMT
        Subject: C=US, ST=California, L=Santa Clara, O=pkg5, CN=cs3_ch1_ta4/emailAddress=cs3_ch1_ta4
        Subject Public Key Info:
            Public Key Algorithm: rsaEncryption
                Public-Key: (1024 bit)
                Modulus:
                    00:b0:56:0d:1c:fb:d4:85:04:de:8b:f3:d1:91:ee:
                    94:29:3f:fa:04:80:0e:1c:bd:4f:46:a8:61:58:3d:
                    3f:70:46:0d:a5:6e:15:1c:d0:bd:fd:89:3e:51:f7:
                    91:c6:15:90:69:5e:e7:6f:26:fb:b0:58:55:06:c5:
                    b6:f7:e2:47:4c:6b:cb:60:eb:b8:a0:09:12:fb:04:
                    6a:80:7e:bd:b1:7d:2c:4b:f5:8c:0c:b0:1a:14:e1:
                    6e:6d:d6:7b:68:11:db:fc:84:ae:0a:b9:98:27:e3:
                    8b:35:8a:17:c6:1a:37:79:37:1e:2d:54:ab:00:2f:
                    dc:ea:62:42:3a:6c:83:c2:3d
                Exponent: 65537 (0x10001)
        X509v3 extensions:
            X509v3 Subject Key Identifier: 
                E0:59:BD:00:D2:46:1A:6F:9E:D2:18:79:D9:FE:3D:ED:BA:55:03:06
            X509v3 Authority Key Identifier: 
                keyid:59:7F:0E:5C:5B:04:78:41:DB:55:AC:9E:07:50:E4:FB:9E:26:28:C8
                DirName:/C=US/ST=California/L=Santa Clara/O=pkg5/CN=ta4/emailAddress=ta4
                serial:23

            X509v3 Basic Constraints: critical
                CA:FALSE
            X509v3 CRL Distribution Points: 

                Full Name:
                  URI:foo://bar/baz

    Signature Algorithm: sha256WithRSAEncryption
         0a:3f:72:04:22:75:d9:02:b9:69:e8:46:ca:b6:7d:67:06:34:
         12:55:07:fe:97:ad:f5:7b:42:79:45:3a:da:25:4f:e2:cb:40:
         fa:30:9a:36:32:c7:03:ff:41:be:02:ae:d5:51:81:6b:0a:b1:
         cb:14:f3:c5:1a:ac:f3:01:6a:fa:07:c3:9a:2f:5f:95:a2:0f:
         f9:6d:84:a2:ee:85:b9:fa:ee:1b:d9:d0:96:91:92:81:8b:5a:
         10:c4:f2:91:96:dd:e3:ad:92:47:78:fc:11:27:be:09:00:b1:
         f6:a7:c3:99:9d:8d:45:e3:96:88:96:94:ab:a1:ff:8d:2c:b5:
         15:42:f2:c2:1d:42:3d:2d:a8:b6:2f:78:9f:28:03:22:58:a0:
         99:8d:9b:e8:8f:1b:f6:a3:05:96:41:35:2f:8c:c2:3a:72:ad:
         14:72:ee:76:c9:26:21:5a:35:c7:33:09:f3:bc:5d:d8:52:a3:
         56:df:52:17:06:70:4a:48:c6:4c:73:a2:bd:9e:4f:15:ca:94:
         ce:6a:ce:72:a8:c4:87:f5:aa:7b:08:af:9e:e0:63:90:5b:80:
         cf:5e:00:fd:5b:99:5e:52:3c:e7:df:57:50:48:08:f1:80:bd:
         52:64:08:80:62:fa:a2:6d:0d:64:b4:9b:bd:2e:17:02:41:3a:
         b4:b4:3b:42
-----BEGIN CERTIFICATE-----
MIIDyDCCArCgAwIBAgIBJjANBgkqhkiG9w0BAQsFADBxMQswCQYDVQQGEwJVUzET
MBEGA1UECAwKQ2FsaWZvcm5pYTEUMBIGA1UEBwwLU2FudGEgQ2xhcmExDTALBgNV
BAoMBHBrZzUxEDAOBgNVBAMMB2NoMV90YTQxFjAUBgkqhkiG9w0BCQEWB2NoMV90
YTQwHhcNMTYwMTIyMDE1NzU5WhcNMTgxMDE4MDE1NzU5WjB5MQswCQYDVQQGEwJV
UzETMBEGA1UECAwKQ2FsaWZvcm5pYTEUMBIGA1UEBwwLU2FudGEgQ2xhcmExDTAL
BgNVBAoMBHBrZzUxFDASBgNVBAMMC2NzM19jaDFfdGE0MRowGAYJKoZIhvcNAQkB
FgtjczNfY2gxX3RhNDCBnzANBgkqhkiG9w0BAQEFAAOBjQAwgYkCgYEAsFYNHPvU
hQTei/PRke6UKT/6BIAOHL1PRqhhWD0/cEYNpW4VHNC9/Yk+UfeRxhWQaV7nbyb7
sFhVBsW29+JHTGvLYOu4oAkS+wRqgH69sX0sS/WMDLAaFOFubdZ7aBHb/ISuCrmY
J+OLNYoXxho3eTceLVSrAC/c6mJCOmyDwj0CAwEAAaOB5jCB4zAdBgNVHQ4EFgQU
4Fm9ANJGGm+e0hh52f497bpVAwYwgZMGA1UdIwSBizCBiIAUWX8OXFsEeEHbVaye
B1Dk+54mKMihbaRrMGkxCzAJBgNVBAYTAlVTMRMwEQYDVQQIDApDYWxpZm9ybmlh
MRQwEgYDVQQHDAtTYW50YSBDbGFyYTENMAsGA1UECgwEcGtnNTEMMAoGA1UEAwwD
dGE0MRIwEAYJKoZIhvcNAQkBFgN0YTSCASMwDAYDVR0TAQH/BAIwADAeBgNVHR8E
FzAVMBOgEaAPhg1mb286Ly9iYXIvYmF6MA0GCSqGSIb3DQEBCwUAA4IBAQAKP3IE
InXZArlp6EbKtn1nBjQSVQf+l631e0J5RTraJU/iy0D6MJo2MscD/0G+Aq7VUYFr
CrHLFPPFGqzzAWr6B8OaL1+Vog/5bYSi7oW5+u4b2dCWkZKBi1oQxPKRlt3jrZJH
ePwRJ74JALH2p8OZnY1F45aIlpSrof+NLLUVQvLCHUI9Lai2L3ifKAMiWKCZjZvo
jxv2owWWQTUvjMI6cq0Ucu52ySYhWjXHMwnzvF3YUqNW31IXBnBKSMZMc6K9nk8V
ypTOas5yqMSH9ap7CK+e4GOQW4DPXgD9W5leUjzn31dQSAjxgL1SZAiAYvqibQ1k
tJu9LhcCQTq0tDtC
-----END CERTIFICATE-----
