Certificate:
    Data:
        Version: 3 (0x2)
        Serial Number: 39 (0x27)
    Signature Algorithm: sha256WithRSAEncryption
        Issuer: C=US, ST=California, L=Santa Clara, O=pkg5, CN=ch1.1_ta4/emailAddress=ch1.1_ta4
        Validity
            Not Before: Jan 22 15:33:14 2019 GMT
            Not After : Oct 18 15:33:14 2021 GMT
        Subject: C=US, ST=California, L=Santa Clara, O=pkg5, CN=cs1_ch1.1_ta4/emailAddress=cs1_ch1.1_ta4
        Subject Public Key Info:
            Public Key Algorithm: rsaEncryption
                Public-Key: (1024 bit)
                Modulus:
                    00:b1:d6:8e:32:c9:1e:b3:59:9a:f7:b3:2e:15:a7:
                    34:2a:f0:02:b5:33:0a:6b:33:e9:8f:d6:1a:48:f6:
                    ee:ed:cd:c3:55:71:46:4b:8f:b0:02:d4:6c:64:49:
                    a5:ce:a1:77:b9:9c:a1:56:46:d9:7a:41:b8:ee:8b:
                    59:81:bc:bb:ca:a9:43:18:ee:2a:2f:44:75:15:c6:
                    b8:16:83:ac:a7:24:f9:21:6e:c3:8a:4f:a1:f6:2d:
                    a8:33:f5:7b:6f:97:e4:0f:5b:ca:80:9f:4a:c7:05:
                    fc:31:76:ab:10:5a:60:93:9a:a5:ef:69:1f:b6:96:
                    ec:3a:ba:57:a7:7f:d2:a6:b3
                Exponent: 65537 (0x10001)
        X509v3 extensions:
            X509v3 Basic Constraints: critical
                CA:FALSE
            X509v3 CRL Distribution Points: 

                Full Name:
                  URI:http://localhost:12001/file/0/ch1.1_ta4_crl.pem

    Signature Algorithm: sha256WithRSAEncryption
         9f:fd:8c:3f:8a:b1:a9:01:9d:fa:4c:ea:49:10:a8:58:f7:cf:
         65:13:66:e7:02:4f:2c:e9:e2:b5:f6:fb:c1:55:61:b5:fc:d1:
         94:30:2e:96:e1:40:10:d6:d6:2a:a0:f9:33:f1:dd:26:25:c4:
         d8:0d:2e:e1:7a:14:a8:6c:78:25:c1:2d:76:b1:96:e0:17:d8:
         41:fb:cc:3d:d6:39:6f:12:f0:ea:72:18:a4:e2:74:49:8c:10:
         15:29:9b:87:16:d6:55:19:20:53:b7:97:4b:77:f6:75:5c:de:
         ef:46:94:fc:f5:9e:3a:47:6a:04:56:70:85:2c:5e:6b:81:96:
         f5:90:0d:ad:cf:43:1e:39:16:53:e7:3f:38:98:7d:07:75:8b:
         db:a1:28:03:ec:46:9a:1c:88:b7:46:cf:dd:94:3c:e9:bd:66:
         12:cf:76:ab:17:33:c8:fe:50:61:47:00:ef:c8:80:8c:1a:69:
         e3:bc:5f:bd:6e:24:3a:09:62:52:a0:5a:05:75:93:2c:8b:80:
         e8:44:3a:d4:80:83:12:e5:c8:40:29:11:cb:92:28:41:83:7a:
         f9:5f:8d:d4:35:84:ab:d1:4f:2c:7a:e1:69:9f:48:44:b5:da:
         71:ea:8c:e8:80:c5:cf:85:d7:32:3e:2c:f5:df:33:dc:2f:17:
         84:1c:a2:d2
-----BEGIN CERTIFICATE-----
MIIDOzCCAiOgAwIBAgIBJzANBgkqhkiG9w0BAQsFADB1MQswCQYDVQQGEwJVUzET
MBEGA1UECAwKQ2FsaWZvcm5pYTEUMBIGA1UEBwwLU2FudGEgQ2xhcmExDTALBgNV
BAoMBHBrZzUxEjAQBgNVBAMMCWNoMS4xX3RhNDEYMBYGCSqGSIb3DQEJARYJY2gx
LjFfdGE0MB4XDTE5MDEyMjE1MzMxNFoXDTIxMTAxODE1MzMxNFowfTELMAkGA1UE
BhMCVVMxEzARBgNVBAgMCkNhbGlmb3JuaWExFDASBgNVBAcMC1NhbnRhIENsYXJh
MQ0wCwYDVQQKDARwa2c1MRYwFAYDVQQDDA1jczFfY2gxLjFfdGE0MRwwGgYJKoZI
hvcNAQkBFg1jczFfY2gxLjFfdGE0MIGfMA0GCSqGSIb3DQEBAQUAA4GNADCBiQKB
gQCx1o4yyR6zWZr3sy4VpzQq8AK1MwprM+mP1hpI9u7tzcNVcUZLj7AC1GxkSaXO
oXe5nKFWRtl6Qbjui1mBvLvKqUMY7iovRHUVxrgWg6ynJPkhbsOKT6H2Lagz9Xtv
l+QPW8qAn0rHBfwxdqsQWmCTmqXvaR+2luw6ulenf9KmswIDAQABo1IwUDAMBgNV
HRMBAf8EAjAAMEAGA1UdHwQ5MDcwNaAzoDGGL2h0dHA6Ly9sb2NhbGhvc3Q6MTIw
MDEvZmlsZS8wL2NoMS4xX3RhNF9jcmwucGVtMA0GCSqGSIb3DQEBCwUAA4IBAQCf
/Yw/irGpAZ36TOpJEKhY989lE2bnAk8s6eK19vvBVWG1/NGUMC6W4UAQ1tYqoPkz
8d0mJcTYDS7hehSobHglwS12sZbgF9hB+8w91jlvEvDqchik4nRJjBAVKZuHFtZV
GSBTt5dLd/Z1XN7vRpT89Z46R2oEVnCFLF5rgZb1kA2tz0MeORZT5z84mH0HdYvb
oSgD7EaaHIi3Rs/dlDzpvWYSz3arFzPI/lBhRwDvyICMGmnjvF+9biQ6CWJSoFoF
dZMsi4DoRDrUgIMS5chAKRHLkihBg3r5X43UNYSr0U8seuFpn0hEtdpx6ozogMXP
hdcyPiz13zPcLxeEHKLS
-----END CERTIFICATE-----
