Certificate:
    Data:
        Version: 3 (0x2)
        Serial Number: 39 (0x27)
    Signature Algorithm: sha256WithRSAEncryption
        Issuer: C=US, ST=California, L=Santa Clara, O=pkg5, CN=ch1.1_ta4/emailAddress=ch1.1_ta4
        Validity
            Not Before: Dec 13 00:13:38 2013 GMT
            Not After : Sep  8 00:13:38 2016 GMT
        Subject: C=US, ST=California, L=Santa Clara, O=pkg5, CN=cs1_ch1.1_ta4/emailAddress=cs1_ch1.1_ta4
        Subject Public Key Info:
            Public Key Algorithm: rsaEncryption
                Public-Key: (1024 bit)
                Modulus:
                    00:b6:6e:c2:9c:e6:4b:a1:4b:40:2a:15:bd:63:6b:
                    1b:bc:ee:81:e8:d4:c6:d0:1d:1c:62:27:c1:e5:ea:
                    7d:20:30:9b:91:ca:92:2c:b0:21:90:14:7c:db:98:
                    e9:79:e7:dc:1f:13:17:37:66:43:d3:a5:b1:93:90:
                    01:b6:2f:a3:a9:1b:29:5c:ff:93:d0:fb:32:e6:d4:
                    1e:87:ba:1a:a1:82:5e:15:91:46:5e:1a:30:7d:70:
                    b5:33:fc:20:ec:dc:34:41:e7:ce:02:3e:ec:d1:8f:
                    55:58:e5:85:26:76:e2:96:b9:a1:bd:df:6a:38:09:
                    d5:46:e8:2b:79:5e:59:9b:89
                Exponent: 65537 (0x10001)
        X509v3 extensions:
            X509v3 Basic Constraints: critical
                CA:FALSE
            X509v3 CRL Distribution Points: 

                Full Name:
                  URI:http://localhost:12001/file/0/ch1.1_ta4_crl.pem

    Signature Algorithm: sha256WithRSAEncryption
         3a:43:96:50:db:7b:96:a3:07:92:28:02:06:de:70:45:80:fe:
         05:07:e8:f9:42:60:3b:11:10:3a:14:9b:5a:af:e6:1d:c2:7d:
         0a:10:7d:0f:ad:26:a9:d7:9a:92:5d:0f:c1:76:d9:a0:ff:2d:
         a9:b6:35:64:79:32:97:9b:d1:cc:ef:e3:b7:75:f9:a6:e9:50:
         47:37:80:ca:dd:b0:3c:28:d4:78:2b:e8:53:56:76:30:5f:67:
         e7:07:b8:e7:cb:7b:19:71:2a:71:6d:6d:58:1a:5e:3a:0f:c9:
         ff:c4:0e:d4:e9:e5:5e:2c:26:5d:cd:a1:77:f9:3b:24:23:ec:
         14:6c
-----BEGIN CERTIFICATE-----
MIICujCCAiOgAwIBAgIBJzANBgkqhkiG9w0BAQsFADB1MQswCQYDVQQGEwJVUzET
MBEGA1UECAwKQ2FsaWZvcm5pYTEUMBIGA1UEBwwLU2FudGEgQ2xhcmExDTALBgNV
BAoMBHBrZzUxEjAQBgNVBAMMCWNoMS4xX3RhNDEYMBYGCSqGSIb3DQEJARYJY2gx
LjFfdGE0MB4XDTEzMTIxMzAwMTMzOFoXDTE2MDkwODAwMTMzOFowfTELMAkGA1UE
BhMCVVMxEzARBgNVBAgMCkNhbGlmb3JuaWExFDASBgNVBAcMC1NhbnRhIENsYXJh
MQ0wCwYDVQQKDARwa2c1MRYwFAYDVQQDDA1jczFfY2gxLjFfdGE0MRwwGgYJKoZI
hvcNAQkBFg1jczFfY2gxLjFfdGE0MIGfMA0GCSqGSIb3DQEBAQUAA4GNADCBiQKB
gQC2bsKc5kuhS0AqFb1jaxu87oHo1MbQHRxiJ8Hl6n0gMJuRypIssCGQFHzbmOl5
59wfExc3ZkPTpbGTkAG2L6OpGylc/5PQ+zLm1B6Huhqhgl4VkUZeGjB9cLUz/CDs
3DRB584CPuzRj1VY5YUmduKWuaG932o4CdVG6Ct5XlmbiQIDAQABo1IwUDAMBgNV
HRMBAf8EAjAAMEAGA1UdHwQ5MDcwNaAzoDGGL2h0dHA6Ly9sb2NhbGhvc3Q6MTIw
MDEvZmlsZS8wL2NoMS4xX3RhNF9jcmwucGVtMA0GCSqGSIb3DQEBCwUAA4GBADpD
llDbe5ajB5IoAgbecEWA/gUH6PlCYDsREDoUm1qv5h3CfQoQfQ+tJqnXmpJdD8F2
2aD/Lam2NWR5Mpeb0czv47d1+abpUEc3gMrdsDwo1Hgr6FNWdjBfZ+cHuOfLexlx
KnFtbVgaXjoPyf/EDtTp5V4sJl3NoXf5OyQj7BRs
-----END CERTIFICATE-----
