Certificate:
    Data:
        Version: 3 (0x2)
        Serial Number: 39 (0x27)
        Signature Algorithm: sha256WithRSAEncryption
        Issuer: C=US, ST=California, L=Menlo Park, O=pkg5, CN=ch1.1_ta4/emailAddress=ch1.1_ta4
        Validity
            Not Before: Apr 11 22:37:51 2011 GMT
            Not After : Jan  5 22:37:51 2014 GMT
        Subject: C=US, ST=California, L=Menlo Park, O=pkg5, CN=cs1_ch1.1_ta4/emailAddress=cs1_ch1.1_ta4
        Subject Public Key Info:
            Public Key Algorithm: rsaEncryption
            RSA Public Key: (1024 bit)
                Modulus (1024 bit):
                    00:ad:e1:a3:b5:65:8f:6f:53:61:4b:15:7a:d7:c6:
                    0a:a3:b0:ee:20:0b:11:d7:9c:99:ad:63:e4:8d:22:
                    6d:13:7b:10:d3:73:fa:a8:0a:14:44:3d:fb:88:be:
                    d1:27:79:d8:6b:b1:ba:8a:35:29:2d:99:21:3b:65:
                    20:d5:3d:bf:e6:fc:b6:01:e2:b3:8d:f5:9f:73:63:
                    ca:48:9b:92:d6:34:84:fb:7c:87:1e:f5:8e:48:bd:
                    96:5c:ce:e0:69:ab:f4:17:e5:22:1a:68:81:15:40:
                    52:75:c5:b0:47:16:93:23:8b:4d:59:10:d0:e3:46:
                    3e:ab:fd:09:6a:69:fc:6f:9d
                Exponent: 65537 (0x10001)
        X509v3 extensions:
            X509v3 Basic Constraints: critical
                CA:FALSE
            X509v3 CRL Distribution Points: 
                URI:http://localhost:12001/file/0/ch1.1_ta4_crl.pem

    Signature Algorithm: sha256WithRSAEncryption
        57:fb:2f:75:3a:7a:68:6d:65:67:9a:c0:28:9e:c8:12:bf:b5:
        63:c2:b8:9e:d0:78:07:6a:91:69:9f:a2:93:e1:90:8b:5a:25:
        ec:3f:37:25:93:a2:f6:58:91:f1:f5:1a:67:44:2a:aa:ee:6e:
        7c:dd:02:5c:82:8d:4e:7f:ea:de:42:0a:ef:83:c2:ec:78:74:
        db:a8:e1:ba:0d:b8:e8:2a:b1:9b:d8:c6:df:28:75:34:85:78:
        7d:f2:dd:68:63:63:4f:18:8e:66:65:73:1c:30:b0:a9:9e:df:
        ae:ef:be:d2:99:28:bd:2c:9e:d9:d8:20:06:49:89:bb:0c:8c:
        00:0e
-----BEGIN CERTIFICATE-----
MIICuDCCAiGgAwIBAgIBJzANBgkqhkiG9w0BAQsFADB0MQswCQYDVQQGEwJVUzET
MBEGA1UECBMKQ2FsaWZvcm5pYTETMBEGA1UEBxMKTWVubG8gUGFyazENMAsGA1UE
ChMEcGtnNTESMBAGA1UEAxQJY2gxLjFfdGE0MRgwFgYJKoZIhvcNAQkBFgljaDEu
MV90YTQwHhcNMTEwNDExMjIzNzUxWhcNMTQwMTA1MjIzNzUxWjB8MQswCQYDVQQG
EwJVUzETMBEGA1UECBMKQ2FsaWZvcm5pYTETMBEGA1UEBxMKTWVubG8gUGFyazEN
MAsGA1UEChMEcGtnNTEWMBQGA1UEAxQNY3MxX2NoMS4xX3RhNDEcMBoGCSqGSIb3
DQEJARYNY3MxX2NoMS4xX3RhNDCBnzANBgkqhkiG9w0BAQEFAAOBjQAwgYkCgYEA
reGjtWWPb1NhSxV618YKo7DuIAsR15yZrWPkjSJtE3sQ03P6qAoURD37iL7RJ3nY
a7G6ijUpLZkhO2Ug1T2/5vy2AeKzjfWfc2PKSJuS1jSE+3yHHvWOSL2WXM7gaav0
F+UiGmiBFUBSdcWwRxaTI4tNWRDQ40Y+q/0Jamn8b50CAwEAAaNSMFAwDAYDVR0T
AQH/BAIwADBABgNVHR8EOTA3MDWgM6Axhi9odHRwOi8vbG9jYWxob3N0OjEyMDAx
L2ZpbGUvMC9jaDEuMV90YTRfY3JsLnBlbTANBgkqhkiG9w0BAQsFAAOBgQBX+y91
OnpobWVnmsAonsgSv7Vjwrie0HgHapFpn6KT4ZCLWiXsPzclk6L2WJHx9RpnRCqq
7m583QJcgo1Of+reQgrvg8LseHTbqOG6DbjoKrGb2MbfKHU0hXh98t1oY2NPGI5m
ZXMcMLCpnt+u777SmSi9LJ7Z2CAGSYm7DIwADg==
-----END CERTIFICATE-----
