Certificate:
    Data:
        Version: 3 (0x2)
        Serial Number: 39 (0x27)
        Signature Algorithm: sha256WithRSAEncryption
        Issuer: C=US, ST=California, L=Santa Clara, O=pkg5, CN=ch1.1_ta4/emailAddress=ch1.1_ta4
        Validity
            Not Before: Mar 18 08:51:43 2026 GMT
            Not After : Dec 12 08:51:43 2028 GMT
        Subject: C=US, ST=California, L=Santa Clara, O=pkg5, CN=cs1_ch1.1_ta4/emailAddress=cs1_ch1.1_ta4
        Subject Public Key Info:
            Public Key Algorithm: rsaEncryption
                Public-Key: (2048 bit)
                Modulus:
                    00:de:fa:4e:f7:70:c5:ef:c9:f7:50:08:ab:0b:5a:
                    2e:76:22:8b:33:d0:cc:ff:0f:8f:71:f8:5f:da:4b:
                    52:f2:89:83:f3:67:6b:fd:23:d2:dd:d3:9e:11:9e:
                    9a:04:3e:4e:eb:f3:d1:37:91:a8:e4:17:e8:3f:fa:
                    d8:9c:9c:a5:77:8e:6d:80:f9:cc:c0:c3:a9:74:cb:
                    88:14:a6:0c:e3:e5:d3:cd:9f:88:8d:5b:fd:19:02:
                    1e:30:68:f3:29:20:ba:e9:76:ba:0d:e1:a9:0f:97:
                    b4:0d:e8:38:51:6b:90:65:34:b9:85:a0:de:89:58:
                    18:af:c5:57:c7:84:67:81:0f:d7:65:93:07:f4:43:
                    cb:a8:27:e8:5e:2f:e6:80:b7:a0:5f:a3:b1:95:47:
                    ab:e1:0b:69:d9:0b:4e:95:21:04:8e:ba:c2:d4:53:
                    b3:c9:a5:9c:82:e4:92:1d:98:fd:86:67:f6:94:5a:
                    13:88:7c:59:07:ee:26:33:33:98:e1:3b:9f:2f:84:
                    6f:de:c2:1c:bc:42:ea:cb:5a:b7:22:18:82:8b:01:
                    59:c9:62:22:0a:88:62:02:8d:31:ec:f1:fc:48:03:
                    36:dd:41:84:b0:37:3a:92:c9:25:31:f5:9f:f7:f8:
                    3e:53:2e:40:74:06:21:a9:64:27:e8:9a:af:71:81:
                    0d:5f
                Exponent: 65537 (0x10001)
        X509v3 extensions:
            X509v3 Basic Constraints: critical
                CA:FALSE
            X509v3 CRL Distribution Points: 
                Full Name:
                  URI:http://localhost:12001/file/0/ch1.1_ta4_crl.pem
            X509v3 Subject Key Identifier: 
                61:1D:80:55:6C:0B:8B:4D:31:3C:DD:7D:5F:00:8C:D1:BA:65:40:A2
            X509v3 Authority Key Identifier: 
                FE:2A:2B:D0:1D:45:49:A3:0C:90:22:64:54:88:B3:52:45:FC:44:A2
    Signature Algorithm: sha256WithRSAEncryption
    Signature Value:
        88:a2:eb:5e:4f:cf:c1:42:35:38:45:51:d6:bc:12:a2:94:39:
        bd:70:e6:a3:0a:12:a4:18:dc:02:c6:72:64:f5:94:0b:92:75:
        a5:3c:7d:0d:6d:a2:01:ea:5d:14:74:09:53:c2:c2:2a:2c:93:
        9e:8d:a2:fc:18:97:d4:f6:27:59:e5:d7:df:f4:4a:41:32:70:
        af:cd:e0:74:c7:44:d5:27:8f:3d:92:bf:7f:2e:02:a1:9d:94:
        27:2d:98:1f:ea:6c:a0:72:74:72:65:4b:d8:26:58:b8:f6:47:
        e8:cc:dd:a5:19:04:36:08:2f:9a:ff:01:2e:56:ab:a8:c1:f2:
        fc:73:17:b0:d8:e1:7f:22:45:f7:71:8c:f0:62:3d:fd:40:e1:
        02:9d:6a:3e:3d:9c:eb:67:5f:b0:a9:e0:27:cf:46:19:ec:27:
        dc:07:74:90:50:af:d7:f7:e8:8a:de:92:c8:42:6b:9a:b0:0e:
        fa:24:f7:ae:ab:1f:87:e9:92:a9:54:03:74:f1:8a:f7:ff:dc:
        ae:d5:b1:d5:32:02:da:a4:43:2a:f8:63:c5:0d:0d:88:49:fa:
        c2:21:43:a1:e9:87:fa:ea:16:f6:2a:fc:bf:55:85:4e:19:d0:
        a3:9a:78:d7:01:63:f4:41:91:eb:5f:1f:e3:8e:8f:04:b9:13:
        7f:95:a7:7a
-----BEGIN CERTIFICATE-----
MIIEATCCAumgAwIBAgIBJzANBgkqhkiG9w0BAQsFADB1MQswCQYDVQQGEwJVUzET
MBEGA1UECAwKQ2FsaWZvcm5pYTEUMBIGA1UEBwwLU2FudGEgQ2xhcmExDTALBgNV
BAoMBHBrZzUxEjAQBgNVBAMMCWNoMS4xX3RhNDEYMBYGCSqGSIb3DQEJARYJY2gx
LjFfdGE0MB4XDTI2MDMxODA4NTE0M1oXDTI4MTIxMjA4NTE0M1owfTELMAkGA1UE
BhMCVVMxEzARBgNVBAgMCkNhbGlmb3JuaWExFDASBgNVBAcMC1NhbnRhIENsYXJh
MQ0wCwYDVQQKDARwa2c1MRYwFAYDVQQDDA1jczFfY2gxLjFfdGE0MRwwGgYJKoZI
hvcNAQkBFg1jczFfY2gxLjFfdGE0MIIBIjANBgkqhkiG9w0BAQEFAAOCAQ8AMIIB
CgKCAQEA3vpO93DF78n3UAirC1oudiKLM9DM/w+Pcfhf2ktS8omD82dr/SPS3dOe
EZ6aBD5O6/PRN5Go5BfoP/rYnJyld45tgPnMwMOpdMuIFKYM4+XTzZ+IjVv9GQIe
MGjzKSC66Xa6DeGpD5e0Deg4UWuQZTS5haDeiVgYr8VXx4RngQ/XZZMH9EPLqCfo
Xi/mgLegX6OxlUer4Qtp2QtOlSEEjrrC1FOzyaWcguSSHZj9hmf2lFoTiHxZB+4m
MzOY4TufL4Rv3sIcvELqy1q3IhiCiwFZyWIiCohiAo0x7PH8SAM23UGEsDc6kskl
MfWf9/g+Uy5AdAYhqWQn6JqvcYENXwIDAQABo4GTMIGQMAwGA1UdEwEB/wQCMAAw
QAYDVR0fBDkwNzA1oDOgMYYvaHR0cDovL2xvY2FsaG9zdDoxMjAwMS9maWxlLzAv
Y2gxLjFfdGE0X2NybC5wZW0wHQYDVR0OBBYEFGEdgFVsC4tNMTzdfV8AjNG6ZUCi
MB8GA1UdIwQYMBaAFP4qK9AdRUmjDJAiZFSIs1JF/ESiMA0GCSqGSIb3DQEBCwUA
A4IBAQCIouteT8/BQjU4RVHWvBKilDm9cOajChKkGNwCxnJk9ZQLknWlPH0NbaIB
6l0UdAlTwsIqLJOejaL8GJfU9idZ5dff9EpBMnCvzeB0x0TVJ489kr9/LgKhnZQn
LZgf6mygcnRyZUvYJli49kfozN2lGQQ2CC+a/wEuVquowfL8cxew2OF/IkX3cYzw
Yj39QOECnWo+PZzrZ1+wqeAnz0YZ7CfcB3SQUK/X9+iK3pLIQmuasA76JPeuqx+H
6ZKpVAN08Yr3/9yu1bHVMgLapEMq+GPFDQ2ISfrCIUOh6Yf66hb2Kvy/VYVOGdCj
mnjXAWP0QZHrXx/jjo8EuRN/lad6
-----END CERTIFICATE-----
