Certificate:
    Data:
        Version: 3 (0x2)
        Serial Number: 40 (0x28)
    Signature Algorithm: sha256WithRSAEncryption
        Issuer: C=US, ST=California, L=Santa Clara, O=pkg5, CN=ch1.1_ta4/emailAddress=ch1.1_ta4
        Validity
            Not Before: Jan 22 01:57:59 2016 GMT
            Not After : Oct 18 01:57:59 2018 GMT
        Subject: C=US, ST=California, L=Santa Clara, O=pkg5, CN=cs1_ch1.1_ta4/emailAddress=cs1_ch1.1_ta4
        Subject Public Key Info:
            Public Key Algorithm: rsaEncryption
                Public-Key: (1024 bit)
                Modulus:
                    00:b9:0c:c8:08:be:1a:c9:3f:ad:15:e5:d3:ad:45:
                    39:09:db:2a:fa:fe:37:9a:c6:bb:37:11:0a:ff:c3:
                    8e:69:d9:50:17:92:0d:91:92:7d:ff:c6:a9:0b:17:
                    c2:a6:91:1e:cb:c7:20:85:16:e6:2e:34:f4:d7:c8:
                    81:88:44:80:a3:51:a6:ea:9f:98:68:69:1f:20:60:
                    fd:a1:d5:a2:24:66:ce:67:0b:51:d2:5e:3b:60:89:
                    5f:e1:a9:61:0c:d7:0f:b0:52:69:22:09:9e:93:bc:
                    90:f0:e3:58:54:b7:b8:02:52:35:15:97:e5:95:8e:
                    92:fe:42:39:35:34:7a:9b:75
                Exponent: 65537 (0x10001)
        X509v3 extensions:
            X509v3 Basic Constraints: critical
                CA:FALSE
            X509v3 CRL Distribution Points: 

                Full Name:
                  URI:http://localhost:12001/file/0/ch1.1_ta4_crl.pem

    Signature Algorithm: sha256WithRSAEncryption
         aa:82:41:cd:4e:5f:e1:b7:40:94:ce:10:8c:a3:df:06:26:32:
         53:d4:b9:15:bf:f7:9a:be:67:b2:cb:a6:f1:2b:65:ce:ec:bb:
         d0:ba:8d:1b:48:e0:44:39:21:ae:5d:dc:62:3e:cc:60:67:b0:
         21:8a:b4:fc:c6:be:a0:b3:05:62:fb:ff:a2:a3:ca:3e:97:9c:
         9b:f5:f4:b1:c7:08:1e:36:1e:fc:27:e4:8b:85:ee:f5:1b:8d:
         f2:d4:8b:72:7d:c3:b2:c9:0f:67:16:35:32:c2:cf:29:0f:70:
         f8:cd:e2:d3:5b:45:c1:17:05:ef:33:3b:a4:bf:ed:b9:3a:60:
         33:d4:44:32:82:d2:d2:6b:49:54:5d:5a:03:0b:55:7c:0a:35:
         3a:19:fc:42:e1:00:af:3c:07:c7:04:47:59:39:0a:22:21:9f:
         92:6c:f5:72:6c:67:bc:f9:d2:d6:82:42:e1:83:61:87:93:6a:
         ff:08:c5:f2:1d:0e:f3:b3:6c:73:3d:4f:81:87:a7:54:88:3a:
         0b:bd:61:a1:53:75:53:db:ca:6d:cb:9c:f4:70:b5:b6:58:2f:
         6e:97:f0:79:4e:b2:20:82:a9:58:f1:14:64:e7:0d:58:7d:95:
         79:d8:2e:83:b3:aa:d6:30:ca:13:d6:77:4c:2f:c3:ac:8f:09:
         9c:9a:cc:f1
-----BEGIN CERTIFICATE-----
MIIDOzCCAiOgAwIBAgIBKDANBgkqhkiG9w0BAQsFADB1MQswCQYDVQQGEwJVUzET
MBEGA1UECAwKQ2FsaWZvcm5pYTEUMBIGA1UEBwwLU2FudGEgQ2xhcmExDTALBgNV
BAoMBHBrZzUxEjAQBgNVBAMMCWNoMS4xX3RhNDEYMBYGCSqGSIb3DQEJARYJY2gx
LjFfdGE0MB4XDTE2MDEyMjAxNTc1OVoXDTE4MTAxODAxNTc1OVowfTELMAkGA1UE
BhMCVVMxEzARBgNVBAgMCkNhbGlmb3JuaWExFDASBgNVBAcMC1NhbnRhIENsYXJh
MQ0wCwYDVQQKDARwa2c1MRYwFAYDVQQDDA1jczFfY2gxLjFfdGE0MRwwGgYJKoZI
hvcNAQkBFg1jczFfY2gxLjFfdGE0MIGfMA0GCSqGSIb3DQEBAQUAA4GNADCBiQKB
gQC5DMgIvhrJP60V5dOtRTkJ2yr6/jeaxrs3EQr/w45p2VAXkg2Rkn3/xqkLF8Km
kR7LxyCFFuYuNPTXyIGIRICjUabqn5hoaR8gYP2h1aIkZs5nC1HSXjtgiV/hqWEM
1w+wUmkiCZ6TvJDw41hUt7gCUjUVl+WVjpL+Qjk1NHqbdQIDAQABo1IwUDAMBgNV
HRMBAf8EAjAAMEAGA1UdHwQ5MDcwNaAzoDGGL2h0dHA6Ly9sb2NhbGhvc3Q6MTIw
MDEvZmlsZS8wL2NoMS4xX3RhNF9jcmwucGVtMA0GCSqGSIb3DQEBCwUAA4IBAQCq
gkHNTl/ht0CUzhCMo98GJjJT1LkVv/eavmeyy6bxK2XO7LvQuo0bSOBEOSGuXdxi
PsxgZ7AhirT8xr6gswVi+/+io8o+l5yb9fSxxwgeNh78J+SLhe71G43y1ItyfcOy
yQ9nFjUyws8pD3D4zeLTW0XBFwXvMzukv+25OmAz1EQygtLSa0lUXVoDC1V8CjU6
GfxC4QCvPAfHBEdZOQoiIZ+SbPVybGe8+dLWgkLhg2GHk2r/CMXyHQ7zs2xzPU+B
h6dUiDoLvWGhU3VT28pty5z0cLW2WC9ul/B5TrIggqlY8RRk5w1YfZV52C6Ds6rW
MMoT1ndML8Osjwmcmszx
-----END CERTIFICATE-----
