Certificate:
    Data:
        Version: 3 (0x2)
        Serial Number: 41 (0x29)
        Signature Algorithm: sha256WithRSAEncryption
        Issuer: C=US, ST=California, L=Santa Clara, O=pkg5, CN=ch1_ta5/emailAddress=ch1_ta5
        Validity
            Not Before: Mar 18 08:51:45 2026 GMT
            Not After : Dec 12 08:51:45 2028 GMT
        Subject: C=US, ST=California, L=Santa Clara, O=pkg5, CN=cs1_ch1_ta5/emailAddress=cs1_ch1_ta5
        Subject Public Key Info:
            Public Key Algorithm: rsaEncryption
                Public-Key: (2048 bit)
                Modulus:
                    00:bc:3c:76:fc:bb:29:bf:a2:fd:f8:9f:e8:b6:dc:
                    2e:48:29:4c:01:d2:64:10:2b:2a:36:c2:9a:20:53:
                    60:ee:9d:74:a2:31:43:2f:a0:28:65:c4:b3:56:9c:
                    74:41:47:39:40:f3:10:d8:74:86:2b:95:01:de:71:
                    b2:c7:39:ed:5e:90:70:14:ba:b5:e0:6a:27:dc:56:
                    79:61:ac:78:cb:cf:e9:43:21:e7:19:95:8c:fc:ec:
                    b0:7d:f2:eb:c9:78:fa:b1:69:fd:91:91:9f:ec:9f:
                    79:3d:92:6a:36:fd:17:f9:f7:bb:5f:89:56:32:e7:
                    a1:4d:a0:a3:ad:ca:67:3c:ff:9f:b9:7b:9c:45:fd:
                    7a:1d:87:eb:cc:f8:70:15:3a:e1:69:07:0b:f4:e7:
                    bd:1a:05:0d:12:4e:27:03:75:9d:24:62:db:1b:7b:
                    69:9f:6a:cb:35:e2:62:f5:e4:1b:28:61:8b:e8:df:
                    9e:e5:02:67:d9:df:73:21:cb:cc:79:f1:0d:f0:d8:
                    bf:50:b1:2e:ea:de:27:be:12:c2:b0:a5:19:d8:0a:
                    2f:9f:3f:72:58:16:9f:b8:6c:8c:dc:08:6b:4e:8a:
                    3f:af:15:a7:cc:e3:7c:22:fe:14:b4:34:0c:25:e8:
                    13:e3:33:5f:32:d1:66:9d:9e:f2:c5:98:cc:73:ba:
                    2e:a5
                Exponent: 65537 (0x10001)
        X509v3 extensions:
            X509v3 Basic Constraints: critical
                CA:FALSE
            X509v3 Key Usage: critical
                Digital Signature
            X509v3 Subject Key Identifier: 
                0E:6E:31:2F:97:88:C2:FC:33:C5:65:A1:F6:0E:19:22:90:41:D4:24
            X509v3 Authority Key Identifier: 
                1E:28:20:C5:C3:0A:70:76:1D:D5:C5:22:8D:B5:27:B7:79:14:6C:7A
    Signature Algorithm: sha256WithRSAEncryption
    Signature Value:
        46:41:80:a3:d3:73:39:cb:19:7f:e9:34:79:f8:18:43:80:dd:
        60:41:00:7f:79:45:a3:9e:ac:30:a5:27:2e:f4:7a:3f:f4:85:
        61:46:8e:4e:bc:18:06:4c:98:08:b5:21:df:51:9f:25:ae:30:
        45:61:e8:a5:87:35:d4:c8:c9:15:38:8a:5e:87:9c:53:19:c5:
        b6:f2:09:b1:66:49:d9:79:f3:10:fc:8e:c5:7a:04:18:6a:28:
        ae:c7:35:aa:93:2a:5a:ce:b3:c2:9c:bf:d7:41:77:6e:d4:73:
        cf:19:b4:f6:5f:f5:f9:de:0a:7a:84:d9:2e:ac:39:d4:13:1d:
        55:07:55:a9:3c:a2:51:c8:ed:97:a9:fb:09:81:9d:40:3e:72:
        ce:b4:cc:86:be:32:04:83:5d:2a:18:50:7a:c6:9e:58:01:d1:
        33:52:6d:3b:cc:e8:ea:f7:35:cb:08:72:41:cd:1c:7b:56:26:
        bf:35:1d:fb:0e:72:34:a9:c4:5a:90:42:89:67:2a:73:b4:2a:
        92:8b:e2:c0:19:e6:d8:a8:cc:f7:64:10:58:a3:05:92:41:11:
        3d:0d:e4:99:2b:8e:17:ab:13:3c:3c:56:33:6d:e7:89:d9:05:
        b7:81:a4:95:28:59:39:3e:ed:b1:ec:61:a7:ac:76:ae:10:b1:
        39:09:40:3b
-----BEGIN CERTIFICATE-----
MIIDxTCCAq2gAwIBAgIBKTANBgkqhkiG9w0BAQsFADBxMQswCQYDVQQGEwJVUzET
MBEGA1UECAwKQ2FsaWZvcm5pYTEUMBIGA1UEBwwLU2FudGEgQ2xhcmExDTALBgNV
BAoMBHBrZzUxEDAOBgNVBAMMB2NoMV90YTUxFjAUBgkqhkiG9w0BCQEWB2NoMV90
YTUwHhcNMjYwMzE4MDg1MTQ1WhcNMjgxMjEyMDg1MTQ1WjB5MQswCQYDVQQGEwJV
UzETMBEGA1UECAwKQ2FsaWZvcm5pYTEUMBIGA1UEBwwLU2FudGEgQ2xhcmExDTAL
BgNVBAoMBHBrZzUxFDASBgNVBAMMC2NzMV9jaDFfdGE1MRowGAYJKoZIhvcNAQkB
FgtjczFfY2gxX3RhNTCCASIwDQYJKoZIhvcNAQEBBQADggEPADCCAQoCggEBALw8
dvy7Kb+i/fif6LbcLkgpTAHSZBArKjbCmiBTYO6ddKIxQy+gKGXEs1acdEFHOUDz
ENh0hiuVAd5xssc57V6QcBS6teBqJ9xWeWGseMvP6UMh5xmVjPzssH3y68l4+rFp
/ZGRn+yfeT2Sajb9F/n3u1+JVjLnoU2go63KZzz/n7l7nEX9eh2H68z4cBU64WkH
C/TnvRoFDRJOJwN1nSRi2xt7aZ9qyzXiYvXkGyhhi+jfnuUCZ9nfcyHLzHnxDfDY
v1CxLureJ74SwrClGdgKL58/clgWn7hsjNwIa06KP68Vp8zjfCL+FLQ0DCXoE+Mz
XzLRZp2e8sWYzHO6LqUCAwEAAaNgMF4wDAYDVR0TAQH/BAIwADAOBgNVHQ8BAf8E
BAMCB4AwHQYDVR0OBBYEFA5uMS+XiML8M8VlofYOGSKQQdQkMB8GA1UdIwQYMBaA
FB4oIMXDCnB2HdXFIo21J7d5FGx6MA0GCSqGSIb3DQEBCwUAA4IBAQBGQYCj03M5
yxl/6TR5+BhDgN1gQQB/eUWjnqwwpScu9Ho/9IVhRo5OvBgGTJgItSHfUZ8lrjBF
YeilhzXUyMkVOIpeh5xTGcW28gmxZknZefMQ/I7FegQYaiiuxzWqkypazrPCnL/X
QXdu1HPPGbT2X/X53gp6hNkurDnUEx1VB1WpPKJRyO2XqfsJgZ1APnLOtMyGvjIE
g10qGFB6xp5YAdEzUm07zOjq9zXLCHJBzRx7Via/NR37DnI0qcRakEKJZypztCqS
i+LAGebYqMz3ZBBYowWSQRE9DeSZK44XqxM8PFYzbeeJ2QW3gaSVKFk5Pu2x7GGn
rHauELE5CUA7
-----END CERTIFICATE-----
