Certificate:
    Data:
        Version: 3 (0x2)
        Serial Number: 41 (0x29)
    Signature Algorithm: sha256WithRSAEncryption
        Issuer: C=US, ST=California, L=Santa Clara, O=pkg5, CN=ch1_ta5/emailAddress=ch1_ta5
        Validity
            Not Before: Jan 22 15:33:15 2019 GMT
            Not After : Oct 18 15:33:15 2021 GMT
        Subject: C=US, ST=California, L=Santa Clara, O=pkg5, CN=cs1_ch1_ta5/emailAddress=cs1_ch1_ta5
        Subject Public Key Info:
            Public Key Algorithm: rsaEncryption
                Public-Key: (1024 bit)
                Modulus:
                    00:99:56:ab:30:e7:1f:e2:2f:e3:78:26:f9:a1:03:
                    24:50:fb:28:b8:33:88:9a:8a:e6:f0:22:01:13:1f:
                    a1:5d:89:59:54:5e:0a:c6:3c:a8:d8:9b:08:f5:57:
                    a7:0d:48:f9:d3:3a:b0:d8:78:07:aa:f2:63:da:bf:
                    ef:eb:70:09:4e:0c:7f:62:b6:01:8f:c5:52:99:54:
                    62:6c:33:5c:66:b6:ff:6d:fa:f2:c8:6a:ec:1a:aa:
                    36:b1:1b:09:98:f4:cb:0b:63:b2:0a:21:b3:53:9d:
                    71:5e:d8:a4:9d:97:fa:03:cd:12:71:aa:28:c6:4d:
                    da:58:25:7e:3f:f8:f5:04:c1
                Exponent: 65537 (0x10001)
        X509v3 extensions:
            X509v3 Basic Constraints: critical
                CA:FALSE
            X509v3 Key Usage: critical
                Digital Signature
    Signature Algorithm: sha256WithRSAEncryption
         bd:10:d2:31:fe:92:2c:64:be:df:27:a5:63:fa:da:de:90:e8:
         5e:3b:8a:3d:33:d9:77:26:97:f6:c5:a7:22:a9:92:2a:08:ff:
         6d:af:1f:d9:08:8a:2c:2f:39:8b:f1:ae:9a:af:a9:54:04:64:
         b8:2b:37:70:fb:d8:8e:16:bb:e4:5a:6e:1b:96:29:31:71:af:
         43:f4:a1:ce:d5:d4:85:0f:af:f5:b0:a8:20:14:0d:fa:12:e2:
         56:ac:a3:bb:9a:ba:fc:f9:fc:0c:aa:65:b3:02:96:00:41:4c:
         22:7f:1a:9e:ed:71:ce:9a:a1:12:34:24:98:d5:de:56:0b:38:
         ed:7a:73:ed:bb:51:45:56:2e:fa:03:ef:c2:00:d1:88:b9:bd:
         38:4d:fa:86:be:0f:91:62:a1:27:65:6a:bc:2b:1a:3d:e1:19:
         d7:14:ac:e5:4d:ff:ee:ab:bf:72:e7:32:0d:11:2d:9d:b5:73:
         1f:8a:86:a8:67:8f:9a:5a:ae:89:e9:03:0b:5e:ce:05:e0:7b:
         8d:4f:bc:f0:3c:23:42:52:21:6f:ca:fb:9c:98:8a:8f:72:d9:
         f4:c8:ef:2b:02:c5:73:18:bb:23:26:51:26:d2:7e:8a:e1:9e:
         40:4d:48:df:c1:76:11:31:5f:7e:79:30:f6:c4:73:3e:50:fa:
         5e:00:8f:01
-----BEGIN CERTIFICATE-----
MIIDATCCAemgAwIBAgIBKTANBgkqhkiG9w0BAQsFADBxMQswCQYDVQQGEwJVUzET
MBEGA1UECAwKQ2FsaWZvcm5pYTEUMBIGA1UEBwwLU2FudGEgQ2xhcmExDTALBgNV
BAoMBHBrZzUxEDAOBgNVBAMMB2NoMV90YTUxFjAUBgkqhkiG9w0BCQEWB2NoMV90
YTUwHhcNMTkwMTIyMTUzMzE1WhcNMjExMDE4MTUzMzE1WjB5MQswCQYDVQQGEwJV
UzETMBEGA1UECAwKQ2FsaWZvcm5pYTEUMBIGA1UEBwwLU2FudGEgQ2xhcmExDTAL
BgNVBAoMBHBrZzUxFDASBgNVBAMMC2NzMV9jaDFfdGE1MRowGAYJKoZIhvcNAQkB
FgtjczFfY2gxX3RhNTCBnzANBgkqhkiG9w0BAQEFAAOBjQAwgYkCgYEAmVarMOcf
4i/jeCb5oQMkUPsouDOImorm8CIBEx+hXYlZVF4Kxjyo2JsI9VenDUj50zqw2HgH
qvJj2r/v63AJTgx/YrYBj8VSmVRibDNcZrb/bfryyGrsGqo2sRsJmPTLC2OyCiGz
U51xXtiknZf6A80Scaooxk3aWCV+P/j1BMECAwEAAaMgMB4wDAYDVR0TAQH/BAIw
ADAOBgNVHQ8BAf8EBAMCB4AwDQYJKoZIhvcNAQELBQADggEBAL0Q0jH+kixkvt8n
pWP62t6Q6F47ij0z2Xcml/bFpyKpkioI/22vH9kIiiwvOYvxrpqvqVQEZLgrN3D7
2I4Wu+RabhuWKTFxr0P0oc7V1IUPr/WwqCAUDfoS4laso7uauvz5/AyqZbMClgBB
TCJ/Gp7tcc6aoRI0JJjV3lYLOO16c+27UUVWLvoD78IA0Yi5vThN+oa+D5FioSdl
arwrGj3hGdcUrOVN/+6rv3LnMg0RLZ21cx+Khqhnj5paronpAwtezgXge41PvPA8
I0JSIW/K+5yYio9y2fTI7ysCxXMYuyMmUSbSforhnkBNSN/BdhExX355MPbEcz5Q
+l4AjwE=
-----END CERTIFICATE-----
