Certificate:
    Data:
        Version: 3 (0x2)
        Serial Number: 41 (0x29)
        Signature Algorithm: sha256WithRSAEncryption
        Issuer: C=US, ST=California, L=Menlo Park, O=pkg5, CN=ch1_ta5/emailAddress=ch1_ta5
        Validity
            Not Before: Mar 21 00:49:34 2011 GMT
            Not After : Dec 15 00:49:34 2013 GMT
        Subject: C=US, ST=California, L=Menlo Park, O=pkg5, CN=cs1_ch1_ta5/emailAddress=cs1_ch1_ta5
        Subject Public Key Info:
            Public Key Algorithm: rsaEncryption
            RSA Public Key: (1024 bit)
                Modulus (1024 bit):
                    00:9f:3b:31:69:28:44:86:2e:06:eb:0a:fe:f8:f4:
                    a4:e0:ab:ea:c9:9e:9a:9e:c6:57:9d:c8:31:20:ec:
                    20:d8:02:77:14:98:d9:34:9b:cd:4e:ab:20:bf:a8:
                    fb:2f:e3:09:fe:5c:93:8b:41:b9:2f:f6:22:a8:29:
                    ba:a3:5e:6a:73:47:cc:f1:45:cf:36:c1:90:9b:ee:
                    b9:d0:e7:d3:cc:c1:9e:34:02:03:67:78:81:41:9c:
                    e6:3a:b5:62:a4:01:af:b1:71:4a:e9:29:ec:15:2a:
                    d7:cc:04:a5:f7:55:11:c3:b8:6e:5d:0f:7a:18:4a:
                    4c:db:d6:34:37:aa:3d:d5:53
                Exponent: 65537 (0x10001)
        X509v3 extensions:
            X509v3 Basic Constraints: critical
                CA:FALSE
            X509v3 Key Usage: critical
                Digital Signature
    Signature Algorithm: sha256WithRSAEncryption
        6f:c1:70:68:66:e9:5f:02:f8:f2:9e:60:dc:51:56:4f:32:ee:
        62:72:8d:cb:3e:19:ea:03:1e:92:2a:b4:84:a0:b6:ee:0e:c4:
        f3:87:b5:75:bd:91:17:96:fe:44:55:0e:33:99:ef:bb:7e:f8:
        83:a4:df:e8:90:c1:fe:ef:96:05:aa:c8:ce:6e:38:1b:d1:af:
        90:0d:88:21:7e:e6:58:ad:b6:b6:8c:8a:c4:9b:ec:19:1e:55:
        c2:9f:03:e4:47:49:46:c5:a9:79:78:8f:fa:b5:c6:aa:bc:f0:
        c2:cb:6a:f0:d7:76:b4:0e:b4:6b:20:53:55:15:1a:39:a7:3f:
        1a:bd
-----BEGIN CERTIFICATE-----
MIICfjCCAeegAwIBAgIBKTANBgkqhkiG9w0BAQsFADBwMQswCQYDVQQGEwJVUzET
MBEGA1UECBMKQ2FsaWZvcm5pYTETMBEGA1UEBxMKTWVubG8gUGFyazENMAsGA1UE
ChMEcGtnNTEQMA4GA1UEAxQHY2gxX3RhNTEWMBQGCSqGSIb3DQEJARYHY2gxX3Rh
NTAeFw0xMTAzMjEwMDQ5MzRaFw0xMzEyMTUwMDQ5MzRaMHgxCzAJBgNVBAYTAlVT
MRMwEQYDVQQIEwpDYWxpZm9ybmlhMRMwEQYDVQQHEwpNZW5sbyBQYXJrMQ0wCwYD
VQQKEwRwa2c1MRQwEgYDVQQDFAtjczFfY2gxX3RhNTEaMBgGCSqGSIb3DQEJARYL
Y3MxX2NoMV90YTUwgZ8wDQYJKoZIhvcNAQEBBQADgY0AMIGJAoGBAJ87MWkoRIYu
BusK/vj0pOCr6smemp7GV53IMSDsINgCdxSY2TSbzU6rIL+o+y/jCf5ck4tBuS/2
IqgpuqNeanNHzPFFzzbBkJvuudDn08zBnjQCA2d4gUGc5jq1YqQBr7FxSukp7BUq
18wEpfdVEcO4bl0PehhKTNvWNDeqPdVTAgMBAAGjIDAeMAwGA1UdEwEB/wQCMAAw
DgYDVR0PAQH/BAQDAgeAMA0GCSqGSIb3DQEBCwUAA4GBAG/BcGhm6V8C+PKeYNxR
Vk8y7mJyjcs+GeoDHpIqtISgtu4OxPOHtXW9kReW/kRVDjOZ77t++IOk3+iQwf7v
lgWqyM5uOBvRr5ANiCF+5littraMisSb7BkeVcKfA+RHSUbFqXl4j/q1xqq88MLL
avDXdrQOtGsgU1UVGjmnPxq9
-----END CERTIFICATE-----
