Certificate:
    Data:
        Version: 3 (0x2)
        Serial Number: 41 (0x29)
        Signature Algorithm: sha256WithRSAEncryption
        Issuer: C=US, ST=California, L=Menlo Park, O=pkg5, CN=ch1_ta5/emailAddress=ch1_ta5
        Validity
            Not Before: Apr 11 22:37:52 2011 GMT
            Not After : Jan  5 22:37:52 2014 GMT
        Subject: C=US, ST=California, L=Menlo Park, O=pkg5, CN=cs1_ch1_ta5/emailAddress=cs1_ch1_ta5
        Subject Public Key Info:
            Public Key Algorithm: rsaEncryption
            RSA Public Key: (1024 bit)
                Modulus (1024 bit):
                    00:bc:a1:03:22:dd:57:7e:99:4b:58:8c:04:98:41:
                    f9:77:26:01:6f:24:72:d0:7f:82:33:d5:8f:5f:a6:
                    20:6c:02:b2:2c:56:8d:4d:fc:0d:a6:19:29:23:2f:
                    88:8c:67:49:c3:e9:90:a6:17:0e:1a:62:28:44:49:
                    68:80:aa:5e:24:e0:97:38:58:45:c1:45:59:38:e0:
                    33:00:7c:65:63:b9:ea:a1:81:d0:92:5f:fe:50:1b:
                    92:85:79:c9:91:96:51:0a:bf:1c:c8:a6:52:4f:b0:
                    3e:1c:08:09:3b:a1:6a:af:ef:40:7b:df:8b:e3:bd:
                    de:41:9c:1b:9b:f7:85:9c:25
                Exponent: 65537 (0x10001)
        X509v3 extensions:
            X509v3 Basic Constraints: critical
                CA:FALSE
            X509v3 Key Usage: critical
                Digital Signature
    Signature Algorithm: sha256WithRSAEncryption
        9f:43:a8:af:30:0a:8a:ca:fb:ac:58:e1:f7:d4:76:f6:08:2d:
        b3:3a:cb:62:48:90:06:6e:bb:d3:7f:cc:3c:cc:57:3f:88:87:
        a1:fd:d1:db:5a:a1:73:c6:c5:5a:d9:b9:bc:ba:43:43:ee:bf:
        6b:c5:bc:5c:a3:2a:a4:01:9b:2f:60:b0:86:99:00:d4:1b:d6:
        74:22:e8:9a:8e:06:b3:4e:33:34:3c:f4:96:ab:58:66:68:f1:
        f4:75:a4:09:2e:4c:15:17:6d:9f:e0:e9:9f:45:4c:1f:24:7f:
        b7:af:70:76:4c:38:20:8e:00:6e:eb:bf:84:e7:6f:b0:98:b7:
        4a:67
-----BEGIN CERTIFICATE-----
MIICfjCCAeegAwIBAgIBKTANBgkqhkiG9w0BAQsFADBwMQswCQYDVQQGEwJVUzET
MBEGA1UECBMKQ2FsaWZvcm5pYTETMBEGA1UEBxMKTWVubG8gUGFyazENMAsGA1UE
ChMEcGtnNTEQMA4GA1UEAxQHY2gxX3RhNTEWMBQGCSqGSIb3DQEJARYHY2gxX3Rh
NTAeFw0xMTA0MTEyMjM3NTJaFw0xNDAxMDUyMjM3NTJaMHgxCzAJBgNVBAYTAlVT
MRMwEQYDVQQIEwpDYWxpZm9ybmlhMRMwEQYDVQQHEwpNZW5sbyBQYXJrMQ0wCwYD
VQQKEwRwa2c1MRQwEgYDVQQDFAtjczFfY2gxX3RhNTEaMBgGCSqGSIb3DQEJARYL
Y3MxX2NoMV90YTUwgZ8wDQYJKoZIhvcNAQEBBQADgY0AMIGJAoGBALyhAyLdV36Z
S1iMBJhB+XcmAW8kctB/gjPVj1+mIGwCsixWjU38DaYZKSMviIxnScPpkKYXDhpi
KERJaICqXiTglzhYRcFFWTjgMwB8ZWO56qGB0JJf/lAbkoV5yZGWUQq/HMimUk+w
PhwICTuhaq/vQHvfi+O93kGcG5v3hZwlAgMBAAGjIDAeMAwGA1UdEwEB/wQCMAAw
DgYDVR0PAQH/BAQDAgeAMA0GCSqGSIb3DQEBCwUAA4GBAJ9DqK8wCorK+6xY4ffU
dvYILbM6y2JIkAZuu9N/zDzMVz+Ih6H90dtaoXPGxVrZuby6Q0Puv2vFvFyjKqQB
my9gsIaZANQb1nQi6JqOBrNOMzQ89JarWGZo8fR1pAkuTBUXbZ/g6Z9FTB8kf7ev
cHZMOCCOAG7rv4Tnb7CYt0pn
-----END CERTIFICATE-----
