Certificate:
    Data:
        Version: 3 (0x2)
        Serial Number: 41 (0x29)
    Signature Algorithm: sha256WithRSAEncryption
        Issuer: C=US, ST=California, L=Santa Clara, O=pkg5, CN=ch1_ta5/emailAddress=ch1_ta5
        Validity
            Not Before: Jul 19 11:35:51 2023 GMT
            Not After : Apr 14 11:35:51 2026 GMT
        Subject: C=US, ST=California, L=Santa Clara, O=pkg5, CN=cs1_ch1_ta5/emailAddress=cs1_ch1_ta5
        Subject Public Key Info:
            Public Key Algorithm: rsaEncryption
                Public-Key: (2048 bit)
                Modulus:
                    00:a4:0e:0a:95:72:b1:78:d3:d9:1d:04:2e:5f:0b:
                    57:33:05:cf:8a:6b:a0:fd:76:2b:4f:a9:c6:ac:f4:
                    cb:52:2d:94:80:56:81:a7:7e:a7:a9:08:00:74:a3:
                    e5:9e:dc:42:90:8c:cd:75:38:35:1d:c3:b0:68:86:
                    31:f0:3f:dd:d5:25:8c:c9:db:43:6d:c2:03:20:5f:
                    bd:0d:99:9e:bd:1a:bd:25:6c:d3:b3:ba:15:72:c5:
                    88:d5:32:4f:34:f3:94:4c:6b:e0:b7:cb:61:c1:1f:
                    bc:14:57:13:9b:60:54:42:e8:d3:f0:e8:7d:87:e4:
                    68:06:e1:33:25:7e:1b:e8:3e:7f:db:34:c5:05:0d:
                    79:49:9d:cd:92:d9:3c:1c:a5:be:0b:b8:82:ed:e4:
                    84:ae:0f:b9:8e:e3:c0:25:60:34:c5:92:d4:35:74:
                    40:f7:b8:ba:74:a4:e3:62:25:3a:f4:78:7e:d8:76:
                    01:0c:3e:f2:9b:44:8d:07:bd:5c:4d:11:79:61:60:
                    8c:59:23:c3:94:2a:3d:13:db:7d:50:05:05:a8:8d:
                    4e:9c:a2:6f:ae:ae:2d:09:c1:f7:84:97:66:4b:3c:
                    1b:f8:dc:ef:79:f9:0c:54:ff:35:1a:e6:7d:16:f7:
                    e1:de:90:2c:3e:92:0d:76:de:cd:15:1f:7a:61:62:
                    ef:23
                Exponent: 65537 (0x10001)
        X509v3 extensions:
            X509v3 Basic Constraints: critical
                CA:FALSE
            X509v3 Key Usage: critical
                Digital Signature
    Signature Algorithm: sha256WithRSAEncryption
         46:a2:35:cb:b1:c2:22:a1:41:7f:e3:48:f2:4d:e0:03:4e:10:
         21:6c:4d:7c:f9:36:1e:4d:b9:47:f8:36:af:5c:20:5a:fa:ad:
         72:42:64:9b:07:1d:a2:a4:97:6a:f3:bd:05:80:9d:a9:b1:4e:
         41:31:ef:0b:db:d2:45:1f:52:82:53:93:8c:32:3f:bb:a4:6a:
         91:4b:f3:e9:84:e0:d5:3a:e6:f0:e7:25:49:b3:7e:f9:f8:05:
         9b:02:51:5e:65:ec:80:38:b7:2f:e0:4d:af:8c:e7:8b:ee:bf:
         5b:6f:6d:ae:f4:ad:c8:30:4e:56:58:3e:5e:df:9c:37:d5:ab:
         a1:a2:0a:a8:97:09:05:78:29:d7:67:ca:f8:ee:41:fa:31:58:
         5e:bb:60:f3:c4:3e:af:cc:eb:b2:a7:72:d6:c6:e1:7b:e0:bb:
         30:b3:a5:c5:c3:fe:3d:ca:69:55:ea:81:0c:39:41:b5:0e:4f:
         96:a6:09:f0:ef:be:1c:d0:77:70:38:88:ec:71:7d:05:5e:3f:
         32:bf:aa:eb:3e:30:c9:a6:28:f4:78:99:47:6f:64:dd:ae:cf:
         a6:d8:64:8a:77:3e:e2:52:f5:56:a7:2b:fd:c5:36:40:f5:c8:
         c0:0d:e4:e8:60:81:5c:bc:99:f8:20:98:2b:3d:f1:cd:72:47:
         49:6a:d4:a1
-----BEGIN CERTIFICATE-----
MIIDhTCCAm2gAwIBAgIBKTANBgkqhkiG9w0BAQsFADBxMQswCQYDVQQGEwJVUzET
MBEGA1UECAwKQ2FsaWZvcm5pYTEUMBIGA1UEBwwLU2FudGEgQ2xhcmExDTALBgNV
BAoMBHBrZzUxEDAOBgNVBAMMB2NoMV90YTUxFjAUBgkqhkiG9w0BCQEWB2NoMV90
YTUwHhcNMjMwNzE5MTEzNTUxWhcNMjYwNDE0MTEzNTUxWjB5MQswCQYDVQQGEwJV
UzETMBEGA1UECAwKQ2FsaWZvcm5pYTEUMBIGA1UEBwwLU2FudGEgQ2xhcmExDTAL
BgNVBAoMBHBrZzUxFDASBgNVBAMMC2NzMV9jaDFfdGE1MRowGAYJKoZIhvcNAQkB
FgtjczFfY2gxX3RhNTCCASIwDQYJKoZIhvcNAQEBBQADggEPADCCAQoCggEBAKQO
CpVysXjT2R0ELl8LVzMFz4proP12K0+pxqz0y1ItlIBWgad+p6kIAHSj5Z7cQpCM
zXU4NR3DsGiGMfA/3dUljMnbQ23CAyBfvQ2Znr0avSVs07O6FXLFiNUyTzTzlExr
4LfLYcEfvBRXE5tgVELo0/DofYfkaAbhMyV+G+g+f9s0xQUNeUmdzZLZPBylvgu4
gu3khK4PuY7jwCVgNMWS1DV0QPe4unSk42IlOvR4fth2AQw+8ptEjQe9XE0ReWFg
jFkjw5QqPRPbfVAFBaiNTpyib66uLQnB94SXZks8G/jc73n5DFT/NRrmfRb34d6Q
LD6SDXbezRUfemFi7yMCAwEAAaMgMB4wDAYDVR0TAQH/BAIwADAOBgNVHQ8BAf8E
BAMCB4AwDQYJKoZIhvcNAQELBQADggEBAEaiNcuxwiKhQX/jSPJN4ANOECFsTXz5
Nh5NuUf4Nq9cIFr6rXJCZJsHHaKkl2rzvQWAnamxTkEx7wvb0kUfUoJTk4wyP7uk
apFL8+mE4NU65vDnJUmzfvn4BZsCUV5l7IA4ty/gTa+M54vuv1tvba70rcgwTlZY
Pl7fnDfVq6GiCqiXCQV4KddnyvjuQfoxWF67YPPEPq/M67KnctbG4XvguzCzpcXD
/j3KaVXqgQw5QbUOT5amCfDvvhzQd3A4iOxxfQVePzK/qus+MMmmKPR4mUdvZN2u
z6bYZIp3PuJS9VanK/3FNkD1yMAN5OhggVy8mfggmCs98c1yR0lq1KE=
-----END CERTIFICATE-----
