Certificate:
    Data:
        Version: 3 (0x2)
        Serial Number: 42 (0x2a)
    Signature Algorithm: sha256WithRSAEncryption
        Issuer: C=US, ST=California, L=Santa Clara, O=pkg5, OU=ta6, CN=localhost/emailAddress=ta6
        Validity
            Not Before: Jan 22 15:33:15 2019 GMT
            Not After : Oct 18 15:33:15 2021 GMT
        Subject: C=US, ST=California, L=Santa Clara, O=pkg5, OU=cs1_ta6, CN=localhost/emailAddress=cs1_ta6
        Subject Public Key Info:
            Public Key Algorithm: rsaEncryption
                Public-Key: (1024 bit)
                Modulus:
                    00:d5:83:81:47:4d:5a:48:fa:71:f0:00:5f:e5:ee:
                    c2:eb:1a:f4:64:4e:3d:ee:33:a4:c8:10:ba:34:07:
                    2a:d1:f6:5d:3a:ce:02:9a:38:da:b8:d0:a3:4c:22:
                    c4:d3:45:ef:69:e4:34:01:28:39:44:36:bb:2c:5a:
                    92:2d:20:92:32:3e:93:72:7f:3c:62:06:80:28:55:
                    f5:60:ec:57:78:5f:5f:c6:f3:ea:73:73:79:95:3d:
                    48:e8:2b:20:b1:1f:5a:f4:cd:6e:cf:7a:3c:a8:78:
                    a5:99:9a:cf:d6:f8:fa:b9:36:37:d8:0c:04:44:fe:
                    f3:23:72:9a:96:e2:61:ce:6d
                Exponent: 65537 (0x10001)
        X509v3 extensions:
            X509v3 Basic Constraints: critical
                CA:FALSE
            X509v3 Key Usage: critical
                Digital Signature
    Signature Algorithm: sha256WithRSAEncryption
         62:3f:1c:fc:0a:59:55:e2:62:38:59:db:bd:15:ba:29:f2:96:
         ae:96:74:94:40:4f:bb:4d:91:66:81:19:41:44:22:0a:05:f8:
         a9:fb:39:41:f9:6c:2c:83:c7:de:fe:de:87:a5:a3:fa:2b:7a:
         c3:8c:9e:7d:2e:d8:89:79:24:58:c0:e7:d3:b8:a4:49:41:25:
         e1:65:d2:f3:d6:50:cc:7b:e2:85:eb:76:09:63:18:a9:44:45:
         db:00:df:e9:a1:2d:01:99:20:3a:d0:4d:d4:63:13:1a:7f:77:
         77:15:9a:2d:ed:aa:2f:c7:98:b8:81:c9:68:f7:f7:f9:75:04:
         bc:eb:fc:43:83:89:0d:7f:c4:f0:8f:ea:78:b7:2a:5c:5c:40:
         c0:48:d1:59:aa:ae:3c:c3:4a:a9:81:1d:43:49:06:3e:95:c7:
         98:de:7f:73:92:6c:c8:3e:9c:fd:b2:3d:21:e8:22:37:c0:84:
         30:f6:6b:cc:9b:4e:15:12:b6:aa:6c:39:c7:22:ba:a0:60:c3:
         ba:39:33:36:24:a7:15:93:22:99:34:8f:c0:31:38:fd:f2:50:
         02:fb:42:4f:72:37:ea:e8:f3:4b:c8:0e:c8:76:60:a2:d6:24:
         27:f2:6f:0a:91:0a:11:01:d3:7f:19:f7:ed:49:e8:3a:97:91:
         f1:85:23:48
-----BEGIN CERTIFICATE-----
MIIDGjCCAgKgAwIBAgIBKjANBgkqhkiG9w0BAQsFADB9MQswCQYDVQQGEwJVUzET
MBEGA1UECAwKQ2FsaWZvcm5pYTEUMBIGA1UEBwwLU2FudGEgQ2xhcmExDTALBgNV
BAoMBHBrZzUxDDAKBgNVBAsMA3RhNjESMBAGA1UEAwwJbG9jYWxob3N0MRIwEAYJ
KoZIhvcNAQkBFgN0YTYwHhcNMTkwMTIyMTUzMzE1WhcNMjExMDE4MTUzMzE1WjCB
hTELMAkGA1UEBhMCVVMxEzARBgNVBAgMCkNhbGlmb3JuaWExFDASBgNVBAcMC1Nh
bnRhIENsYXJhMQ0wCwYDVQQKDARwa2c1MRAwDgYDVQQLDAdjczFfdGE2MRIwEAYD
VQQDDAlsb2NhbGhvc3QxFjAUBgkqhkiG9w0BCQEWB2NzMV90YTYwgZ8wDQYJKoZI
hvcNAQEBBQADgY0AMIGJAoGBANWDgUdNWkj6cfAAX+Xuwusa9GROPe4zpMgQujQH
KtH2XTrOApo42rjQo0wixNNF72nkNAEoOUQ2uyxaki0gkjI+k3J/PGIGgChV9WDs
V3hfX8bz6nNzeZU9SOgrILEfWvTNbs96PKh4pZmaz9b4+rk2N9gMBET+8yNympbi
Yc5tAgMBAAGjIDAeMAwGA1UdEwEB/wQCMAAwDgYDVR0PAQH/BAQDAgeAMA0GCSqG
SIb3DQEBCwUAA4IBAQBiPxz8CllV4mI4Wdu9Fbop8paulnSUQE+7TZFmgRlBRCIK
Bfip+zlB+Wwsg8fe/t6HpaP6K3rDjJ59LtiJeSRYwOfTuKRJQSXhZdLz1lDMe+KF
63YJYxipREXbAN/poS0BmSA60E3UYxMaf3d3FZot7aovx5i4gclo9/f5dQS86/xD
g4kNf8Twj+p4typcXEDASNFZqq48w0qpgR1DSQY+lceY3n9zkmzIPpz9sj0h6CI3
wIQw9mvMm04VEraqbDnHIrqgYMO6OTM2JKcVkyKZNI/AMTj98lAC+0JPcjfq6PNL
yA7IdmCi1iQn8m8KkQoRAdN/GfftSeg6l5HxhSNI
-----END CERTIFICATE-----
