Certificate:
    Data:
        Version: 3 (0x2)
        Serial Number: 43 (0x2b)
    Signature Algorithm: sha256WithRSAEncryption
        Issuer: C=US, ST=California, L=Santa Clara, O=pkg5, OU=ta7, CN=localhost/emailAddress=ta7
        Validity
            Not Before: Jan 22 15:33:15 2019 GMT
            Not After : Oct 18 15:33:15 2021 GMT
        Subject: C=US, ST=California, L=Santa Clara, O=pkg5, OU=cs1_ta7, CN=localhost/emailAddress=cs1_ta7
        Subject Public Key Info:
            Public Key Algorithm: rsaEncryption
                Public-Key: (1024 bit)
                Modulus:
                    00:ba:97:fa:a3:e0:be:dd:09:b6:cb:50:30:3c:7f:
                    1b:84:7a:37:83:04:a8:b4:39:12:fd:f6:25:82:a9:
                    b4:d6:c9:f8:25:69:fd:0d:04:82:fd:4b:bd:9b:d5:
                    e1:92:76:a2:a8:db:2f:11:b8:90:67:83:99:5d:7c:
                    ff:83:5a:7f:cd:a8:be:96:22:23:be:da:89:a8:95:
                    07:40:15:e5:9e:f2:8d:87:dd:b0:2d:92:71:fe:75:
                    d7:8c:f8:50:9a:b6:88:d7:c6:97:f5:87:9e:45:01:
                    15:90:43:79:a7:27:41:b0:05:ab:db:95:b5:94:49:
                    c7:53:cc:c0:58:46:5b:dc:59
                Exponent: 65537 (0x10001)
        X509v3 extensions:
            X509v3 Basic Constraints: critical
                CA:FALSE
            X509v3 Key Usage: critical
                Digital Signature
    Signature Algorithm: sha256WithRSAEncryption
         52:03:d8:a0:bd:dd:f8:04:ff:97:28:60:d4:73:30:c6:a2:6c:
         c2:08:df:18:22:cd:2f:6b:4c:88:85:8f:4d:fd:d6:bb:14:9f:
         2c:26:b7:a0:07:b5:c8:5d:ad:98:0a:74:2f:81:d2:de:90:c2:
         ab:f7:05:cb:55:53:e0:7a:c2:88:53:e3:f5:05:ff:08:64:7f:
         b7:48:83:09:8f:30:cc:77:e8:73:9c:c3:60:1e:73:0b:37:91:
         98:32:33:eb:3d:ab:8b:3e:ff:0b:b5:8c:3e:62:37:4a:c8:0a:
         29:d9:77:55:39:6c:5b:96:d5:49:76:5c:27:32:9e:71:8c:fa:
         79:43:95:22:ed:29:7c:c0:0a:db:c6:3e:0d:c8:0b:50:26:84:
         6c:99:cf:15:cf:b6:de:41:51:cc:01:e8:87:cc:77:3e:c6:5d:
         de:c1:79:ad:8f:01:f5:07:9c:0e:8b:0c:41:d1:4f:99:5d:f7:
         6e:f8:53:59:60:93:a9:1f:00:c9:d9:c1:db:7c:4d:bc:85:85:
         d2:36:2e:9e:df:82:87:34:ec:87:ef:11:cc:4e:0f:03:86:dd:
         02:ab:ca:b2:ec:92:25:6f:95:ea:a5:0d:85:eb:d9:6a:5c:01:
         38:ca:33:53:fd:6a:72:df:bf:01:f0:f8:26:d9:c8:bc:1f:4e:
         d8:ef:7f:66
-----BEGIN CERTIFICATE-----
MIIDGjCCAgKgAwIBAgIBKzANBgkqhkiG9w0BAQsFADB9MQswCQYDVQQGEwJVUzET
MBEGA1UECAwKQ2FsaWZvcm5pYTEUMBIGA1UEBwwLU2FudGEgQ2xhcmExDTALBgNV
BAoMBHBrZzUxDDAKBgNVBAsMA3RhNzESMBAGA1UEAwwJbG9jYWxob3N0MRIwEAYJ
KoZIhvcNAQkBFgN0YTcwHhcNMTkwMTIyMTUzMzE1WhcNMjExMDE4MTUzMzE1WjCB
hTELMAkGA1UEBhMCVVMxEzARBgNVBAgMCkNhbGlmb3JuaWExFDASBgNVBAcMC1Nh
bnRhIENsYXJhMQ0wCwYDVQQKDARwa2c1MRAwDgYDVQQLDAdjczFfdGE3MRIwEAYD
VQQDDAlsb2NhbGhvc3QxFjAUBgkqhkiG9w0BCQEWB2NzMV90YTcwgZ8wDQYJKoZI
hvcNAQEBBQADgY0AMIGJAoGBALqX+qPgvt0JtstQMDx/G4R6N4MEqLQ5Ev32JYKp
tNbJ+CVp/Q0Egv1LvZvV4ZJ2oqjbLxG4kGeDmV18/4Naf82ovpYiI77aiaiVB0AV
5Z7yjYfdsC2Scf5114z4UJq2iNfGl/WHnkUBFZBDeacnQbAFq9uVtZRJx1PMwFhG
W9xZAgMBAAGjIDAeMAwGA1UdEwEB/wQCMAAwDgYDVR0PAQH/BAQDAgeAMA0GCSqG
SIb3DQEBCwUAA4IBAQBSA9igvd34BP+XKGDUczDGomzCCN8YIs0va0yIhY9N/da7
FJ8sJregB7XIXa2YCnQvgdLekMKr9wXLVVPgesKIU+P1Bf8IZH+3SIMJjzDMd+hz
nMNgHnMLN5GYMjPrPauLPv8LtYw+YjdKyAop2XdVOWxbltVJdlwnMp5xjPp5Q5Ui
7Sl8wArbxj4NyAtQJoRsmc8Vz7beQVHMAeiHzHc+xl3ewXmtjwH1B5wOiwxB0U+Z
Xfdu+FNZYJOpHwDJ2cHbfE28hYXSNi6e34KHNOyH7xHMTg8Dht0Cq8qy7JIlb5Xq
pQ2F69lqXAE4yjNT/Wpy378B8Pgm2ci8H07Y739m
-----END CERTIFICATE-----
