Certificate:
    Data:
        Version: 3 (0x2)
        Serial Number: 43 (0x2b)
    Signature Algorithm: sha256WithRSAEncryption
        Issuer: C=US, ST=California, L=Santa Clara, O=pkg5, OU=ta7, CN=localhost/emailAddress=ta7
        Validity
            Not Before: Sep 22 05:33:37 2021 GMT
            Not After : Jun 18 05:33:37 2024 GMT
        Subject: C=US, ST=California, L=Santa Clara, O=pkg5, OU=cs1_ta7, CN=localhost/emailAddress=cs1_ta7
        Subject Public Key Info:
            Public Key Algorithm: rsaEncryption
                Public-Key: (1024 bit)
                Modulus:
                    00:ce:ab:be:cb:37:74:5d:f3:02:cd:48:de:14:4e:
                    f1:51:d1:a1:f5:43:de:78:49:87:3a:21:09:72:3e:
                    43:f0:d5:62:03:c5:34:48:b1:3b:33:c6:53:38:cd:
                    8d:a1:0e:b2:d0:69:f8:67:f6:70:f6:96:f6:32:99:
                    e1:de:7f:21:75:90:3d:4e:b1:79:c7:e7:92:af:72:
                    99:cd:61:c1:c4:66:ba:a9:ad:b5:a1:9e:a9:e3:eb:
                    3f:84:29:97:33:b5:c5:14:e4:c7:d8:db:0c:63:91:
                    12:ee:4b:94:76:57:ea:a2:e5:57:96:61:2c:e1:82:
                    60:65:3b:8d:65:65:f0:7b:2b
                Exponent: 65537 (0x10001)
        X509v3 extensions:
            X509v3 Basic Constraints: critical
                CA:FALSE
            X509v3 Key Usage: critical
                Digital Signature
    Signature Algorithm: sha256WithRSAEncryption
         60:56:c9:a3:87:5c:ac:e9:88:dd:b6:15:74:69:35:12:43:2d:
         0b:eb:f1:ad:ca:85:99:6a:0e:f9:6b:c5:71:2d:1f:cf:a8:c8:
         d8:35:d6:14:bf:6d:e0:12:e4:c8:75:86:b7:12:fb:96:1c:d3:
         72:8d:8c:7a:01:50:be:27:c5:8b:58:59:fa:0c:d7:6f:ba:2f:
         72:d1:80:1e:76:08:14:a6:7a:6f:b2:52:87:2d:66:e3:a5:9e:
         98:df:99:b3:87:0b:4f:ba:35:af:53:a3:7e:c8:81:40:dd:c0:
         b9:b9:6f:04:2a:7c:a2:73:1c:95:1c:b1:27:d5:a1:59:d8:f5:
         8b:dc:45:22:ac:bc:9a:e1:94:55:c2:cc:7d:73:82:ff:2c:2d:
         a7:ac:3a:45:51:61:d0:81:38:55:60:26:a0:db:8c:76:08:7c:
         63:b3:25:07:22:07:e6:5e:63:24:73:54:f6:8f:7d:83:af:bc:
         30:36:3e:22:81:89:b0:0f:33:06:49:b1:c2:0f:ad:20:b3:59:
         25:da:b8:6f:d7:21:0b:cb:a8:a9:6b:12:68:48:09:38:e4:48:
         4e:f0:c1:d8:5d:67:76:55:69:ea:71:19:6c:d5:d7:35:4f:24:
         4e:e4:37:50:51:7b:a5:f0:25:f3:60:58:90:83:a3:5a:d6:e0:
         96:cd:b7:54
-----BEGIN CERTIFICATE-----
MIIDGjCCAgKgAwIBAgIBKzANBgkqhkiG9w0BAQsFADB9MQswCQYDVQQGEwJVUzET
MBEGA1UECAwKQ2FsaWZvcm5pYTEUMBIGA1UEBwwLU2FudGEgQ2xhcmExDTALBgNV
BAoMBHBrZzUxDDAKBgNVBAsMA3RhNzESMBAGA1UEAwwJbG9jYWxob3N0MRIwEAYJ
KoZIhvcNAQkBFgN0YTcwHhcNMjEwOTIyMDUzMzM3WhcNMjQwNjE4MDUzMzM3WjCB
hTELMAkGA1UEBhMCVVMxEzARBgNVBAgMCkNhbGlmb3JuaWExFDASBgNVBAcMC1Nh
bnRhIENsYXJhMQ0wCwYDVQQKDARwa2c1MRAwDgYDVQQLDAdjczFfdGE3MRIwEAYD
VQQDDAlsb2NhbGhvc3QxFjAUBgkqhkiG9w0BCQEWB2NzMV90YTcwgZ8wDQYJKoZI
hvcNAQEBBQADgY0AMIGJAoGBAM6rvss3dF3zAs1I3hRO8VHRofVD3nhJhzohCXI+
Q/DVYgPFNEixOzPGUzjNjaEOstBp+Gf2cPaW9jKZ4d5/IXWQPU6xecfnkq9ymc1h
wcRmuqmttaGeqePrP4QplzO1xRTkx9jbDGOREu5LlHZX6qLlV5ZhLOGCYGU7jWVl
8HsrAgMBAAGjIDAeMAwGA1UdEwEB/wQCMAAwDgYDVR0PAQH/BAQDAgeAMA0GCSqG
SIb3DQEBCwUAA4IBAQBgVsmjh1ys6YjdthV0aTUSQy0L6/GtyoWZag75a8VxLR/P
qMjYNdYUv23gEuTIdYa3EvuWHNNyjYx6AVC+J8WLWFn6DNdvui9y0YAedggUpnpv
slKHLWbjpZ6Y35mzhwtPujWvU6N+yIFA3cC5uW8EKnyicxyVHLEn1aFZ2PWL3EUi
rLya4ZRVwsx9c4L/LC2nrDpFUWHQgThVYCag24x2CHxjsyUHIgfmXmMkc1T2j32D
r7wwNj4igYmwDzMGSbHCD60gs1kl2rhv1yELy6ipaxJoSAk45EhO8MHYXWd2VWnq
cRls1dc1TyRO5DdQUXul8CXzYFiQg6Na1uCWzbdU
-----END CERTIFICATE-----
