Certificate:
    Data:
        Version: 3 (0x2)
        Serial Number: 43 (0x2b)
        Signature Algorithm: sha256WithRSAEncryption
        Issuer: C=US, ST=California, L=Menlo Park, O=pkg5, OU=ta7, CN=localhost/emailAddress=ta7
        Validity
            Not Before: Apr 11 22:37:54 2011 GMT
            Not After : Jan  5 22:37:54 2014 GMT
        Subject: C=US, ST=California, L=Menlo Park, O=pkg5, OU=cs1_ta7, CN=localhost/emailAddress=cs1_ta7
        Subject Public Key Info:
            Public Key Algorithm: rsaEncryption
            RSA Public Key: (1024 bit)
                Modulus (1024 bit):
                    00:c1:8e:b8:0a:bd:17:40:c0:8d:b3:6f:c3:ca:97:
                    ca:b0:b6:95:01:9c:d8:a0:f3:9f:af:2e:c8:3f:0b:
                    54:f3:f0:c6:ae:41:d0:b5:73:4d:6e:b3:93:f9:58:
                    99:86:b4:66:21:2d:9f:78:ad:47:eb:81:78:5d:21:
                    2e:19:38:7a:73:64:5e:c9:8f:5c:1c:f5:92:b9:5f:
                    2f:f3:de:e7:a3:8c:8a:cb:d1:b2:00:ed:7c:24:a8:
                    10:d2:2c:eb:32:7c:48:23:fe:c2:9d:41:b5:07:d7:
                    52:aa:e9:20:d3:2a:63:60:c4:1a:60:27:05:28:ae:
                    4f:88:fd:ba:8e:ff:02:c7:47
                Exponent: 65537 (0x10001)
        X509v3 extensions:
            X509v3 Basic Constraints: critical
                CA:FALSE
            X509v3 Key Usage: critical
                Digital Signature
    Signature Algorithm: sha256WithRSAEncryption
        b5:06:5c:d4:ad:4f:c3:e4:99:0c:07:e7:dd:33:09:94:42:7d:
        8a:c8:04:56:c8:63:a0:be:4b:a7:60:52:e4:13:ef:82:bd:ce:
        9f:4f:91:ee:e8:0e:09:35:e6:eb:c2:e3:da:78:8d:4e:a2:b4:
        e5:f0:4c:99:29:02:0f:a8:b8:49:56:f8:d9:a3:4b:c7:bb:ce:
        ba:63:78:ed:36:f9:34:6a:b8:9d:06:9b:ff:5e:e9:48:0e:b3:
        39:d7:64:e5:c9:28:c8:3c:8f:42:52:08:56:ad:6d:f0:63:aa:
        30:45:d4:40:17:34:be:24:4e:21:7a:b5:b3:2a:c7:ce:75:1b:
        a5:eb
-----BEGIN CERTIFICATE-----
MIIClzCCAgCgAwIBAgIBKzANBgkqhkiG9w0BAQsFADB8MQswCQYDVQQGEwJVUzET
MBEGA1UECBMKQ2FsaWZvcm5pYTETMBEGA1UEBxMKTWVubG8gUGFyazENMAsGA1UE
ChMEcGtnNTEMMAoGA1UECxMDdGE3MRIwEAYDVQQDEwlsb2NhbGhvc3QxEjAQBgkq
hkiG9w0BCQEWA3RhNzAeFw0xMTA0MTEyMjM3NTRaFw0xNDAxMDUyMjM3NTRaMIGE
MQswCQYDVQQGEwJVUzETMBEGA1UECBMKQ2FsaWZvcm5pYTETMBEGA1UEBxMKTWVu
bG8gUGFyazENMAsGA1UEChMEcGtnNTEQMA4GA1UECxQHY3MxX3RhNzESMBAGA1UE
AxMJbG9jYWxob3N0MRYwFAYJKoZIhvcNAQkBFgdjczFfdGE3MIGfMA0GCSqGSIb3
DQEBAQUAA4GNADCBiQKBgQDBjrgKvRdAwI2zb8PKl8qwtpUBnNig85+vLsg/C1Tz
8MauQdC1c01us5P5WJmGtGYhLZ94rUfrgXhdIS4ZOHpzZF7Jj1wc9ZK5Xy/z3uej
jIrL0bIA7XwkqBDSLOsyfEgj/sKdQbUH11Kq6SDTKmNgxBpgJwUork+I/bqO/wLH
RwIDAQABoyAwHjAMBgNVHRMBAf8EAjAAMA4GA1UdDwEB/wQEAwIHgDANBgkqhkiG
9w0BAQsFAAOBgQC1BlzUrU/D5JkMB+fdMwmUQn2KyARWyGOgvkunYFLkE++Cvc6f
T5Hu6A4JNebrwuPaeI1OorTl8EyZKQIPqLhJVvjZo0vHu866Y3jtNvk0aridBpv/
XulIDrM512TlySjIPI9CUghWrW3wY6owRdRAFzS+JE4herWzKsfOdRul6w==
-----END CERTIFICATE-----
