Certificate:
    Data:
        Version: 3 (0x2)
        Serial Number: 43 (0x2b)
    Signature Algorithm: sha256WithRSAEncryption
        Issuer: C=US, ST=California, L=Santa Clara, O=pkg5, OU=ta7, CN=localhost/emailAddress=ta7
        Validity
            Not Before: Jul 19 11:35:52 2023 GMT
            Not After : Apr 14 11:35:52 2026 GMT
        Subject: C=US, ST=California, L=Santa Clara, O=pkg5, OU=cs1_ta7, CN=localhost/emailAddress=cs1_ta7
        Subject Public Key Info:
            Public Key Algorithm: rsaEncryption
                Public-Key: (2048 bit)
                Modulus:
                    00:c4:a6:aa:4a:f1:56:e9:aa:76:04:80:fb:81:50:
                    0e:17:e7:ed:82:54:67:53:ad:b8:06:3e:a6:46:6e:
                    19:46:48:32:b9:12:1a:ec:d6:b0:cf:75:62:a3:b5:
                    02:36:33:ea:3e:fc:30:fe:cb:b9:b8:1d:5d:ca:9f:
                    52:50:f7:39:81:90:fd:21:a3:fd:63:ec:73:81:bb:
                    8a:90:74:b7:fd:35:8a:56:d6:bb:e1:f9:99:2e:01:
                    b1:b2:4a:a4:8d:31:5b:c6:5a:5f:27:93:df:fa:b0:
                    29:61:27:f2:83:0f:35:9e:d1:ea:a7:71:61:0d:ac:
                    ef:6a:aa:e4:10:b1:59:a2:a2:aa:4e:ad:79:bf:d1:
                    ae:e9:c3:fe:0b:e8:c0:06:33:cd:2f:30:7b:07:ca:
                    0a:8b:f8:8b:4c:51:34:75:dc:4d:03:f8:d0:5a:ec:
                    43:33:05:e0:2e:21:39:51:14:aa:0e:d6:6e:9a:7d:
                    ac:65:ce:bf:25:19:45:34:f9:6f:16:5f:ae:68:5e:
                    89:63:73:93:ad:0a:de:c1:76:81:77:66:fe:31:44:
                    95:64:8c:8b:5d:6e:79:c6:15:70:15:c0:61:c5:b3:
                    ca:c2:f7:50:5c:f8:45:f7:dc:fa:c2:77:9f:58:40:
                    2e:58:98:89:7e:e0:5f:d5:9b:96:e7:2a:a0:16:76:
                    b9:e7
                Exponent: 65537 (0x10001)
        X509v3 extensions:
            X509v3 Basic Constraints: critical
                CA:FALSE
            X509v3 Key Usage: critical
                Digital Signature
    Signature Algorithm: sha256WithRSAEncryption
         7e:d9:eb:39:41:d7:2e:58:08:83:aa:d5:dd:8d:ad:9f:03:16:
         e4:46:6c:62:85:67:3c:e1:3d:65:d5:08:95:ce:3e:10:4e:74:
         74:2e:36:12:1a:23:9b:e2:57:0a:23:ad:05:d3:71:10:a4:d0:
         25:dd:ee:ff:30:d3:87:ba:6d:39:cb:cf:29:42:17:65:07:fc:
         ab:1b:e4:fd:ad:64:65:82:ca:68:20:dc:63:fe:49:12:d7:28:
         7c:d0:d8:b7:1b:73:ff:1a:3c:15:58:4a:02:e2:88:b4:bf:00:
         7d:7d:f5:ce:7f:62:45:1b:f3:77:c7:da:e8:bf:a3:ad:15:c3:
         af:34:e4:3b:f4:72:d1:8e:72:ce:7b:2b:44:98:42:4a:49:6a:
         6a:b2:0f:45:c7:4a:a6:8f:eb:7c:9c:05:99:32:1c:9c:f5:a8:
         96:bc:bd:5e:4a:41:bb:46:42:1a:29:1c:7d:48:bc:38:0e:b7:
         b2:ae:39:00:9b:8c:3d:b9:86:cd:e3:3c:54:d0:41:7c:d1:7e:
         f1:4c:1d:cf:c5:fc:59:be:fc:2d:db:bf:e5:b9:f5:1f:3b:99:
         9c:9b:2d:6b:c7:aa:82:d5:9b:40:73:05:01:14:7e:13:da:9c:
         85:3e:39:64:14:c3:12:b5:5d:3f:f1:4d:5a:73:99:07:38:ac:
         42:e8:ac:34
-----BEGIN CERTIFICATE-----
MIIDnjCCAoagAwIBAgIBKzANBgkqhkiG9w0BAQsFADB9MQswCQYDVQQGEwJVUzET
MBEGA1UECAwKQ2FsaWZvcm5pYTEUMBIGA1UEBwwLU2FudGEgQ2xhcmExDTALBgNV
BAoMBHBrZzUxDDAKBgNVBAsMA3RhNzESMBAGA1UEAwwJbG9jYWxob3N0MRIwEAYJ
KoZIhvcNAQkBFgN0YTcwHhcNMjMwNzE5MTEzNTUyWhcNMjYwNDE0MTEzNTUyWjCB
hTELMAkGA1UEBhMCVVMxEzARBgNVBAgMCkNhbGlmb3JuaWExFDASBgNVBAcMC1Nh
bnRhIENsYXJhMQ0wCwYDVQQKDARwa2c1MRAwDgYDVQQLDAdjczFfdGE3MRIwEAYD
VQQDDAlsb2NhbGhvc3QxFjAUBgkqhkiG9w0BCQEWB2NzMV90YTcwggEiMA0GCSqG
SIb3DQEBAQUAA4IBDwAwggEKAoIBAQDEpqpK8VbpqnYEgPuBUA4X5+2CVGdTrbgG
PqZGbhlGSDK5Ehrs1rDPdWKjtQI2M+o+/DD+y7m4HV3Kn1JQ9zmBkP0ho/1j7HOB
u4qQdLf9NYpW1rvh+ZkuAbGySqSNMVvGWl8nk9/6sClhJ/KDDzWe0eqncWENrO9q
quQQsVmioqpOrXm/0a7pw/4L6MAGM80vMHsHygqL+ItMUTR13E0D+NBa7EMzBeAu
ITlRFKoO1m6afaxlzr8lGUU0+W8WX65oXoljc5OtCt7BdoF3Zv4xRJVkjItdbnnG
FXAVwGHFs8rC91Bc+EX33PrCd59YQC5YmIl+4F/Vm5bnKqAWdrnnAgMBAAGjIDAe
MAwGA1UdEwEB/wQCMAAwDgYDVR0PAQH/BAQDAgeAMA0GCSqGSIb3DQEBCwUAA4IB
AQB+2es5QdcuWAiDqtXdja2fAxbkRmxihWc84T1l1QiVzj4QTnR0LjYSGiOb4lcK
I60F03EQpNAl3e7/MNOHum05y88pQhdlB/yrG+T9rWRlgspoINxj/kkS1yh80Ni3
G3P/GjwVWEoC4oi0vwB9ffXOf2JFG/N3x9rov6OtFcOvNOQ79HLRjnLOeytEmEJK
SWpqsg9Fx0qmj+t8nAWZMhyc9aiWvL1eSkG7RkIaKRx9SLw4DreyrjkAm4w9uYbN
4zxU0EF80X7xTB3PxfxZvvwt27/lufUfO5mcmy1rx6qC1ZtAcwUBFH4T2pyFPjlk
FMMStV0/8U1ac5kHOKxC6Kw0
-----END CERTIFICATE-----
