Certificate:
    Data:
        Version: 3 (0x2)
        Serial Number: 43 (0x2b)
    Signature Algorithm: sha256WithRSAEncryption
        Issuer: C=US, ST=California, L=Santa Clara, O=pkg5, OU=ta6, CN=localhost/emailAddress=ta6
        Validity
            Not Before: Jan 22 01:58:00 2016 GMT
            Not After : Oct 18 01:58:00 2018 GMT
        Subject: C=US, ST=California, L=Santa Clara, O=pkg5, OU=cs1_ta6, CN=localhost/emailAddress=cs1_ta6
        Subject Public Key Info:
            Public Key Algorithm: rsaEncryption
                Public-Key: (1024 bit)
                Modulus:
                    00:b4:84:11:69:31:e0:0c:44:98:4c:11:44:84:ab:
                    af:48:24:93:aa:05:08:13:40:fa:07:12:81:08:8c:
                    df:96:e5:50:cb:5e:a1:27:89:fd:bc:e2:3d:ac:78:
                    30:90:c4:8a:95:15:59:90:e2:ad:09:5c:18:2a:f8:
                    0a:71:f6:9b:c3:61:1d:31:22:72:57:5f:78:cd:a6:
                    cc:a7:88:1d:06:64:61:a2:57:c9:71:bc:54:05:ff:
                    1f:5e:13:2a:51:da:e1:96:41:62:48:bc:19:df:53:
                    c7:82:4c:12:27:17:3e:79:8c:7b:20:d2:d0:d5:9f:
                    26:50:6f:37:6d:32:68:f3:f1
                Exponent: 65537 (0x10001)
        X509v3 extensions:
            X509v3 Basic Constraints: critical
                CA:FALSE
            X509v3 Key Usage: critical
                Digital Signature
    Signature Algorithm: sha256WithRSAEncryption
         87:3f:d7:4b:8a:ce:da:b7:95:ac:80:d8:68:2d:c3:5a:e5:d7:
         ed:52:79:38:61:c8:35:f1:67:6b:b6:0a:19:b3:3c:e5:ac:bd:
         00:ce:38:44:e6:5c:32:de:20:27:ff:ab:a5:77:e8:60:8b:22:
         76:4b:c1:51:cc:8e:07:7e:0e:4c:c3:cb:9e:82:6f:32:b7:74:
         99:14:ae:34:7b:d6:eb:61:7d:9c:b9:d1:05:6e:44:4c:51:30:
         c2:25:26:dd:1e:89:7c:41:68:18:95:90:83:5c:91:1c:fb:17:
         b2:aa:24:0e:af:81:9f:c9:67:ab:a3:2c:30:49:9d:bf:55:75:
         ac:8b:4d:28:59:ef:d9:6e:4a:cd:99:52:44:56:33:e5:ed:24:
         ab:78:f4:7a:e5:e4:32:db:cc:cf:8a:db:d9:e4:41:ef:c2:fc:
         e6:be:6a:3a:25:91:bf:5b:be:8d:3f:eb:e4:cc:d1:df:9b:53:
         f6:71:bd:30:fd:7f:62:21:e2:47:ee:03:c1:e8:39:9c:f8:67:
         db:76:5b:5a:22:55:86:63:58:58:30:53:e9:da:8d:07:e9:65:
         fe:d8:57:77:7a:6c:8c:7b:e2:40:f7:20:81:50:5a:4f:ed:75:
         db:5b:31:b4:bb:52:95:b8:6c:09:c0:93:57:cd:a1:f7:68:50:
         70:cf:37:45
-----BEGIN CERTIFICATE-----
MIIDGjCCAgKgAwIBAgIBKzANBgkqhkiG9w0BAQsFADB9MQswCQYDVQQGEwJVUzET
MBEGA1UECAwKQ2FsaWZvcm5pYTEUMBIGA1UEBwwLU2FudGEgQ2xhcmExDTALBgNV
BAoMBHBrZzUxDDAKBgNVBAsMA3RhNjESMBAGA1UEAwwJbG9jYWxob3N0MRIwEAYJ
KoZIhvcNAQkBFgN0YTYwHhcNMTYwMTIyMDE1ODAwWhcNMTgxMDE4MDE1ODAwWjCB
hTELMAkGA1UEBhMCVVMxEzARBgNVBAgMCkNhbGlmb3JuaWExFDASBgNVBAcMC1Nh
bnRhIENsYXJhMQ0wCwYDVQQKDARwa2c1MRAwDgYDVQQLDAdjczFfdGE2MRIwEAYD
VQQDDAlsb2NhbGhvc3QxFjAUBgkqhkiG9w0BCQEWB2NzMV90YTYwgZ8wDQYJKoZI
hvcNAQEBBQADgY0AMIGJAoGBALSEEWkx4AxEmEwRRISrr0gkk6oFCBNA+gcSgQiM
35blUMteoSeJ/bziPax4MJDEipUVWZDirQlcGCr4CnH2m8NhHTEicldfeM2mzKeI
HQZkYaJXyXG8VAX/H14TKlHa4ZZBYki8Gd9Tx4JMEicXPnmMeyDS0NWfJlBvN20y
aPPxAgMBAAGjIDAeMAwGA1UdEwEB/wQCMAAwDgYDVR0PAQH/BAQDAgeAMA0GCSqG
SIb3DQEBCwUAA4IBAQCHP9dLis7at5WsgNhoLcNa5dftUnk4Ycg18WdrtgoZszzl
rL0AzjhE5lwy3iAn/6uld+hgiyJ2S8FRzI4Hfg5Mw8uegm8yt3SZFK40e9brYX2c
udEFbkRMUTDCJSbdHol8QWgYlZCDXJEc+xeyqiQOr4GfyWeroywwSZ2/VXWsi00o
We/ZbkrNmVJEVjPl7SSrePR65eQy28zPitvZ5EHvwvzmvmo6JZG/W76NP+vkzNHf
m1P2cb0w/X9iIeJH7gPB6Dmc+GfbdltaIlWGY1hYMFPp2o0H6WX+2Fd3emyMe+JA
9yCBUFpP7XXbWzG0u1KVuGwJwJNXzaH3aFBwzzdF
-----END CERTIFICATE-----
