Certificate:
    Data:
        Version: 3 (0x2)
        Serial Number: 44 (0x2c)
    Signature Algorithm: sha256WithRSAEncryption
        Issuer: C=US, ST=California, L=Santa Clara, O=pkg5, OU=ta8, CN=localhost/emailAddress=ta8
        Validity
            Not Before: Sep 22 05:33:37 2021 GMT
            Not After : Jun 18 05:33:37 2024 GMT
        Subject: C=US, ST=California, L=Santa Clara, O=pkg5, OU=cs1_ta8, CN=localhost/emailAddress=cs1_ta8
        Subject Public Key Info:
            Public Key Algorithm: rsaEncryption
                Public-Key: (1024 bit)
                Modulus:
                    00:b4:66:ec:87:1a:29:f1:a8:e4:ac:45:8f:80:69:
                    c3:15:11:ef:4d:45:47:e8:76:29:d4:7e:30:e2:13:
                    83:47:9f:10:4a:dc:0f:82:e5:31:bd:bd:0d:ae:1c:
                    35:35:a8:be:7c:4c:f6:04:78:75:da:da:78:9b:4f:
                    6d:13:9c:58:d1:05:52:7f:27:e0:61:56:5a:5a:eb:
                    9e:bb:8d:56:67:b8:eb:3c:a9:f1:06:ad:02:fe:27:
                    01:a9:e8:7f:0f:12:fa:3d:55:cd:d2:85:c1:6e:1c:
                    77:69:f2:5e:1e:43:91:d4:9d:07:27:56:24:b2:e6:
                    01:e9:c7:d7:50:4f:7d:00:5d
                Exponent: 65537 (0x10001)
        X509v3 extensions:
            X509v3 Basic Constraints: critical
                CA:FALSE
            X509v3 Key Usage: critical
                Digital Signature
    Signature Algorithm: sha256WithRSAEncryption
         91:37:d6:38:c2:c8:51:9f:c1:03:2d:77:37:a3:1b:24:ed:e7:
         24:a5:2b:d3:7c:c6:e3:e9:56:6c:18:e4:9b:82:e2:31:8e:44:
         2c:db:1f:71:5c:0c:79:1c:ec:be:19:96:19:50:93:01:84:a6:
         46:0d:fd:50:70:ef:d2:19:96:b9:90:86:88:da:24:8d:c5:17:
         bd:34:01:46:11:c2:3b:96:56:b2:8e:85:04:09:5a:7a:cf:23:
         35:80:ba:41:cd:04:05:55:dd:27:87:54:da:8e:8c:3f:da:5b:
         bb:12:c3:de:ad:7f:94:86:0b:14:23:f2:ef:6f:4e:08:4d:dc:
         fc:38:77:36:b2:10:72:5e:aa:98:cf:db:4b:98:21:cf:88:cf:
         1d:2b:31:00:73:7e:6f:63:c3:22:6e:48:e2:46:54:ca:5d:c4:
         0a:3a:33:79:4a:df:cc:42:66:87:13:9e:c3:3b:e9:69:67:98:
         99:75:75:d3:4d:86:af:c5:f3:00:0b:54:89:f5:0f:c1:0b:e1:
         59:ec:90:fd:91:74:2e:6a:89:c3:0f:3c:58:40:5f:36:5a:ba:
         3e:12:16:fd:dd:d2:5b:22:97:13:77:e9:91:31:1d:10:a2:b1:
         72:53:7d:e5:c1:03:1e:fb:8b:19:0d:e0:98:d8:24:02:da:37:
         a0:40:d9:a0
-----BEGIN CERTIFICATE-----
MIIDGjCCAgKgAwIBAgIBLDANBgkqhkiG9w0BAQsFADB9MQswCQYDVQQGEwJVUzET
MBEGA1UECAwKQ2FsaWZvcm5pYTEUMBIGA1UEBwwLU2FudGEgQ2xhcmExDTALBgNV
BAoMBHBrZzUxDDAKBgNVBAsMA3RhODESMBAGA1UEAwwJbG9jYWxob3N0MRIwEAYJ
KoZIhvcNAQkBFgN0YTgwHhcNMjEwOTIyMDUzMzM3WhcNMjQwNjE4MDUzMzM3WjCB
hTELMAkGA1UEBhMCVVMxEzARBgNVBAgMCkNhbGlmb3JuaWExFDASBgNVBAcMC1Nh
bnRhIENsYXJhMQ0wCwYDVQQKDARwa2c1MRAwDgYDVQQLDAdjczFfdGE4MRIwEAYD
VQQDDAlsb2NhbGhvc3QxFjAUBgkqhkiG9w0BCQEWB2NzMV90YTgwgZ8wDQYJKoZI
hvcNAQEBBQADgY0AMIGJAoGBALRm7IcaKfGo5KxFj4BpwxUR701FR+h2KdR+MOIT
g0efEErcD4LlMb29Da4cNTWovnxM9gR4ddraeJtPbROcWNEFUn8n4GFWWlrrnruN
Vme46zyp8QatAv4nAanofw8S+j1VzdKFwW4cd2nyXh5DkdSdBydWJLLmAenH11BP
fQBdAgMBAAGjIDAeMAwGA1UdEwEB/wQCMAAwDgYDVR0PAQH/BAQDAgeAMA0GCSqG
SIb3DQEBCwUAA4IBAQCRN9Y4wshRn8EDLXc3oxsk7eckpSvTfMbj6VZsGOSbguIx
jkQs2x9xXAx5HOy+GZYZUJMBhKZGDf1QcO/SGZa5kIaI2iSNxRe9NAFGEcI7llay
joUECVp6zyM1gLpBzQQFVd0nh1Tajow/2lu7EsPerX+UhgsUI/Lvb04ITdz8OHc2
shByXqqYz9tLmCHPiM8dKzEAc35vY8MibkjiRlTKXcQKOjN5St/MQmaHE57DO+lp
Z5iZdXXTTYavxfMAC1SJ9Q/BC+FZ7JD9kXQuaonDDzxYQF82Wro+Ehb93dJbIpcT
d+mRMR0QorFyU33lwQMe+4sZDeCY2CQC2jegQNmg
-----END CERTIFICATE-----
