Certificate:
    Data:
        Version: 3 (0x2)
        Serial Number: 44 (0x2c)
        Signature Algorithm: sha256WithRSAEncryption
        Issuer: C=US, ST=California, L=Santa Clara, O=pkg5, OU=ta8, CN=localhost/emailAddress=ta8
        Validity
            Not Before: Mar 18 08:51:48 2026 GMT
            Not After : Dec 12 08:51:48 2028 GMT
        Subject: C=US, ST=California, L=Santa Clara, O=pkg5, OU=cs1_ta8, CN=localhost/emailAddress=cs1_ta8
        Subject Public Key Info:
            Public Key Algorithm: rsaEncryption
                Public-Key: (2048 bit)
                Modulus:
                    00:c4:af:00:76:d6:70:20:3f:51:98:ff:0f:ef:59:
                    a2:81:09:fb:70:f2:54:6e:16:9d:f6:1e:63:df:6f:
                    87:8b:fa:04:79:fb:ae:58:0c:5e:5f:ca:37:45:d5:
                    b5:7e:55:05:04:84:dd:24:eb:c6:78:29:89:c9:94:
                    36:82:50:7e:71:dc:b1:56:04:0e:47:d3:5b:30:1d:
                    2b:82:c3:f5:03:3f:ef:f1:0c:72:f5:a3:17:0a:c0:
                    5b:02:42:de:af:26:69:a3:3e:ac:8d:9d:22:04:12:
                    11:4d:f4:98:85:50:79:ce:ee:b5:fe:8b:15:0b:7d:
                    61:1f:4d:bd:7d:03:78:78:fe:a5:60:79:3e:4d:11:
                    f0:fc:af:23:e8:80:15:d1:89:b5:e3:23:a6:a6:c5:
                    4e:1c:aa:b3:64:18:c1:82:09:e5:fd:c2:ae:8f:08:
                    0a:a5:da:d6:30:fe:7e:8e:eb:3b:86:8f:21:8b:68:
                    b8:89:76:48:dd:bb:6e:18:fd:8f:ee:11:de:cd:dc:
                    7c:4e:5a:82:3e:f6:bf:3b:d0:e9:f9:3a:a1:b3:c9:
                    93:fe:95:96:9c:08:75:b5:4e:db:06:21:57:cd:c4:
                    55:5c:0a:95:70:ba:02:8f:83:97:68:64:fd:d1:3d:
                    2c:14:ed:97:a7:b2:fc:2b:c1:0a:52:05:b5:f5:bc:
                    e3:f5
                Exponent: 65537 (0x10001)
        X509v3 extensions:
            X509v3 Basic Constraints: critical
                CA:FALSE
            X509v3 Key Usage: critical
                Digital Signature
            X509v3 Subject Key Identifier: 
                03:0F:60:8A:BE:92:EC:7B:17:53:BD:61:65:12:F5:0A:1F:3A:FE:0E
            X509v3 Authority Key Identifier: 
                FA:83:39:93:D9:2A:9E:B3:3E:4F:0A:CD:2C:56:E8:3C:95:38:AE:91
    Signature Algorithm: sha256WithRSAEncryption
    Signature Value:
        b1:e1:8b:c6:1f:91:07:f8:d4:d0:9f:63:89:71:ba:bf:45:6d:
        75:90:0d:6c:b4:d6:00:8f:34:71:79:7b:a4:88:e6:2e:51:6d:
        ea:67:d6:9f:d1:60:6c:40:27:6a:5a:a4:e8:0b:47:f3:6f:af:
        7c:e7:c3:2a:32:23:3d:84:6a:57:99:a5:81:e2:2c:c0:01:3f:
        8b:3f:43:f4:93:b2:f7:4a:8d:50:da:29:55:e0:2b:dd:d3:f2:
        aa:11:b4:77:fa:3c:7e:80:73:97:e0:a3:91:45:4c:79:69:02:
        28:ac:59:e5:d8:f7:c3:40:28:2f:ef:a3:0d:53:f6:50:0b:0d:
        63:33:8d:7c:14:14:64:1c:94:68:7d:b9:6c:a6:48:96:aa:10:
        22:85:e8:c3:50:77:13:8f:b9:7f:a7:19:24:81:e8:53:30:a6:
        12:75:a7:c3:be:79:3a:53:d5:b0:65:c3:d5:bb:ee:aa:fb:4c:
        a0:ad:aa:7d:33:0d:c6:b3:0e:61:ec:6d:7a:ab:c5:7e:a5:77:
        f1:32:e8:86:ba:fd:c5:97:32:77:49:9c:df:37:6a:ef:f5:0a:
        10:4c:ef:dc:b7:85:1b:f4:a2:9e:30:27:61:71:a0:b9:29:d6:
        ea:a0:c9:29:07:89:9c:26:4c:07:f0:ac:aa:dd:be:32:2a:3f:
        8b:bc:2c:b9
-----BEGIN CERTIFICATE-----
MIID3jCCAsagAwIBAgIBLDANBgkqhkiG9w0BAQsFADB9MQswCQYDVQQGEwJVUzET
MBEGA1UECAwKQ2FsaWZvcm5pYTEUMBIGA1UEBwwLU2FudGEgQ2xhcmExDTALBgNV
BAoMBHBrZzUxDDAKBgNVBAsMA3RhODESMBAGA1UEAwwJbG9jYWxob3N0MRIwEAYJ
KoZIhvcNAQkBFgN0YTgwHhcNMjYwMzE4MDg1MTQ4WhcNMjgxMjEyMDg1MTQ4WjCB
hTELMAkGA1UEBhMCVVMxEzARBgNVBAgMCkNhbGlmb3JuaWExFDASBgNVBAcMC1Nh
bnRhIENsYXJhMQ0wCwYDVQQKDARwa2c1MRAwDgYDVQQLDAdjczFfdGE4MRIwEAYD
VQQDDAlsb2NhbGhvc3QxFjAUBgkqhkiG9w0BCQEWB2NzMV90YTgwggEiMA0GCSqG
SIb3DQEBAQUAA4IBDwAwggEKAoIBAQDErwB21nAgP1GY/w/vWaKBCftw8lRuFp32
HmPfb4eL+gR5+65YDF5fyjdF1bV+VQUEhN0k68Z4KYnJlDaCUH5x3LFWBA5H01sw
HSuCw/UDP+/xDHL1oxcKwFsCQt6vJmmjPqyNnSIEEhFN9JiFUHnO7rX+ixULfWEf
Tb19A3h4/qVgeT5NEfD8ryPogBXRibXjI6amxU4cqrNkGMGCCeX9wq6PCAql2tYw
/n6O6zuGjyGLaLiJdkjdu24Y/Y/uEd7N3HxOWoI+9r870On5OqGzyZP+lZacCHW1
TtsGIVfNxFVcCpVwugKPg5doZP3RPSwU7ZensvwrwQpSBbX1vOP1AgMBAAGjYDBe
MAwGA1UdEwEB/wQCMAAwDgYDVR0PAQH/BAQDAgeAMB0GA1UdDgQWBBQDD2CKvpLs
exdTvWFlEvUKHzr+DjAfBgNVHSMEGDAWgBT6gzmT2Sqesz5PCs0sVug8lTiukTAN
BgkqhkiG9w0BAQsFAAOCAQEAseGLxh+RB/jU0J9jiXG6v0VtdZANbLTWAI80cXl7
pIjmLlFt6mfWn9FgbEAnalqk6AtH82+vfOfDKjIjPYRqV5mlgeIswAE/iz9D9JOy
90qNUNopVeAr3dPyqhG0d/o8foBzl+CjkUVMeWkCKKxZ5dj3w0AoL++jDVP2UAsN
YzONfBQUZByUaH25bKZIlqoQIoXow1B3E4+5f6cZJIHoUzCmEnWnw755OlPVsGXD
1bvuqvtMoK2qfTMNxrMOYexteqvFfqV38TLohrr9xZcyd0mc3zdq7/UKEEzv3LeF
G/SinjAnYXGguSnW6qDJKQeJnCZMB/Csqt2+Mio/i7wsuQ==
-----END CERTIFICATE-----
