Certificate:
    Data:
        Version: 3 (0x2)
        Serial Number: 44 (0x2c)
    Signature Algorithm: sha256WithRSAEncryption
        Issuer: C=US, ST=California, L=Santa Clara, O=pkg5, OU=ta7, CN=localhost/emailAddress=ta7
        Validity
            Not Before: Jan 22 01:58:00 2016 GMT
            Not After : Oct 18 01:58:00 2018 GMT
        Subject: C=US, ST=California, L=Santa Clara, O=pkg5, OU=cs1_ta7, CN=localhost/emailAddress=cs1_ta7
        Subject Public Key Info:
            Public Key Algorithm: rsaEncryption
                Public-Key: (1024 bit)
                Modulus:
                    00:d6:ce:87:3c:54:3b:74:99:d1:2c:43:df:bc:87:
                    cb:e5:a9:c1:4a:8c:a2:41:1e:63:47:b1:04:06:a5:
                    bf:ba:00:88:76:05:ef:98:13:bd:2e:5a:78:1e:d6:
                    5e:4a:6d:7f:9c:aa:cd:8c:19:98:56:ee:c2:6a:68:
                    0f:86:2f:2d:c3:bd:ef:c0:2b:3d:0f:12:87:26:2d:
                    65:73:17:0a:99:a3:5f:58:1c:7a:aa:a0:0d:e9:5a:
                    e9:81:70:6b:40:3a:0f:e5:c9:b5:e5:62:cd:46:1c:
                    e1:91:83:cd:9d:40:99:db:ae:77:ce:87:90:c6:6b:
                    cd:d0:15:a9:33:cc:f8:a5:f9
                Exponent: 65537 (0x10001)
        X509v3 extensions:
            X509v3 Basic Constraints: critical
                CA:FALSE
            X509v3 Key Usage: critical
                Digital Signature
    Signature Algorithm: sha256WithRSAEncryption
         78:c0:07:be:8a:00:77:dc:22:4f:c5:c1:9a:36:c3:68:fb:ab:
         08:6d:78:6c:75:e0:17:af:ab:fe:36:4b:89:b6:a5:ba:7c:18:
         62:6c:d0:2b:bb:ef:d5:58:c8:69:05:b1:33:31:b3:43:46:01:
         92:7e:34:03:8b:31:70:7b:7c:8a:f2:39:6f:60:f5:a3:22:5c:
         f3:0d:42:70:b0:46:87:97:87:1a:17:be:23:31:2f:f7:71:03:
         d2:79:17:ad:56:42:64:7a:97:b1:f7:a3:ce:7b:76:f9:22:8f:
         f5:ff:2c:04:82:6d:05:ea:ee:aa:de:01:18:a0:d9:c7:98:b7:
         75:39:95:66:cd:b2:cb:aa:fc:ab:0d:e7:cf:5a:a8:b4:22:89:
         f7:7a:47:ba:cd:70:76:96:2c:64:67:be:51:db:a3:cc:7d:a3:
         22:9b:ea:88:5e:c8:02:0f:b2:6b:6a:f0:59:eb:7c:ec:13:15:
         65:3c:c4:a3:99:69:01:f6:c7:9a:0b:21:1c:91:05:6b:b7:03:
         4c:d8:7f:a8:29:41:95:94:79:35:ca:c9:05:af:57:ea:78:22:
         4d:82:7e:d5:4b:41:8d:68:2c:40:ff:da:4d:40:f2:32:ed:4e:
         26:1d:b3:d2:88:f6:b9:a3:eb:e8:25:8f:67:67:c3:2a:8c:72:
         65:c9:a6:76
-----BEGIN CERTIFICATE-----
MIIDGjCCAgKgAwIBAgIBLDANBgkqhkiG9w0BAQsFADB9MQswCQYDVQQGEwJVUzET
MBEGA1UECAwKQ2FsaWZvcm5pYTEUMBIGA1UEBwwLU2FudGEgQ2xhcmExDTALBgNV
BAoMBHBrZzUxDDAKBgNVBAsMA3RhNzESMBAGA1UEAwwJbG9jYWxob3N0MRIwEAYJ
KoZIhvcNAQkBFgN0YTcwHhcNMTYwMTIyMDE1ODAwWhcNMTgxMDE4MDE1ODAwWjCB
hTELMAkGA1UEBhMCVVMxEzARBgNVBAgMCkNhbGlmb3JuaWExFDASBgNVBAcMC1Nh
bnRhIENsYXJhMQ0wCwYDVQQKDARwa2c1MRAwDgYDVQQLDAdjczFfdGE3MRIwEAYD
VQQDDAlsb2NhbGhvc3QxFjAUBgkqhkiG9w0BCQEWB2NzMV90YTcwgZ8wDQYJKoZI
hvcNAQEBBQADgY0AMIGJAoGBANbOhzxUO3SZ0SxD37yHy+WpwUqMokEeY0exBAal
v7oAiHYF75gTvS5aeB7WXkptf5yqzYwZmFbuwmpoD4YvLcO978ArPQ8ShyYtZXMX
CpmjX1gceqqgDela6YFwa0A6D+XJteVizUYc4ZGDzZ1Amduud86HkMZrzdAVqTPM
+KX5AgMBAAGjIDAeMAwGA1UdEwEB/wQCMAAwDgYDVR0PAQH/BAQDAgeAMA0GCSqG
SIb3DQEBCwUAA4IBAQB4wAe+igB33CJPxcGaNsNo+6sIbXhsdeAXr6v+NkuJtqW6
fBhibNAru+/VWMhpBbEzMbNDRgGSfjQDizFwe3yK8jlvYPWjIlzzDUJwsEaHl4ca
F74jMS/3cQPSeRetVkJkepex96POe3b5Io/1/ywEgm0F6u6q3gEYoNnHmLd1OZVm
zbLLqvyrDefPWqi0Ion3eke6zXB2lixkZ75R26PMfaMim+qIXsgCD7JravBZ63zs
ExVlPMSjmWkB9seaCyEckQVrtwNM2H+oKUGVlHk1yskFr1fqeCJNgn7VS0GNaCxA
/9pNQPIy7U4mHbPSiPa5o+voJY9nZ8MqjHJlyaZ2
-----END CERTIFICATE-----
