Certificate:
    Data:
        Version: 3 (0x2)
        Serial Number: 44 (0x2c)
    Signature Algorithm: sha256WithRSAEncryption
        Issuer: C=US, ST=California, L=Santa Clara, O=pkg5, OU=ta8, CN=localhost/emailAddress=ta8
        Validity
            Not Before: Jul 19 11:35:53 2023 GMT
            Not After : Apr 14 11:35:53 2026 GMT
        Subject: C=US, ST=California, L=Santa Clara, O=pkg5, OU=cs1_ta8, CN=localhost/emailAddress=cs1_ta8
        Subject Public Key Info:
            Public Key Algorithm: rsaEncryption
                Public-Key: (2048 bit)
                Modulus:
                    00:b6:9a:11:c2:24:49:9d:24:ef:e1:66:f5:e8:bd:
                    77:bc:dd:34:33:df:7a:0c:7d:4f:0c:a7:0b:59:6b:
                    8a:9a:7f:ec:d3:61:99:a6:15:a8:24:58:7b:b8:f8:
                    03:11:50:fd:ff:cf:8e:29:c4:16:aa:3b:70:6c:c6:
                    79:08:22:91:52:46:f1:f3:f2:ae:6e:68:8e:e7:9e:
                    31:03:b7:f6:16:a3:1e:ee:0e:f6:ea:5e:1a:68:7b:
                    e3:14:2d:ce:1f:c8:ba:0e:1e:53:ea:89:b8:60:ae:
                    93:64:01:23:17:da:84:90:26:8c:ad:78:c5:2c:a2:
                    a8:ed:d7:6f:e4:a5:ed:df:29:30:76:4e:03:fb:02:
                    cd:1c:2e:98:16:76:cb:ca:14:a8:3c:5e:04:36:e8:
                    6a:75:fc:45:71:b1:db:3d:b9:3c:9d:2c:c6:49:f6:
                    89:b4:0c:56:53:8d:2f:e1:cd:94:d1:f5:9b:a9:32:
                    ee:fb:f2:cb:6e:80:64:3d:a4:1b:be:00:84:0c:18:
                    85:02:dd:bf:5f:56:86:88:bb:c3:44:ec:17:5f:12:
                    bb:c5:ce:aa:bf:c5:b3:a6:b4:ca:51:46:bb:22:bf:
                    44:4b:f7:2e:d6:15:c0:d8:b8:fd:82:9b:b1:e2:54:
                    6b:fb:27:17:03:29:e5:10:d1:91:05:72:dc:0b:c0:
                    46:59
                Exponent: 65537 (0x10001)
        X509v3 extensions:
            X509v3 Basic Constraints: critical
                CA:FALSE
            X509v3 Key Usage: critical
                Digital Signature
    Signature Algorithm: sha256WithRSAEncryption
         03:09:e4:ea:de:56:7b:21:cd:de:8e:95:73:d5:9e:32:4d:6a:
         c9:f5:fa:3c:a0:52:d7:b5:94:ef:3d:fe:c5:a8:bf:f9:37:8d:
         3f:59:d4:a6:d9:78:24:ea:33:2e:bc:ce:62:23:ce:50:69:ff:
         5f:0b:40:22:5a:3a:3c:38:e1:3b:53:18:64:7c:ab:88:93:e6:
         0a:95:62:67:91:be:27:a4:ec:6d:11:ed:c3:a9:5c:9c:3a:07:
         5d:55:b6:05:1a:d1:00:78:65:15:27:d2:73:f9:3f:2e:81:02:
         1e:28:92:dd:6a:fb:21:72:18:38:98:e2:c6:6d:68:dd:93:06:
         43:23:16:88:64:11:8a:09:ff:3b:36:4b:a7:cc:51:e7:52:61:
         cd:b1:30:06:8d:63:45:1e:c8:ab:d8:49:dd:34:de:98:8b:2f:
         47:1e:a6:ad:ef:42:4f:8b:64:c1:1a:98:30:cb:41:ec:00:79:
         cc:7d:e8:ec:cc:2d:8d:53:a6:9a:a7:71:0e:2e:a9:ee:53:d1:
         60:3d:0c:02:47:88:3f:49:c6:b6:18:7f:af:fb:ee:c4:c5:4a:
         cd:12:e7:71:98:46:1a:eb:e8:9b:04:e6:00:bc:ce:9c:ed:f4:
         5f:53:a8:04:09:d1:02:84:b5:ef:d7:ec:a8:0d:6b:10:0f:86:
         65:bf:02:a0
-----BEGIN CERTIFICATE-----
MIIDnjCCAoagAwIBAgIBLDANBgkqhkiG9w0BAQsFADB9MQswCQYDVQQGEwJVUzET
MBEGA1UECAwKQ2FsaWZvcm5pYTEUMBIGA1UEBwwLU2FudGEgQ2xhcmExDTALBgNV
BAoMBHBrZzUxDDAKBgNVBAsMA3RhODESMBAGA1UEAwwJbG9jYWxob3N0MRIwEAYJ
KoZIhvcNAQkBFgN0YTgwHhcNMjMwNzE5MTEzNTUzWhcNMjYwNDE0MTEzNTUzWjCB
hTELMAkGA1UEBhMCVVMxEzARBgNVBAgMCkNhbGlmb3JuaWExFDASBgNVBAcMC1Nh
bnRhIENsYXJhMQ0wCwYDVQQKDARwa2c1MRAwDgYDVQQLDAdjczFfdGE4MRIwEAYD
VQQDDAlsb2NhbGhvc3QxFjAUBgkqhkiG9w0BCQEWB2NzMV90YTgwggEiMA0GCSqG
SIb3DQEBAQUAA4IBDwAwggEKAoIBAQC2mhHCJEmdJO/hZvXovXe83TQz33oMfU8M
pwtZa4qaf+zTYZmmFagkWHu4+AMRUP3/z44pxBaqO3BsxnkIIpFSRvHz8q5uaI7n
njEDt/YWox7uDvbqXhpoe+MULc4fyLoOHlPqibhgrpNkASMX2oSQJoyteMUsoqjt
12/kpe3fKTB2TgP7As0cLpgWdsvKFKg8XgQ26Gp1/EVxsds9uTydLMZJ9om0DFZT
jS/hzZTR9ZupMu778stugGQ9pBu+AIQMGIUC3b9fVoaIu8NE7BdfErvFzqq/xbOm
tMpRRrsiv0RL9y7WFcDYuP2Cm7HiVGv7JxcDKeUQ0ZEFctwLwEZZAgMBAAGjIDAe
MAwGA1UdEwEB/wQCMAAwDgYDVR0PAQH/BAQDAgeAMA0GCSqGSIb3DQEBCwUAA4IB
AQADCeTq3lZ7Ic3ejpVz1Z4yTWrJ9fo8oFLXtZTvPf7FqL/5N40/WdSm2Xgk6jMu
vM5iI85Qaf9fC0AiWjo8OOE7UxhkfKuIk+YKlWJnkb4npOxtEe3DqVycOgddVbYF
GtEAeGUVJ9Jz+T8ugQIeKJLdavshchg4mOLGbWjdkwZDIxaIZBGKCf87NkunzFHn
UmHNsTAGjWNFHsir2EndNN6Yiy9HHqat70JPi2TBGpgwy0HsAHnMfejszC2NU6aa
p3EOLqnuU9FgPQwCR4g/Sca2GH+v++7ExUrNEudxmEYa6+ibBOYAvM6c7fRfU6gE
CdEChLXv1+yoDWsQD4ZlvwKg
-----END CERTIFICATE-----
