Certificate:
    Data:
        Version: 3 (0x2)
        Serial Number: 44 (0x2c)
    Signature Algorithm: sha256WithRSAEncryption
        Issuer: C=US, ST=California, L=Santa Clara, O=pkg5, OU=ta8, CN=localhost/emailAddress=ta8
        Validity
            Not Before: Jan 22 15:33:16 2019 GMT
            Not After : Oct 18 15:33:16 2021 GMT
        Subject: C=US, ST=California, L=Santa Clara, O=pkg5, OU=cs1_ta8, CN=localhost/emailAddress=cs1_ta8
        Subject Public Key Info:
            Public Key Algorithm: rsaEncryption
                Public-Key: (1024 bit)
                Modulus:
                    00:d7:cc:00:51:87:f2:02:d5:6a:7f:83:a6:a6:a2:
                    a2:44:1b:04:03:92:ca:0a:d5:9e:1e:d1:c7:2f:30:
                    1d:55:8e:c4:54:ff:9e:a3:14:65:ef:15:fb:82:96:
                    6d:0c:be:c1:d4:cd:cf:c1:8e:70:1b:0c:f4:da:58:
                    6d:59:15:b0:e6:ef:33:8b:f7:a9:e4:85:da:6d:e7:
                    4b:a7:a9:9f:54:ac:0a:97:75:a2:9a:1d:78:50:de:
                    25:d2:bf:83:e7:eb:23:f6:e9:64:e9:7f:5b:4f:bb:
                    f0:35:fc:1b:e5:03:28:3f:3c:f2:ea:a0:8c:c8:a7:
                    ae:dd:99:6a:82:86:55:38:2f
                Exponent: 65537 (0x10001)
        X509v3 extensions:
            X509v3 Basic Constraints: critical
                CA:FALSE
            X509v3 Key Usage: critical
                Digital Signature
    Signature Algorithm: sha256WithRSAEncryption
         7a:26:3b:a0:dc:1f:54:39:23:a8:86:c0:6c:84:ef:19:33:6e:
         1b:ce:55:5f:e7:21:4e:fd:ec:e5:53:54:c3:42:7f:58:ee:2d:
         84:72:8a:aa:05:96:b7:32:d9:e9:be:ab:a4:7b:0a:4a:46:32:
         59:2f:cc:d4:b7:16:60:9b:a2:20:cf:aa:07:9c:a1:d3:a9:9e:
         22:39:7b:7d:51:98:30:8a:e9:77:8d:e4:17:39:ab:9f:ce:13:
         e8:cc:91:da:41:e9:fb:c2:9a:d0:ca:4a:e2:60:91:40:d6:a6:
         4e:3d:0a:53:5d:e7:a6:78:7e:6a:d1:70:c9:c6:8d:c7:43:a8:
         fe:e1:fb:8f:88:71:45:e8:83:a6:7c:35:2b:8a:ca:b0:72:8f:
         10:f1:cd:f1:ae:73:a3:8e:28:32:68:f5:66:5a:77:5a:66:18:
         65:47:54:b3:ab:e4:75:2a:03:3b:a4:97:18:88:e8:ef:72:c0:
         a3:a5:41:5d:45:24:c0:46:c4:fe:85:71:14:d5:de:2f:f0:b0:
         c1:6b:d0:39:ff:6d:f9:50:4b:24:d9:77:f6:fe:58:d0:8b:0f:
         f5:4d:66:20:bb:c0:05:84:e0:ca:59:f2:2a:80:79:56:4f:7a:
         a1:d0:ec:9e:1d:67:06:55:e6:b3:07:d6:fc:63:18:48:37:cf:
         78:2f:8d:b7
-----BEGIN CERTIFICATE-----
MIIDGjCCAgKgAwIBAgIBLDANBgkqhkiG9w0BAQsFADB9MQswCQYDVQQGEwJVUzET
MBEGA1UECAwKQ2FsaWZvcm5pYTEUMBIGA1UEBwwLU2FudGEgQ2xhcmExDTALBgNV
BAoMBHBrZzUxDDAKBgNVBAsMA3RhODESMBAGA1UEAwwJbG9jYWxob3N0MRIwEAYJ
KoZIhvcNAQkBFgN0YTgwHhcNMTkwMTIyMTUzMzE2WhcNMjExMDE4MTUzMzE2WjCB
hTELMAkGA1UEBhMCVVMxEzARBgNVBAgMCkNhbGlmb3JuaWExFDASBgNVBAcMC1Nh
bnRhIENsYXJhMQ0wCwYDVQQKDARwa2c1MRAwDgYDVQQLDAdjczFfdGE4MRIwEAYD
VQQDDAlsb2NhbGhvc3QxFjAUBgkqhkiG9w0BCQEWB2NzMV90YTgwgZ8wDQYJKoZI
hvcNAQEBBQADgY0AMIGJAoGBANfMAFGH8gLVan+DpqaiokQbBAOSygrVnh7Rxy8w
HVWOxFT/nqMUZe8V+4KWbQy+wdTNz8GOcBsM9NpYbVkVsObvM4v3qeSF2m3nS6ep
n1SsCpd1opodeFDeJdK/g+frI/bpZOl/W0+78DX8G+UDKD888uqgjMinrt2ZaoKG
VTgvAgMBAAGjIDAeMAwGA1UdEwEB/wQCMAAwDgYDVR0PAQH/BAQDAgeAMA0GCSqG
SIb3DQEBCwUAA4IBAQB6Jjug3B9UOSOohsBshO8ZM24bzlVf5yFO/ezlU1TDQn9Y
7i2EcoqqBZa3MtnpvqukewpKRjJZL8zUtxZgm6Igz6oHnKHTqZ4iOXt9UZgwiul3
jeQXOaufzhPozJHaQen7wprQykriYJFA1qZOPQpTXeemeH5q0XDJxo3HQ6j+4fuP
iHFF6IOmfDUrisqwco8Q8c3xrnOjjigyaPVmWndaZhhlR1Szq+R1KgM7pJcYiOjv
csCjpUFdRSTARsT+hXEU1d4v8LDBa9A5/235UEsk2Xf2/ljQiw/1TWYgu8AFhODK
WfIqgHlWT3qh0OyeHWcGVeazB9b8YxhIN894L423
-----END CERTIFICATE-----
