Certificate:
    Data:
        Version: 3 (0x2)
        Serial Number: 45 (0x2d)
    Signature Algorithm: sha256WithRSAEncryption
        Issuer: C=US, ST=California, L=Santa Clara, O=pkg5, OU=ta9, CN=localhost/emailAddress=ta9
        Validity
            Not Before: Jul 19 11:35:53 2023 GMT
            Not After : Apr 14 11:35:53 2026 GMT
        Subject: C=US, ST=California, L=Santa Clara, O=pkg5, OU=cs1_ta9, CN=localhost/emailAddress=cs1_ta9
        Subject Public Key Info:
            Public Key Algorithm: rsaEncryption
                Public-Key: (2048 bit)
                Modulus:
                    00:a1:25:bc:9f:1f:58:df:0c:41:e9:25:48:1b:cb:
                    33:b2:5f:db:ad:8b:18:b3:6c:a1:56:2a:f9:b2:97:
                    d0:af:5b:8d:db:2a:97:8e:fa:a5:e8:10:15:f1:23:
                    26:ee:f8:9a:70:08:f8:f1:14:2b:b6:0e:48:50:8d:
                    83:9d:0f:82:72:f0:0a:60:cc:5b:12:e6:eb:f4:b6:
                    a8:40:92:1b:38:26:e5:02:0c:54:61:70:f8:f9:f4:
                    46:f2:80:7b:7c:e3:bc:13:35:a8:b7:a4:6b:49:91:
                    df:9a:e0:fe:95:07:e7:dd:48:98:3b:e6:4a:8d:ee:
                    5f:31:ff:70:d8:4c:13:02:e9:ad:0b:c3:f5:a3:60:
                    63:df:a6:3d:41:e8:d2:9f:f8:13:49:3a:4f:46:cc:
                    3c:6d:5b:07:c0:7b:f6:16:9a:b4:0e:fa:69:a1:00:
                    f0:8e:43:77:93:4e:1e:df:20:1a:86:2a:f1:3b:8d:
                    8b:bf:55:f1:1e:0a:ea:d8:59:61:e0:d1:8b:79:ad:
                    3a:2b:11:cc:ac:72:35:b9:60:32:1b:f2:b8:b4:bb:
                    48:0f:79:f1:69:7f:5c:65:97:ba:a4:df:e6:61:50:
                    c4:b8:00:ba:d9:b7:bd:d1:74:f0:c9:51:85:d1:3b:
                    90:ef:7b:b5:3b:08:d9:19:0d:4f:3d:5b:18:71:74:
                    2c:9b
                Exponent: 65537 (0x10001)
        X509v3 extensions:
            X509v3 Basic Constraints: critical
                CA:FALSE
            X509v3 Key Usage: critical
                Digital Signature
    Signature Algorithm: sha256WithRSAEncryption
         2a:7f:0c:c8:6a:c2:7e:a3:3c:cb:f7:4d:01:61:a4:41:04:71:
         e4:1b:26:7a:90:85:9f:f5:15:15:63:ba:0e:60:46:28:d8:6b:
         2d:37:2b:4e:04:20:5f:a2:32:d7:db:b0:73:cd:ba:2a:0b:ec:
         59:c0:a4:68:0f:c1:e6:b6:dd:e2:ef:58:80:3c:5f:04:85:83:
         e0:cd:9e:f0:1a:26:62:99:ff:bc:a9:12:39:51:dd:85:27:9e:
         ef:11:e1:57:e5:4a:96:1e:fb:f5:70:a5:f3:c5:e9:cd:98:36:
         ad:c6:b0:9e:37:fc:40:5b:01:0a:12:11:a8:be:d6:71:a9:d8:
         93:59:04:68:85:e3:0d:67:fe:96:6a:9c:e6:2f:ca:76:3e:26:
         08:7b:b5:87:16:7d:9d:66:5b:ea:04:1f:fe:31:aa:19:31:e9:
         a7:14:17:88:e3:0c:41:ff:55:86:d6:ce:ad:98:f8:73:2c:15:
         e5:9d:a0:9d:1d:d1:63:35:3c:98:5f:58:e9:fb:eb:a7:50:04:
         54:67:d2:9b:83:92:36:91:ec:27:0e:50:9f:91:41:6a:2f:23:
         e0:5f:ca:52:48:57:46:50:71:b2:3d:4e:b6:5b:66:a4:2d:39:
         38:df:0b:24:a9:9f:b7:b8:f9:97:f9:ae:6b:60:88:74:6c:c5:
         d5:cf:f2:af
-----BEGIN CERTIFICATE-----
MIIDnjCCAoagAwIBAgIBLTANBgkqhkiG9w0BAQsFADB9MQswCQYDVQQGEwJVUzET
MBEGA1UECAwKQ2FsaWZvcm5pYTEUMBIGA1UEBwwLU2FudGEgQ2xhcmExDTALBgNV
BAoMBHBrZzUxDDAKBgNVBAsMA3RhOTESMBAGA1UEAwwJbG9jYWxob3N0MRIwEAYJ
KoZIhvcNAQkBFgN0YTkwHhcNMjMwNzE5MTEzNTUzWhcNMjYwNDE0MTEzNTUzWjCB
hTELMAkGA1UEBhMCVVMxEzARBgNVBAgMCkNhbGlmb3JuaWExFDASBgNVBAcMC1Nh
bnRhIENsYXJhMQ0wCwYDVQQKDARwa2c1MRAwDgYDVQQLDAdjczFfdGE5MRIwEAYD
VQQDDAlsb2NhbGhvc3QxFjAUBgkqhkiG9w0BCQEWB2NzMV90YTkwggEiMA0GCSqG
SIb3DQEBAQUAA4IBDwAwggEKAoIBAQChJbyfH1jfDEHpJUgbyzOyX9utixizbKFW
Kvmyl9CvW43bKpeO+qXoEBXxIybu+JpwCPjxFCu2DkhQjYOdD4Jy8ApgzFsS5uv0
tqhAkhs4JuUCDFRhcPj59EbygHt847wTNai3pGtJkd+a4P6VB+fdSJg75kqN7l8x
/3DYTBMC6a0Lw/WjYGPfpj1B6NKf+BNJOk9GzDxtWwfAe/YWmrQO+mmhAPCOQ3eT
Th7fIBqGKvE7jYu/VfEeCurYWWHg0Yt5rTorEcyscjW5YDIb8ri0u0gPefFpf1xl
l7qk3+ZhUMS4ALrZt73RdPDJUYXRO5Dve7U7CNkZDU89WxhxdCybAgMBAAGjIDAe
MAwGA1UdEwEB/wQCMAAwDgYDVR0PAQH/BAQDAgeAMA0GCSqGSIb3DQEBCwUAA4IB
AQAqfwzIasJ+ozzL900BYaRBBHHkGyZ6kIWf9RUVY7oOYEYo2GstNytOBCBfojLX
27BzzboqC+xZwKRoD8Hmtt3i71iAPF8EhYPgzZ7wGiZimf+8qRI5Ud2FJ57vEeFX
5UqWHvv1cKXzxenNmDatxrCeN/xAWwEKEhGovtZxqdiTWQRoheMNZ/6WapzmL8p2
PiYIe7WHFn2dZlvqBB/+MaoZMemnFBeI4wxB/1WG1s6tmPhzLBXlnaCdHdFjNTyY
X1jp++unUARUZ9Kbg5I2kewnDlCfkUFqLyPgX8pSSFdGUHGyPU62W2akLTk43wsk
qZ+3uPmX+a5rYIh0bMXVz/Kv
-----END CERTIFICATE-----
