Certificate:
    Data:
        Version: 3 (0x2)
        Serial Number: 45 (0x2d)
    Signature Algorithm: sha256WithRSAEncryption
        Issuer: C=US, ST=California, L=Santa Clara, O=pkg5, OU=ta8, CN=localhost/emailAddress=ta8
        Validity
            Not Before: Jan 22 01:58:01 2016 GMT
            Not After : Oct 18 01:58:01 2018 GMT
        Subject: C=US, ST=California, L=Santa Clara, O=pkg5, OU=cs1_ta8, CN=localhost/emailAddress=cs1_ta8
        Subject Public Key Info:
            Public Key Algorithm: rsaEncryption
                Public-Key: (1024 bit)
                Modulus:
                    00:cc:53:58:3f:95:12:33:59:85:62:2f:47:18:11:
                    ab:67:19:30:2d:af:82:27:65:93:5e:ea:7f:33:60:
                    a2:31:04:70:eb:7f:38:7e:17:83:52:33:1d:c1:52:
                    bd:ad:ce:97:87:00:40:3c:ad:3b:12:14:7a:90:3d:
                    8d:bd:c6:10:e7:20:da:86:47:2e:06:62:f0:6e:b1:
                    6a:c6:39:f4:ad:d9:cc:0e:85:14:eb:e3:63:e1:58:
                    ad:44:bf:a6:c5:df:bf:f4:95:8c:34:0d:95:b3:cb:
                    df:5e:2e:57:aa:d5:09:0d:cf:46:d3:4a:1a:fd:25:
                    e4:27:a9:68:bf:75:8e:2b:a9
                Exponent: 65537 (0x10001)
        X509v3 extensions:
            X509v3 Basic Constraints: critical
                CA:FALSE
            X509v3 Key Usage: critical
                Digital Signature
    Signature Algorithm: sha256WithRSAEncryption
         47:9e:96:23:58:81:0b:c5:d5:5c:d2:61:ea:b2:b0:ab:61:48:
         1a:93:50:3f:1d:97:f1:65:0c:42:87:56:7f:0f:a5:ea:5b:b9:
         ce:09:d8:cf:a9:d5:32:b8:ce:d2:c0:a7:4e:63:b8:51:ec:b4:
         84:7b:b9:9b:9b:f7:d0:24:33:84:2b:51:7d:b4:03:ea:3d:f3:
         f5:db:1f:e1:f6:02:db:3e:e0:7f:76:0f:01:0a:e5:3e:f5:b7:
         a3:23:b1:ea:78:28:73:87:58:de:5c:b0:80:46:a9:f4:47:1a:
         57:10:8b:1a:aa:42:44:56:8e:80:63:3b:06:d2:85:69:d9:64:
         15:ed:11:25:2c:be:c1:14:df:4a:e2:b7:ee:2b:9e:20:78:60:
         29:66:1e:10:56:8f:b6:e3:43:6d:31:30:8d:4e:96:e4:9e:17:
         de:fb:b3:6e:c3:aa:91:7f:19:9c:9c:4a:18:1b:08:d8:db:a5:
         3d:39:a9:5a:cc:eb:f9:b2:0a:4a:d1:89:08:d2:33:b7:06:cd:
         3b:4a:e3:7e:26:82:e7:62:81:ce:43:eb:d2:b0:4d:46:01:f9:
         6e:eb:be:86:c9:cd:5d:12:ac:f6:4a:bc:2a:6b:0b:4a:ed:58:
         7d:06:f5:39:d3:38:a1:cf:a3:a8:cf:aa:2c:1d:b7:00:8e:19:
         05:e7:94:b3
-----BEGIN CERTIFICATE-----
MIIDGjCCAgKgAwIBAgIBLTANBgkqhkiG9w0BAQsFADB9MQswCQYDVQQGEwJVUzET
MBEGA1UECAwKQ2FsaWZvcm5pYTEUMBIGA1UEBwwLU2FudGEgQ2xhcmExDTALBgNV
BAoMBHBrZzUxDDAKBgNVBAsMA3RhODESMBAGA1UEAwwJbG9jYWxob3N0MRIwEAYJ
KoZIhvcNAQkBFgN0YTgwHhcNMTYwMTIyMDE1ODAxWhcNMTgxMDE4MDE1ODAxWjCB
hTELMAkGA1UEBhMCVVMxEzARBgNVBAgMCkNhbGlmb3JuaWExFDASBgNVBAcMC1Nh
bnRhIENsYXJhMQ0wCwYDVQQKDARwa2c1MRAwDgYDVQQLDAdjczFfdGE4MRIwEAYD
VQQDDAlsb2NhbGhvc3QxFjAUBgkqhkiG9w0BCQEWB2NzMV90YTgwgZ8wDQYJKoZI
hvcNAQEBBQADgY0AMIGJAoGBAMxTWD+VEjNZhWIvRxgRq2cZMC2vgidlk17qfzNg
ojEEcOt/OH4Xg1IzHcFSva3Ol4cAQDytOxIUepA9jb3GEOcg2oZHLgZi8G6xasY5
9K3ZzA6FFOvjY+FYrUS/psXfv/SVjDQNlbPL314uV6rVCQ3PRtNKGv0l5CepaL91
jiupAgMBAAGjIDAeMAwGA1UdEwEB/wQCMAAwDgYDVR0PAQH/BAQDAgeAMA0GCSqG
SIb3DQEBCwUAA4IBAQBHnpYjWIELxdVc0mHqsrCrYUgak1A/HZfxZQxCh1Z/D6Xq
W7nOCdjPqdUyuM7SwKdOY7hR7LSEe7mbm/fQJDOEK1F9tAPqPfP12x/h9gLbPuB/
dg8BCuU+9bejI7HqeChzh1jeXLCARqn0RxpXEIsaqkJEVo6AYzsG0oVp2WQV7REl
LL7BFN9K4rfuK54geGApZh4QVo+240NtMTCNTpbknhfe+7Nuw6qRfxmcnEoYGwjY
26U9OalazOv5sgpK0YkI0jO3Bs07SuN+JoLnYoHOQ+vSsE1GAflu676Gyc1dEqz2
SrwqawtK7Vh9BvU50zihz6Ooz6osHbcAjhkF55Sz
-----END CERTIFICATE-----
