Certificate:
    Data:
        Version: 3 (0x2)
        Serial Number: 45 (0x2d)
    Signature Algorithm: sha256WithRSAEncryption
        Issuer: C=US, ST=California, L=Santa Clara, O=pkg5, OU=ta9, CN=localhost/emailAddress=ta9
        Validity
            Not Before: Sep 22 05:33:38 2021 GMT
            Not After : Jun 18 05:33:38 2024 GMT
        Subject: C=US, ST=California, L=Santa Clara, O=pkg5, OU=cs1_ta9, CN=localhost/emailAddress=cs1_ta9
        Subject Public Key Info:
            Public Key Algorithm: rsaEncryption
                Public-Key: (1024 bit)
                Modulus:
                    00:de:cf:a5:bc:94:6b:e4:cd:94:7b:f6:19:38:fe:
                    04:9f:d4:15:fa:53:99:f0:fe:11:6f:f3:60:eb:34:
                    94:e8:12:f1:af:a4:09:d8:c9:0e:32:83:0d:36:3a:
                    0c:d5:a2:83:a7:3a:88:ae:54:33:1d:84:52:1a:0e:
                    04:f3:2e:89:35:0c:b0:85:77:f7:e8:8d:1d:a4:08:
                    99:58:8e:ee:22:0f:5f:9f:9d:4f:44:e8:ca:87:bf:
                    06:38:7c:57:f8:d5:f8:2b:ff:44:e6:47:4a:94:ec:
                    82:04:99:e4:c7:02:2d:c4:32:50:5c:06:d4:5a:dd:
                    70:79:c9:52:2e:36:74:59:b7
                Exponent: 65537 (0x10001)
        X509v3 extensions:
            X509v3 Basic Constraints: critical
                CA:FALSE
            X509v3 Key Usage: critical
                Digital Signature
    Signature Algorithm: sha256WithRSAEncryption
         78:7a:c3:d7:8a:b3:ab:0e:d5:da:a2:6b:31:f0:7c:a4:8b:52:
         0a:3e:59:c3:a7:ee:0b:c2:e2:ce:b2:d1:ea:ee:45:f2:a1:f1:
         8a:6a:e1:52:49:eb:98:56:bf:f5:8c:40:11:8e:61:b1:a4:5f:
         35:0b:6b:c9:80:07:b1:c8:06:d1:b5:b8:74:fc:5e:e3:19:5b:
         2d:d2:c8:e8:4a:bd:b7:1e:81:be:96:cf:39:80:6f:b1:23:a8:
         ed:ac:11:0c:f3:7d:c6:1a:18:ec:ea:01:3f:69:68:f8:3d:47:
         94:5b:71:4a:54:2d:71:9f:2f:6b:40:1b:fb:12:eb:71:e1:35:
         b3:a0:b6:57:ce:6b:81:56:29:6a:a9:d0:0e:7c:61:06:b7:20:
         d5:08:31:97:d3:24:b7:8a:f3:fd:63:d1:a2:85:9b:b1:e8:80:
         32:e0:52:a2:28:3d:96:8c:c2:79:bf:a3:c1:68:3b:41:b7:68:
         b1:2e:45:6b:14:9f:56:8a:19:b1:d9:50:c2:ec:67:a4:5e:4c:
         d3:7f:3f:c9:22:c7:03:06:5e:c5:f5:7b:6f:0c:09:d7:c5:62:
         6d:d7:6a:a7:05:c3:0a:09:49:c9:47:92:f5:fa:30:37:fc:1e:
         be:74:84:d5:6d:eb:a6:c1:69:f5:d4:39:a4:da:85:b5:04:5e:
         1f:71:45:c8
-----BEGIN CERTIFICATE-----
MIIDGjCCAgKgAwIBAgIBLTANBgkqhkiG9w0BAQsFADB9MQswCQYDVQQGEwJVUzET
MBEGA1UECAwKQ2FsaWZvcm5pYTEUMBIGA1UEBwwLU2FudGEgQ2xhcmExDTALBgNV
BAoMBHBrZzUxDDAKBgNVBAsMA3RhOTESMBAGA1UEAwwJbG9jYWxob3N0MRIwEAYJ
KoZIhvcNAQkBFgN0YTkwHhcNMjEwOTIyMDUzMzM4WhcNMjQwNjE4MDUzMzM4WjCB
hTELMAkGA1UEBhMCVVMxEzARBgNVBAgMCkNhbGlmb3JuaWExFDASBgNVBAcMC1Nh
bnRhIENsYXJhMQ0wCwYDVQQKDARwa2c1MRAwDgYDVQQLDAdjczFfdGE5MRIwEAYD
VQQDDAlsb2NhbGhvc3QxFjAUBgkqhkiG9w0BCQEWB2NzMV90YTkwgZ8wDQYJKoZI
hvcNAQEBBQADgY0AMIGJAoGBAN7PpbyUa+TNlHv2GTj+BJ/UFfpTmfD+EW/zYOs0
lOgS8a+kCdjJDjKDDTY6DNWig6c6iK5UMx2EUhoOBPMuiTUMsIV39+iNHaQImViO
7iIPX5+dT0Toyoe/Bjh8V/jV+Cv/ROZHSpTsggSZ5McCLcQyUFwG1FrdcHnJUi42
dFm3AgMBAAGjIDAeMAwGA1UdEwEB/wQCMAAwDgYDVR0PAQH/BAQDAgeAMA0GCSqG
SIb3DQEBCwUAA4IBAQB4esPXirOrDtXaomsx8Hyki1IKPlnDp+4LwuLOstHq7kXy
ofGKauFSSeuYVr/1jEARjmGxpF81C2vJgAexyAbRtbh0/F7jGVst0sjoSr23HoG+
ls85gG+xI6jtrBEM833GGhjs6gE/aWj4PUeUW3FKVC1xny9rQBv7Eutx4TWzoLZX
zmuBVilqqdAOfGEGtyDVCDGX0yS3ivP9Y9GihZux6IAy4FKiKD2WjMJ5v6PBaDtB
t2ixLkVrFJ9Wihmx2VDC7GekXkzTfz/JIscDBl7F9XtvDAnXxWJt12qnBcMKCUnJ
R5L1+jA3/B6+dITVbeumwWn11Dmk2oW1BF4fcUXI
-----END CERTIFICATE-----
