Certificate:
    Data:
        Version: 3 (0x2)
        Serial Number: 46 (0x2e)
    Signature Algorithm: sha256WithRSAEncryption
        Issuer: C=US, ST=California, L=Santa Clara, O=pkg5, OU=ta10, CN=localhost/emailAddress=ta10
        Validity
            Not Before: Jul 19 11:35:53 2023 GMT
            Not After : Apr 14 11:35:53 2026 GMT
        Subject: C=US, ST=California, L=Santa Clara, O=pkg5, OU=cs1_ta10, CN=localhost/emailAddress=cs1_ta10
        Subject Public Key Info:
            Public Key Algorithm: rsaEncryption
                Public-Key: (2048 bit)
                Modulus:
                    00:b6:17:42:58:11:40:e3:73:d5:79:52:c0:bb:1e:
                    d2:54:7f:c1:d1:4f:c2:4e:04:79:f1:7e:be:a0:1d:
                    42:1f:84:24:4c:71:e1:c6:d7:c5:e4:4b:74:84:5e:
                    f4:1f:71:16:95:4e:40:e1:e1:24:66:a6:af:00:95:
                    10:ff:2f:0b:48:b4:35:ff:25:5b:40:3b:3b:36:52:
                    6d:35:84:3b:d0:2e:34:5e:84:ff:db:8f:4e:91:50:
                    43:0b:85:a5:22:78:8d:5c:6d:2e:1e:cc:d0:66:29:
                    d6:c3:fe:f4:bc:66:ac:1f:ac:7f:65:e2:16:24:af:
                    c7:fa:f4:19:56:01:6d:54:57:48:dd:e3:00:da:8b:
                    b6:bb:51:34:f8:8b:53:6c:1c:18:12:7b:2e:73:ed:
                    63:7f:08:41:c1:bc:5b:bf:d9:93:fe:bb:26:88:ac:
                    4a:91:ee:97:70:e5:a8:f3:7d:4f:d7:d9:1f:9c:3d:
                    23:94:67:f2:fc:98:78:77:79:6d:9a:ea:ad:3a:c8:
                    2b:3e:eb:92:39:8e:82:4f:0e:25:3c:b9:f2:ea:57:
                    bd:5d:f8:fb:15:d5:c8:64:7d:26:58:25:4c:71:1c:
                    e2:24:29:f0:2f:c0:a0:1c:72:a9:3f:c5:64:0c:c7:
                    57:27:b5:1c:62:36:72:de:ae:e6:42:eb:9a:50:de:
                    18:db
                Exponent: 65537 (0x10001)
        X509v3 extensions:
            X509v3 Basic Constraints: critical
                CA:FALSE
            X509v3 Key Usage: critical
                Digital Signature
    Signature Algorithm: sha256WithRSAEncryption
         78:26:bc:51:87:67:d4:53:79:6d:79:79:46:9c:52:8e:70:c6:
         45:83:dc:8c:1f:46:a9:7e:ff:9f:d0:0a:dc:0c:43:fb:5d:b6:
         1d:cf:9d:83:fb:44:e1:da:67:a2:85:9e:01:1d:f1:79:a7:7a:
         b0:10:49:00:4b:1c:f2:9a:0f:4a:27:86:33:a9:cb:86:67:c9:
         77:ec:0a:2b:50:fd:30:3e:e6:aa:5a:47:d2:54:44:1d:9c:71:
         75:18:50:2c:2a:54:4d:a7:02:55:2b:7f:f7:9c:94:60:93:65:
         96:f8:a6:29:6d:73:29:e8:5f:0d:8a:dd:7a:b8:09:85:47:a6:
         12:05:e4:d7:82:4e:ad:3e:09:86:ca:1b:4d:ee:6c:9e:8e:4e:
         77:cd:30:15:fe:e4:b7:77:89:e4:8a:dd:67:ec:20:7d:b2:f4:
         e8:6c:ee:5f:f3:e4:d8:f7:26:8d:34:05:f9:04:db:95:6d:2f:
         32:01:44:21:8b:07:bc:0e:af:7c:b3:02:47:4c:76:74:95:4e:
         f0:ad:f6:a5:0e:c5:6d:83:78:f8:1e:91:fc:57:a6:e9:f8:96:
         e9:76:c1:b1:a7:04:f6:be:d0:e9:42:89:5c:d7:de:51:1e:78:
         7d:b6:cd:6f:72:ec:71:87:bf:b7:d3:d5:04:e7:56:b4:97:3d:
         55:d2:62:b7
-----BEGIN CERTIFICATE-----
MIIDojCCAoqgAwIBAgIBLjANBgkqhkiG9w0BAQsFADB/MQswCQYDVQQGEwJVUzET
MBEGA1UECAwKQ2FsaWZvcm5pYTEUMBIGA1UEBwwLU2FudGEgQ2xhcmExDTALBgNV
BAoMBHBrZzUxDTALBgNVBAsMBHRhMTAxEjAQBgNVBAMMCWxvY2FsaG9zdDETMBEG
CSqGSIb3DQEJARYEdGExMDAeFw0yMzA3MTkxMTM1NTNaFw0yNjA0MTQxMTM1NTNa
MIGHMQswCQYDVQQGEwJVUzETMBEGA1UECAwKQ2FsaWZvcm5pYTEUMBIGA1UEBwwL
U2FudGEgQ2xhcmExDTALBgNVBAoMBHBrZzUxETAPBgNVBAsMCGNzMV90YTEwMRIw
EAYDVQQDDAlsb2NhbGhvc3QxFzAVBgkqhkiG9w0BCQEWCGNzMV90YTEwMIIBIjAN
BgkqhkiG9w0BAQEFAAOCAQ8AMIIBCgKCAQEAthdCWBFA43PVeVLAux7SVH/B0U/C
TgR58X6+oB1CH4QkTHHhxtfF5Et0hF70H3EWlU5A4eEkZqavAJUQ/y8LSLQ1/yVb
QDs7NlJtNYQ70C40XoT/249OkVBDC4WlIniNXG0uHszQZinWw/70vGasH6x/ZeIW
JK/H+vQZVgFtVFdI3eMA2ou2u1E0+ItTbBwYEnsuc+1jfwhBwbxbv9mT/rsmiKxK
ke6XcOWo831P19kfnD0jlGfy/Jh4d3ltmuqtOsgrPuuSOY6CTw4lPLny6le9Xfj7
FdXIZH0mWCVMcRziJCnwL8CgHHKpP8VkDMdXJ7UcYjZy3q7mQuuaUN4Y2wIDAQAB
oyAwHjAMBgNVHRMBAf8EAjAAMA4GA1UdDwEB/wQEAwIHgDANBgkqhkiG9w0BAQsF
AAOCAQEAeCa8UYdn1FN5bXl5RpxSjnDGRYPcjB9GqX7/n9AK3AxD+122Hc+dg/tE
4dpnooWeAR3xead6sBBJAEsc8poPSieGM6nLhmfJd+wKK1D9MD7mqlpH0lREHZxx
dRhQLCpUTacCVSt/95yUYJNllvimKW1zKehfDYrdergJhUemEgXk14JOrT4Jhsob
Te5sno5Od80wFf7kt3eJ5IrdZ+wgfbL06GzuX/Pk2PcmjTQF+QTblW0vMgFEIYsH
vA6vfLMCR0x2dJVO8K32pQ7FbYN4+B6R/Fem6fiW6XbBsacE9r7Q6UKJXNfeUR54
fbbNb3LscYe/t9PVBOdWtJc9VdJitw==
-----END CERTIFICATE-----
