Certificate:
    Data:
        Version: 3 (0x2)
        Serial Number: 46 (0x2e)
    Signature Algorithm: sha256WithRSAEncryption
        Issuer: C=US, ST=California, L=Santa Clara, O=pkg5, OU=ta9, CN=localhost/emailAddress=ta9
        Validity
            Not Before: Jan 22 01:58:01 2016 GMT
            Not After : Oct 18 01:58:01 2018 GMT
        Subject: C=US, ST=California, L=Santa Clara, O=pkg5, OU=cs1_ta9, CN=localhost/emailAddress=cs1_ta9
        Subject Public Key Info:
            Public Key Algorithm: rsaEncryption
                Public-Key: (1024 bit)
                Modulus:
                    00:bc:5f:2c:b4:67:46:f7:2d:6d:ec:20:0f:51:a0:
                    d7:6c:6f:16:ee:e5:d7:d4:c7:b6:99:4b:1a:b8:f7:
                    df:04:e2:77:35:27:ac:21:9c:19:30:5c:ba:3a:7b:
                    67:8f:bf:a2:5d:ba:0e:9c:0d:69:a8:50:a6:6c:e3:
                    82:f3:2f:91:fd:9b:0c:24:ac:d7:56:a7:d9:b8:aa:
                    55:d3:97:5d:7e:01:f4:7e:cc:93:e0:3e:83:c8:1d:
                    f5:00:d7:b9:7c:c8:62:99:07:6a:df:13:85:60:ae:
                    a5:ff:fc:9c:67:fb:31:8c:d9:06:03:15:ad:0b:5b:
                    32:38:4d:cb:6c:bd:51:6b:ff
                Exponent: 65537 (0x10001)
        X509v3 extensions:
            X509v3 Basic Constraints: critical
                CA:FALSE
            X509v3 Key Usage: critical
                Digital Signature
    Signature Algorithm: sha256WithRSAEncryption
         bf:01:d2:4b:27:5a:9c:59:b3:cd:7f:7a:fc:2c:79:0a:80:f3:
         13:64:5a:78:76:cb:a1:87:53:97:79:36:03:84:19:dc:7f:76:
         77:1e:b4:43:d8:66:5f:f9:86:86:e1:14:35:b6:92:b6:37:ab:
         30:3d:ca:d4:db:ad:a9:31:d1:c4:37:57:47:94:fd:55:d5:5d:
         bf:4e:79:0c:75:e0:05:26:49:a2:09:f1:a0:3e:27:a5:44:b4:
         fa:7d:86:63:71:1d:5e:2b:99:78:75:1f:30:15:99:aa:4a:dd:
         2b:17:7d:49:a7:49:17:8a:81:6a:5d:16:dd:c9:cc:96:76:17:
         56:bb:1d:5a:fb:7f:9b:d7:db:3a:65:17:ea:45:b0:a8:6f:86:
         9a:9e:91:25:15:11:e5:0d:ec:81:1b:09:bf:86:1a:db:ad:12:
         44:cf:fe:8c:e8:6b:e5:31:ff:04:9c:1f:aa:ae:db:71:d5:69:
         6a:e2:40:10:c1:0a:3f:55:02:79:fd:a1:57:cd:88:32:39:88:
         ec:1c:79:bf:f6:6b:8e:60:64:81:59:9a:bf:cc:79:63:77:f0:
         1b:d4:4e:22:41:e2:79:6f:4c:52:5d:61:6c:58:df:b2:b7:83:
         ec:71:93:4f:78:b6:d7:95:8f:1d:44:e0:63:13:90:23:82:0f:
         d1:0b:da:7a
-----BEGIN CERTIFICATE-----
MIIDGjCCAgKgAwIBAgIBLjANBgkqhkiG9w0BAQsFADB9MQswCQYDVQQGEwJVUzET
MBEGA1UECAwKQ2FsaWZvcm5pYTEUMBIGA1UEBwwLU2FudGEgQ2xhcmExDTALBgNV
BAoMBHBrZzUxDDAKBgNVBAsMA3RhOTESMBAGA1UEAwwJbG9jYWxob3N0MRIwEAYJ
KoZIhvcNAQkBFgN0YTkwHhcNMTYwMTIyMDE1ODAxWhcNMTgxMDE4MDE1ODAxWjCB
hTELMAkGA1UEBhMCVVMxEzARBgNVBAgMCkNhbGlmb3JuaWExFDASBgNVBAcMC1Nh
bnRhIENsYXJhMQ0wCwYDVQQKDARwa2c1MRAwDgYDVQQLDAdjczFfdGE5MRIwEAYD
VQQDDAlsb2NhbGhvc3QxFjAUBgkqhkiG9w0BCQEWB2NzMV90YTkwgZ8wDQYJKoZI
hvcNAQEBBQADgY0AMIGJAoGBALxfLLRnRvctbewgD1Gg12xvFu7l19THtplLGrj3
3wTidzUnrCGcGTBcujp7Z4+/ol26DpwNaahQpmzjgvMvkf2bDCSs11an2biqVdOX
XX4B9H7Mk+A+g8gd9QDXuXzIYpkHat8ThWCupf/8nGf7MYzZBgMVrQtbMjhNy2y9
UWv/AgMBAAGjIDAeMAwGA1UdEwEB/wQCMAAwDgYDVR0PAQH/BAQDAgeAMA0GCSqG
SIb3DQEBCwUAA4IBAQC/AdJLJ1qcWbPNf3r8LHkKgPMTZFp4dsuhh1OXeTYDhBnc
f3Z3HrRD2GZf+YaG4RQ1tpK2N6swPcrU262pMdHEN1dHlP1V1V2/TnkMdeAFJkmi
CfGgPielRLT6fYZjcR1eK5l4dR8wFZmqSt0rF31Jp0kXioFqXRbdycyWdhdWux1a
+3+b19s6ZRfqRbCob4aanpElFRHlDeyBGwm/hhrbrRJEz/6M6GvlMf8EnB+qrttx
1Wlq4kAQwQo/VQJ5/aFXzYgyOYjsHHm/9muOYGSBWZq/zHljd/Ab1E4iQeJ5b0xS
XWFsWN+yt4PscZNPeLbXlY8dROBjE5Ajgg/RC9p6
-----END CERTIFICATE-----
