Certificate:
    Data:
        Version: 3 (0x2)
        Serial Number: 47 (0x2f)
    Signature Algorithm: sha256WithRSAEncryption
        Issuer: C=US, ST=California, L=Santa Clara, O=pkg5, OU=ta11, CN=localhost/emailAddress=ta11
        Validity
            Not Before: Jul 19 11:35:53 2023 GMT
            Not After : Apr 14 11:35:53 2026 GMT
        Subject: C=US, ST=California, L=Santa Clara, O=pkg5, OU=cs1_ta11, CN=localhost/emailAddress=cs1_ta11
        Subject Public Key Info:
            Public Key Algorithm: rsaEncryption
                Public-Key: (2048 bit)
                Modulus:
                    00:c6:de:29:9a:3f:1f:ce:d4:2b:01:6e:a6:31:fd:
                    06:f2:67:aa:f2:26:ed:01:0a:ac:8a:8d:fc:14:a3:
                    8b:b3:b5:e3:fd:92:63:d2:eb:e1:fc:0e:a1:67:d1:
                    1f:ee:cf:09:a3:df:bf:68:83:37:69:f2:a4:df:2a:
                    08:04:ba:a6:56:46:28:2c:d1:2e:af:8d:37:dc:6a:
                    65:03:59:e5:1d:ac:9d:fc:82:72:54:80:8f:7f:29:
                    74:2d:2d:c6:ca:01:23:26:b5:8f:55:4d:a8:6d:f3:
                    2a:53:5f:32:4e:24:59:4b:1b:ce:3e:01:19:23:87:
                    c1:6b:f8:5d:ab:26:30:a1:0b:aa:31:80:d1:1b:12:
                    75:1c:d0:58:7f:cf:68:e8:ff:c6:b7:ca:47:b4:88:
                    87:66:cd:6c:00:67:4d:02:a5:91:ff:4b:c2:b4:c2:
                    7b:13:1a:e9:42:36:8f:47:14:1c:5c:a0:6b:b8:53:
                    6e:ca:cb:49:b0:71:83:b7:c6:98:bb:c1:60:a9:d6:
                    7e:6e:6f:56:83:67:ce:c4:32:2e:df:94:7a:d4:1e:
                    99:c8:1e:5d:e7:59:7d:ff:ef:58:89:cb:70:53:08:
                    08:53:44:69:6f:00:0f:15:45:40:7a:2e:4a:05:f5:
                    50:6f:0a:c7:31:dd:ce:8d:f8:35:cd:92:19:0d:b1:
                    76:29
                Exponent: 65537 (0x10001)
        X509v3 extensions:
            X509v3 Basic Constraints: critical
                CA:FALSE
            X509v3 Key Usage: critical
                Digital Signature
    Signature Algorithm: sha256WithRSAEncryption
         4b:11:30:36:99:dd:88:f7:83:7c:56:15:aa:0d:d7:37:d3:3e:
         69:4e:9a:aa:6f:c3:77:1a:fd:af:e2:33:fb:76:5b:29:31:84:
         07:64:02:3e:7f:65:8b:55:59:73:3a:9c:d2:0b:85:ec:c7:de:
         65:41:ee:a3:b1:15:20:58:71:4e:bd:30:dc:38:8d:e1:46:bb:
         a2:db:ef:1f:32:f7:a5:a0:96:95:42:11:d7:7a:4b:f5:14:83:
         64:3e:5c:37:cd:49:e3:7e:e6:ff:1b:2b:3e:0b:15:5e:18:95:
         dd:06:49:42:08:0b:0c:50:15:4e:86:b1:ef:a5:93:63:63:c1:
         cc:87:31:41:c3:ad:3e:d5:81:f9:37:fe:04:cd:e0:7b:bf:38:
         9e:2b:31:d7:19:21:c5:92:a4:5c:74:e5:ab:28:6f:f1:f0:d7:
         af:d1:30:68:be:2b:5c:58:94:28:b6:f9:9b:1d:03:b8:53:27:
         73:f8:e1:5b:dc:0a:df:6f:27:59:0f:87:ca:23:67:5c:77:62:
         69:2b:38:63:5f:7b:b9:c6:ab:2d:7a:12:ac:80:fb:77:93:68:
         0b:2f:01:ad:fc:03:d7:e5:51:a7:11:b8:b6:d2:6f:eb:c4:16:
         57:d0:bd:9d:c9:c7:ca:da:04:03:50:89:51:97:54:0b:24:3d:
         d9:56:a4:68
-----BEGIN CERTIFICATE-----
MIIDojCCAoqgAwIBAgIBLzANBgkqhkiG9w0BAQsFADB/MQswCQYDVQQGEwJVUzET
MBEGA1UECAwKQ2FsaWZvcm5pYTEUMBIGA1UEBwwLU2FudGEgQ2xhcmExDTALBgNV
BAoMBHBrZzUxDTALBgNVBAsMBHRhMTExEjAQBgNVBAMMCWxvY2FsaG9zdDETMBEG
CSqGSIb3DQEJARYEdGExMTAeFw0yMzA3MTkxMTM1NTNaFw0yNjA0MTQxMTM1NTNa
MIGHMQswCQYDVQQGEwJVUzETMBEGA1UECAwKQ2FsaWZvcm5pYTEUMBIGA1UEBwwL
U2FudGEgQ2xhcmExDTALBgNVBAoMBHBrZzUxETAPBgNVBAsMCGNzMV90YTExMRIw
EAYDVQQDDAlsb2NhbGhvc3QxFzAVBgkqhkiG9w0BCQEWCGNzMV90YTExMIIBIjAN
BgkqhkiG9w0BAQEFAAOCAQ8AMIIBCgKCAQEAxt4pmj8fztQrAW6mMf0G8meq8ibt
AQqsio38FKOLs7Xj/ZJj0uvh/A6hZ9Ef7s8Jo9+/aIM3afKk3yoIBLqmVkYoLNEu
r4033GplA1nlHayd/IJyVICPfyl0LS3GygEjJrWPVU2obfMqU18yTiRZSxvOPgEZ
I4fBa/hdqyYwoQuqMYDRGxJ1HNBYf89o6P/Gt8pHtIiHZs1sAGdNAqWR/0vCtMJ7
ExrpQjaPRxQcXKBruFNuystJsHGDt8aYu8FgqdZ+bm9Wg2fOxDIu35R61B6ZyB5d
51l9/+9YictwUwgIU0RpbwAPFUVAei5KBfVQbwrHMd3Ojfg1zZIZDbF2KQIDAQAB
oyAwHjAMBgNVHRMBAf8EAjAAMA4GA1UdDwEB/wQEAwIHgDANBgkqhkiG9w0BAQsF
AAOCAQEASxEwNpndiPeDfFYVqg3XN9M+aU6aqm/Ddxr9r+Iz+3ZbKTGEB2QCPn9l
i1VZczqc0guF7MfeZUHuo7EVIFhxTr0w3DiN4Ua7otvvHzL3paCWlUIR13pL9RSD
ZD5cN81J437m/xsrPgsVXhiV3QZJQggLDFAVToax76WTY2PBzIcxQcOtPtWB+Tf+
BM3ge784nisx1xkhxZKkXHTlqyhv8fDXr9EwaL4rXFiUKLb5mx0DuFMnc/jhW9wK
328nWQ+HyiNnXHdiaSs4Y197ucarLXoSrID7d5NoCy8BrfwD1+VRpxG4ttJv68QW
V9C9ncnHytoEA1CJUZdUCyQ92VakaA==
-----END CERTIFICATE-----
