Certificate:
    Data:
        Version: 3 (0x2)
        Serial Number: 47 (0x2f)
    Signature Algorithm: sha256WithRSAEncryption
        Issuer: C=US, ST=California, L=Santa Clara, O=pkg5, OU=ta11, CN=localhost/emailAddress=ta11
        Validity
            Not Before: Sep 22 05:33:40 2021 GMT
            Not After : Jun 18 05:33:40 2024 GMT
        Subject: C=US, ST=California, L=Santa Clara, O=pkg5, OU=cs1_ta11, CN=localhost/emailAddress=cs1_ta11
        Subject Public Key Info:
            Public Key Algorithm: rsaEncryption
                Public-Key: (1024 bit)
                Modulus:
                    00:c4:fa:e0:41:6f:99:0d:71:60:80:52:b9:84:2d:
                    99:12:1f:27:af:04:51:3b:d4:1a:e7:64:1b:b8:dd:
                    d2:f0:ed:45:27:5d:21:de:63:ed:1b:f6:22:20:e3:
                    cc:e6:4a:9c:5d:a4:5a:33:d6:84:f7:c6:f8:48:42:
                    b8:85:ad:46:15:8e:9a:dd:97:6a:2a:5b:b5:a1:a5:
                    a3:27:1a:b7:dd:89:be:6f:33:6a:74:a6:22:cd:eb:
                    b5:9a:1f:d7:32:92:35:29:ef:73:da:72:6e:18:f9:
                    34:fa:72:92:de:3b:04:ad:9c:3a:d2:fb:a7:1e:6c:
                    e0:a4:5e:b4:c6:41:bc:ba:f3
                Exponent: 65537 (0x10001)
        X509v3 extensions:
            X509v3 Basic Constraints: critical
                CA:FALSE
            X509v3 Key Usage: critical
                Digital Signature
    Signature Algorithm: sha256WithRSAEncryption
         39:21:08:c1:9b:c4:0e:b6:7d:34:20:4a:1a:80:35:9e:e2:71:
         9c:37:fb:6b:ef:9f:55:f5:49:ac:7c:21:d4:24:b4:60:29:25:
         20:da:07:0e:65:76:ee:de:36:2a:29:39:b0:97:e3:10:82:95:
         d0:95:c7:90:fc:e3:58:7d:d6:76:f4:6f:b3:4f:aa:fc:29:5a:
         23:89:b5:0e:fe:b2:53:88:dc:89:f0:ca:a8:7e:de:8b:33:c6:
         44:12:e8:0d:92:d2:79:a8:12:70:23:37:9a:e5:f7:76:97:f3:
         00:0e:98:b1:78:ad:01:23:75:fa:30:d3:69:b4:b9:82:61:a1:
         71:a8:f3:e5:79:5c:45:04:2e:2f:0b:28:c4:07:e9:5c:80:6c:
         c1:fe:da:44:34:48:e9:06:d9:55:34:92:2e:35:02:e5:55:4b:
         46:02:ef:42:e5:d8:ed:89:76:1a:82:8b:f5:37:00:8b:81:06:
         9c:3d:39:50:65:75:b5:e5:12:de:f2:80:96:a1:7c:9e:ab:bf:
         fc:d9:df:81:b8:51:d8:60:de:dd:45:09:d5:75:a1:1d:0d:9a:
         84:a5:dd:3d:1c:d8:44:da:f3:0d:05:d6:a9:bf:19:48:2b:39:
         f7:88:80:f7:20:88:7d:e6:83:ec:a0:25:54:20:9c:0b:55:c4:
         ee:fb:af:5c
-----BEGIN CERTIFICATE-----
MIIDHjCCAgagAwIBAgIBLzANBgkqhkiG9w0BAQsFADB/MQswCQYDVQQGEwJVUzET
MBEGA1UECAwKQ2FsaWZvcm5pYTEUMBIGA1UEBwwLU2FudGEgQ2xhcmExDTALBgNV
BAoMBHBrZzUxDTALBgNVBAsMBHRhMTExEjAQBgNVBAMMCWxvY2FsaG9zdDETMBEG
CSqGSIb3DQEJARYEdGExMTAeFw0yMTA5MjIwNTMzNDBaFw0yNDA2MTgwNTMzNDBa
MIGHMQswCQYDVQQGEwJVUzETMBEGA1UECAwKQ2FsaWZvcm5pYTEUMBIGA1UEBwwL
U2FudGEgQ2xhcmExDTALBgNVBAoMBHBrZzUxETAPBgNVBAsMCGNzMV90YTExMRIw
EAYDVQQDDAlsb2NhbGhvc3QxFzAVBgkqhkiG9w0BCQEWCGNzMV90YTExMIGfMA0G
CSqGSIb3DQEBAQUAA4GNADCBiQKBgQDE+uBBb5kNcWCAUrmELZkSHyevBFE71Brn
ZBu43dLw7UUnXSHeY+0b9iIg48zmSpxdpFoz1oT3xvhIQriFrUYVjprdl2oqW7Wh
paMnGrfdib5vM2p0piLN67WaH9cykjUp73Pacm4Y+TT6cpLeOwStnDrS+6cebOCk
XrTGQby68wIDAQABoyAwHjAMBgNVHRMBAf8EAjAAMA4GA1UdDwEB/wQEAwIHgDAN
BgkqhkiG9w0BAQsFAAOCAQEAOSEIwZvEDrZ9NCBKGoA1nuJxnDf7a++fVfVJrHwh
1CS0YCklINoHDmV27t42Kik5sJfjEIKV0JXHkPzjWH3WdvRvs0+q/ClaI4m1Dv6y
U4jcifDKqH7eizPGRBLoDZLSeagScCM3muX3dpfzAA6YsXitASN1+jDTabS5gmGh
cajz5XlcRQQuLwsoxAfpXIBswf7aRDRI6QbZVTSSLjUC5VVLRgLvQuXY7Yl2GoKL
9TcAi4EGnD05UGV1teUS3vKAlqF8nqu//NnfgbhR2GDe3UUJ1XWhHQ2ahKXdPRzY
RNrzDQXWqb8ZSCs594iA9yCIfeaD7KAlVCCcC1XE7vuvXA==
-----END CERTIFICATE-----
