Certificate:
    Data:
        Version: 3 (0x2)
        Serial Number: 47 (0x2f)
    Signature Algorithm: sha256WithRSAEncryption
        Issuer: C=US, ST=California, L=Santa Clara, O=pkg5, OU=ta11, CN=localhost/emailAddress=ta11
        Validity
            Not Before: Jan 22 15:33:17 2019 GMT
            Not After : Oct 18 15:33:17 2021 GMT
        Subject: C=US, ST=California, L=Santa Clara, O=pkg5, OU=cs1_ta11, CN=localhost/emailAddress=cs1_ta11
        Subject Public Key Info:
            Public Key Algorithm: rsaEncryption
                Public-Key: (1024 bit)
                Modulus:
                    00:d9:c1:5c:ba:a2:42:fa:eb:42:ee:b3:3d:e6:f3:
                    44:d7:81:c5:52:32:ba:d4:59:c9:43:90:ca:ae:17:
                    42:bb:8c:ee:20:54:ef:46:56:0c:b0:90:30:ba:dd:
                    5d:17:5b:0f:5d:e6:c9:57:a3:23:38:44:8f:3f:44:
                    36:35:eb:95:e8:c5:ee:83:02:64:a7:4a:eb:f3:f2:
                    7d:45:02:f5:8d:01:9d:f2:38:d7:af:5f:70:0f:26:
                    59:c9:e1:1f:eb:d8:96:aa:42:8a:15:79:07:d7:6b:
                    93:36:24:31:08:38:19:be:a1:59:0e:26:c7:8a:89:
                    1c:fe:a6:29:46:47:5e:c6:0d
                Exponent: 65537 (0x10001)
        X509v3 extensions:
            X509v3 Basic Constraints: critical
                CA:FALSE
            X509v3 Key Usage: critical
                Digital Signature
    Signature Algorithm: sha256WithRSAEncryption
         c3:1c:c2:9d:61:d3:1d:8f:49:96:08:d4:ee:6e:6b:6d:9b:30:
         95:18:67:4c:24:d3:28:01:6f:7a:bb:00:0a:49:bd:52:7c:eb:
         3d:1e:09:25:62:d7:bd:81:20:ad:09:3e:23:37:0f:d2:70:b8:
         29:c1:31:d2:b7:1f:ba:9d:8e:07:20:e0:2f:c0:88:bf:df:af:
         4c:b5:a2:9a:e1:73:cd:52:ed:89:17:d3:58:9e:36:4e:bc:3b:
         2e:f5:6b:fb:32:25:9f:fb:2c:53:30:a3:2b:33:e2:e3:48:56:
         1a:e2:5c:16:b2:88:fa:5d:8a:fa:7b:4a:bd:c1:60:71:1d:bc:
         5d:01:c5:8a:99:bc:06:02:4f:34:2d:a1:1a:31:f8:17:31:98:
         10:21:90:e8:e8:90:7f:cf:b1:a8:40:df:65:92:b5:74:6f:3b:
         e3:61:cf:04:7a:57:f5:0d:da:9b:33:2d:40:82:a9:cc:d9:ef:
         da:61:f5:95:20:c1:24:59:a4:57:9d:c0:02:26:73:7e:b7:13:
         74:50:7e:58:ff:d3:b6:84:39:03:6d:e3:83:9f:07:05:2f:d4:
         ac:23:ec:42:eb:16:38:18:ff:ce:a9:68:91:15:6b:9f:bf:55:
         46:ec:8e:3e:e8:bc:fe:f5:21:cf:ea:dd:ba:a8:5e:18:ed:e2:
         94:d7:cb:e7
-----BEGIN CERTIFICATE-----
MIIDHjCCAgagAwIBAgIBLzANBgkqhkiG9w0BAQsFADB/MQswCQYDVQQGEwJVUzET
MBEGA1UECAwKQ2FsaWZvcm5pYTEUMBIGA1UEBwwLU2FudGEgQ2xhcmExDTALBgNV
BAoMBHBrZzUxDTALBgNVBAsMBHRhMTExEjAQBgNVBAMMCWxvY2FsaG9zdDETMBEG
CSqGSIb3DQEJARYEdGExMTAeFw0xOTAxMjIxNTMzMTdaFw0yMTEwMTgxNTMzMTda
MIGHMQswCQYDVQQGEwJVUzETMBEGA1UECAwKQ2FsaWZvcm5pYTEUMBIGA1UEBwwL
U2FudGEgQ2xhcmExDTALBgNVBAoMBHBrZzUxETAPBgNVBAsMCGNzMV90YTExMRIw
EAYDVQQDDAlsb2NhbGhvc3QxFzAVBgkqhkiG9w0BCQEWCGNzMV90YTExMIGfMA0G
CSqGSIb3DQEBAQUAA4GNADCBiQKBgQDZwVy6okL660Lusz3m80TXgcVSMrrUWclD
kMquF0K7jO4gVO9GVgywkDC63V0XWw9d5slXoyM4RI8/RDY165Xoxe6DAmSnSuvz
8n1FAvWNAZ3yONevX3APJlnJ4R/r2JaqQooVeQfXa5M2JDEIOBm+oVkOJseKiRz+
pilGR17GDQIDAQABoyAwHjAMBgNVHRMBAf8EAjAAMA4GA1UdDwEB/wQEAwIHgDAN
BgkqhkiG9w0BAQsFAAOCAQEAwxzCnWHTHY9JlgjU7m5rbZswlRhnTCTTKAFversA
Ckm9UnzrPR4JJWLXvYEgrQk+IzcP0nC4KcEx0rcfup2OByDgL8CIv9+vTLWimuFz
zVLtiRfTWJ42Trw7LvVr+zIln/ssUzCjKzPi40hWGuJcFrKI+l2K+ntKvcFgcR28
XQHFipm8BgJPNC2hGjH4FzGYECGQ6OiQf8+xqEDfZZK1dG8742HPBHpX9Q3amzMt
QIKpzNnv2mH1lSDBJFmkV53AAiZzfrcTdFB+WP/TtoQ5A23jg58HBS/UrCPsQusW
OBj/zqlokRVrn79VRuyOPui8/vUhz+rduqheGO3ilNfL5w==
-----END CERTIFICATE-----
