Certificate:
    Data:
        Version: 3 (0x2)
        Serial Number: 47 (0x2f)
    Signature Algorithm: sha256WithRSAEncryption
        Issuer: C=US, ST=California, L=Santa Clara, O=pkg5, OU=ta10, CN=localhost/emailAddress=ta10
        Validity
            Not Before: Jan 22 01:58:01 2016 GMT
            Not After : Oct 18 01:58:01 2018 GMT
        Subject: C=US, ST=California, L=Santa Clara, O=pkg5, OU=cs1_ta10, CN=localhost/emailAddress=cs1_ta10
        Subject Public Key Info:
            Public Key Algorithm: rsaEncryption
                Public-Key: (1024 bit)
                Modulus:
                    00:af:54:cd:ab:f9:be:07:cf:85:91:67:25:cc:5f:
                    4d:72:9c:31:7c:75:5e:b6:34:89:41:5b:02:2d:f8:
                    e4:9f:b8:2f:d9:d9:bf:3a:a1:db:1d:a0:57:94:ef:
                    b3:f8:82:e2:d0:26:c7:2b:44:fd:f7:2d:eb:40:50:
                    b6:d6:1f:cb:02:3d:9a:42:cd:e5:cb:7b:32:fd:73:
                    55:da:8f:10:e6:7b:0e:03:93:22:72:d5:bc:ea:8c:
                    2c:ff:33:9f:f3:0d:9b:59:c7:30:86:02:cd:63:d3:
                    84:13:f7:2d:86:1e:2b:5f:5f:f6:8b:ee:52:0c:a3:
                    48:e3:70:39:86:6e:fb:78:f5
                Exponent: 65537 (0x10001)
        X509v3 extensions:
            X509v3 Basic Constraints: critical
                CA:FALSE
            X509v3 Key Usage: critical
                Digital Signature
    Signature Algorithm: sha256WithRSAEncryption
         5a:f4:a7:5f:b4:43:16:f4:9c:fa:22:29:5c:81:5b:b7:f2:84:
         67:27:6a:c0:b4:95:62:68:1e:8f:aa:9c:7e:24:35:25:eb:4d:
         1a:4e:17:89:5f:1f:87:7d:09:ba:6b:9c:e4:09:bb:a6:19:47:
         81:88:dd:2a:dd:1d:76:34:4f:41:c0:89:d0:41:99:0d:a0:9f:
         06:76:76:78:1c:12:cb:6b:6b:62:1b:1d:18:f0:5b:10:94:62:
         c7:87:3b:1b:2b:bb:14:fc:87:29:f0:af:db:e4:6f:d6:cf:5a:
         f4:16:d3:42:2e:f1:03:26:a0:2e:cc:9b:e1:4b:97:ee:b6:e3:
         76:91:35:cc:67:80:39:3a:4c:40:19:c6:19:cd:e9:13:d2:29:
         25:38:cc:de:d4:81:21:3f:44:ed:95:8c:7e:5d:12:d5:34:88:
         ef:3b:4d:35:c1:e3:65:2e:8e:9b:31:62:4d:8f:e0:14:28:e5:
         18:61:58:27:4e:f5:67:dd:05:48:9b:37:70:2a:cc:a9:84:d2:
         d1:a3:b1:8c:2b:37:eb:5d:d9:3b:5e:7a:98:02:9f:b5:fd:fa:
         6b:24:5a:37:72:98:07:21:9d:20:84:ba:fe:e2:80:c1:43:23:
         35:65:85:4f:09:d1:c1:f9:fc:ea:99:b1:dc:b6:85:bc:65:1c:
         60:5c:a3:36
-----BEGIN CERTIFICATE-----
MIIDHjCCAgagAwIBAgIBLzANBgkqhkiG9w0BAQsFADB/MQswCQYDVQQGEwJVUzET
MBEGA1UECAwKQ2FsaWZvcm5pYTEUMBIGA1UEBwwLU2FudGEgQ2xhcmExDTALBgNV
BAoMBHBrZzUxDTALBgNVBAsMBHRhMTAxEjAQBgNVBAMMCWxvY2FsaG9zdDETMBEG
CSqGSIb3DQEJARYEdGExMDAeFw0xNjAxMjIwMTU4MDFaFw0xODEwMTgwMTU4MDFa
MIGHMQswCQYDVQQGEwJVUzETMBEGA1UECAwKQ2FsaWZvcm5pYTEUMBIGA1UEBwwL
U2FudGEgQ2xhcmExDTALBgNVBAoMBHBrZzUxETAPBgNVBAsMCGNzMV90YTEwMRIw
EAYDVQQDDAlsb2NhbGhvc3QxFzAVBgkqhkiG9w0BCQEWCGNzMV90YTEwMIGfMA0G
CSqGSIb3DQEBAQUAA4GNADCBiQKBgQCvVM2r+b4Hz4WRZyXMX01ynDF8dV62NIlB
WwIt+OSfuC/Z2b86odsdoFeU77P4guLQJscrRP33LetAULbWH8sCPZpCzeXLezL9
c1XajxDmew4DkyJy1bzqjCz/M5/zDZtZxzCGAs1j04QT9y2GHitfX/aL7lIMo0jj
cDmGbvt49QIDAQABoyAwHjAMBgNVHRMBAf8EAjAAMA4GA1UdDwEB/wQEAwIHgDAN
BgkqhkiG9w0BAQsFAAOCAQEAWvSnX7RDFvSc+iIpXIFbt/KEZydqwLSVYmgej6qc
fiQ1JetNGk4XiV8fh30Jumuc5Am7phlHgYjdKt0ddjRPQcCJ0EGZDaCfBnZ2eBwS
y2trYhsdGPBbEJRix4c7Gyu7FPyHKfCv2+Rv1s9a9BbTQi7xAyagLsyb4UuX7rbj
dpE1zGeAOTpMQBnGGc3pE9IpJTjM3tSBIT9E7ZWMfl0S1TSI7ztNNcHjZS6OmzFi
TY/gFCjlGGFYJ071Z90FSJs3cCrMqYTS0aOxjCs3613ZO156mAKftf36ayRaN3KY
ByGdIIS6/uKAwUMjNWWFTwnRwfn86pmx3LaFvGUcYFyjNg==
-----END CERTIFICATE-----
