Certificate:
    Data:
        Version: 3 (0x2)
        Serial Number: 48 (0x30)
    Signature Algorithm: sha256WithRSAEncryption
        Issuer: C=US, ST=California, L=Santa Clara, O=pkg5, OU=ta11, CN=localhost/emailAddress=ta11
        Validity
            Not Before: Jan 22 01:58:02 2016 GMT
            Not After : Oct 18 01:58:02 2018 GMT
        Subject: C=US, ST=California, L=Santa Clara, O=pkg5, OU=cs1_ta11, CN=localhost/emailAddress=cs1_ta11
        Subject Public Key Info:
            Public Key Algorithm: rsaEncryption
                Public-Key: (1024 bit)
                Modulus:
                    00:f5:77:73:b2:90:37:4b:dd:06:a4:3c:b9:65:3d:
                    bf:77:86:3b:3d:b2:ab:bc:d9:22:0b:8a:3e:4f:96:
                    ac:48:52:df:17:bf:09:69:a1:ad:14:42:4d:15:f7:
                    40:79:b4:46:4d:d8:14:55:c6:5c:1c:30:16:83:fb:
                    5c:21:3f:23:a3:fe:82:ff:98:3c:98:56:cf:c0:d1:
                    03:85:e7:d0:c7:03:41:0c:3b:9c:29:41:1e:ed:b9:
                    1a:7b:3d:41:e8:72:10:b4:29:74:5f:02:19:40:7f:
                    29:4e:3e:9c:27:94:b0:71:fc:52:13:10:99:3d:03:
                    f6:fb:b0:a2:64:0c:d4:1f:4f
                Exponent: 65537 (0x10001)
        X509v3 extensions:
            X509v3 Basic Constraints: critical
                CA:FALSE
            X509v3 Key Usage: critical
                Digital Signature
    Signature Algorithm: sha256WithRSAEncryption
         bb:42:2e:cb:6d:0b:56:67:70:f8:74:08:8d:4f:4e:36:07:f7:
         5b:5d:1e:56:39:e1:8a:39:8c:15:d0:7e:a9:9a:45:bb:f1:af:
         0d:00:f6:b4:ee:11:03:c7:7c:73:a0:a3:1f:5b:d6:02:b5:89:
         a9:0b:48:50:36:3a:1a:ce:72:0d:94:7b:1b:4a:63:56:1c:4a:
         60:72:cf:1b:8a:ec:2c:19:01:d0:32:38:1b:c6:df:d7:b1:8c:
         8c:85:4b:15:80:52:98:49:aa:a1:35:85:8f:35:3c:68:53:28:
         59:17:7c:af:4d:15:e3:b6:7c:6c:d8:24:c7:a3:7f:ca:30:46:
         96:59:a7:2e:36:1f:6f:b0:4d:93:13:de:dd:0c:85:9a:10:57:
         9a:01:18:e0:92:0a:1b:38:77:53:11:91:0c:83:77:fb:79:8f:
         19:bb:da:7e:a1:c0:2a:af:96:3b:cf:63:10:83:42:8a:2b:3e:
         16:61:36:00:1a:74:24:47:26:e5:a2:e6:4b:5d:8c:ee:c4:57:
         1b:ce:bc:b5:bd:8d:72:8e:d5:d7:f8:02:f3:e6:95:ea:2d:24:
         95:8c:b6:d6:58:f7:c9:7d:93:9e:a3:57:df:b5:b6:f5:75:23:
         29:34:ff:5d:3b:f7:be:22:ed:7d:31:3b:68:61:71:6e:d1:28:
         92:2d:f0:69
-----BEGIN CERTIFICATE-----
MIIDHjCCAgagAwIBAgIBMDANBgkqhkiG9w0BAQsFADB/MQswCQYDVQQGEwJVUzET
MBEGA1UECAwKQ2FsaWZvcm5pYTEUMBIGA1UEBwwLU2FudGEgQ2xhcmExDTALBgNV
BAoMBHBrZzUxDTALBgNVBAsMBHRhMTExEjAQBgNVBAMMCWxvY2FsaG9zdDETMBEG
CSqGSIb3DQEJARYEdGExMTAeFw0xNjAxMjIwMTU4MDJaFw0xODEwMTgwMTU4MDJa
MIGHMQswCQYDVQQGEwJVUzETMBEGA1UECAwKQ2FsaWZvcm5pYTEUMBIGA1UEBwwL
U2FudGEgQ2xhcmExDTALBgNVBAoMBHBrZzUxETAPBgNVBAsMCGNzMV90YTExMRIw
EAYDVQQDDAlsb2NhbGhvc3QxFzAVBgkqhkiG9w0BCQEWCGNzMV90YTExMIGfMA0G
CSqGSIb3DQEBAQUAA4GNADCBiQKBgQD1d3OykDdL3QakPLllPb93hjs9squ82SIL
ij5PlqxIUt8Xvwlpoa0UQk0V90B5tEZN2BRVxlwcMBaD+1whPyOj/oL/mDyYVs/A
0QOF59DHA0EMO5wpQR7tuRp7PUHochC0KXRfAhlAfylOPpwnlLBx/FITEJk9A/b7
sKJkDNQfTwIDAQABoyAwHjAMBgNVHRMBAf8EAjAAMA4GA1UdDwEB/wQEAwIHgDAN
BgkqhkiG9w0BAQsFAAOCAQEAu0Iuy20LVmdw+HQIjU9ONgf3W10eVjnhijmMFdB+
qZpFu/GvDQD2tO4RA8d8c6CjH1vWArWJqQtIUDY6Gs5yDZR7G0pjVhxKYHLPG4rs
LBkB0DI4G8bf17GMjIVLFYBSmEmqoTWFjzU8aFMoWRd8r00V47Z8bNgkx6N/yjBG
llmnLjYfb7BNkxPe3QyFmhBXmgEY4JIKGzh3UxGRDIN3+3mPGbvafqHAKq+WO89j
EINCiis+FmE2ABp0JEcm5aLmS12M7sRXG868tb2Nco7V1/gC8+aV6i0klYy21lj3
yX2TnqNX37W29XUjKTT/XTv3viLtfTE7aGFxbtEoki3waQ==
-----END CERTIFICATE-----
