Certificate:
    Data:
        Version: 3 (0x2)
        Serial Number: 31 (0x1f)
        Signature Algorithm: sha256WithRSAEncryption
        Issuer: C=US, ST=California, L=Menlo Park, O=pkg5, CN=ch1.3_ta3/emailAddress=ch1.3_ta3
        Validity
            Not Before: Apr 11 22:37:48 2011 GMT
            Not After : Jan  5 22:37:48 2014 GMT
        Subject: C=US, ST=California, L=Menlo Park, O=pkg5, CN=cs1_ch1.3_ta3/emailAddress=cs1_ch1.3_ta3
        Subject Public Key Info:
            Public Key Algorithm: rsaEncryption
            RSA Public Key: (1024 bit)
                Modulus (1024 bit):
                    00:b3:bb:8d:94:21:ec:dd:1d:bd:c4:ab:b9:04:17:
                    f2:ac:58:db:4b:93:f9:17:2d:16:fc:d1:a5:ea:ee:
                    e9:2e:4e:05:43:c2:4b:35:2e:ba:bc:70:f2:20:d7:
                    53:64:ec:7f:84:ca:ce:eb:4d:ac:12:f0:55:6a:a9:
                    be:17:a9:ae:63:61:37:3a:72:91:b2:82:b6:c1:7e:
                    07:39:28:5a:20:a3:db:a4:24:34:ca:78:c8:9e:26:
                    db:26:da:4f:b6:a6:cf:3f:23:d9:06:be:ad:d3:8f:
                    23:41:51:49:f5:e3:63:91:68:a1:34:b9:3e:fd:da:
                    22:07:86:a9:bd:58:93:84:2b
                Exponent: 65537 (0x10001)
        X509v3 extensions:
            X509v3 Basic Constraints: critical
                CA:FALSE
            X509v3 Key Usage: critical
                Digital Signature
    Signature Algorithm: sha256WithRSAEncryption
        28:69:b9:22:7b:ff:dd:7f:a5:95:f6:67:73:2d:f0:85:e9:22:
        6e:ce:5e:f4:0e:39:90:56:a9:23:28:4a:73:d1:2f:4a:d5:dc:
        fb:42:f2:c8:3c:a2:d7:97:08:ec:86:cc:72:65:23:21:88:e1:
        be:67:8e:f8:44:7b:0e:b7:3f:04:75:db:4a:3f:32:e6:5a:e1:
        6a:8e:f7:e9:20:ae:2c:62:51:34:d4:b1:c0:3b:20:64:d0:8f:
        b3:86:4b:e1:82:ff:a2:61:eb:3f:1d:bf:2f:11:d2:01:96:a0:
        a5:0f:df:1f:c9:1c:34:64:97:7d:3e:97:70:bf:2b:68:2f:cf:
        91:52
-----BEGIN CERTIFICATE-----
MIIChjCCAe+gAwIBAgIBHzANBgkqhkiG9w0BAQsFADB0MQswCQYDVQQGEwJVUzET
MBEGA1UECBMKQ2FsaWZvcm5pYTETMBEGA1UEBxMKTWVubG8gUGFyazENMAsGA1UE
ChMEcGtnNTESMBAGA1UEAxQJY2gxLjNfdGEzMRgwFgYJKoZIhvcNAQkBFgljaDEu
M190YTMwHhcNMTEwNDExMjIzNzQ4WhcNMTQwMTA1MjIzNzQ4WjB8MQswCQYDVQQG
EwJVUzETMBEGA1UECBMKQ2FsaWZvcm5pYTETMBEGA1UEBxMKTWVubG8gUGFyazEN
MAsGA1UEChMEcGtnNTEWMBQGA1UEAxQNY3MxX2NoMS4zX3RhMzEcMBoGCSqGSIb3
DQEJARYNY3MxX2NoMS4zX3RhMzCBnzANBgkqhkiG9w0BAQEFAAOBjQAwgYkCgYEA
s7uNlCHs3R29xKu5BBfyrFjbS5P5Fy0W/NGl6u7pLk4FQ8JLNS66vHDyINdTZOx/
hMrO602sEvBVaqm+F6muY2E3OnKRsoK2wX4HOShaIKPbpCQ0ynjInibbJtpPtqbP
PyPZBr6t048jQVFJ9eNjkWihNLk+/doiB4apvViThCsCAwEAAaMgMB4wDAYDVR0T
AQH/BAIwADAOBgNVHQ8BAf8EBAMCB4AwDQYJKoZIhvcNAQELBQADgYEAKGm5Inv/
3X+llfZncy3whekibs5e9A45kFapIyhKc9EvStXc+0LyyDyi15cI7IbMcmUjIYjh
vmeO+ER7Drc/BHXbSj8y5lrhao736SCuLGJRNNSxwDsgZNCPs4ZL4YL/omHrPx2/
LxHSAZagpQ/fH8kcNGSXfT6XcL8raC/PkVI=
-----END CERTIFICATE-----
