Certificate:
    Data:
        Version: 3 (0x2)
        Serial Number: 46 (0x2e)
    Signature Algorithm: sha256WithRSAEncryption
        Issuer: C=US, ST=California, L=Santa Clara, O=pkg5, OU=ta10, CN=localhost/emailAddress=ta10
        Validity
            Not Before: Jan 22 15:33:17 2019 GMT
            Not After : Oct 18 15:33:17 2021 GMT
        Subject: C=US, ST=California, L=Santa Clara, O=pkg5, OU=cs1_ta10, CN=localhost/emailAddress=cs1_ta10
        Subject Public Key Info:
            Public Key Algorithm: rsaEncryption
                Public-Key: (1024 bit)
                Modulus:
                    00:be:2d:0d:64:85:2c:15:7b:9b:ea:b2:52:98:4e:
                    bc:dc:8e:a7:a3:75:c8:7a:5a:58:18:0c:55:c2:46:
                    7c:f4:0e:0f:4d:c9:b0:5f:58:83:93:72:b3:d7:e8:
                    0a:e3:5c:65:97:01:88:92:df:94:53:4c:b2:d3:29:
                    55:7b:04:0e:4d:1b:03:9e:09:05:fb:95:26:6c:ce:
                    61:9c:2d:df:67:22:fd:82:45:00:1f:dc:a6:d9:c3:
                    04:36:b7:83:d4:c0:bd:21:8a:6b:bb:43:f7:90:75:
                    30:d4:29:10:0f:6d:f3:19:3b:b2:b0:61:f3:c3:58:
                    5c:45:d2:22:f5:13:70:8d:13
                Exponent: 65537 (0x10001)
        X509v3 extensions:
            X509v3 Basic Constraints: critical
                CA:FALSE
            X509v3 Key Usage: critical
                Digital Signature
    Signature Algorithm: sha256WithRSAEncryption
         aa:a8:e1:67:df:88:11:63:ee:6f:dd:80:86:12:a0:21:7d:81:
         66:0b:8f:89:cd:26:ab:31:24:73:f7:68:33:9a:9a:83:5e:cc:
         18:8c:d8:21:64:00:70:7a:cd:d5:87:f2:a8:6d:09:1e:95:2f:
         48:80:f4:38:89:07:9f:07:85:e8:e9:2f:61:c6:4a:a2:7b:d4:
         a5:8e:c7:da:34:d7:87:ee:33:81:9b:04:84:be:85:ae:c2:d6:
         38:40:ce:68:b2:d7:97:12:71:01:f2:fd:87:44:4b:12:1e:b9:
         ed:08:9c:d7:48:f6:7b:b0:a2:ca:34:1c:f4:f9:d3:e4:e9:53:
         12:6b:87:f7:64:55:d8:28:ee:a0:1d:db:05:00:82:cb:52:ce:
         3a:d7:0f:d3:08:70:22:5e:b9:78:52:d6:6a:1d:34:e9:f6:f0:
         82:1f:49:90:f4:f5:23:5e:b4:71:46:bd:4d:f1:68:60:78:2c:
         b6:d9:f2:56:1f:63:dd:67:7e:3d:c7:85:12:34:06:55:73:78:
         3b:be:b3:29:5b:85:fc:90:6f:1b:55:af:f1:b9:e6:17:20:0d:
         cf:e9:1a:8f:0d:af:38:86:be:0d:ee:c9:ba:0f:cc:bb:93:5d:
         bb:ea:04:71:8f:8a:d8:0e:74:fa:81:76:dd:ea:75:dc:1c:75:
         ef:97:2d:a4
-----BEGIN CERTIFICATE-----
MIIDHjCCAgagAwIBAgIBLjANBgkqhkiG9w0BAQsFADB/MQswCQYDVQQGEwJVUzET
MBEGA1UECAwKQ2FsaWZvcm5pYTEUMBIGA1UEBwwLU2FudGEgQ2xhcmExDTALBgNV
BAoMBHBrZzUxDTALBgNVBAsMBHRhMTAxEjAQBgNVBAMMCWxvY2FsaG9zdDETMBEG
CSqGSIb3DQEJARYEdGExMDAeFw0xOTAxMjIxNTMzMTdaFw0yMTEwMTgxNTMzMTda
MIGHMQswCQYDVQQGEwJVUzETMBEGA1UECAwKQ2FsaWZvcm5pYTEUMBIGA1UEBwwL
U2FudGEgQ2xhcmExDTALBgNVBAoMBHBrZzUxETAPBgNVBAsMCGNzMV90YTEwMRIw
EAYDVQQDDAlsb2NhbGhvc3QxFzAVBgkqhkiG9w0BCQEWCGNzMV90YTEwMIGfMA0G
CSqGSIb3DQEBAQUAA4GNADCBiQKBgQC+LQ1khSwVe5vqslKYTrzcjqejdch6WlgY
DFXCRnz0Dg9NybBfWIOTcrPX6ArjXGWXAYiS35RTTLLTKVV7BA5NGwOeCQX7lSZs
zmGcLd9nIv2CRQAf3KbZwwQ2t4PUwL0himu7Q/eQdTDUKRAPbfMZO7KwYfPDWFxF
0iL1E3CNEwIDAQABoyAwHjAMBgNVHRMBAf8EAjAAMA4GA1UdDwEB/wQEAwIHgDAN
BgkqhkiG9w0BAQsFAAOCAQEAqqjhZ9+IEWPub92AhhKgIX2BZguPic0mqzEkc/do
M5qag17MGIzYIWQAcHrN1YfyqG0JHpUvSID0OIkHnweF6OkvYcZKonvUpY7H2jTX
h+4zgZsEhL6FrsLWOEDOaLLXlxJxAfL9h0RLEh657Qic10j2e7CiyjQc9PnT5OlT
EmuH92RV2CjuoB3bBQCCy1LOOtcP0whwIl65eFLWah006fbwgh9JkPT1I160cUa9
TfFoYHgsttnyVh9j3Wd+PceFEjQGVXN4O76zKVuF/JBvG1Wv8bnmFyANz+kajw2v
OIa+De7Jug/Mu5Ndu+oEcY+K2A50+oF23ep13Bx175ctpA==
-----END CERTIFICATE-----
