Certificate:
    Data:
        Version: 3 (0x2)
        Serial Number: 35 (0x23)
    Signature Algorithm: sha256WithRSAEncryption
        Issuer: C=US, ST=California, L=Santa Clara, O=pkg5, CN=ch1_ta4/emailAddress=ch1_ta4
        Validity
            Not Before: Dec 13 00:13:37 2013 GMT
            Not After : Sep  8 00:13:37 2016 GMT
        Subject: C=US, ST=California, L=Santa Clara, O=pkg5, CN=cs1_ch1_ta4/emailAddress=cs1_ch1_ta4
        Subject Public Key Info:
            Public Key Algorithm: rsaEncryption
                Public-Key: (1024 bit)
                Modulus:
                    00:bb:13:23:7f:7b:bc:24:4f:bd:c3:56:23:7e:84:
                    f6:a5:cd:87:51:d1:45:92:5b:0d:68:b7:56:23:ae:
                    88:d5:51:83:c0:f7:b4:49:1e:d2:d3:22:b8:c4:10:
                    eb:a4:45:89:86:63:d5:1b:a8:4e:8e:30:8a:3c:44:
                    3c:78:7b:cf:c0:20:3c:67:ff:7e:5f:e0:45:8c:f8:
                    cb:0f:cf:ac:41:c4:1b:da:3f:d6:55:7d:31:14:ae:
                    1e:5e:cd:dd:1d:34:22:dd:00:35:60:58:74:a3:2f:
                    ae:d3:b4:4d:49:28:ea:78:cd:1d:fe:cb:9e:f8:19:
                    09:ae:e3:10:40:03:b4:5e:7f
                Exponent: 65537 (0x10001)
        X509v3 extensions:
            X509v3 Basic Constraints: critical
                CA:FALSE
            X509v3 CRL Distribution Points: 

                Full Name:
                  URI:http://localhost:12001/file/0/ch1_ta4_crl.pem

    Signature Algorithm: sha256WithRSAEncryption
         4e:be:e0:f6:a4:b9:2a:9d:31:f1:88:8b:b8:b4:ff:36:12:51:
         a0:ec:9e:a7:f2:cf:a8:56:1e:fa:26:2c:43:db:a2:14:76:53:
         e4:c8:fa:0f:4e:63:25:70:79:6f:71:50:92:74:38:ce:f6:a6:
         93:2e:92:58:ee:85:13:e2:b0:64:3f:1d:56:e3:0b:09:04:d5:
         53:54:73:f2:37:54:78:27:64:b4:64:c8:ee:67:b9:b7:41:65:
         f2:06:57:6a:33:c6:7a:15:8d:dd:62:7b:6a:30:b3:80:94:8a:
         ea:88:db:76:1a:f6:ab:7c:af:e3:3e:63:65:ee:44:fc:b5:0b:
         e7:7d
-----BEGIN CERTIFICATE-----
MIICsDCCAhmgAwIBAgIBIzANBgkqhkiG9w0BAQsFADBxMQswCQYDVQQGEwJVUzET
MBEGA1UECAwKQ2FsaWZvcm5pYTEUMBIGA1UEBwwLU2FudGEgQ2xhcmExDTALBgNV
BAoMBHBrZzUxEDAOBgNVBAMMB2NoMV90YTQxFjAUBgkqhkiG9w0BCQEWB2NoMV90
YTQwHhcNMTMxMjEzMDAxMzM3WhcNMTYwOTA4MDAxMzM3WjB5MQswCQYDVQQGEwJV
UzETMBEGA1UECAwKQ2FsaWZvcm5pYTEUMBIGA1UEBwwLU2FudGEgQ2xhcmExDTAL
BgNVBAoMBHBrZzUxFDASBgNVBAMMC2NzMV9jaDFfdGE0MRowGAYJKoZIhvcNAQkB
FgtjczFfY2gxX3RhNDCBnzANBgkqhkiG9w0BAQEFAAOBjQAwgYkCgYEAuxMjf3u8
JE+9w1YjfoT2pc2HUdFFklsNaLdWI66I1VGDwPe0SR7S0yK4xBDrpEWJhmPVG6hO
jjCKPEQ8eHvPwCA8Z/9+X+BFjPjLD8+sQcQb2j/WVX0xFK4eXs3dHTQi3QA1YFh0
oy+u07RNSSjqeM0d/sue+BkJruMQQAO0Xn8CAwEAAaNQME4wDAYDVR0TAQH/BAIw
ADA+BgNVHR8ENzA1MDOgMaAvhi1odHRwOi8vbG9jYWxob3N0OjEyMDAxL2ZpbGUv
MC9jaDFfdGE0X2NybC5wZW0wDQYJKoZIhvcNAQELBQADgYEATr7g9qS5Kp0x8YiL
uLT/NhJRoOyep/LPqFYe+iYsQ9uiFHZT5Mj6D05jJXB5b3FQknQ4zvamky6SWO6F
E+KwZD8dVuMLCQTVU1Rz8jdUeCdktGTI7me5t0Fl8gZXajPGehWN3WJ7ajCzgJSK
6ojbdhr2q3yv4z5jZe5E/LUL530=
-----END CERTIFICATE-----
