Certificate:
    Data:
        Version: 3 (0x2)
        Serial Number: 45 (0x2d)
        Signature Algorithm: sha256WithRSAEncryption
        Issuer: C=US, ST=California, L=Santa Clara, O=pkg5, OU=ta9, CN=localhost/emailAddress=ta9
        Validity
            Not Before: Mar 18 08:51:48 2026 GMT
            Not After : Dec 12 08:51:48 2028 GMT
        Subject: C=US, ST=California, L=Santa Clara, O=pkg5, OU=cs1_ta9, CN=localhost/emailAddress=cs1_ta9
        Subject Public Key Info:
            Public Key Algorithm: rsaEncryption
                Public-Key: (2048 bit)
                Modulus:
                    00:b3:df:92:b7:5a:e9:7c:70:1d:40:bf:4f:4d:7d:
                    c1:f0:9d:0d:24:af:68:cf:95:33:0d:34:52:da:76:
                    92:71:84:59:dc:e9:2a:27:9b:fe:31:47:d7:f8:74:
                    51:22:e5:81:6f:9e:a0:fc:a8:b2:fc:82:b8:10:cb:
                    dd:38:ca:e4:47:d2:d1:7c:8f:6a:e5:b8:a0:c7:b2:
                    cb:ac:47:69:14:bc:e6:e5:ea:1f:2c:8c:6b:6a:d7:
                    32:f4:6e:05:27:14:8a:95:c6:89:29:72:cf:19:45:
                    5e:bb:4c:9b:e7:29:1f:5f:57:aa:b0:f6:b2:aa:52:
                    91:8b:15:ad:1e:7b:ae:17:2f:a3:57:03:4b:fe:3a:
                    80:5e:56:d6:d7:37:bb:4c:89:be:ef:a7:46:7e:76:
                    7f:07:0f:a7:74:b2:77:03:88:9e:2b:51:6b:5e:b3:
                    85:f3:de:09:31:39:89:db:e2:a4:f8:76:79:a1:4c:
                    0e:9c:89:1d:78:dc:a0:d0:67:50:56:53:dc:6a:66:
                    83:51:46:bc:df:b7:e3:af:ee:be:42:38:59:9d:33:
                    44:18:19:03:28:73:78:aa:90:0a:0c:99:74:52:18:
                    7f:d2:55:cf:63:84:1a:ef:2c:52:97:e7:d3:b9:20:
                    65:43:21:fb:93:12:bc:24:48:e1:10:e9:82:2f:d1:
                    f0:37
                Exponent: 65537 (0x10001)
        X509v3 extensions:
            X509v3 Basic Constraints: critical
                CA:FALSE
            X509v3 Key Usage: critical
                Digital Signature
            X509v3 Subject Key Identifier: 
                1A:AC:7B:15:4B:DA:7B:0D:1E:98:4F:4E:3F:02:39:3F:E9:3F:47:4E
            X509v3 Authority Key Identifier: 
                C2:DC:D8:84:D5:67:BB:7D:CA:B9:67:D7:FA:22:D0:78:9E:DD:68:18
    Signature Algorithm: sha256WithRSAEncryption
    Signature Value:
        80:bf:13:75:57:ca:09:f0:3c:4d:19:fa:8f:a1:c9:77:b0:a4:
        64:27:b0:b1:c0:ab:14:fe:18:58:26:48:4b:f0:d0:82:4a:2b:
        ba:4f:81:d4:2e:6e:6c:e7:50:ef:1f:6b:b1:26:d2:2b:4a:f6:
        52:5e:32:78:06:a7:ec:7c:96:47:68:41:12:c1:bb:59:0e:2f:
        24:93:c6:fe:93:c2:41:17:45:89:07:26:5d:7f:eb:3f:61:11:
        56:ee:b7:3a:ce:56:15:94:f2:8c:55:68:cf:d0:c8:6e:05:a2:
        b3:a5:7c:8e:f7:ce:d8:28:19:b6:ff:7b:98:6b:be:bd:56:c3:
        04:38:f0:1e:6a:5e:70:d1:0c:be:8b:da:02:7e:18:a8:88:ff:
        a9:bd:d3:70:c0:9d:46:2d:aa:fb:54:22:10:21:a3:a8:a2:1c:
        59:6d:f2:88:19:b7:45:0a:19:28:ba:da:61:b9:6f:ea:b5:2a:
        ee:7e:8f:66:d2:58:b8:9f:74:90:7c:fc:0f:d2:93:f1:54:41:
        01:03:8e:ce:04:e1:c0:1d:9d:e1:a6:a4:ae:6b:b7:a2:76:60:
        a3:3b:c2:55:ee:22:29:44:1f:5a:fd:5e:57:44:f1:7b:8e:72:
        a1:28:cd:8d:2c:56:21:bb:34:57:1c:56:f6:14:34:83:4f:92:
        82:ba:90:f2
-----BEGIN CERTIFICATE-----
MIID3jCCAsagAwIBAgIBLTANBgkqhkiG9w0BAQsFADB9MQswCQYDVQQGEwJVUzET
MBEGA1UECAwKQ2FsaWZvcm5pYTEUMBIGA1UEBwwLU2FudGEgQ2xhcmExDTALBgNV
BAoMBHBrZzUxDDAKBgNVBAsMA3RhOTESMBAGA1UEAwwJbG9jYWxob3N0MRIwEAYJ
KoZIhvcNAQkBFgN0YTkwHhcNMjYwMzE4MDg1MTQ4WhcNMjgxMjEyMDg1MTQ4WjCB
hTELMAkGA1UEBhMCVVMxEzARBgNVBAgMCkNhbGlmb3JuaWExFDASBgNVBAcMC1Nh
bnRhIENsYXJhMQ0wCwYDVQQKDARwa2c1MRAwDgYDVQQLDAdjczFfdGE5MRIwEAYD
VQQDDAlsb2NhbGhvc3QxFjAUBgkqhkiG9w0BCQEWB2NzMV90YTkwggEiMA0GCSqG
SIb3DQEBAQUAA4IBDwAwggEKAoIBAQCz35K3Wul8cB1Av09NfcHwnQ0kr2jPlTMN
NFLadpJxhFnc6Sonm/4xR9f4dFEi5YFvnqD8qLL8grgQy904yuRH0tF8j2rluKDH
ssusR2kUvObl6h8sjGtq1zL0bgUnFIqVxokpcs8ZRV67TJvnKR9fV6qw9rKqUpGL
Fa0ee64XL6NXA0v+OoBeVtbXN7tMib7vp0Z+dn8HD6d0sncDiJ4rUWtes4Xz3gkx
OYnb4qT4dnmhTA6ciR143KDQZ1BWU9xqZoNRRrzft+Ov7r5COFmdM0QYGQMoc3iq
kAoMmXRSGH/SVc9jhBrvLFKX59O5IGVDIfuTErwkSOEQ6YIv0fA3AgMBAAGjYDBe
MAwGA1UdEwEB/wQCMAAwDgYDVR0PAQH/BAQDAgeAMB0GA1UdDgQWBBQarHsVS9p7
DR6YT04/Ajk/6T9HTjAfBgNVHSMEGDAWgBTC3NiE1We7fcq5Z9f6ItB4nt1oGDAN
BgkqhkiG9w0BAQsFAAOCAQEAgL8TdVfKCfA8TRn6j6HJd7CkZCewscCrFP4YWCZI
S/DQgkoruk+B1C5ubOdQ7x9rsSbSK0r2Ul4yeAan7HyWR2hBEsG7WQ4vJJPG/pPC
QRdFiQcmXX/rP2ERVu63Os5WFZTyjFVoz9DIbgWis6V8jvfO2CgZtv97mGu+vVbD
BDjwHmpecNEMvovaAn4YqIj/qb3TcMCdRi2q+1QiECGjqKIcWW3yiBm3RQoZKLra
Yblv6rUq7n6PZtJYuJ90kHz8D9KT8VRBAQOOzgThwB2d4aakrmu3onZgozvCVe4i
KUQfWv1eV0Txe45yoSjNjSxWIbs0VxxW9hQ0g0+SgrqQ8g==
-----END CERTIFICATE-----
