Certificate:
    Data:
        Version: 3 (0x2)
        Serial Number: 24 (0x18)
        Signature Algorithm: sha256WithRSAEncryption
        Issuer: C=US, ST=California, L=Menlo Park, O=pkg5, CN=pubCA1_ta4/emailAddress=pubCA1_ta4
        Validity
            Not Before: Aug  4 20:59:28 2010 GMT
            Not After : Apr 30 20:59:28 2013 GMT
        Subject: C=US, ST=California, L=Menlo Park, O=pkg5, CN=cs1_ta4/emailAddress=cs1_ta4
        Subject Public Key Info:
            Public Key Algorithm: rsaEncryption
            RSA Public Key: (1024 bit)
                Modulus (1024 bit):
                    00:ac:00:6d:f7:7a:86:bb:cf:c8:06:9a:71:7f:69:
                    3a:41:2d:5d:d5:66:31:a1:2f:9d:7b:72:df:21:44:
                    be:03:63:cd:3e:2b:fc:e3:46:8d:df:54:cb:71:27:
                    26:cf:63:f8:9b:9f:73:5e:45:9f:b9:5e:78:5a:ed:
                    e6:c0:22:dd:9b:dd:8a:5a:4e:bc:af:dd:70:a5:1c:
                    12:60:1c:7a:71:7c:65:8f:41:e0:5a:fb:c7:02:9a:
                    e1:ef:e1:d5:ab:31:fb:08:c8:f9:c9:d8:f1:7e:75:
                    59:79:27:26:0d:21:43:89:3a:67:ad:13:74:23:fa:
                    27:0f:b7:1a:68:65:67:b9:03
                Exponent: 65537 (0x10001)
        X509v3 extensions:
            X509v3 Basic Constraints: critical
                CA:FALSE
            X509v3 CRL Distribution Points: 
                URI:http://localhost:12001/file/0/pubCA1_ta4_crl.pem

    Signature Algorithm: sha256WithRSAEncryption
        26:89:7c:81:2d:20:13:0e:c3:0c:76:39:1f:9a:65:db:66:ac:
        75:75:cc:a3:23:8d:d7:37:b1:dd:91:5f:80:1a:46:79:6c:9a:
        9f:c3:36:84:0e:46:6c:26:48:f1:63:67:d5:fd:f9:de:e6:52:
        8f:a5:f1:3f:f6:06:ad:4d:4d:09:c2:64:21:ef:69:72:5c:bd:
        f7:be:95:8a:ad:e6:6f:a8:31:83:45:04:08:a1:37:ac:4f:d4:
        46:08:00:03:55:02:96:f8:f9:d7:db:06:94:fc:6a:06:65:a5:
        b3:52:b9:8a:cd:01:2c:f4:48:4c:b7:e3:16:23:0c:db:42:9c:
        e8:62
-----BEGIN CERTIFICATE-----
MIICrzCCAhigAwIBAgIBGDANBgkqhkiG9w0BAQsFADB2MQswCQYDVQQGEwJVUzET
MBEGA1UECBMKQ2FsaWZvcm5pYTETMBEGA1UEBxMKTWVubG8gUGFyazENMAsGA1UE
ChMEcGtnNTETMBEGA1UEAxQKcHViQ0ExX3RhNDEZMBcGCSqGSIb3DQEJARYKcHVi
Q0ExX3RhNDAeFw0xMDA4MDQyMDU5MjhaFw0xMzA0MzAyMDU5MjhaMHAxCzAJBgNV
BAYTAlVTMRMwEQYDVQQIEwpDYWxpZm9ybmlhMRMwEQYDVQQHEwpNZW5sbyBQYXJr
MQ0wCwYDVQQKEwRwa2c1MRAwDgYDVQQDFAdjczFfdGE0MRYwFAYJKoZIhvcNAQkB
FgdjczFfdGE0MIGfMA0GCSqGSIb3DQEBAQUAA4GNADCBiQKBgQCsAG33eoa7z8gG
mnF/aTpBLV3VZjGhL517ct8hRL4DY80+K/zjRo3fVMtxJybPY/ibn3NeRZ+5Xnha
7ebAIt2b3YpaTryv3XClHBJgHHpxfGWPQeBa+8cCmuHv4dWrMfsIyPnJ2PF+dVl5
JyYNIUOJOmetE3Qj+icPtxpoZWe5AwIDAQABo1MwUTAMBgNVHRMBAf8EAjAAMEEG
A1UdHwQ6MDgwNqA0oDKGMGh0dHA6Ly9sb2NhbGhvc3Q6MTIwMDEvZmlsZS8wL3B1
YkNBMV90YTRfY3JsLnBlbTANBgkqhkiG9w0BAQsFAAOBgQAmiXyBLSATDsMMdjkf
mmXbZqx1dcyjI43XN7HdkV+AGkZ5bJqfwzaEDkZsJkjxY2fV/fne5lKPpfE/9gat
TU0JwmQh72lyXL33vpWKreZvqDGDRQQIoTesT9RGCAADVQKW+PnX2waU/GoGZaWz
UrmKzQEs9EhMt+MWIwzbQpzoYg==
-----END CERTIFICATE-----
