Certificate:
    Data:
        Version: 3 (0x2)
        Serial Number: 15 (0xf)
    Signature Algorithm: sha256WithRSAEncryption
        Issuer: C=US, ST=California, L=Santa Clara, O=pkg5, CN=ta2/emailAddress=ta2
        Validity
            Not Before: Dec 13 00:13:35 2013 GMT
            Not After : Sep  8 00:13:35 2016 GMT
        Subject: C=US, ST=California, L=Santa Clara, O=pkg5, CN=cs1_ta2/emailAddress=cs1_ta2
        Subject Public Key Info:
            Public Key Algorithm: rsaEncryption
                Public-Key: (1024 bit)
                Modulus:
                    00:be:2d:d1:b2:aa:38:aa:c1:4f:f3:f7:07:f2:f3:
                    30:0c:6d:f7:13:ed:c3:c7:c8:f8:87:8d:ea:a3:49:
                    cf:74:dd:30:1b:1f:9d:a6:8e:b7:eb:fa:f5:f7:e5:
                    e0:05:9a:e4:b1:ed:2d:ee:ff:f8:ab:23:9a:f3:24:
                    ad:99:26:83:4d:e7:35:b7:c8:b1:60:3d:0c:44:e9:
                    2c:24:50:ee:86:5c:f0:ba:61:34:5d:f9:6c:a3:b7:
                    e3:16:0e:90:35:9e:05:15:99:32:ff:50:de:b5:e0:
                    66:88:e6:d5:0b:ae:16:a9:91:f5:86:c4:23:c9:7e:
                    f1:9d:2b:86:43:e6:fb:c1:a5
                Exponent: 65537 (0x10001)
        X509v3 extensions:
            X509v3 Basic Constraints: critical
                CA:FALSE
            X509v3 Key Usage: critical
                Digital Signature
    Signature Algorithm: sha256WithRSAEncryption
         10:82:e5:2b:f8:67:14:0c:22:0d:f4:4e:17:c5:d5:7f:3d:fa:
         24:2a:ad:33:47:ff:2a:f5:37:f6:83:81:2f:32:df:01:18:80:
         7a:00:0b:f5:37:f9:eb:de:b0:38:cc:38:94:94:83:76:38:bb:
         0e:0a:72:9b:2c:87:ce:8c:46:ef:68:f4:e0:a9:2f:cc:28:53:
         c3:ac:63:7d:2b:87:fb:76:7b:9e:98:c6:0e:80:9e:80:4e:40:
         b8:1e:2c:8b:c1:8b:cd:13:58:16:ea:aa:a0:0e:b6:b8:4b:a7:
         74:a1:0d:d9:41:70:44:1e:19:d2:25:4b:b1:52:65:40:32:b0:
         5d:3d
-----BEGIN CERTIFICATE-----
MIICcDCCAdmgAwIBAgIBDzANBgkqhkiG9w0BAQsFADBpMQswCQYDVQQGEwJVUzET
MBEGA1UECAwKQ2FsaWZvcm5pYTEUMBIGA1UEBwwLU2FudGEgQ2xhcmExDTALBgNV
BAoMBHBrZzUxDDAKBgNVBAMMA3RhMjESMBAGCSqGSIb3DQEJARYDdGEyMB4XDTEz
MTIxMzAwMTMzNVoXDTE2MDkwODAwMTMzNVowcTELMAkGA1UEBhMCVVMxEzARBgNV
BAgMCkNhbGlmb3JuaWExFDASBgNVBAcMC1NhbnRhIENsYXJhMQ0wCwYDVQQKDARw
a2c1MRAwDgYDVQQDDAdjczFfdGEyMRYwFAYJKoZIhvcNAQkBFgdjczFfdGEyMIGf
MA0GCSqGSIb3DQEBAQUAA4GNADCBiQKBgQC+LdGyqjiqwU/z9wfy8zAMbfcT7cPH
yPiHjeqjSc903TAbH52mjrfr+vX35eAFmuSx7S3u//irI5rzJK2ZJoNN5zW3yLFg
PQxE6SwkUO6GXPC6YTRd+Wyjt+MWDpA1ngUVmTL/UN614GaI5tULrhapkfWGxCPJ
fvGdK4ZD5vvBpQIDAQABoyAwHjAMBgNVHRMBAf8EAjAAMA4GA1UdDwEB/wQEAwIH
gDANBgkqhkiG9w0BAQsFAAOBgQAQguUr+GcUDCIN9E4XxdV/PfokKq0zR/8q9Tf2
g4EvMt8BGIB6AAv1N/nr3rA4zDiUlIN2OLsOCnKbLIfOjEbvaPTgqS/MKFPDrGN9
K4f7dnuemMYOgJ6ATkC4HiyLwYvNE1gW6qqgDra4S6d0oQ3ZQXBEHhnSJUuxUmVA
MrBdPQ==
-----END CERTIFICATE-----
