Certificate:
    Data:
        Version: 3 (0x2)
        Serial Number: 6 (0x6)
        Signature Algorithm: sha256WithRSAEncryption
        Issuer: C=US, ST=California, L=Menlo Park, O=pkg5, CN=ch5_ta1/emailAddress=ch5_ta1
        Validity
            Not Before: Apr 11 22:37:40 2011 GMT
            Not After : Jan  5 22:37:40 2014 GMT
        Subject: C=US, ST=California, L=Menlo Park, O=pkg5, CN=cs1_ch5_ta1/emailAddress=cs1_ch5_ta1
        Subject Public Key Info:
            Public Key Algorithm: rsaEncryption
            RSA Public Key: (1024 bit)
                Modulus (1024 bit):
                    00:e9:6c:6d:b5:1a:ef:fa:b5:f6:42:f6:7e:e6:f3:
                    3f:11:2f:a7:c9:10:14:67:c9:fb:4b:c4:2f:c4:25:
                    0d:a3:3c:66:0f:a0:1a:86:d5:19:48:e6:54:a3:a6:
                    8d:6a:a2:89:a9:a5:ed:e7:49:ae:20:95:39:0c:19:
                    41:87:e0:63:af:27:92:1d:55:b1:10:ea:b4:6d:5a:
                    e6:21:78:93:94:e2:06:e6:7d:c6:53:4e:d5:af:82:
                    08:a1:82:64:c1:57:78:7e:52:18:f6:38:f0:5e:8e:
                    09:ea:fa:fc:7d:f3:2d:87:5d:a9:8e:ef:87:7a:e5:
                    97:ef:7b:fb:b4:96:09:6b:17
                Exponent: 65537 (0x10001)
        X509v3 extensions:
            X509v3 Basic Constraints: critical
                CA:FALSE
            X509v3 Key Usage: critical
                Digital Signature
    Signature Algorithm: sha256WithRSAEncryption
        14:9a:25:22:78:e5:77:2e:7f:28:cb:57:a9:d8:22:b1:7a:f1:
        75:b9:79:3f:f3:7e:bc:eb:49:1e:35:0f:7a:20:f0:0a:f6:a1:
        eb:08:a1:be:4c:c7:98:22:5b:9f:f9:a6:9a:e2:4a:85:13:2a:
        f1:7f:da:cc:04:b1:13:d5:52:90:59:17:a8:f8:77:f8:ba:02:
        88:62:fb:9d:28:3f:0d:15:ad:79:3f:d0:a2:cb:a2:87:b7:e0:
        10:3a:a1:1b:4b:0c:79:f6:1e:b0:20:dc:0f:01:7e:c0:9c:86:
        91:6d:c4:06:4b:fb:3b:da:70:e0:1b:9b:f3:9d:2d:57:cb:16:
        26:4f
-----BEGIN CERTIFICATE-----
MIICfjCCAeegAwIBAgIBBjANBgkqhkiG9w0BAQsFADBwMQswCQYDVQQGEwJVUzET
MBEGA1UECBMKQ2FsaWZvcm5pYTETMBEGA1UEBxMKTWVubG8gUGFyazENMAsGA1UE
ChMEcGtnNTEQMA4GA1UEAxQHY2g1X3RhMTEWMBQGCSqGSIb3DQEJARYHY2g1X3Rh
MTAeFw0xMTA0MTEyMjM3NDBaFw0xNDAxMDUyMjM3NDBaMHgxCzAJBgNVBAYTAlVT
MRMwEQYDVQQIEwpDYWxpZm9ybmlhMRMwEQYDVQQHEwpNZW5sbyBQYXJrMQ0wCwYD
VQQKEwRwa2c1MRQwEgYDVQQDFAtjczFfY2g1X3RhMTEaMBgGCSqGSIb3DQEJARYL
Y3MxX2NoNV90YTEwgZ8wDQYJKoZIhvcNAQEBBQADgY0AMIGJAoGBAOlsbbUa7/q1
9kL2fubzPxEvp8kQFGfJ+0vEL8QlDaM8Zg+gGobVGUjmVKOmjWqiiaml7edJriCV
OQwZQYfgY68nkh1VsRDqtG1a5iF4k5TiBuZ9xlNO1a+CCKGCZMFXeH5SGPY48F6O
Cer6/H3zLYddqY7vh3rll+97+7SWCWsXAgMBAAGjIDAeMAwGA1UdEwEB/wQCMAAw
DgYDVR0PAQH/BAQDAgeAMA0GCSqGSIb3DQEBCwUAA4GBABSaJSJ45XcufyjLV6nY
IrF68XW5eT/zfrzrSR41D3og8Ar2oesIob5Mx5giW5/5ppriSoUTKvF/2swEsRPV
UpBZF6j4d/i6Aohi+50oPw0VrXk/0KLLooe34BA6oRtLDHn2HrAg3A8BfsCchpFt
xAZL+zvacOAbm/OdLVfLFiZP
-----END CERTIFICATE-----
