Certificate:
    Data:
        Version: 3 (0x2)
        Serial Number: 6 (0x6)
        Signature Algorithm: sha256WithRSAEncryption
        Issuer: C=US, ST=California, L=Menlo Park, O=pkg5, CN=ch5_ta1/emailAddress=ch5_ta1
        Validity
            Not Before: Mar 21 00:49:24 2011 GMT
            Not After : Dec 15 00:49:24 2013 GMT
        Subject: C=US, ST=California, L=Menlo Park, O=pkg5, CN=cs1_ch5_ta1/emailAddress=cs1_ch5_ta1
        Subject Public Key Info:
            Public Key Algorithm: rsaEncryption
            RSA Public Key: (1024 bit)
                Modulus (1024 bit):
                    00:b3:a4:c0:9b:2d:3a:3d:41:21:47:c3:96:e2:60:
                    e4:dd:24:83:4a:1c:91:4e:c0:30:f7:c1:8f:7b:87:
                    58:9a:ce:09:6f:9e:85:0d:cf:a9:33:ea:aa:4e:c8:
                    e6:60:1e:14:25:66:80:c9:e9:9c:1b:60:4a:dc:cb:
                    66:b0:03:38:bc:42:dc:0e:e1:da:d5:e8:25:20:75:
                    e9:3f:58:20:09:91:b0:b6:da:6f:aa:26:69:50:87:
                    3b:37:eb:a7:e7:66:b1:de:ad:57:78:98:cf:17:59:
                    7e:10:b6:da:ca:58:7d:45:14:8a:f1:0f:f1:af:5b:
                    00:26:36:af:1e:0d:29:47:65
                Exponent: 65537 (0x10001)
        X509v3 extensions:
            X509v3 Basic Constraints: critical
                CA:FALSE
            X509v3 Key Usage: critical
                Digital Signature
    Signature Algorithm: sha256WithRSAEncryption
        cb:cf:66:b0:f1:ff:e3:9f:6a:e8:36:19:07:ee:4a:88:72:25:
        41:e5:27:33:e1:2d:81:e0:23:d8:16:1a:db:b7:a2:ad:30:81:
        b4:19:e6:0d:7a:30:c6:11:8e:c0:e3:89:b9:c8:67:66:17:fa:
        28:96:74:30:7b:74:0e:1e:71:b9:fb:6a:34:24:7b:f6:69:bb:
        36:c9:00:63:86:4b:49:16:74:6c:64:69:55:ce:bb:15:fb:fd:
        89:78:72:d3:47:d2:12:ad:c0:43:f6:56:c2:77:9e:68:04:6c:
        30:4a:28:06:7b:a7:74:2a:3a:8a:b8:7d:41:2b:aa:61:93:28:
        97:75
-----BEGIN CERTIFICATE-----
MIICfjCCAeegAwIBAgIBBjANBgkqhkiG9w0BAQsFADBwMQswCQYDVQQGEwJVUzET
MBEGA1UECBMKQ2FsaWZvcm5pYTETMBEGA1UEBxMKTWVubG8gUGFyazENMAsGA1UE
ChMEcGtnNTEQMA4GA1UEAxQHY2g1X3RhMTEWMBQGCSqGSIb3DQEJARYHY2g1X3Rh
MTAeFw0xMTAzMjEwMDQ5MjRaFw0xMzEyMTUwMDQ5MjRaMHgxCzAJBgNVBAYTAlVT
MRMwEQYDVQQIEwpDYWxpZm9ybmlhMRMwEQYDVQQHEwpNZW5sbyBQYXJrMQ0wCwYD
VQQKEwRwa2c1MRQwEgYDVQQDFAtjczFfY2g1X3RhMTEaMBgGCSqGSIb3DQEJARYL
Y3MxX2NoNV90YTEwgZ8wDQYJKoZIhvcNAQEBBQADgY0AMIGJAoGBALOkwJstOj1B
IUfDluJg5N0kg0ockU7AMPfBj3uHWJrOCW+ehQ3PqTPqqk7I5mAeFCVmgMnpnBtg
StzLZrADOLxC3A7h2tXoJSB16T9YIAmRsLbab6omaVCHOzfrp+dmsd6tV3iYzxdZ
fhC22spYfUUUivEP8a9bACY2rx4NKUdlAgMBAAGjIDAeMAwGA1UdEwEB/wQCMAAw
DgYDVR0PAQH/BAQDAgeAMA0GCSqGSIb3DQEBCwUAA4GBAMvPZrDx/+Ofaug2GQfu
SohyJUHlJzPhLYHgI9gWGtu3oq0wgbQZ5g16MMYRjsDjibnIZ2YX+iiWdDB7dA4e
cbn7ajQke/ZpuzbJAGOGS0kWdGxkaVXOuxX7/Yl4ctNH0hKtwEP2VsJ3nmgEbDBK
KAZ7p3QqOoq4fUErqmGTKJd1
-----END CERTIFICATE-----
