Certificate:
    Data:
        Version: 3 (0x2)
        Serial Number: 9 (0x9)
    Signature Algorithm: sha256WithRSAEncryption
        Issuer: C=US, ST=California, L=Santa Clara, O=pkg5, CN=ch5.1_ta1/emailAddress=ch5.1_ta1
        Validity
            Not Before: Jan 22 15:33:07 2019 GMT
            Not After : Oct 18 15:33:07 2021 GMT
        Subject: C=US, ST=California, L=Santa Clara, O=pkg5, CN=cs1_ch5.1_ta1/emailAddress=cs1_ch5.1_ta1
        Subject Public Key Info:
            Public Key Algorithm: rsaEncryption
                Public-Key: (1024 bit)
                Modulus:
                    00:be:28:a1:82:b2:a3:49:30:83:e7:ff:b1:83:b0:
                    29:0b:16:b5:b2:1f:f0:35:0a:95:7f:26:56:94:f2:
                    dd:ce:19:04:33:30:50:86:6b:42:00:29:2e:87:b9:
                    25:b3:7e:ca:54:fd:45:32:ab:4a:a5:e3:e9:51:56:
                    11:0c:e2:1c:f8:cd:6a:32:ba:d0:37:ea:f6:fc:74:
                    50:7f:28:84:e8:1f:12:84:29:c4:3b:c0:31:a5:cf:
                    22:24:63:06:8a:0b:06:28:9e:7a:5b:71:88:96:31:
                    ef:c8:4e:0d:fb:2d:e7:3f:ae:82:3e:c5:e1:f9:0c:
                    f3:e4:40:38:5d:99:c0:44:19
                Exponent: 65537 (0x10001)
        X509v3 extensions:
            X509v3 Basic Constraints: critical
                CA:FALSE
            X509v3 Key Usage: critical
                Digital Signature
    Signature Algorithm: sha256WithRSAEncryption
         93:b6:b1:94:db:42:8c:da:3b:55:cf:76:ab:17:0c:e3:e7:da:
         11:77:bc:e5:4b:7f:85:9e:bb:aa:f5:31:45:64:92:ff:b7:65:
         ad:e4:0f:dc:ae:ba:1e:61:f4:37:9f:23:59:21:e2:ef:aa:15:
         fb:ab:f8:0c:4b:80:ae:30:14:4b:f4:68:54:fb:12:f6:42:16:
         a2:7b:11:b3:d0:1f:e5:02:b1:03:33:77:be:42:67:c3:f9:41:
         db:33:8c:54:27:10:f2:46:06:43:be:4a:e1:27:79:15:e6:cc:
         a5:59:1d:47:88:82:b6:3a:f2:de:d2:d6:eb:d7:71:6c:71:4b:
         7a:bb:34:0e:d7:ff:94:96:22:4e:49:a7:31:c9:8e:43:96:91:
         91:f9:a1:17:15:58:f2:d6:3e:ca:a9:b0:e8:d8:3d:39:70:a8:
         d3:a2:40:9c:72:5e:10:82:c3:33:6d:cd:cb:91:85:51:6f:c4:
         6e:44:5b:72:80:3e:0e:d2:a3:21:6e:aa:dd:96:e8:aa:6f:9f:
         bb:48:2f:0f:ca:9f:5d:ec:27:69:6b:6c:b4:23:5a:46:f3:da:
         4d:72:75:18:fa:9e:c6:50:c9:05:54:ed:08:db:9f:47:88:a4:
         70:e3:10:2a:5a:d1:fc:ab:6a:62:ec:35:e3:20:81:9d:bb:bb:
         eb:58:a0:49
-----BEGIN CERTIFICATE-----
MIIDCTCCAfGgAwIBAgIBCTANBgkqhkiG9w0BAQsFADB1MQswCQYDVQQGEwJVUzET
MBEGA1UECAwKQ2FsaWZvcm5pYTEUMBIGA1UEBwwLU2FudGEgQ2xhcmExDTALBgNV
BAoMBHBrZzUxEjAQBgNVBAMMCWNoNS4xX3RhMTEYMBYGCSqGSIb3DQEJARYJY2g1
LjFfdGExMB4XDTE5MDEyMjE1MzMwN1oXDTIxMTAxODE1MzMwN1owfTELMAkGA1UE
BhMCVVMxEzARBgNVBAgMCkNhbGlmb3JuaWExFDASBgNVBAcMC1NhbnRhIENsYXJh
MQ0wCwYDVQQKDARwa2c1MRYwFAYDVQQDDA1jczFfY2g1LjFfdGExMRwwGgYJKoZI
hvcNAQkBFg1jczFfY2g1LjFfdGExMIGfMA0GCSqGSIb3DQEBAQUAA4GNADCBiQKB
gQC+KKGCsqNJMIPn/7GDsCkLFrWyH/A1CpV/JlaU8t3OGQQzMFCGa0IAKS6HuSWz
fspU/UUyq0ql4+lRVhEM4hz4zWoyutA36vb8dFB/KIToHxKEKcQ7wDGlzyIkYwaK
CwYonnpbcYiWMe/ITg37Lec/roI+xeH5DPPkQDhdmcBEGQIDAQABoyAwHjAMBgNV
HRMBAf8EAjAAMA4GA1UdDwEB/wQEAwIHgDANBgkqhkiG9w0BAQsFAAOCAQEAk7ax
lNtCjNo7Vc92qxcM4+faEXe85Ut/hZ67qvUxRWSS/7dlreQP3K66HmH0N58jWSHi
76oV+6v4DEuArjAUS/RoVPsS9kIWonsRs9Af5QKxAzN3vkJnw/lB2zOMVCcQ8kYG
Q75K4Sd5FebMpVkdR4iCtjry3tLW69dxbHFLers0Dtf/lJYiTkmnMcmOQ5aRkfmh
FxVY8tY+yqmw6Ng9OXCo06JAnHJeEILDM23Ny5GFUW/EbkRbcoA+DtKjIW6q3Zbo
qm+fu0gvD8qfXewnaWtstCNaRvPaTXJ1GPqexlDJBVTtCNufR4ikcOMQKlrR/Ktq
Yuw14yCBnbu761igSQ==
-----END CERTIFICATE-----
