Certificate:
    Data:
        Version: 3 (0x2)
        Serial Number: 42 (0x2a)
    Signature Algorithm: sha256WithRSAEncryption
        Issuer: C=US, ST=California, L=Santa Clara, O=pkg5, CN=ch1_ta5/emailAddress=ch1_ta5
        Validity
            Not Before: Jan 22 01:58:00 2016 GMT
            Not After : Oct 18 01:58:00 2018 GMT
        Subject: C=US, ST=California, L=Santa Clara, O=pkg5, CN=cs1_ch1_ta5/emailAddress=cs1_ch1_ta5
        Subject Public Key Info:
            Public Key Algorithm: rsaEncryption
                Public-Key: (1024 bit)
                Modulus:
                    00:d2:2e:4b:9f:9b:e7:d9:9e:78:ee:25:ff:27:32:
                    4e:3c:f3:f3:c7:89:08:64:3f:d1:86:ab:38:b9:3b:
                    07:b3:cc:87:12:41:e1:7b:7c:75:09:05:21:d1:3c:
                    88:52:be:64:e1:10:39:c0:f7:74:3d:69:e2:92:a8:
                    5e:8c:3d:0c:39:bd:a5:d0:ef:c5:ba:9a:9d:f8:b6:
                    2f:5c:9e:0a:7f:8f:c6:5e:e5:83:2a:6a:3e:db:42:
                    5c:06:d6:14:b0:de:04:3e:f3:00:3b:9a:bf:bc:0d:
                    d3:fa:ed:41:81:c1:b5:12:ae:99:69:90:f8:fe:11:
                    09:dd:9f:2e:0b:92:ac:ba:ab
                Exponent: 65537 (0x10001)
        X509v3 extensions:
            X509v3 Basic Constraints: critical
                CA:FALSE
            X509v3 Key Usage: critical
                Digital Signature
    Signature Algorithm: sha256WithRSAEncryption
         b4:cb:b5:3b:b7:85:de:47:5d:18:f8:1c:a6:e8:7e:0a:47:3a:
         ff:b1:77:dd:d1:c9:85:87:32:bb:a8:e2:26:35:20:65:b0:72:
         d9:91:d6:94:68:b9:86:35:ae:26:db:6f:12:f9:54:ca:a0:a5:
         fb:d8:67:ed:de:0d:bc:c3:37:a0:de:9b:19:15:2c:b0:f6:e7:
         58:70:9c:81:78:3c:22:97:cf:4e:5f:75:6b:d2:e3:6b:4e:e0:
         b9:b2:eb:88:3e:5d:85:88:c7:60:62:c0:c2:ed:0a:e1:fb:9b:
         b9:30:94:5f:07:67:a8:bc:88:3a:36:43:45:7c:20:5c:4c:84:
         e6:04:ad:10:44:82:e9:3a:5b:bb:04:bd:61:a6:d7:aa:f3:c5:
         80:26:6e:7a:e1:d4:04:fb:10:7c:4c:fa:13:ae:95:80:f2:f8:
         cb:21:56:4b:88:8b:16:d8:32:4c:7c:50:17:2b:2e:59:65:ff:
         ca:13:62:a8:94:60:4d:95:0b:a2:47:a3:d8:87:99:2b:52:f0:
         a2:ef:f9:fe:e0:dc:4f:51:c5:ce:08:7e:00:2c:e1:0a:d4:08:
         33:2c:6a:56:63:2d:5f:6c:2f:f3:16:da:c7:df:aa:09:39:9e:
         36:8d:80:0b:bd:c6:b7:47:38:53:65:00:d2:26:01:c6:7c:17:
         7c:49:b4:96
-----BEGIN CERTIFICATE-----
MIIDATCCAemgAwIBAgIBKjANBgkqhkiG9w0BAQsFADBxMQswCQYDVQQGEwJVUzET
MBEGA1UECAwKQ2FsaWZvcm5pYTEUMBIGA1UEBwwLU2FudGEgQ2xhcmExDTALBgNV
BAoMBHBrZzUxEDAOBgNVBAMMB2NoMV90YTUxFjAUBgkqhkiG9w0BCQEWB2NoMV90
YTUwHhcNMTYwMTIyMDE1ODAwWhcNMTgxMDE4MDE1ODAwWjB5MQswCQYDVQQGEwJV
UzETMBEGA1UECAwKQ2FsaWZvcm5pYTEUMBIGA1UEBwwLU2FudGEgQ2xhcmExDTAL
BgNVBAoMBHBrZzUxFDASBgNVBAMMC2NzMV9jaDFfdGE1MRowGAYJKoZIhvcNAQkB
FgtjczFfY2gxX3RhNTCBnzANBgkqhkiG9w0BAQEFAAOBjQAwgYkCgYEA0i5Ln5vn
2Z547iX/JzJOPPPzx4kIZD/Rhqs4uTsHs8yHEkHhe3x1CQUh0TyIUr5k4RA5wPd0
PWnikqhejD0MOb2l0O/Fupqd+LYvXJ4Kf4/GXuWDKmo+20JcBtYUsN4EPvMAO5q/
vA3T+u1BgcG1Eq6ZaZD4/hEJ3Z8uC5KsuqsCAwEAAaMgMB4wDAYDVR0TAQH/BAIw
ADAOBgNVHQ8BAf8EBAMCB4AwDQYJKoZIhvcNAQELBQADggEBALTLtTu3hd5HXRj4
HKbofgpHOv+xd93RyYWHMruo4iY1IGWwctmR1pRouYY1ribbbxL5VMqgpfvYZ+3e
DbzDN6DemxkVLLD251hwnIF4PCKXz05fdWvS42tO4Lmy64g+XYWIx2BiwMLtCuH7
m7kwlF8HZ6i8iDo2Q0V8IFxMhOYErRBEguk6W7sEvWGm16rzxYAmbnrh1AT7EHxM
+hOulYDy+MshVkuIixbYMkx8UBcrLlll/8oTYqiUYE2VC6JHo9iHmStS8KLv+f7g
3E9Rxc4IfgAs4QrUCDMsalZjLV9sL/MW2sffqgk5njaNgAu9xrdHOFNlANImAcZ8
F3xJtJY=
-----END CERTIFICATE-----
