Certificate:
    Data:
        Version: 3 (0x2)
        Serial Number: 39 (0x27)
    Signature Algorithm: sha256WithRSAEncryption
        Issuer: C=US, ST=California, L=Santa Clara, O=pkg5, CN=ch1.1_ta4/emailAddress=ch1.1_ta4
        Validity
            Not Before: Sep 22 05:33:32 2021 GMT
            Not After : Jun 18 05:33:32 2024 GMT
        Subject: C=US, ST=California, L=Santa Clara, O=pkg5, CN=cs1_ch1.1_ta4/emailAddress=cs1_ch1.1_ta4
        Subject Public Key Info:
            Public Key Algorithm: rsaEncryption
                Public-Key: (1024 bit)
                Modulus:
                    00:bc:c7:59:c3:14:f7:e8:71:24:d7:f5:aa:91:39:
                    6f:5e:ed:c2:1a:0f:45:c6:e7:b4:3d:4b:09:01:a3:
                    e0:e3:b7:b2:6d:a2:8e:0c:73:bc:fb:a1:03:f3:d7:
                    57:ff:8f:0c:c5:6a:11:64:90:7b:59:ca:9a:0f:ac:
                    7d:39:dd:2e:89:d6:4f:b4:19:e3:12:50:54:55:5c:
                    ad:dd:e3:e2:be:86:a8:d5:cd:be:cb:2f:73:7d:17:
                    f6:a8:cb:33:2f:ba:92:d8:99:7f:a0:b6:83:d7:13:
                    b8:90:3d:e2:f9:5e:b1:ea:01:cc:fb:95:28:dc:50:
                    bf:cd:23:e7:fe:bf:09:4c:29
                Exponent: 65537 (0x10001)
        X509v3 extensions:
            X509v3 Basic Constraints: critical
                CA:FALSE
            X509v3 CRL Distribution Points: 

                Full Name:
                  URI:http://localhost:12001/file/0/ch1.1_ta4_crl.pem

    Signature Algorithm: sha256WithRSAEncryption
         0c:72:80:6d:5f:a5:48:1d:f3:df:75:62:dc:8b:a2:f4:a4:60:
         db:32:68:73:31:c7:96:fe:21:b8:bf:6c:1b:c9:c0:e0:bb:db:
         f0:bb:7a:5c:dd:75:81:07:27:6a:dd:44:b6:5c:05:ec:87:62:
         d1:8b:d5:6d:40:8c:91:0e:d0:ea:c2:a7:7e:65:0c:dc:59:27:
         96:9f:5b:db:cd:75:18:7c:a1:be:ea:44:95:3c:88:c4:b8:20:
         d9:38:b7:d7:a1:be:19:21:c8:73:d7:c3:8e:3c:fe:b1:a2:c6:
         31:a7:df:f1:e6:96:ea:44:84:10:36:a9:7d:28:30:d1:58:61:
         64:fb:e8:62:3b:8b:46:f2:86:05:d5:2a:0b:36:7c:f4:96:bf:
         76:d7:12:5e:d1:24:32:a2:d3:ac:e4:5c:a5:b4:4d:67:4e:11:
         2d:b4:98:aa:80:d4:f9:6e:c5:50:0b:7b:de:43:af:49:b9:53:
         08:5c:76:ae:0a:39:51:29:20:89:ab:f0:aa:c8:35:69:10:0f:
         ad:30:1c:04:7f:41:0a:60:9b:43:0e:90:a2:0f:3c:56:ea:f4:
         ae:22:fc:33:fe:aa:30:55:17:53:f5:a7:e0:f3:0c:89:5b:e6:
         f0:4e:86:a3:6b:a3:20:07:2b:f1:55:0b:17:ee:24:ea:2c:92:
         23:5a:60:2a
-----BEGIN CERTIFICATE-----
MIIDOzCCAiOgAwIBAgIBJzANBgkqhkiG9w0BAQsFADB1MQswCQYDVQQGEwJVUzET
MBEGA1UECAwKQ2FsaWZvcm5pYTEUMBIGA1UEBwwLU2FudGEgQ2xhcmExDTALBgNV
BAoMBHBrZzUxEjAQBgNVBAMMCWNoMS4xX3RhNDEYMBYGCSqGSIb3DQEJARYJY2gx
LjFfdGE0MB4XDTIxMDkyMjA1MzMzMloXDTI0MDYxODA1MzMzMlowfTELMAkGA1UE
BhMCVVMxEzARBgNVBAgMCkNhbGlmb3JuaWExFDASBgNVBAcMC1NhbnRhIENsYXJh
MQ0wCwYDVQQKDARwa2c1MRYwFAYDVQQDDA1jczFfY2gxLjFfdGE0MRwwGgYJKoZI
hvcNAQkBFg1jczFfY2gxLjFfdGE0MIGfMA0GCSqGSIb3DQEBAQUAA4GNADCBiQKB
gQC8x1nDFPfocSTX9aqROW9e7cIaD0XG57Q9SwkBo+Djt7Jtoo4Mc7z7oQPz11f/
jwzFahFkkHtZypoPrH053S6J1k+0GeMSUFRVXK3d4+K+hqjVzb7LL3N9F/aoyzMv
upLYmX+gtoPXE7iQPeL5XrHqAcz7lSjcUL/NI+f+vwlMKQIDAQABo1IwUDAMBgNV
HRMBAf8EAjAAMEAGA1UdHwQ5MDcwNaAzoDGGL2h0dHA6Ly9sb2NhbGhvc3Q6MTIw
MDEvZmlsZS8wL2NoMS4xX3RhNF9jcmwucGVtMA0GCSqGSIb3DQEBCwUAA4IBAQAM
coBtX6VIHfPfdWLci6L0pGDbMmhzMceW/iG4v2wbycDgu9vwu3pc3XWBBydq3US2
XAXsh2LRi9VtQIyRDtDqwqd+ZQzcWSeWn1vbzXUYfKG+6kSVPIjEuCDZOLfXob4Z
Ichz18OOPP6xosYxp9/x5pbqRIQQNql9KDDRWGFk++hiO4tG8oYF1SoLNnz0lr92
1xJe0SQyotOs5FyltE1nThEttJiqgNT5bsVQC3veQ69JuVMIXHauCjlRKSCJq/Cq
yDVpEA+tMBwEf0EKYJtDDpCiDzxW6vSuIvwz/qowVRdT9afg8wyJW+bwToaja6Mg
ByvxVQsX7iTqLJIjWmAq
-----END CERTIFICATE-----
