Certificate:
    Data:
        Version: 3 (0x2)
        Serial Number: 45 (0x2d)
        Signature Algorithm: sha256WithRSAEncryption
        Issuer: C=US, ST=California, L=Menlo Park, O=pkg5, OU=ta9, CN=localhost/emailAddress=ta9
        Validity
            Not Before: Apr 11 22:37:55 2011 GMT
            Not After : Jan  5 22:37:55 2014 GMT
        Subject: C=US, ST=California, L=Menlo Park, O=pkg5, OU=cs1_ta9, CN=localhost/emailAddress=cs1_ta9
        Subject Public Key Info:
            Public Key Algorithm: rsaEncryption
            RSA Public Key: (1024 bit)
                Modulus (1024 bit):
                    00:a6:51:e1:02:04:84:16:9a:a9:17:63:51:f6:f2:
                    b9:d4:54:53:8d:71:8b:2f:98:f8:0e:a8:fb:41:f4:
                    7a:d3:74:9d:35:5b:58:e3:c8:46:13:86:67:8f:aa:
                    9d:b0:c0:9e:0d:17:4a:f4:48:76:43:3e:ce:34:b6:
                    d3:90:6d:77:42:ad:dc:50:aa:17:82:a4:0e:17:67:
                    d7:b7:a2:11:ce:23:90:b2:24:1c:13:4d:f1:fb:33:
                    e6:f1:e7:54:09:ae:ad:cb:27:e8:ae:0b:fc:d9:14:
                    cd:c5:93:db:95:1f:13:cb:16:c0:a7:46:a3:66:53:
                    8e:24:df:26:85:f1:72:27:03
                Exponent: 65537 (0x10001)
        X509v3 extensions:
            X509v3 Basic Constraints: critical
                CA:FALSE
            X509v3 Key Usage: critical
                Digital Signature
    Signature Algorithm: sha256WithRSAEncryption
        cb:2d:8d:51:65:6e:b3:e4:70:dd:e3:ac:40:35:41:f2:b2:69:
        35:50:32:f1:04:6d:94:f6:ff:32:5a:77:22:d3:6f:8f:57:87:
        7f:5a:ac:99:a4:8c:2a:e9:b5:1c:5b:58:ea:f7:63:b6:e3:8a:
        c7:b2:9e:e3:37:e7:8c:c5:01:0a:0c:a6:48:31:6e:0a:d4:6d:
        ec:da:77:07:a9:3c:ea:87:b7:5a:58:39:a7:37:00:ee:5b:8c:
        a6:53:d9:b9:59:85:48:51:ea:49:cd:5b:ec:a6:ea:e7:07:dc:
        5e:7e:79:db:e7:d6:be:94:ec:91:64:3c:ae:16:8d:a5:80:29:
        48:39
-----BEGIN CERTIFICATE-----
MIIClzCCAgCgAwIBAgIBLTANBgkqhkiG9w0BAQsFADB8MQswCQYDVQQGEwJVUzET
MBEGA1UECBMKQ2FsaWZvcm5pYTETMBEGA1UEBxMKTWVubG8gUGFyazENMAsGA1UE
ChMEcGtnNTEMMAoGA1UECxMDdGE5MRIwEAYDVQQDEwlsb2NhbGhvc3QxEjAQBgkq
hkiG9w0BCQEWA3RhOTAeFw0xMTA0MTEyMjM3NTVaFw0xNDAxMDUyMjM3NTVaMIGE
MQswCQYDVQQGEwJVUzETMBEGA1UECBMKQ2FsaWZvcm5pYTETMBEGA1UEBxMKTWVu
bG8gUGFyazENMAsGA1UEChMEcGtnNTEQMA4GA1UECxQHY3MxX3RhOTESMBAGA1UE
AxMJbG9jYWxob3N0MRYwFAYJKoZIhvcNAQkBFgdjczFfdGE5MIGfMA0GCSqGSIb3
DQEBAQUAA4GNADCBiQKBgQCmUeECBIQWmqkXY1H28rnUVFONcYsvmPgOqPtB9HrT
dJ01W1jjyEYThmePqp2wwJ4NF0r0SHZDPs40ttOQbXdCrdxQqheCpA4XZ9e3ohHO
I5CyJBwTTfH7M+bx51QJrq3LJ+iuC/zZFM3Fk9uVHxPLFsCnRqNmU44k3yaF8XIn
AwIDAQABoyAwHjAMBgNVHRMBAf8EAjAAMA4GA1UdDwEB/wQEAwIHgDANBgkqhkiG
9w0BAQsFAAOBgQDLLY1RZW6z5HDd46xANUHysmk1UDLxBG2U9v8yWnci02+PV4d/
WqyZpIwq6bUcW1jq92O244rHsp7jN+eMxQEKDKZIMW4K1G3s2ncHqTzqh7daWDmn
NwDuW4ymU9m5WYVIUepJzVvspurnB9xefnnb59a+lOyRZDyuFo2lgClIOQ==
-----END CERTIFICATE-----
