Certificate:
    Data:
        Version: 3 (0x2)
        Serial Number: 31 (0x1f)
    Signature Algorithm: sha256WithRSAEncryption
        Issuer: C=US, ST=California, L=Santa Clara, O=pkg5, CN=ch1.3_ta3/emailAddress=ch1.3_ta3
        Validity
            Not Before: Mar 18 23:38:22 2016 GMT
            Not After : Dec 13 23:38:22 2018 GMT
        Subject: C=US, ST=California, L=Santa Clara, O=pkg5, CN=cs1_ch1.3_ta3/emailAddress=cs1_ch1.3_ta3
        Subject Public Key Info:
            Public Key Algorithm: rsaEncryption
                Public-Key: (1024 bit)
                Modulus:
                    00:bc:e0:ca:40:26:99:03:00:01:d5:3f:70:8a:91:
                    60:b2:fc:07:a3:be:41:8e:70:6d:69:d2:71:41:45:
                    55:e7:3a:a2:93:ef:9b:26:2c:48:85:72:78:00:1f:
                    3b:2e:62:34:cb:39:cd:43:80:e7:3d:8a:82:88:af:
                    e1:0a:86:64:4a:19:8b:5d:38:5a:1b:97:6e:37:0b:
                    02:b6:4a:07:ce:a1:86:28:ff:4b:36:d2:7f:f6:45:
                    fc:94:ee:f9:ab:db:ba:56:e7:c1:25:59:2e:23:18:
                    09:02:5f:08:4e:18:49:c7:27:20:93:a2:76:3e:f8:
                    3d:9d:2f:67:46:3e:e2:06:ed
                Exponent: 65537 (0x10001)
        X509v3 extensions:
            X509v3 Basic Constraints: critical
                CA:FALSE
            X509v3 Key Usage: critical
                Digital Signature
    Signature Algorithm: sha256WithRSAEncryption
         a1:7f:25:60:4a:4a:7e:43:84:b8:fa:19:55:49:ff:12:e9:ab:
         c2:94:53:74:88:2b:aa:d8:69:21:43:e5:6c:b9:4d:04:6d:a3:
         b5:c0:7d:7b:fa:96:d8:46:37:ba:8c:1c:cc:ff:c2:60:23:cb:
         ff:7c:ef:c0:0a:f0:33:18:f6:9e:47:7a:97:d3:05:2b:48:1f:
         3a:7b:16:f7:7f:84:75:55:13:f1:fb:db:3a:48:03:7c:8a:38:
         c6:2f:96:3a:89:3f:fc:9a:07:b8:1d:be:9f:44:64:6b:42:03:
         4d:91:74:b5:aa:09:6a:b2:b2:17:f2:6a:cf:2c:c3:af:8f:a0:
         c5:20:12:2c:44:6d:3f:03:ea:64:3b:5b:f9:b9:61:45:18:e7:
         96:3a:16:98:98:3a:a6:0a:6b:e0:8d:4c:df:cd:8f:1b:81:67:
         3e:3d:05:a8:69:16:8f:f3:e5:ea:04:78:a8:22:51:95:b9:bd:
         5a:36:23:d6:62:6a:ce:3a:78:5a:71:12:a9:0e:c0:0a:4e:d0:
         b7:0d:9d:71:bd:82:81:ab:7f:ee:0f:bf:bd:7f:c3:10:a7:11:
         d8:e5:aa:95:1f:9a:cd:92:e6:9d:63:79:17:35:44:70:05:b3:
         84:17:61:7c:83:24:2d:da:7c:24:62:07:df:49:3a:32:ae:14:
         20:25:f9:9b
-----BEGIN CERTIFICATE-----
MIIDCTCCAfGgAwIBAgIBHzANBgkqhkiG9w0BAQsFADB1MQswCQYDVQQGEwJVUzET
MBEGA1UECAwKQ2FsaWZvcm5pYTEUMBIGA1UEBwwLU2FudGEgQ2xhcmExDTALBgNV
BAoMBHBrZzUxEjAQBgNVBAMMCWNoMS4zX3RhMzEYMBYGCSqGSIb3DQEJARYJY2gx
LjNfdGEzMB4XDTE2MDMxODIzMzgyMloXDTE4MTIxMzIzMzgyMlowfTELMAkGA1UE
BhMCVVMxEzARBgNVBAgMCkNhbGlmb3JuaWExFDASBgNVBAcMC1NhbnRhIENsYXJh
MQ0wCwYDVQQKDARwa2c1MRYwFAYDVQQDDA1jczFfY2gxLjNfdGEzMRwwGgYJKoZI
hvcNAQkBFg1jczFfY2gxLjNfdGEzMIGfMA0GCSqGSIb3DQEBAQUAA4GNADCBiQKB
gQC84MpAJpkDAAHVP3CKkWCy/AejvkGOcG1p0nFBRVXnOqKT75smLEiFcngAHzsu
YjTLOc1DgOc9ioKIr+EKhmRKGYtdOFobl243CwK2SgfOoYYo/0s20n/2RfyU7vmr
27pW58ElWS4jGAkCXwhOGEnHJyCTonY++D2dL2dGPuIG7QIDAQABoyAwHjAMBgNV
HRMBAf8EAjAAMA4GA1UdDwEB/wQEAwIHgDANBgkqhkiG9w0BAQsFAAOCAQEAoX8l
YEpKfkOEuPoZVUn/EumrwpRTdIgrqthpIUPlbLlNBG2jtcB9e/qW2EY3uowczP/C
YCPL/3zvwArwMxj2nkd6l9MFK0gfOnsW93+EdVUT8fvbOkgDfIo4xi+WOok//JoH
uB2+n0Rka0IDTZF0taoJarKyF/JqzyzDr4+gxSASLERtPwPqZDtb+blhRRjnljoW
mJg6pgpr4I1M382PG4FnPj0FqGkWj/Pl6gR4qCJRlbm9WjYj1mJqzjp4WnESqQ7A
Ck7Qtw2dcb2Cgat/7g+/vX/DEKcR2OWqlR+azZLmnWN5FzVEcAWzhBdhfIMkLdp8
JGIH30k6Mq4UICX5mw==
-----END CERTIFICATE-----
