Certificate:
    Data:
        Version: 3 (0x2)
        Serial Number: 46 (0x2e)
        Signature Algorithm: sha256WithRSAEncryption
        Issuer: C=US, ST=California, L=Menlo Park, O=pkg5, OU=ta10, CN=localhost/emailAddress=ta10
        Validity
            Not Before: Apr 11 22:37:55 2011 GMT
            Not After : Jan  5 22:37:55 2014 GMT
        Subject: C=US, ST=California, L=Menlo Park, O=pkg5, OU=cs1_ta10, CN=localhost/emailAddress=cs1_ta10
        Subject Public Key Info:
            Public Key Algorithm: rsaEncryption
            RSA Public Key: (1024 bit)
                Modulus (1024 bit):
                    00:b2:6d:bc:ff:c2:ff:ef:b8:49:75:6b:8c:d4:5a:
                    8c:de:94:66:55:60:46:1e:dc:0d:fd:e1:95:62:91:
                    5c:11:1e:0e:2c:19:e2:e5:97:93:e5:dc:91:28:ac:
                    83:69:8d:3a:86:2d:a1:e9:e6:17:b1:49:e8:98:49:
                    af:5d:bb:0e:12:66:53:a2:d7:11:25:cf:1b:71:c2:
                    f7:ad:50:7b:67:d1:2a:44:99:21:25:44:5f:f4:2d:
                    a5:15:69:a2:12:ab:41:38:1c:c0:f0:9e:cc:49:30:
                    91:38:6a:1e:e9:72:0d:f9:aa:0a:b9:32:dd:01:f2:
                    6b:91:72:f6:4e:84:ab:fa:73
                Exponent: 65537 (0x10001)
        X509v3 extensions:
            X509v3 Basic Constraints: critical
                CA:FALSE
            X509v3 Key Usage: critical
                Digital Signature
    Signature Algorithm: sha256WithRSAEncryption
        09:46:77:32:eb:db:bb:3a:3f:98:4c:b7:3b:ae:ed:1e:dc:d8:
        e6:cd:ea:e7:1d:33:e0:a0:b3:14:18:45:1d:a2:dd:62:ea:6b:
        47:0d:26:a5:fa:17:10:94:5f:87:1a:3b:97:e1:72:3b:9c:71:
        a8:b6:1e:33:28:cf:a7:ea:c1:d0:7e:8f:f0:de:80:1b:9f:3f:
        23:4a:3c:0c:f5:6e:ad:9b:9b:87:32:93:43:c1:5f:4d:3b:23:
        89:22:27:7d:89:67:f7:e4:e5:3d:48:ae:4d:53:6e:85:81:30:
        6b:be:d1:dd:4d:f4:16:7d:3f:07:42:fc:f4:6e:86:14:f3:c7:
        cd:45
-----BEGIN CERTIFICATE-----
MIICmzCCAgSgAwIBAgIBLjANBgkqhkiG9w0BAQsFADB+MQswCQYDVQQGEwJVUzET
MBEGA1UECBMKQ2FsaWZvcm5pYTETMBEGA1UEBxMKTWVubG8gUGFyazENMAsGA1UE
ChMEcGtnNTENMAsGA1UECxMEdGExMDESMBAGA1UEAxMJbG9jYWxob3N0MRMwEQYJ
KoZIhvcNAQkBFgR0YTEwMB4XDTExMDQxMTIyMzc1NVoXDTE0MDEwNTIyMzc1NVow
gYYxCzAJBgNVBAYTAlVTMRMwEQYDVQQIEwpDYWxpZm9ybmlhMRMwEQYDVQQHEwpN
ZW5sbyBQYXJrMQ0wCwYDVQQKEwRwa2c1MREwDwYDVQQLFAhjczFfdGExMDESMBAG
A1UEAxMJbG9jYWxob3N0MRcwFQYJKoZIhvcNAQkBFghjczFfdGExMDCBnzANBgkq
hkiG9w0BAQEFAAOBjQAwgYkCgYEAsm28/8L/77hJdWuM1FqM3pRmVWBGHtwN/eGV
YpFcER4OLBni5ZeT5dyRKKyDaY06hi2h6eYXsUnomEmvXbsOEmZTotcRJc8bccL3
rVB7Z9EqRJkhJURf9C2lFWmiEqtBOBzA8J7MSTCROGoe6XIN+aoKuTLdAfJrkXL2
ToSr+nMCAwEAAaMgMB4wDAYDVR0TAQH/BAIwADAOBgNVHQ8BAf8EBAMCB4AwDQYJ
KoZIhvcNAQELBQADgYEACUZ3Muvbuzo/mEy3O67tHtzY5s3q5x0z4KCzFBhFHaLd
YuprRw0mpfoXEJRfhxo7l+FyO5xxqLYeMyjPp+rB0H6P8N6AG58/I0o8DPVurZub
hzKTQ8FfTTsjiSInfYln9+TlPUiuTVNuhYEwa77R3U30Fn0/B0L89G6GFPPHzUU=
-----END CERTIFICATE-----
