Certificate:
    Data:
        Version: 3 (0x2)
        Serial Number: 31 (0x1f)
        Signature Algorithm: sha256WithRSAEncryption
        Issuer: C=US, ST=California, L=Menlo Park, O=pkg5, CN=ch1.3_ta3/emailAddress=ch1.3_ta3
        Validity
            Not Before: Mar 21 00:49:31 2011 GMT
            Not After : Dec 15 00:49:31 2013 GMT
        Subject: C=US, ST=California, L=Menlo Park, O=pkg5, CN=cs1_ch1.3_ta3/emailAddress=cs1_ch1.3_ta3
        Subject Public Key Info:
            Public Key Algorithm: rsaEncryption
            RSA Public Key: (1024 bit)
                Modulus (1024 bit):
                    00:aa:61:a0:81:fa:99:8a:7d:cb:3e:99:2a:83:5b:
                    29:10:80:63:6c:51:35:6b:ed:fa:fe:09:07:bc:f1:
                    c7:01:58:63:05:a9:1f:69:4c:36:c0:90:f6:e5:02:
                    ba:d3:2d:ae:ee:53:80:61:18:d6:d6:60:58:8f:07:
                    14:ec:c2:3d:89:7b:33:90:1c:92:2f:91:fc:77:6b:
                    52:fa:cf:97:9e:22:69:62:de:25:b4:9b:52:bc:51:
                    c7:04:9d:37:8b:cf:ec:3e:e5:62:76:bb:62:f8:34:
                    10:6b:28:86:0a:c5:20:e7:3e:e5:76:9f:97:31:2a:
                    04:0b:02:10:85:c8:48:bc:65
                Exponent: 65537 (0x10001)
        X509v3 extensions:
            X509v3 Basic Constraints: critical
                CA:FALSE
            X509v3 Key Usage: critical
                Digital Signature
    Signature Algorithm: sha256WithRSAEncryption
        76:14:29:01:64:51:13:47:26:13:73:43:4e:ac:a9:6b:6e:46:
        04:32:7f:b7:f7:6c:6e:73:d1:d2:10:a3:4a:98:7f:c2:57:19:
        18:d7:d6:a0:2d:e2:2b:17:4a:49:cc:d8:1e:63:0f:82:88:03:
        2e:c2:cf:26:56:24:22:2a:48:73:54:08:97:a0:24:91:6a:05:
        63:4a:1f:01:28:06:0b:03:93:b8:75:9e:44:2d:7e:45:6c:a6:
        c5:35:e0:0f:98:0c:a5:5a:2b:8a:c2:c1:83:f0:b6:b9:84:58:
        f5:de:d4:b8:68:7d:de:b5:a3:9a:a0:33:91:23:fa:6c:b8:32:
        55:fb
-----BEGIN CERTIFICATE-----
MIIChjCCAe+gAwIBAgIBHzANBgkqhkiG9w0BAQsFADB0MQswCQYDVQQGEwJVUzET
MBEGA1UECBMKQ2FsaWZvcm5pYTETMBEGA1UEBxMKTWVubG8gUGFyazENMAsGA1UE
ChMEcGtnNTESMBAGA1UEAxQJY2gxLjNfdGEzMRgwFgYJKoZIhvcNAQkBFgljaDEu
M190YTMwHhcNMTEwMzIxMDA0OTMxWhcNMTMxMjE1MDA0OTMxWjB8MQswCQYDVQQG
EwJVUzETMBEGA1UECBMKQ2FsaWZvcm5pYTETMBEGA1UEBxMKTWVubG8gUGFyazEN
MAsGA1UEChMEcGtnNTEWMBQGA1UEAxQNY3MxX2NoMS4zX3RhMzEcMBoGCSqGSIb3
DQEJARYNY3MxX2NoMS4zX3RhMzCBnzANBgkqhkiG9w0BAQEFAAOBjQAwgYkCgYEA
qmGggfqZin3LPpkqg1spEIBjbFE1a+36/gkHvPHHAVhjBakfaUw2wJD25QK60y2u
7lOAYRjW1mBYjwcU7MI9iXszkBySL5H8d2tS+s+XniJpYt4ltJtSvFHHBJ03i8/s
PuVidrti+DQQayiGCsUg5z7ldp+XMSoECwIQhchIvGUCAwEAAaMgMB4wDAYDVR0T
AQH/BAIwADAOBgNVHQ8BAf8EBAMCB4AwDQYJKoZIhvcNAQELBQADgYEAdhQpAWRR
E0cmE3NDTqypa25GBDJ/t/dsbnPR0hCjSph/wlcZGNfWoC3iKxdKSczYHmMPgogD
LsLPJlYkIipIc1QIl6AkkWoFY0ofASgGCwOTuHWeRC1+RWymxTXgD5gMpVorisLB
g/C2uYRY9d7UuGh93rWjmqAzkSP6bLgyVfs=
-----END CERTIFICATE-----
