Certificate:
    Data:
        Version: 3 (0x2)
        Serial Number: 27 (0x1b)
    Signature Algorithm: sha256WithRSAEncryption
        Issuer: C=US, ST=California, L=Santa Clara, O=pkg5, CN=ch1.1_ta3/emailAddress=ch1.1_ta3
        Validity
            Not Before: Sep 22 05:33:26 2021 GMT
            Not After : Jun 18 05:33:26 2024 GMT
        Subject: C=US, ST=California, L=Santa Clara, O=pkg5, CN=cs1_ch1.1_ta3/emailAddress=cs1_ch1.1_ta3
        Subject Public Key Info:
            Public Key Algorithm: rsaEncryption
                Public-Key: (1024 bit)
                Modulus:
                    00:ea:ee:4a:d4:77:c2:5b:25:be:7c:81:4a:04:e6:
                    81:61:4b:90:fb:52:7f:c8:e8:cf:86:77:05:24:df:
                    26:97:af:89:8f:0d:29:fa:90:74:9f:ac:fd:d2:f3:
                    b9:4d:8b:9b:47:53:e0:8e:e5:88:d0:69:a3:9b:d7:
                    82:53:43:2a:32:a6:0a:36:0a:ab:6f:4e:67:92:99:
                    5a:3a:24:57:10:56:f5:4d:21:e5:c3:95:0a:f1:69:
                    de:7f:d5:d9:10:54:5d:ba:b4:ba:e9:16:f6:79:29:
                    2b:5d:3d:52:46:bd:96:0b:a6:61:0e:11:3e:96:63:
                    19:69:6b:d0:82:94:98:cf:27
                Exponent: 65537 (0x10001)
        X509v3 extensions:
            X509v3 Basic Constraints: critical
                CA:FALSE
            X509v3 Key Usage: critical
                Digital Signature
    Signature Algorithm: sha256WithRSAEncryption
         83:fe:c5:d0:92:15:50:29:c8:8a:88:cb:2e:2e:0c:b9:b9:bb:
         2e:a3:f9:31:d6:af:d1:a9:34:40:ae:00:4e:76:79:a9:3a:6a:
         7f:ab:da:a9:cf:e8:45:5b:40:b7:45:2f:44:07:e0:e5:3f:2c:
         b2:fe:08:19:0a:30:25:f2:31:86:e9:0f:1b:52:69:a5:fd:b9:
         ae:93:fb:65:19:08:f7:aa:0c:e2:73:68:0e:27:c7:e3:31:3a:
         0d:53:82:d6:b2:9d:8c:c8:b1:19:d6:6a:ce:7a:c1:cd:1a:32:
         28:d4:01:34:c3:00:76:aa:d5:cf:02:39:2f:09:ce:62:30:f3:
         72:ae:de:f5:1a:c8:72:27:d1:7e:a0:8c:57:9b:2b:e5:64:80:
         82:5d:71:aa:2d:12:50:80:10:0c:79:cd:b1:83:d6:cf:81:06:
         02:ee:21:f7:b7:ab:14:02:0e:9f:5e:c7:68:a9:31:20:9d:10:
         a5:cd:07:f1:f9:dc:86:c0:d3:58:d0:78:f1:2b:0c:d9:94:2a:
         54:e6:88:e6:f4:44:2a:3e:57:7c:0c:1d:d1:3e:7d:20:92:da:
         c5:d4:bf:e5:6d:09:de:23:66:21:b7:0e:e7:c0:80:9c:30:ca:
         4e:70:24:9e:92:b3:df:f5:36:60:16:21:b8:9d:12:09:ef:ad:
         2c:31:86:fc
-----BEGIN CERTIFICATE-----
MIIDCTCCAfGgAwIBAgIBGzANBgkqhkiG9w0BAQsFADB1MQswCQYDVQQGEwJVUzET
MBEGA1UECAwKQ2FsaWZvcm5pYTEUMBIGA1UEBwwLU2FudGEgQ2xhcmExDTALBgNV
BAoMBHBrZzUxEjAQBgNVBAMMCWNoMS4xX3RhMzEYMBYGCSqGSIb3DQEJARYJY2gx
LjFfdGEzMB4XDTIxMDkyMjA1MzMyNloXDTI0MDYxODA1MzMyNlowfTELMAkGA1UE
BhMCVVMxEzARBgNVBAgMCkNhbGlmb3JuaWExFDASBgNVBAcMC1NhbnRhIENsYXJh
MQ0wCwYDVQQKDARwa2c1MRYwFAYDVQQDDA1jczFfY2gxLjFfdGEzMRwwGgYJKoZI
hvcNAQkBFg1jczFfY2gxLjFfdGEzMIGfMA0GCSqGSIb3DQEBAQUAA4GNADCBiQKB
gQDq7krUd8JbJb58gUoE5oFhS5D7Un/I6M+GdwUk3yaXr4mPDSn6kHSfrP3S87lN
i5tHU+CO5YjQaaOb14JTQyoypgo2CqtvTmeSmVo6JFcQVvVNIeXDlQrxad5/1dkQ
VF26tLrpFvZ5KStdPVJGvZYLpmEOET6WYxlpa9CClJjPJwIDAQABoyAwHjAMBgNV
HRMBAf8EAjAAMA4GA1UdDwEB/wQEAwIHgDANBgkqhkiG9w0BAQsFAAOCAQEAg/7F
0JIVUCnIiojLLi4Mubm7LqP5Mdav0ak0QK4ATnZ5qTpqf6vaqc/oRVtAt0UvRAfg
5T8ssv4IGQowJfIxhukPG1Jppf25rpP7ZRkI96oM4nNoDifH4zE6DVOC1rKdjMix
GdZqznrBzRoyKNQBNMMAdqrVzwI5LwnOYjDzcq7e9RrIcifRfqCMV5sr5WSAgl1x
qi0SUIAQDHnNsYPWz4EGAu4h97erFAIOn17HaKkxIJ0Qpc0H8fnchsDTWNB48SsM
2ZQqVOaI5vREKj5XfAwd0T59IJLaxdS/5W0J3iNmIbcO58CAnDDKTnAknpKz3/U2
YBYhuJ0SCe+tLDGG/A==
-----END CERTIFICATE-----
