Certificate:
    Data:
        Version: 3 (0x2)
        Serial Number: 14 (0xe)
        Signature Algorithm: sha256WithRSAEncryption
        Issuer: C=US, ST=California, L=Santa Clara, O=pkg5, CN=ch5.3_ta1/emailAddress=ch5.3_ta1
        Validity
            Not Before: Mar 18 08:51:32 2026 GMT
            Not After : Dec 12 08:51:32 2028 GMT
        Subject: C=US, ST=California, L=Santa Clara, O=pkg5, CN=cs1_ch5.3_ta1/emailAddress=cs1_ch5.3_ta1
        Subject Public Key Info:
            Public Key Algorithm: rsaEncryption
                Public-Key: (2048 bit)
                Modulus:
                    00:c7:a1:d8:f0:57:28:da:9a:c4:c3:4d:93:72:83:
                    24:2c:9c:2f:ef:c0:49:d7:8c:31:8d:a1:5f:14:68:
                    ee:7e:ec:e8:83:47:c3:42:69:3c:56:3c:c2:4b:18:
                    f3:05:b3:07:f4:70:c0:12:c9:10:a0:51:ee:51:aa:
                    9e:47:0a:4b:66:60:03:5a:79:31:41:70:df:42:42:
                    5c:a3:18:7e:14:1b:07:ab:a0:0f:af:74:cf:d9:ba:
                    56:a0:92:97:f9:43:7a:d8:a9:f1:c1:e1:fd:68:0f:
                    0f:2c:91:b5:7d:69:46:7d:f2:70:2e:e7:ec:0c:05:
                    06:34:3f:8b:1f:43:da:02:48:c4:15:1d:e7:5c:7f:
                    c4:58:4d:37:93:9a:25:93:d2:31:fa:d8:8d:88:f5:
                    53:f3:23:fb:a2:c9:64:fb:da:1e:01:13:a1:35:8f:
                    84:2a:4b:17:55:22:30:8d:35:db:4f:e9:46:92:43:
                    7c:cd:30:c5:5a:ad:02:19:8f:e3:1c:a7:6f:a8:da:
                    3f:c8:40:38:41:af:f7:4e:2f:ed:6c:df:b7:cf:44:
                    9e:f6:6e:61:ab:ec:37:41:a6:31:4e:1d:09:03:c1:
                    5a:3a:43:66:b5:4d:fa:3c:62:88:dd:01:5a:7d:99:
                    b6:3e:98:4d:95:ee:42:0c:b6:54:be:1c:c8:cf:f1:
                    66:c3
                Exponent: 65537 (0x10001)
        X509v3 extensions:
            X509v3 Basic Constraints: critical
                CA:FALSE
            X509v3 Key Usage: critical
                Digital Signature
            X509v3 Subject Key Identifier: 
                43:E0:99:84:AA:BC:D5:68:F9:EF:78:C6:63:82:DF:37:80:13:0C:5B
            X509v3 Authority Key Identifier: 
                42:85:4A:38:16:EF:35:BF:DA:EF:A5:6A:1D:3B:FC:EB:86:A8:55:31
    Signature Algorithm: sha256WithRSAEncryption
    Signature Value:
        65:92:96:be:e7:b7:82:8d:7b:2a:7e:ef:ba:23:72:42:bf:9e:
        23:f5:4e:74:20:43:48:9e:b7:67:4e:cc:5f:08:9c:67:e2:02:
        4d:e1:38:04:86:86:eb:21:e3:86:38:64:58:7c:c9:bb:02:3c:
        42:f6:85:a7:14:c7:2b:50:b9:53:3a:8a:b6:01:ff:11:7c:2a:
        27:0e:ca:06:6b:6b:c7:15:07:68:da:28:e2:a6:ce:0d:67:24:
        c1:50:49:bc:29:bc:50:42:48:80:92:cb:10:e1:5c:00:d0:ab:
        27:c0:9f:bd:c8:e9:31:5b:03:d3:00:88:a8:0e:4b:ad:56:67:
        bf:d8:c9:35:5c:22:95:0d:7f:48:73:f1:a2:66:87:e6:8b:c8:
        7e:2a:45:5c:e0:1e:bd:5e:2c:4b:14:44:27:b0:f6:1e:13:46:
        9e:c9:cb:c6:4d:7a:60:12:9b:a5:5b:2f:ad:e6:f7:f9:4e:ea:
        32:dd:21:a6:99:07:bb:95:0c:b1:73:d9:b8:5a:0d:52:b1:19:
        30:22:16:e3:ea:80:77:17:df:fc:b7:93:19:21:49:0b:f8:30:
        0f:d0:de:d0:18:f1:52:f9:19:e5:8a:a3:98:81:36:6f:65:70:
        28:62:82:28:e4:d3:15:f1:92:67:a3:9d:e0:0b:44:a3:ae:f1:
        f5:55:64:94
-----BEGIN CERTIFICATE-----
MIIDzTCCArWgAwIBAgIBDjANBgkqhkiG9w0BAQsFADB1MQswCQYDVQQGEwJVUzET
MBEGA1UECAwKQ2FsaWZvcm5pYTEUMBIGA1UEBwwLU2FudGEgQ2xhcmExDTALBgNV
BAoMBHBrZzUxEjAQBgNVBAMMCWNoNS4zX3RhMTEYMBYGCSqGSIb3DQEJARYJY2g1
LjNfdGExMB4XDTI2MDMxODA4NTEzMloXDTI4MTIxMjA4NTEzMlowfTELMAkGA1UE
BhMCVVMxEzARBgNVBAgMCkNhbGlmb3JuaWExFDASBgNVBAcMC1NhbnRhIENsYXJh
MQ0wCwYDVQQKDARwa2c1MRYwFAYDVQQDDA1jczFfY2g1LjNfdGExMRwwGgYJKoZI
hvcNAQkBFg1jczFfY2g1LjNfdGExMIIBIjANBgkqhkiG9w0BAQEFAAOCAQ8AMIIB
CgKCAQEAx6HY8Fco2prEw02TcoMkLJwv78BJ14wxjaFfFGjufuzog0fDQmk8VjzC
SxjzBbMH9HDAEskQoFHuUaqeRwpLZmADWnkxQXDfQkJcoxh+FBsHq6APr3TP2bpW
oJKX+UN62KnxweH9aA8PLJG1fWlGffJwLufsDAUGND+LH0PaAkjEFR3nXH/EWE03
k5olk9Ix+tiNiPVT8yP7oslk+9oeAROhNY+EKksXVSIwjTXbT+lGkkN8zTDFWq0C
GY/jHKdvqNo/yEA4Qa/3Ti/tbN+3z0Se9m5hq+w3QaYxTh0JA8FaOkNmtU36PGKI
3QFafZm2PphNle5CDLZUvhzIz/FmwwIDAQABo2AwXjAMBgNVHRMBAf8EAjAAMA4G
A1UdDwEB/wQEAwIHgDAdBgNVHQ4EFgQUQ+CZhKq81Wj573jGY4LfN4ATDFswHwYD
VR0jBBgwFoAUQoVKOBbvNb/a76VqHTv864aoVTEwDQYJKoZIhvcNAQELBQADggEB
AGWSlr7nt4KNeyp+77ojckK/niP1TnQgQ0iet2dOzF8InGfiAk3hOASGhush44Y4
ZFh8ybsCPEL2hacUxytQuVM6irYB/xF8KicOygZra8cVB2jaKOKmzg1nJMFQSbwp
vFBCSICSyxDhXADQqyfAn73I6TFbA9MAiKgOS61WZ7/YyTVcIpUNf0hz8aJmh+aL
yH4qRVzgHr1eLEsURCew9h4TRp7Jy8ZNemASm6VbL63m9/lO6jLdIaaZB7uVDLFz
2bhaDVKxGTAiFuPqgHcX3/y3kxkhSQv4MA/Q3tAY8VL5GeWKo5iBNm9lcChigijk
0xXxkmejneALRKOu8fVVZJQ=
-----END CERTIFICATE-----
