Certificate:
    Data:
        Version: 3 (0x2)
        Serial Number: 45 (0x2d)
    Signature Algorithm: sha256WithRSAEncryption
        Issuer: C=US, ST=California, L=Santa Clara, O=pkg5, OU=ta9, CN=localhost/emailAddress=ta9
        Validity
            Not Before: Dec 13 00:13:39 2013 GMT
            Not After : Sep  8 00:13:39 2016 GMT
        Subject: C=US, ST=California, L=Santa Clara, O=pkg5, OU=cs1_ta9, CN=localhost/emailAddress=cs1_ta9
        Subject Public Key Info:
            Public Key Algorithm: rsaEncryption
                Public-Key: (1024 bit)
                Modulus:
                    00:a0:f2:5b:a5:e0:85:79:27:38:34:98:e1:0c:74:
                    ac:c0:52:24:c6:8c:bb:1b:a3:12:cc:ef:97:2e:e7:
                    ed:89:07:47:14:e6:04:70:03:ce:72:79:3a:f6:e4:
                    9d:31:97:0c:7b:de:9f:99:a8:d4:7d:ea:69:03:12:
                    87:89:20:d9:62:0d:bc:c9:29:cb:8a:5b:61:25:86:
                    a2:a5:6e:50:6d:8d:56:ac:cc:05:41:4f:c9:ba:94:
                    a4:34:0d:95:d9:82:98:bc:b0:6c:4e:39:ea:09:21:
                    7a:ba:69:7f:fb:94:f5:37:93:b5:a8:c1:bc:1b:8c:
                    7e:00:33:a8:b0:90:0f:9c:df
                Exponent: 65537 (0x10001)
        X509v3 extensions:
            X509v3 Basic Constraints: critical
                CA:FALSE
            X509v3 Key Usage: critical
                Digital Signature
    Signature Algorithm: sha256WithRSAEncryption
         5e:f9:9a:f9:3a:51:06:d4:4c:3b:1b:97:af:6f:28:7d:ce:f2:
         78:9c:bf:d0:7c:1d:00:20:dd:84:58:e5:29:ba:51:a8:7c:30:
         54:ff:d0:f3:25:2c:5d:19:4d:17:ca:e7:3e:f3:09:af:cf:82:
         3d:d9:5c:c0:fc:e6:31:19:52:70:4f:17:12:0f:e1:c8:e0:22:
         d1:10:db:a5:0e:75:3c:fb:33:ee:e9:ab:95:44:93:96:9e:7e:
         c3:fa:14:2d:a3:ee:a0:35:af:b4:d9:63:c5:c2:77:18:23:01:
         d9:be:88:0c:23:b1:19:dc:55:4f:7d:a9:cf:62:41:c5:19:02:
         43:b5
-----BEGIN CERTIFICATE-----
MIICmTCCAgKgAwIBAgIBLTANBgkqhkiG9w0BAQsFADB9MQswCQYDVQQGEwJVUzET
MBEGA1UECAwKQ2FsaWZvcm5pYTEUMBIGA1UEBwwLU2FudGEgQ2xhcmExDTALBgNV
BAoMBHBrZzUxDDAKBgNVBAsMA3RhOTESMBAGA1UEAwwJbG9jYWxob3N0MRIwEAYJ
KoZIhvcNAQkBFgN0YTkwHhcNMTMxMjEzMDAxMzM5WhcNMTYwOTA4MDAxMzM5WjCB
hTELMAkGA1UEBhMCVVMxEzARBgNVBAgMCkNhbGlmb3JuaWExFDASBgNVBAcMC1Nh
bnRhIENsYXJhMQ0wCwYDVQQKDARwa2c1MRAwDgYDVQQLDAdjczFfdGE5MRIwEAYD
VQQDDAlsb2NhbGhvc3QxFjAUBgkqhkiG9w0BCQEWB2NzMV90YTkwgZ8wDQYJKoZI
hvcNAQEBBQADgY0AMIGJAoGBAKDyW6XghXknODSY4Qx0rMBSJMaMuxujEszvly7n
7YkHRxTmBHADznJ5OvbknTGXDHven5mo1H3qaQMSh4kg2WINvMkpy4pbYSWGoqVu
UG2NVqzMBUFPybqUpDQNldmCmLywbE456gkherppf/uU9TeTtajBvBuMfgAzqLCQ
D5zfAgMBAAGjIDAeMAwGA1UdEwEB/wQCMAAwDgYDVR0PAQH/BAQDAgeAMA0GCSqG
SIb3DQEBCwUAA4GBAF75mvk6UQbUTDsbl69vKH3O8nicv9B8HQAg3YRY5Sm6Uah8
MFT/0PMlLF0ZTRfK5z7zCa/Pgj3ZXMD85jEZUnBPFxIP4cjgItEQ26UOdTz7M+7p
q5VEk5aefsP6FC2j7qA1r7TZY8XCdxgjAdm+iAwjsRncVU99qc9iQcUZAkO1
-----END CERTIFICATE-----
