Certificate:
    Data:
        Version: 3 (0x2)
        Serial Number: 33 (0x21)
        Signature Algorithm: sha256WithRSAEncryption
        Issuer: C=US, ST=California, L=Menlo Park, O=pkg5, CN=ch1.4_ta3/emailAddress=ch1.4_ta3
        Validity
            Not Before: Apr 11 22:37:49 2011 GMT
            Not After : Jan  5 22:37:49 2014 GMT
        Subject: C=US, ST=California, L=Menlo Park, O=pkg5, CN=cs1_ch1.4_ta3/emailAddress=cs1_ch1.4_ta3
        Subject Public Key Info:
            Public Key Algorithm: rsaEncryption
            RSA Public Key: (1024 bit)
                Modulus (1024 bit):
                    00:ae:be:e2:6c:c9:bb:11:1a:16:90:72:55:8c:f5:
                    d6:64:e7:2d:5f:18:27:c7:1d:b5:6e:10:a4:8a:b9:
                    0e:71:ef:d5:05:42:2b:12:da:79:51:58:08:2a:37:
                    e9:3d:47:93:4f:0f:d2:2b:29:b3:de:84:02:86:a2:
                    75:40:59:ef:26:7b:e5:23:f2:db:91:62:e0:d7:08:
                    02:4c:c8:05:bf:f1:fc:d3:1a:cb:59:f9:86:a0:7f:
                    99:c8:3a:08:82:ba:5f:4f:62:d7:74:a5:2d:3e:b8:
                    17:d5:ca:25:0b:59:34:d0:f0:a0:ec:3a:cc:8a:e0:
                    22:1d:fb:d0:b2:cf:62:db:13
                Exponent: 65537 (0x10001)
        X509v3 extensions:
            X509v3 Basic Constraints: critical
                CA:FALSE
            X509v3 Key Usage: critical
                Digital Signature
    Signature Algorithm: sha256WithRSAEncryption
        7a:92:69:a9:a5:d2:40:46:78:cf:22:7b:5c:36:44:e6:6b:00:
        78:ab:ca:ff:45:ad:77:d7:87:fc:92:5b:23:3c:dc:27:c2:0f:
        ee:fe:40:f4:3c:46:46:8f:86:c1:94:ff:60:31:db:24:0c:9c:
        46:bb:fb:c6:80:55:61:dc:4d:b9:6c:d4:67:b1:a0:35:f1:a4:
        94:30:25:9d:c2:16:d5:82:cd:a3:eb:fc:1c:44:b8:bb:44:ef:
        5f:00:bd:68:04:57:a6:5a:03:a6:fd:44:72:22:28:7f:e3:85:
        4a:0f:c6:45:a9:ae:8a:bd:b0:49:73:c3:e1:30:ad:c2:9f:f7:
        04:4d
-----BEGIN CERTIFICATE-----
MIIChjCCAe+gAwIBAgIBITANBgkqhkiG9w0BAQsFADB0MQswCQYDVQQGEwJVUzET
MBEGA1UECBMKQ2FsaWZvcm5pYTETMBEGA1UEBxMKTWVubG8gUGFyazENMAsGA1UE
ChMEcGtnNTESMBAGA1UEAxQJY2gxLjRfdGEzMRgwFgYJKoZIhvcNAQkBFgljaDEu
NF90YTMwHhcNMTEwNDExMjIzNzQ5WhcNMTQwMTA1MjIzNzQ5WjB8MQswCQYDVQQG
EwJVUzETMBEGA1UECBMKQ2FsaWZvcm5pYTETMBEGA1UEBxMKTWVubG8gUGFyazEN
MAsGA1UEChMEcGtnNTEWMBQGA1UEAxQNY3MxX2NoMS40X3RhMzEcMBoGCSqGSIb3
DQEJARYNY3MxX2NoMS40X3RhMzCBnzANBgkqhkiG9w0BAQEFAAOBjQAwgYkCgYEA
rr7ibMm7ERoWkHJVjPXWZOctXxgnxx21bhCkirkOce/VBUIrEtp5UVgIKjfpPUeT
Tw/SKymz3oQChqJ1QFnvJnvlI/LbkWLg1wgCTMgFv/H80xrLWfmGoH+ZyDoIgrpf
T2LXdKUtPrgX1colC1k00PCg7DrMiuAiHfvQss9i2xMCAwEAAaMgMB4wDAYDVR0T
AQH/BAIwADAOBgNVHQ8BAf8EBAMCB4AwDQYJKoZIhvcNAQELBQADgYEAepJpqaXS
QEZ4zyJ7XDZE5msAeKvK/0Wtd9eH/JJbIzzcJ8IP7v5A9DxGRo+GwZT/YDHbJAyc
Rrv7xoBVYdxNuWzUZ7GgNfGklDAlncIW1YLNo+v8HES4u0TvXwC9aARXploDpv1E
ciIof+OFSg/GRamuir2wSXPD4TCtwp/3BE0=
-----END CERTIFICATE-----
