Certificate:
    Data:
        Version: 3 (0x2)
        Serial Number: 11 (0xb)
        Signature Algorithm: sha256WithRSAEncryption
        Issuer: C=US, ST=California, L=Menlo Park, O=pkg5, CN=ta2/emailAddress=ta2
        Validity
            Not Before: Jan 28 02:54:13 2011 GMT
            Not After : Oct 24 02:54:13 2013 GMT
        Subject: C=US, ST=California, L=Menlo Park, O=pkg5, CN=cs1_ta2/emailAddress=cs1_ta2
        Subject Public Key Info:
            Public Key Algorithm: rsaEncryption
            RSA Public Key: (1024 bit)
                Modulus (1024 bit):
                    00:b8:c1:19:42:b1:26:a9:33:1f:1f:55:d0:4f:6d:
                    43:a3:55:75:c7:de:18:5a:69:cc:62:b2:a6:ec:f5:
                    78:19:31:5a:1a:d8:6c:d8:48:66:7d:15:d4:da:fe:
                    dd:7c:42:a0:ae:22:d1:51:f5:22:54:49:7d:16:58:
                    cf:82:b7:3e:45:c5:7e:da:84:28:f6:b3:5c:90:61:
                    27:0e:70:fe:fa:6c:3f:20:0a:a0:10:50:9c:75:a4:
                    02:62:d8:68:26:63:ba:21:10:89:39:ab:18:fa:10:
                    77:26:4f:ac:f1:50:41:fc:8c:f7:dc:e9:20:19:7c:
                    2c:fb:02:c7:40:6d:69:ff:05
                Exponent: 65537 (0x10001)
        X509v3 extensions:
            X509v3 Basic Constraints: critical
                CA:FALSE
            X509v3 Key Usage: critical
                Digital Signature
    Signature Algorithm: sha256WithRSAEncryption
        4b:b0:61:5b:c9:9a:81:8a:04:92:d4:98:39:fc:45:bd:34:90:
        cc:69:4f:86:09:47:3f:e9:26:e2:a0:e6:d4:63:53:32:85:48:
        de:1a:ef:43:bb:8d:19:29:5f:f8:13:bc:27:76:82:d2:77:6d:
        80:68:e9:96:a3:cd:a3:d0:3c:b1:2a:94:54:7f:d9:95:61:07:
        f7:d9:84:67:ea:bf:23:10:1a:9a:23:f7:3b:aa:83:a4:3c:18:
        12:95:11:18:fb:2e:93:7c:84:61:6c:50:7d:67:ac:44:39:f5:
        f2:9a:b0:89:f9:bd:71:e0:ae:bb:53:bc:ce:97:5e:ee:cd:14:
        ad:14
-----BEGIN CERTIFICATE-----
MIICbjCCAdegAwIBAgIBCzANBgkqhkiG9w0BAQsFADBoMQswCQYDVQQGEwJVUzET
MBEGA1UECBMKQ2FsaWZvcm5pYTETMBEGA1UEBxMKTWVubG8gUGFyazENMAsGA1UE
ChMEcGtnNTEMMAoGA1UEAxMDdGEyMRIwEAYJKoZIhvcNAQkBFgN0YTIwHhcNMTEw
MTI4MDI1NDEzWhcNMTMxMDI0MDI1NDEzWjBwMQswCQYDVQQGEwJVUzETMBEGA1UE
CBMKQ2FsaWZvcm5pYTETMBEGA1UEBxMKTWVubG8gUGFyazENMAsGA1UEChMEcGtn
NTEQMA4GA1UEAxQHY3MxX3RhMjEWMBQGCSqGSIb3DQEJARYHY3MxX3RhMjCBnzAN
BgkqhkiG9w0BAQEFAAOBjQAwgYkCgYEAuMEZQrEmqTMfH1XQT21Do1V1x94YWmnM
YrKm7PV4GTFaGths2EhmfRXU2v7dfEKgriLRUfUiVEl9FljPgrc+RcV+2oQo9rNc
kGEnDnD++mw/IAqgEFCcdaQCYthoJmO6IRCJOasY+hB3Jk+s8VBB/Iz33OkgGXws
+wLHQG1p/wUCAwEAAaMgMB4wDAYDVR0TAQH/BAIwADAOBgNVHQ8BAf8EBAMCB4Aw
DQYJKoZIhvcNAQELBQADgYEAS7BhW8magYoEktSYOfxFvTSQzGlPhglHP+km4qDm
1GNTMoVI3hrvQ7uNGSlf+BO8J3aC0ndtgGjplqPNo9A8sSqUVH/ZlWEH99mEZ+q/
IxAamiP3O6qDpDwYEpURGPsuk3yEYWxQfWesRDn18pqwifm9ceCuu1O8zpde7s0U
rRQ=
-----END CERTIFICATE-----
