Certificate:
    Data:
        Version: 3 (0x2)
        Serial Number: 24 (0x18)
        Signature Algorithm: sha256WithRSAEncryption
        Issuer: C=US, ST=California, L=Santa Clara, O=pkg5, CN=cs8_ch1_ta3/emailAddress=cs8_ch1_ta3
        Validity
            Not Before: Mar 18 08:51:37 2026 GMT
            Not After : Dec 12 08:51:37 2028 GMT
        Subject: C=US, ST=California, L=Santa Clara, O=pkg5, CN=cs1_cs8_ch1_ta3/emailAddress=cs1_cs8_ch1_ta3
        Subject Public Key Info:
            Public Key Algorithm: rsaEncryption
                Public-Key: (2048 bit)
                Modulus:
                    00:e6:a9:90:84:19:ad:ad:1e:f5:82:19:c6:5a:3e:
                    17:2b:19:8c:5e:42:5a:a8:85:a5:ef:34:a0:cc:56:
                    12:57:a6:26:39:54:34:e8:f6:a8:68:a7:d0:91:98:
                    b2:a1:33:aa:eb:78:27:ba:3a:94:b5:29:5e:6e:df:
                    6b:10:34:d8:8a:ae:cc:2e:fa:05:0e:46:cb:0c:fc:
                    ce:f5:84:9b:38:21:d3:5e:2b:31:57:ea:08:54:5f:
                    0f:30:e6:e9:a5:3a:2a:09:3f:a6:45:c8:c1:57:fd:
                    e4:60:9d:cc:b5:c3:16:8d:78:1a:26:91:33:c0:d2:
                    93:b4:37:ef:32:d5:a1:52:fa:a2:86:73:65:0b:e8:
                    b7:a2:19:19:be:64:97:ae:db:97:35:7f:9e:97:60:
                    76:46:86:18:2c:26:7b:2c:fc:aa:55:96:ea:55:18:
                    f2:e2:58:3f:00:52:cb:81:3d:2f:45:34:9c:1a:cc:
                    90:46:6a:db:75:0b:53:0d:16:8a:c3:a7:08:cc:08:
                    a0:d5:1c:3c:e2:00:e9:c4:e6:50:fb:f0:bd:0d:0a:
                    d9:68:c0:66:a1:68:d6:d8:45:2c:58:cb:60:72:3b:
                    e2:7a:71:c6:59:88:f1:d2:1f:70:7a:a0:f5:86:2d:
                    f5:98:32:f3:23:9e:1e:09:af:ae:30:c7:7a:70:01:
                    c2:4b
                Exponent: 65537 (0x10001)
        X509v3 extensions:
            X509v3 Basic Constraints: critical
                CA:FALSE
            X509v3 Key Usage: critical
                Digital Signature
            X509v3 Subject Key Identifier: 
                9A:F8:5D:95:A3:EE:04:A8:64:19:7D:4C:EA:A3:C0:06:44:14:A7:53
            X509v3 Authority Key Identifier: 
                06:06:DA:52:9C:73:28:71:5D:0B:1E:54:96:49:BC:8D:5E:43:AA:BA
    Signature Algorithm: sha256WithRSAEncryption
    Signature Value:
        a1:21:7e:6a:9d:1f:76:c8:c4:49:d3:e6:7b:ea:2f:5d:47:5f:
        63:e5:28:5c:26:f2:f2:86:88:6e:98:0d:7a:cc:f8:de:30:0e:
        1a:d5:b2:7e:ef:ce:38:18:3f:0c:0d:9a:6a:f4:f6:30:9d:1d:
        19:60:23:79:57:18:94:3a:13:ce:1b:7e:83:2d:14:fa:ee:b0:
        0d:28:44:d4:9e:8f:d7:e4:27:fb:fc:a3:72:db:93:22:e1:6d:
        3d:11:c4:4a:88:4e:8c:8b:98:df:a2:5b:cd:3f:d1:b1:08:2c:
        62:87:40:a3:87:7a:a9:47:42:65:df:6c:6b:ff:ec:58:70:56:
        6d:c9:5f:c7:27:76:32:59:4b:77:d9:84:28:4b:7f:59:29:25:
        14:55:98:d6:36:ab:8e:20:dc:d1:cc:03:1b:d2:27:48:07:d2:
        d9:a0:82:d1:90:45:70:8d:fb:80:79:c6:52:9e:4e:59:58:fc:
        ab:9f:75:b0:8f:66:de:37:33:46:58:33:68:17:5a:2c:b4:e1:
        4d:f5:8a:87:e0:e0:40:19:98:09:50:f5:4c:18:6d:f8:6e:80:
        45:81:14:f4:78:74:d7:d3:2e:c0:42:2f:72:bd:c5:e2:4f:97:
        b2:0f:82:e1:1b:33:2d:fa:04:86:78:01:94:6c:18:32:94:22:
        22:4c:29:e2
-----BEGIN CERTIFICATE-----
MIID1jCCAr6gAwIBAgIBGDANBgkqhkiG9w0BAQsFADB5MQswCQYDVQQGEwJVUzET
MBEGA1UECAwKQ2FsaWZvcm5pYTEUMBIGA1UEBwwLU2FudGEgQ2xhcmExDTALBgNV
BAoMBHBrZzUxFDASBgNVBAMMC2NzOF9jaDFfdGEzMRowGAYJKoZIhvcNAQkBFgtj
czhfY2gxX3RhMzAeFw0yNjAzMTgwODUxMzdaFw0yODEyMTIwODUxMzdaMIGBMQsw
CQYDVQQGEwJVUzETMBEGA1UECAwKQ2FsaWZvcm5pYTEUMBIGA1UEBwwLU2FudGEg
Q2xhcmExDTALBgNVBAoMBHBrZzUxGDAWBgNVBAMMD2NzMV9jczhfY2gxX3RhMzEe
MBwGCSqGSIb3DQEJARYPY3MxX2NzOF9jaDFfdGEzMIIBIjANBgkqhkiG9w0BAQEF
AAOCAQ8AMIIBCgKCAQEA5qmQhBmtrR71ghnGWj4XKxmMXkJaqIWl7zSgzFYSV6Ym
OVQ06PaoaKfQkZiyoTOq63gnujqUtSlebt9rEDTYiq7MLvoFDkbLDPzO9YSbOCHT
XisxV+oIVF8PMObppToqCT+mRcjBV/3kYJ3MtcMWjXgaJpEzwNKTtDfvMtWhUvqi
hnNlC+i3ohkZvmSXrtuXNX+el2B2RoYYLCZ7LPyqVZbqVRjy4lg/AFLLgT0vRTSc
GsyQRmrbdQtTDRaKw6cIzAig1Rw84gDpxOZQ+/C9DQrZaMBmoWjW2EUsWMtgcjvi
enHGWYjx0h9weqD1hi31mDLzI54eCa+uMMd6cAHCSwIDAQABo2AwXjAMBgNVHRMB
Af8EAjAAMA4GA1UdDwEB/wQEAwIHgDAdBgNVHQ4EFgQUmvhdlaPuBKhkGX1M6qPA
BkQUp1MwHwYDVR0jBBgwFoAUBgbaUpxzKHFdCx5Ulkm8jV5DqrowDQYJKoZIhvcN
AQELBQADggEBAKEhfmqdH3bIxEnT5nvqL11HX2PlKFwm8vKGiG6YDXrM+N4wDhrV
sn7vzjgYPwwNmmr09jCdHRlgI3lXGJQ6E84bfoMtFPrusA0oRNSej9fkJ/v8o3Lb
kyLhbT0RxEqIToyLmN+iW80/0bEILGKHQKOHeqlHQmXfbGv/7FhwVm3JX8cndjJZ
S3fZhChLf1kpJRRVmNY2q44g3NHMAxvSJ0gH0tmggtGQRXCN+4B5xlKeTllY/Kuf
dbCPZt43M0ZYM2gXWiy04U31iofg4EAZmAlQ9UwYbfhugEWBFPR4dNfTLsBCL3K9
xeJPl7IPguEbMy36BIZ4AZRsGDKUIiJMKeI=
-----END CERTIFICATE-----
