Certificate:
    Data:
        Version: 3 (0x2)
        Serial Number: 15 (0xf)
    Signature Algorithm: sha256WithRSAEncryption
        Issuer: C=US, ST=California, L=Santa Clara, O=pkg5, CN=ta2/emailAddress=ta2
        Validity
            Not Before: Jan 22 15:33:09 2019 GMT
            Not After : Oct 18 15:33:09 2021 GMT
        Subject: C=US, ST=California, L=Santa Clara, O=pkg5, CN=cs1_ta2/emailAddress=cs1_ta2
        Subject Public Key Info:
            Public Key Algorithm: rsaEncryption
                Public-Key: (1024 bit)
                Modulus:
                    00:be:8d:51:7d:63:aa:c8:15:7a:15:4c:09:0f:b1:
                    60:7f:e3:ff:d3:44:55:e1:2c:a2:8c:ea:4d:3e:ff:
                    1a:4c:42:82:7a:db:98:d1:3d:7a:87:f1:4b:6e:8a:
                    a1:5e:68:87:8d:36:77:ac:15:3a:3b:66:b6:5e:87:
                    f4:6a:8d:96:99:92:82:98:cb:71:f1:49:23:f5:88:
                    5b:61:9f:8f:a6:35:e5:8f:99:7b:6b:4a:a9:ed:3a:
                    22:63:42:18:22:7c:1c:07:2d:81:ca:c9:b4:15:13:
                    93:5d:f1:e2:8b:00:0b:17:58:f1:85:9a:5b:cf:f6:
                    58:05:11:1a:5d:9c:b8:8b:61
                Exponent: 65537 (0x10001)
        X509v3 extensions:
            X509v3 Basic Constraints: critical
                CA:FALSE
            X509v3 Key Usage: critical
                Digital Signature
    Signature Algorithm: sha256WithRSAEncryption
         ca:d9:2b:c8:2c:ed:5f:2b:d5:b3:2f:fa:37:ae:30:83:90:00:
         21:25:ed:8e:b5:b8:f4:db:56:cb:3e:04:d9:ac:fd:6c:df:d2:
         77:bf:72:c0:59:cf:a8:6d:4d:46:c6:e0:b9:d3:6e:8f:a5:82:
         fa:a0:1b:7e:4d:b6:07:fa:2c:1f:c5:ee:30:17:56:41:d4:cc:
         63:d3:c4:33:5c:a7:34:de:4d:3c:cc:12:d3:19:78:01:4a:15:
         21:74:9c:14:22:00:1c:1c:35:f2:d0:9e:e1:06:db:db:e5:11:
         ee:cf:37:85:ca:5e:1f:fd:f1:bd:8a:89:b9:34:73:f0:9f:db:
         df:ae:c3:ef:4a:d7:e3:23:e1:12:51:dc:eb:49:02:4f:52:ff:
         0d:b2:fb:78:32:47:c3:2e:53:23:2c:96:09:d1:20:bc:11:f7:
         37:9a:d9:1c:ee:1b:ed:16:90:3a:3e:8c:f0:6c:87:98:ce:5b:
         5c:b7:02:82:6e:56:18:14:cb:40:96:4e:f7:a9:9c:cf:a9:5e:
         29:53:97:9b:50:1d:74:77:a6:e7:da:1e:fd:07:1b:21:fb:71:
         3f:25:86:c2:01:bf:d8:a9:08:93:e8:b7:38:4e:e6:8c:80:93:
         54:67:02:35:34:50:6d:2e:e0:ee:eb:32:95:2e:42:ab:85:ac:
         b4:15:2f:c6
-----BEGIN CERTIFICATE-----
MIIC8TCCAdmgAwIBAgIBDzANBgkqhkiG9w0BAQsFADBpMQswCQYDVQQGEwJVUzET
MBEGA1UECAwKQ2FsaWZvcm5pYTEUMBIGA1UEBwwLU2FudGEgQ2xhcmExDTALBgNV
BAoMBHBrZzUxDDAKBgNVBAMMA3RhMjESMBAGCSqGSIb3DQEJARYDdGEyMB4XDTE5
MDEyMjE1MzMwOVoXDTIxMTAxODE1MzMwOVowcTELMAkGA1UEBhMCVVMxEzARBgNV
BAgMCkNhbGlmb3JuaWExFDASBgNVBAcMC1NhbnRhIENsYXJhMQ0wCwYDVQQKDARw
a2c1MRAwDgYDVQQDDAdjczFfdGEyMRYwFAYJKoZIhvcNAQkBFgdjczFfdGEyMIGf
MA0GCSqGSIb3DQEBAQUAA4GNADCBiQKBgQC+jVF9Y6rIFXoVTAkPsWB/4//TRFXh
LKKM6k0+/xpMQoJ625jRPXqH8UtuiqFeaIeNNnesFTo7ZrZeh/RqjZaZkoKYy3Hx
SSP1iFthn4+mNeWPmXtrSqntOiJjQhgifBwHLYHKybQVE5Nd8eKLAAsXWPGFmlvP
9lgFERpdnLiLYQIDAQABoyAwHjAMBgNVHRMBAf8EAjAAMA4GA1UdDwEB/wQEAwIH
gDANBgkqhkiG9w0BAQsFAAOCAQEAytkryCztXyvVsy/6N64wg5AAISXtjrW49NtW
yz4E2az9bN/Sd79ywFnPqG1NRsbgudNuj6WC+qAbfk22B/osH8XuMBdWQdTMY9PE
M1ynNN5NPMwS0xl4AUoVIXScFCIAHBw18tCe4Qbb2+UR7s83hcpeH/3xvYqJuTRz
8J/b367D70rX4yPhElHc60kCT1L/DbL7eDJHwy5TIyyWCdEgvBH3N5rZHO4b7RaQ
Oj6M8GyHmM5bXLcCgm5WGBTLQJZO96mcz6leKVOXm1AddHem59oe/QcbIftxPyWG
wgG/2KkIk+i3OE7mjICTVGcCNTRQbS7g7usylS5Cq4WstBUvxg==
-----END CERTIFICATE-----
