Certificate:
    Data:
        Version: 3 (0x2)
        Serial Number: 33 (0x21)
        Signature Algorithm: sha256WithRSAEncryption
        Issuer: C=US, ST=California, L=Menlo Park, O=pkg5, CN=ch1.4_ta3/emailAddress=ch1.4_ta3
        Validity
            Not Before: Mar 21 00:49:31 2011 GMT
            Not After : Dec 15 00:49:31 2013 GMT
        Subject: C=US, ST=California, L=Menlo Park, O=pkg5, CN=cs1_ch1.4_ta3/emailAddress=cs1_ch1.4_ta3
        Subject Public Key Info:
            Public Key Algorithm: rsaEncryption
            RSA Public Key: (1024 bit)
                Modulus (1024 bit):
                    00:c6:b7:dc:6a:06:a3:1f:5a:98:5f:cd:0e:f1:c3:
                    40:bd:b3:9e:73:68:16:78:a1:5e:e9:a2:0c:32:68:
                    56:db:cb:9f:b8:dd:89:c1:f3:7b:b9:61:0e:9e:e1:
                    ff:ad:b3:43:4d:c3:c9:9e:9a:5e:58:48:50:7b:b7:
                    f8:20:0e:54:ce:4c:41:b8:b2:73:0a:6f:f1:0c:40:
                    3b:81:4a:a1:42:da:01:6a:cd:03:65:a6:83:ff:29:
                    41:40:45:31:d9:fd:7f:f4:e4:09:38:9f:66:a9:a4:
                    d4:9a:a5:80:6a:9e:43:11:cc:7a:4f:13:84:cc:7f:
                    21:f9:4c:93:ec:d0:9c:f6:55
                Exponent: 65537 (0x10001)
        X509v3 extensions:
            X509v3 Basic Constraints: critical
                CA:FALSE
            X509v3 Key Usage: critical
                Digital Signature
    Signature Algorithm: sha256WithRSAEncryption
        95:16:43:f9:f7:e3:76:6f:54:ff:74:78:05:e4:85:ae:b0:94:
        72:db:f0:d9:99:f7:6d:b6:f7:35:f3:db:c5:87:65:0f:88:65:
        8f:06:6f:f2:d7:5f:be:4f:e0:56:02:8e:f5:d5:42:22:48:74:
        3b:23:f9:76:82:3d:b0:d6:51:cd:d9:76:bd:22:4d:6d:24:c7:
        77:89:c5:9c:38:a9:db:f1:2b:16:16:11:e9:64:71:e3:a4:34:
        9a:83:dd:d4:14:38:b6:bf:06:46:b3:a6:e3:d9:8b:e9:cb:5b:
        e1:fb:c1:30:34:aa:cf:1a:4d:66:39:5f:06:7e:39:ac:6e:01:
        81:b7
-----BEGIN CERTIFICATE-----
MIIChjCCAe+gAwIBAgIBITANBgkqhkiG9w0BAQsFADB0MQswCQYDVQQGEwJVUzET
MBEGA1UECBMKQ2FsaWZvcm5pYTETMBEGA1UEBxMKTWVubG8gUGFyazENMAsGA1UE
ChMEcGtnNTESMBAGA1UEAxQJY2gxLjRfdGEzMRgwFgYJKoZIhvcNAQkBFgljaDEu
NF90YTMwHhcNMTEwMzIxMDA0OTMxWhcNMTMxMjE1MDA0OTMxWjB8MQswCQYDVQQG
EwJVUzETMBEGA1UECBMKQ2FsaWZvcm5pYTETMBEGA1UEBxMKTWVubG8gUGFyazEN
MAsGA1UEChMEcGtnNTEWMBQGA1UEAxQNY3MxX2NoMS40X3RhMzEcMBoGCSqGSIb3
DQEJARYNY3MxX2NoMS40X3RhMzCBnzANBgkqhkiG9w0BAQEFAAOBjQAwgYkCgYEA
xrfcagajH1qYX80O8cNAvbOec2gWeKFe6aIMMmhW28ufuN2JwfN7uWEOnuH/rbND
TcPJnppeWEhQe7f4IA5UzkxBuLJzCm/xDEA7gUqhQtoBas0DZaaD/ylBQEUx2f1/
9OQJOJ9mqaTUmqWAap5DEcx6TxOEzH8h+UyT7NCc9lUCAwEAAaMgMB4wDAYDVR0T
AQH/BAIwADAOBgNVHQ8BAf8EBAMCB4AwDQYJKoZIhvcNAQELBQADgYEAlRZD+ffj
dm9U/3R4BeSFrrCUctvw2Zn3bbb3NfPbxYdlD4hljwZv8tdfvk/gVgKO9dVCIkh0
OyP5doI9sNZRzdl2vSJNbSTHd4nFnDip2/ErFhYR6WRx46Q0moPd1BQ4tr8GRrOm
49mL6ctb4fvBMDSqzxpNZjlfBn45rG4Bgbc=
-----END CERTIFICATE-----
