Certificate:
    Data:
        Version: 3 (0x2)
        Serial Number: 41 (0x29)
    Signature Algorithm: sha256WithRSAEncryption
        Issuer: C=US, ST=California, L=Santa Clara, O=pkg5, CN=ch1_ta5/emailAddress=ch1_ta5
        Validity
            Not Before: Sep 22 05:33:34 2021 GMT
            Not After : Jun 18 05:33:34 2024 GMT
        Subject: C=US, ST=California, L=Santa Clara, O=pkg5, CN=cs1_ch1_ta5/emailAddress=cs1_ch1_ta5
        Subject Public Key Info:
            Public Key Algorithm: rsaEncryption
                Public-Key: (1024 bit)
                Modulus:
                    00:c2:2f:db:d0:b6:a4:28:c1:01:be:2c:bf:ec:1e:
                    4c:99:fd:e5:89:c5:53:8d:73:e0:3e:62:84:1e:4e:
                    8e:41:a5:0f:05:6c:4e:1c:e9:78:2a:d5:6c:f7:d7:
                    6b:fb:1e:d9:86:26:20:4e:76:57:b2:a9:7b:6c:3a:
                    24:aa:2c:9f:13:de:fa:e1:2b:76:37:77:7e:17:44:
                    4a:f1:89:5d:f7:f6:d6:a3:ff:6c:47:36:c3:83:c4:
                    06:3c:b5:6e:a4:0d:d0:a1:f5:0b:34:41:77:a3:2c:
                    35:93:ea:5e:8d:19:60:d5:51:9d:70:03:f1:e3:fa:
                    82:d2:46:99:7d:28:e0:98:9d
                Exponent: 65537 (0x10001)
        X509v3 extensions:
            X509v3 Basic Constraints: critical
                CA:FALSE
            X509v3 Key Usage: critical
                Digital Signature
    Signature Algorithm: sha256WithRSAEncryption
         21:55:da:c7:9b:aa:9e:b8:ae:de:d5:7c:61:a1:7b:4e:32:c0:
         cd:2b:4a:15:51:2f:19:21:bf:ac:20:be:e2:5a:82:d2:16:3a:
         5d:64:d4:e6:07:81:fa:10:74:86:c6:b2:1e:cd:51:e8:84:e0:
         14:32:b1:80:6e:ac:c3:e4:fb:f1:3f:f6:83:bb:97:68:fc:f2:
         59:1a:85:ae:6b:63:3f:d8:0a:20:ea:b3:da:36:f2:05:5f:64:
         9b:d6:42:77:15:7f:25:fd:dd:c1:bb:f3:4e:9d:28:93:11:4d:
         04:95:67:7a:e5:84:55:7f:0a:6f:2b:fb:c1:b1:1a:aa:e9:01:
         55:e8:2e:1e:60:10:01:aa:85:dd:75:21:58:72:26:65:b0:2a:
         aa:e4:b1:f6:70:82:09:32:f5:cc:10:83:82:08:7c:9b:a1:f2:
         96:5b:65:51:91:52:d3:da:d5:97:2c:9f:82:7f:c0:15:89:ff:
         e0:8f:71:f3:b9:46:65:f6:35:be:fd:3a:96:1c:02:a4:af:be:
         29:5c:82:4a:09:56:a3:cb:eb:b8:8e:a4:78:67:75:9d:b9:ac:
         50:0c:a5:4c:f6:6a:8f:a9:71:42:be:6e:d3:8b:61:0a:ba:b8:
         5c:f9:00:fd:80:0d:04:f8:6d:6e:6c:ca:c7:ae:88:e7:0f:17:
         d3:b8:54:b5
-----BEGIN CERTIFICATE-----
MIIDATCCAemgAwIBAgIBKTANBgkqhkiG9w0BAQsFADBxMQswCQYDVQQGEwJVUzET
MBEGA1UECAwKQ2FsaWZvcm5pYTEUMBIGA1UEBwwLU2FudGEgQ2xhcmExDTALBgNV
BAoMBHBrZzUxEDAOBgNVBAMMB2NoMV90YTUxFjAUBgkqhkiG9w0BCQEWB2NoMV90
YTUwHhcNMjEwOTIyMDUzMzM0WhcNMjQwNjE4MDUzMzM0WjB5MQswCQYDVQQGEwJV
UzETMBEGA1UECAwKQ2FsaWZvcm5pYTEUMBIGA1UEBwwLU2FudGEgQ2xhcmExDTAL
BgNVBAoMBHBrZzUxFDASBgNVBAMMC2NzMV9jaDFfdGE1MRowGAYJKoZIhvcNAQkB
FgtjczFfY2gxX3RhNTCBnzANBgkqhkiG9w0BAQEFAAOBjQAwgYkCgYEAwi/b0Lak
KMEBviy/7B5Mmf3licVTjXPgPmKEHk6OQaUPBWxOHOl4KtVs99dr+x7ZhiYgTnZX
sql7bDokqiyfE9764St2N3d+F0RK8Yld9/bWo/9sRzbDg8QGPLVupA3QofULNEF3
oyw1k+pejRlg1VGdcAPx4/qC0kaZfSjgmJ0CAwEAAaMgMB4wDAYDVR0TAQH/BAIw
ADAOBgNVHQ8BAf8EBAMCB4AwDQYJKoZIhvcNAQELBQADggEBACFV2sebqp64rt7V
fGGhe04ywM0rShVRLxkhv6wgvuJagtIWOl1k1OYHgfoQdIbGsh7NUeiE4BQysYBu
rMPk+/E/9oO7l2j88lkaha5rYz/YCiDqs9o28gVfZJvWQncVfyX93cG7806dKJMR
TQSVZ3rlhFV/Cm8r+8GxGqrpAVXoLh5gEAGqhd11IVhyJmWwKqrksfZwggky9cwQ
g4IIfJuh8pZbZVGRUtPa1Zcsn4J/wBWJ/+CPcfO5RmX2Nb79OpYcAqSvvilcgkoJ
VqPL67iOpHhndZ25rFAMpUz2ao+pcUK+btOLYQq6uFz5AP2ADQT4bW5syseuiOcP
F9O4VLU=
-----END CERTIFICATE-----
