Certificate:
    Data:
        Version: 3 (0x2)
        Serial Number: 43 (0x2b)
    Signature Algorithm: sha256WithRSAEncryption
        Issuer: C=US, ST=California, L=Santa Clara, O=pkg5, OU=ta7, CN=localhost/emailAddress=ta7
        Validity
            Not Before: Dec 13 00:13:38 2013 GMT
            Not After : Sep  8 00:13:38 2016 GMT
        Subject: C=US, ST=California, L=Santa Clara, O=pkg5, OU=cs1_ta7, CN=localhost/emailAddress=cs1_ta7
        Subject Public Key Info:
            Public Key Algorithm: rsaEncryption
                Public-Key: (1024 bit)
                Modulus:
                    00:d6:44:f3:0b:4a:01:1a:b9:6e:5a:01:90:e2:1d:
                    39:37:48:16:5d:16:fe:7b:69:47:f0:e2:bb:e0:5b:
                    e9:22:6c:cc:7c:2c:8a:0d:74:6d:30:f5:f5:83:b8:
                    b5:87:7a:c1:0c:0a:5a:17:6e:dc:21:53:9f:8b:02:
                    84:b0:45:9f:67:31:30:61:ff:1a:62:c2:a9:94:b4:
                    f9:70:57:0d:03:af:a1:00:59:be:15:5c:08:75:e0:
                    56:4d:30:ea:02:d0:8a:f1:2c:dd:fa:74:cc:f3:98:
                    15:ae:1a:e0:c0:72:64:0a:26:b6:e2:04:17:24:5d:
                    58:60:ac:01:a7:73:03:71:ef
                Exponent: 65537 (0x10001)
        X509v3 extensions:
            X509v3 Basic Constraints: critical
                CA:FALSE
            X509v3 Key Usage: critical
                Digital Signature
    Signature Algorithm: sha256WithRSAEncryption
         31:3b:0b:62:1c:06:94:b3:85:8c:08:b8:da:07:20:01:4c:23:
         98:34:20:06:f4:ec:b9:fb:42:52:80:2c:0f:e9:91:b7:de:3f:
         c4:42:4a:d7:22:0a:9b:ec:83:a0:1f:64:57:98:e9:1a:e1:ac:
         08:78:ee:28:05:c1:53:50:3e:d1:e0:fa:55:9a:a0:ca:39:28:
         9f:71:8b:ab:9d:a6:3e:04:e9:bf:b3:4d:97:74:b2:36:4e:65:
         ed:cf:5c:44:3c:c1:37:77:1c:d3:7d:3b:76:fe:72:53:ac:90:
         0a:07:37:b0:97:64:ab:b4:d3:63:28:ce:37:cf:80:26:8a:7e:
         0b:f0
-----BEGIN CERTIFICATE-----
MIICmTCCAgKgAwIBAgIBKzANBgkqhkiG9w0BAQsFADB9MQswCQYDVQQGEwJVUzET
MBEGA1UECAwKQ2FsaWZvcm5pYTEUMBIGA1UEBwwLU2FudGEgQ2xhcmExDTALBgNV
BAoMBHBrZzUxDDAKBgNVBAsMA3RhNzESMBAGA1UEAwwJbG9jYWxob3N0MRIwEAYJ
KoZIhvcNAQkBFgN0YTcwHhcNMTMxMjEzMDAxMzM4WhcNMTYwOTA4MDAxMzM4WjCB
hTELMAkGA1UEBhMCVVMxEzARBgNVBAgMCkNhbGlmb3JuaWExFDASBgNVBAcMC1Nh
bnRhIENsYXJhMQ0wCwYDVQQKDARwa2c1MRAwDgYDVQQLDAdjczFfdGE3MRIwEAYD
VQQDDAlsb2NhbGhvc3QxFjAUBgkqhkiG9w0BCQEWB2NzMV90YTcwgZ8wDQYJKoZI
hvcNAQEBBQADgY0AMIGJAoGBANZE8wtKARq5bloBkOIdOTdIFl0W/ntpR/Diu+Bb
6SJszHwsig10bTD19YO4tYd6wQwKWhdu3CFTn4sChLBFn2cxMGH/GmLCqZS0+XBX
DQOvoQBZvhVcCHXgVk0w6gLQivEs3fp0zPOYFa4a4MByZAomtuIEFyRdWGCsAadz
A3HvAgMBAAGjIDAeMAwGA1UdEwEB/wQCMAAwDgYDVR0PAQH/BAQDAgeAMA0GCSqG
SIb3DQEBCwUAA4GBADE7C2IcBpSzhYwIuNoHIAFMI5g0IAb07Ln7QlKALA/pkbfe
P8RCStciCpvsg6AfZFeY6RrhrAh47igFwVNQPtHg+lWaoMo5KJ9xi6udpj4E6b+z
TZd0sjZOZe3PXEQ8wTd3HNN9O3b+clOskAoHN7CXZKu002MozjfPgCaKfgvw
-----END CERTIFICATE-----
