Certificate:
    Data:
        Version: 3 (0x2)
        Serial Number: 42 (0x2a)
    Signature Algorithm: sha256WithRSAEncryption
        Issuer: C=US, ST=California, L=Santa Clara, O=pkg5, OU=ta6, CN=localhost/emailAddress=ta6
        Validity
            Not Before: Dec 13 00:13:38 2013 GMT
            Not After : Sep  8 00:13:38 2016 GMT
        Subject: C=US, ST=California, L=Santa Clara, O=pkg5, OU=cs1_ta6, CN=localhost/emailAddress=cs1_ta6
        Subject Public Key Info:
            Public Key Algorithm: rsaEncryption
                Public-Key: (1024 bit)
                Modulus:
                    00:e0:47:5b:b6:ff:33:b8:75:5d:d1:f8:31:47:d7:
                    46:c1:12:4e:d3:95:54:a2:cd:d8:c0:19:35:21:ea:
                    03:c3:73:e0:e0:50:a1:10:2e:cd:9a:a5:8a:b0:b9:
                    2e:66:ad:2d:09:3f:38:42:ec:2f:bd:c2:d0:16:90:
                    82:d0:1c:a9:c7:81:4c:3f:9d:c8:f5:6d:ca:38:04:
                    c2:9e:77:3c:1f:0b:9f:4b:d2:ca:df:a2:af:f0:4e:
                    b8:51:e1:2c:01:4b:a7:b7:56:6c:ee:96:22:2f:2f:
                    33:83:e2:c1:a5:c0:aa:e5:45:2b:50:31:84:8a:d0:
                    5b:06:0a:2f:5d:c3:d6:d5:1b
                Exponent: 65537 (0x10001)
        X509v3 extensions:
            X509v3 Basic Constraints: critical
                CA:FALSE
            X509v3 Key Usage: critical
                Digital Signature
    Signature Algorithm: sha256WithRSAEncryption
         36:42:59:49:7a:7a:58:88:a3:c2:e9:16:fc:dc:5c:7c:26:2e:
         d5:ff:4f:2f:45:96:7f:c0:5a:10:fd:a5:c5:18:95:48:b3:bf:
         49:a0:a1:4d:70:e0:39:00:94:5d:7c:0b:99:dc:7d:29:57:40:
         7a:31:67:94:00:83:61:aa:ca:48:7f:64:db:81:90:3c:2a:e4:
         26:33:3e:80:14:12:85:06:bc:e9:8b:e2:49:80:bd:e7:a4:f0:
         3a:c7:ba:e8:c0:1f:f2:7a:48:af:aa:ba:20:be:b2:e8:99:4d:
         66:90:34:78:b1:82:9a:90:15:a8:dc:76:8d:27:df:7b:40:04:
         a1:03
-----BEGIN CERTIFICATE-----
MIICmTCCAgKgAwIBAgIBKjANBgkqhkiG9w0BAQsFADB9MQswCQYDVQQGEwJVUzET
MBEGA1UECAwKQ2FsaWZvcm5pYTEUMBIGA1UEBwwLU2FudGEgQ2xhcmExDTALBgNV
BAoMBHBrZzUxDDAKBgNVBAsMA3RhNjESMBAGA1UEAwwJbG9jYWxob3N0MRIwEAYJ
KoZIhvcNAQkBFgN0YTYwHhcNMTMxMjEzMDAxMzM4WhcNMTYwOTA4MDAxMzM4WjCB
hTELMAkGA1UEBhMCVVMxEzARBgNVBAgMCkNhbGlmb3JuaWExFDASBgNVBAcMC1Nh
bnRhIENsYXJhMQ0wCwYDVQQKDARwa2c1MRAwDgYDVQQLDAdjczFfdGE2MRIwEAYD
VQQDDAlsb2NhbGhvc3QxFjAUBgkqhkiG9w0BCQEWB2NzMV90YTYwgZ8wDQYJKoZI
hvcNAQEBBQADgY0AMIGJAoGBAOBHW7b/M7h1XdH4MUfXRsESTtOVVKLN2MAZNSHq
A8Nz4OBQoRAuzZqlirC5LmatLQk/OELsL73C0BaQgtAcqceBTD+dyPVtyjgEwp53
PB8Ln0vSyt+ir/BOuFHhLAFLp7dWbO6WIi8vM4PiwaXAquVFK1AxhIrQWwYKL13D
1tUbAgMBAAGjIDAeMAwGA1UdEwEB/wQCMAAwDgYDVR0PAQH/BAQDAgeAMA0GCSqG
SIb3DQEBCwUAA4GBADZCWUl6eliIo8LpFvzcXHwmLtX/Ty9Fln/AWhD9pcUYlUiz
v0mgoU1w4DkAlF18C5ncfSlXQHoxZ5QAg2Gqykh/ZNuBkDwq5CYzPoAUEoUGvOmL
4kmAveek8DrHuujAH/J6SK+quiC+suiZTWaQNHixgpqQFajcdo0n33tABKED
-----END CERTIFICATE-----
