Certificate:
    Data:
        Version: 3 (0x2)
        Serial Number: 17 (0x11)
    Signature Algorithm: sha256WithRSAEncryption
        Issuer: C=US, ST=California, L=Santa Clara, O=pkg5, CN=ch1_ta3/emailAddress=ch1_ta3
        Validity
            Not Before: Mar 18 23:38:20 2016 GMT
            Not After : Dec 13 23:38:20 2018 GMT
        Subject: C=US, ST=California, L=Santa Clara, O=pkg5, CN=cs1_ch1_ta3/emailAddress=cs1_ch1_ta3
        Subject Public Key Info:
            Public Key Algorithm: rsaEncryption
                Public-Key: (1024 bit)
                Modulus:
                    00:fc:75:fb:2f:cc:63:83:29:b0:15:f9:ef:d9:97:
                    05:7e:f3:f6:a8:49:c8:ad:e6:14:dc:c1:8a:6a:0f:
                    e7:7e:04:d7:7e:14:65:76:91:dd:23:e7:2c:74:c0:
                    52:d2:0f:58:35:45:1f:ed:3e:63:60:a4:84:07:d7:
                    38:a0:ac:75:55:a5:51:5c:1d:dc:b6:58:37:de:63:
                    ee:d9:bb:7d:f5:5e:bf:e4:2a:1b:9a:fc:6e:66:e9:
                    64:dd:ee:56:13:94:be:71:60:09:7e:79:46:f0:a4:
                    70:24:4b:4a:e8:df:b8:be:f5:a7:9e:fe:73:4f:27:
                    10:66:48:d9:b5:88:59:88:77
                Exponent: 65537 (0x10001)
        X509v3 extensions:
            X509v3 Basic Constraints: critical
                CA:FALSE
            X509v3 Key Usage: critical
                Digital Signature
    Signature Algorithm: sha256WithRSAEncryption
         66:e3:94:4d:15:d2:db:95:5c:1a:3d:1b:ca:57:95:ca:db:94:
         05:ac:ec:9d:2f:39:a7:a4:c2:8b:27:3a:ce:e9:bb:4e:97:37:
         0f:26:ef:51:3a:b8:19:54:b6:e6:d4:e5:a0:ab:f5:5b:a9:08:
         1f:5f:fb:c5:09:78:e3:c9:60:18:d5:ea:45:9f:65:96:ea:9b:
         bf:98:aa:57:61:1b:24:22:fd:db:ce:0c:03:f3:7c:a1:38:5d:
         d4:4d:5d:f2:31:f2:2a:8d:b2:c1:e1:03:c1:59:42:6c:2f:ec:
         eb:95:09:b5:08:b1:1e:fa:fc:aa:d0:8e:d5:0f:a3:f0:12:32:
         38:b5:f1:44:15:43:23:42:8f:5f:6e:4c:eb:56:00:48:d0:27:
         86:d6:17:98:48:37:6e:f7:51:fa:9e:e8:50:49:fe:b0:58:2d:
         9b:7f:0c:4c:d5:eb:0d:d5:a7:37:7d:84:e5:d8:b3:8d:85:75:
         1b:a2:16:db:86:4b:74:32:3c:a6:77:77:26:09:60:b0:3b:a6:
         7a:38:0a:7d:d0:77:f6:86:cf:73:ef:6e:ad:e7:40:8c:1f:62:
         21:08:ee:4a:d2:16:67:02:95:a3:06:4d:74:41:38:b1:fd:2c:
         5b:b6:cc:64:b0:0d:af:78:bf:1e:85:01:cd:82:39:7b:0b:38:
         4d:a9:35:fc
-----BEGIN CERTIFICATE-----
MIIDATCCAemgAwIBAgIBETANBgkqhkiG9w0BAQsFADBxMQswCQYDVQQGEwJVUzET
MBEGA1UECAwKQ2FsaWZvcm5pYTEUMBIGA1UEBwwLU2FudGEgQ2xhcmExDTALBgNV
BAoMBHBrZzUxEDAOBgNVBAMMB2NoMV90YTMxFjAUBgkqhkiG9w0BCQEWB2NoMV90
YTMwHhcNMTYwMzE4MjMzODIwWhcNMTgxMjEzMjMzODIwWjB5MQswCQYDVQQGEwJV
UzETMBEGA1UECAwKQ2FsaWZvcm5pYTEUMBIGA1UEBwwLU2FudGEgQ2xhcmExDTAL
BgNVBAoMBHBrZzUxFDASBgNVBAMMC2NzMV9jaDFfdGEzMRowGAYJKoZIhvcNAQkB
FgtjczFfY2gxX3RhMzCBnzANBgkqhkiG9w0BAQEFAAOBjQAwgYkCgYEA/HX7L8xj
gymwFfnv2ZcFfvP2qEnIreYU3MGKag/nfgTXfhRldpHdI+csdMBS0g9YNUUf7T5j
YKSEB9c4oKx1VaVRXB3ctlg33mPu2bt99V6/5CobmvxuZulk3e5WE5S+cWAJfnlG
8KRwJEtK6N+4vvWnnv5zTycQZkjZtYhZiHcCAwEAAaMgMB4wDAYDVR0TAQH/BAIw
ADAOBgNVHQ8BAf8EBAMCB4AwDQYJKoZIhvcNAQELBQADggEBAGbjlE0V0tuVXBo9
G8pXlcrblAWs7J0vOaekwosnOs7pu06XNw8m71E6uBlUtubU5aCr9VupCB9f+8UJ
eOPJYBjV6kWfZZbqm7+YqldhGyQi/dvODAPzfKE4XdRNXfIx8iqNssHhA8FZQmwv
7OuVCbUIsR76/KrQjtUPo/ASMji18UQVQyNCj19uTOtWAEjQJ4bWF5hIN273Ufqe
6FBJ/rBYLZt/DEzV6w3Vpzd9hOXYs42FdRuiFtuGS3QyPKZ3dyYJYLA7pno4Cn3Q
d/aGz3Pvbq3nQIwfYiEI7krSFmcClaMGTXRBOLH9LFu2zGSwDa94vx6FAc2COXsL
OE2pNfw=
-----END CERTIFICATE-----
