Certificate:
    Data:
        Version: 3 (0x2)
        Serial Number: 29 (0x1d)
    Signature Algorithm: sha256WithRSAEncryption
        Issuer: C=US, ST=California, L=Santa Clara, O=pkg5, CN=ch1.2_ta3/emailAddress=ch1.2_ta3
        Validity
            Not Before: Sep 22 05:33:27 2021 GMT
            Not After : Jun 18 05:33:27 2024 GMT
        Subject: C=US, ST=California, L=Santa Clara, O=pkg5, CN=cs1_ch1.2_ta3/emailAddress=cs1_ch1.2_ta3
        Subject Public Key Info:
            Public Key Algorithm: rsaEncryption
                Public-Key: (1024 bit)
                Modulus:
                    00:bb:8f:a8:21:e6:98:4b:da:56:02:b1:45:91:4f:
                    4b:02:a8:0e:5e:09:93:36:7c:0c:f8:85:9d:71:ce:
                    1f:ef:7c:1c:d1:46:1a:0c:e2:6b:6b:fb:48:1b:d5:
                    44:b3:9b:32:50:d1:0d:33:66:50:dc:63:cb:80:ea:
                    ee:bd:06:aa:91:d7:53:77:ef:57:ca:c1:00:c1:5d:
                    0a:06:57:c1:ab:7d:10:f5:e5:f1:95:72:7c:51:27:
                    17:66:9d:69:b2:86:91:e1:7c:10:a1:e5:be:4b:2c:
                    3c:55:dc:9d:9c:5c:a2:88:31:5c:b7:09:32:03:a9:
                    f9:bd:8c:76:39:e2:97:cd:af
                Exponent: 65537 (0x10001)
        X509v3 extensions:
            X509v3 Basic Constraints: critical
                CA:FALSE
            X509v3 Key Usage: critical
                Digital Signature
    Signature Algorithm: sha256WithRSAEncryption
         10:e7:73:76:2f:0d:f1:17:f0:ca:df:e0:8b:cf:58:06:38:87:
         1e:b3:2f:6e:bb:ab:bc:13:3a:e1:cb:43:01:e4:ec:55:17:3d:
         f7:46:2a:97:67:2a:ff:ce:2e:4b:ab:df:7c:43:56:92:84:0e:
         df:b9:35:db:df:25:a4:7a:98:db:bc:50:57:d0:7d:fa:a5:df:
         1a:08:52:a3:8d:e2:12:e4:2c:cc:dc:9b:9c:a7:66:5c:b1:07:
         2c:3c:cb:a9:34:28:89:a4:e3:2c:c9:ec:2c:01:dc:d7:c4:68:
         66:94:a1:e4:d0:0e:be:14:61:6e:b9:f6:a7:9e:1d:1d:33:c0:
         98:b1:a4:0c:f7:aa:49:ee:16:c7:62:b6:78:1c:4d:bb:6e:2c:
         3a:8c:ea:c3:33:79:a2:1b:79:a7:5b:7f:9c:1e:17:15:4b:29:
         93:27:b8:ed:2a:54:77:62:6e:93:7d:8b:fc:e1:16:42:9c:10:
         9e:4a:74:bf:d1:10:55:c3:6c:e5:80:b2:b9:46:53:2c:df:88:
         a4:16:4e:a2:b2:78:dd:0e:d1:cb:36:ce:d0:a0:e1:08:a7:8d:
         ca:1e:b3:2d:0e:bf:76:71:da:19:b7:b7:b5:54:ca:c0:34:45:
         71:2b:df:cb:bd:98:56:a4:5c:b1:8f:c8:3a:b3:ff:1f:96:cd:
         37:85:dd:58
-----BEGIN CERTIFICATE-----
MIIDCTCCAfGgAwIBAgIBHTANBgkqhkiG9w0BAQsFADB1MQswCQYDVQQGEwJVUzET
MBEGA1UECAwKQ2FsaWZvcm5pYTEUMBIGA1UEBwwLU2FudGEgQ2xhcmExDTALBgNV
BAoMBHBrZzUxEjAQBgNVBAMMCWNoMS4yX3RhMzEYMBYGCSqGSIb3DQEJARYJY2gx
LjJfdGEzMB4XDTIxMDkyMjA1MzMyN1oXDTI0MDYxODA1MzMyN1owfTELMAkGA1UE
BhMCVVMxEzARBgNVBAgMCkNhbGlmb3JuaWExFDASBgNVBAcMC1NhbnRhIENsYXJh
MQ0wCwYDVQQKDARwa2c1MRYwFAYDVQQDDA1jczFfY2gxLjJfdGEzMRwwGgYJKoZI
hvcNAQkBFg1jczFfY2gxLjJfdGEzMIGfMA0GCSqGSIb3DQEBAQUAA4GNADCBiQKB
gQC7j6gh5phL2lYCsUWRT0sCqA5eCZM2fAz4hZ1xzh/vfBzRRhoM4mtr+0gb1USz
mzJQ0Q0zZlDcY8uA6u69BqqR11N371fKwQDBXQoGV8GrfRD15fGVcnxRJxdmnWmy
hpHhfBCh5b5LLDxV3J2cXKKIMVy3CTIDqfm9jHY54pfNrwIDAQABoyAwHjAMBgNV
HRMBAf8EAjAAMA4GA1UdDwEB/wQEAwIHgDANBgkqhkiG9w0BAQsFAAOCAQEAEOdz
di8N8Rfwyt/gi89YBjiHHrMvbrurvBM64ctDAeTsVRc990Yql2cq/84uS6vffENW
koQO37k1298lpHqY27xQV9B9+qXfGghSo43iEuQszNybnKdmXLEHLDzLqTQoiaTj
LMnsLAHc18RoZpSh5NAOvhRhbrn2p54dHTPAmLGkDPeqSe4Wx2K2eBxNu24sOozq
wzN5oht5p1t/nB4XFUspkye47SpUd2Juk32L/OEWQpwQnkp0v9EQVcNs5YCyuUZT
LN+IpBZOorJ43Q7RyzbO0KDhCKeNyh6zLQ6/dnHaGbe3tVTKwDRFcSvfy72YVqRc
sY/IOrP/H5bNN4XdWA==
-----END CERTIFICATE-----
