Certificate:
    Data:
        Version: 3 (0x2)
        Serial Number: 27 (0x1b)
    Signature Algorithm: sha256WithRSAEncryption
        Issuer: C=US, ST=California, L=Santa Clara, O=pkg5, CN=ch1.1_ta3/emailAddress=ch1.1_ta3
        Validity
            Not Before: Jul 19 11:35:48 2023 GMT
            Not After : Apr 14 11:35:48 2026 GMT
        Subject: C=US, ST=California, L=Santa Clara, O=pkg5, CN=cs1_ch1.1_ta3/emailAddress=cs1_ch1.1_ta3
        Subject Public Key Info:
            Public Key Algorithm: rsaEncryption
                Public-Key: (2048 bit)
                Modulus:
                    00:d2:cc:10:ec:32:62:13:71:21:11:d1:74:cf:f3:
                    44:ee:97:02:0f:61:0e:a7:60:61:32:e0:19:19:2e:
                    64:81:06:28:cb:ad:b9:ba:d2:be:c3:13:b8:e6:0c:
                    81:fd:bf:36:69:4f:f3:41:ab:47:c1:a0:e1:db:4c:
                    d0:33:fa:f8:2e:e4:e8:80:74:8b:68:a1:33:2f:e8:
                    d9:d9:50:21:44:24:50:99:9f:9c:17:f6:0a:85:10:
                    03:ef:da:14:49:1e:46:a1:35:7e:32:f4:8f:1d:f0:
                    0c:6b:8d:e6:32:69:ef:9f:53:f7:60:fb:7d:c6:bd:
                    fb:4c:b4:35:ce:64:bc:b7:fc:cd:df:29:7a:d1:74:
                    e4:c3:2c:6f:af:20:67:f2:cd:a5:e0:cb:a1:21:f1:
                    2d:0d:ad:a0:6a:ba:7d:9c:6f:2e:ba:d8:ae:44:04:
                    aa:b1:b8:76:e4:a1:ec:36:94:d7:e4:dc:73:38:01:
                    47:e5:a1:d6:97:e9:e8:3d:66:86:83:f6:53:ea:d8:
                    be:06:43:2b:ad:36:3c:57:a6:25:0b:64:4f:e2:9a:
                    37:e4:9c:19:a1:ae:67:36:1d:7b:9a:1e:bc:ed:c6:
                    f2:c7:c8:d5:08:f2:2e:f6:5c:b9:59:88:b1:4e:3f:
                    06:a9:fb:c2:b2:95:97:44:27:e4:50:6b:5d:83:e4:
                    51:eb
                Exponent: 65537 (0x10001)
        X509v3 extensions:
            X509v3 Basic Constraints: critical
                CA:FALSE
            X509v3 Key Usage: critical
                Digital Signature
    Signature Algorithm: sha256WithRSAEncryption
         26:77:31:e4:b1:17:29:32:02:0c:5d:28:ec:e7:ca:07:8d:f3:
         9a:4a:f0:ac:69:18:43:dd:07:20:04:fd:10:7a:10:b1:38:00:
         2e:0a:fb:de:bb:87:9c:39:fd:98:c6:86:30:49:9a:dc:39:10:
         5a:85:6e:41:20:31:6a:ac:cb:4f:1b:af:a0:44:ce:a6:2c:a2:
         82:7e:d1:2d:a3:1a:83:12:07:0a:cf:70:73:0f:ef:ac:f1:d4:
         b0:96:76:8d:44:ca:e2:54:9a:26:72:1e:cb:27:3d:5f:cb:0d:
         4f:22:d2:a7:b0:40:d8:28:4a:67:02:e7:f4:4c:7a:83:85:28:
         19:73:2a:e1:b5:c0:5a:81:99:03:31:cf:a2:85:ed:ab:81:d6:
         90:68:b1:17:b0:6d:2e:9c:90:4e:6d:7d:ad:74:3b:e5:f4:84:
         ff:39:b7:8d:b1:cc:57:4d:fd:7b:93:04:52:bb:0d:33:71:9a:
         e1:f5:a4:88:9b:be:e0:a4:92:fe:ca:a7:c7:5a:f8:47:81:86:
         e3:4c:b3:d1:73:12:f7:ac:cf:f8:0a:1f:e6:f0:bb:8b:4c:8e:
         e5:17:e5:90:8c:73:05:cd:e9:5a:4f:85:09:76:d3:1d:d0:f2:
         5e:74:0f:5e:c6:0c:1b:3f:19:da:33:33:fc:8a:15:ce:ec:84:
         58:cd:7b:37
-----BEGIN CERTIFICATE-----
MIIDjTCCAnWgAwIBAgIBGzANBgkqhkiG9w0BAQsFADB1MQswCQYDVQQGEwJVUzET
MBEGA1UECAwKQ2FsaWZvcm5pYTEUMBIGA1UEBwwLU2FudGEgQ2xhcmExDTALBgNV
BAoMBHBrZzUxEjAQBgNVBAMMCWNoMS4xX3RhMzEYMBYGCSqGSIb3DQEJARYJY2gx
LjFfdGEzMB4XDTIzMDcxOTExMzU0OFoXDTI2MDQxNDExMzU0OFowfTELMAkGA1UE
BhMCVVMxEzARBgNVBAgMCkNhbGlmb3JuaWExFDASBgNVBAcMC1NhbnRhIENsYXJh
MQ0wCwYDVQQKDARwa2c1MRYwFAYDVQQDDA1jczFfY2gxLjFfdGEzMRwwGgYJKoZI
hvcNAQkBFg1jczFfY2gxLjFfdGEzMIIBIjANBgkqhkiG9w0BAQEFAAOCAQ8AMIIB
CgKCAQEA0swQ7DJiE3EhEdF0z/NE7pcCD2EOp2BhMuAZGS5kgQYoy625utK+wxO4
5gyB/b82aU/zQatHwaDh20zQM/r4LuTogHSLaKEzL+jZ2VAhRCRQmZ+cF/YKhRAD
79oUSR5GoTV+MvSPHfAMa43mMmnvn1P3YPt9xr37TLQ1zmS8t/zN3yl60XTkwyxv
ryBn8s2l4MuhIfEtDa2garp9nG8uutiuRASqsbh25KHsNpTX5NxzOAFH5aHWl+no
PWaGg/ZT6ti+BkMrrTY8V6YlC2RP4po35JwZoa5nNh17mh687cbyx8jVCPIu9ly5
WYixTj8GqfvCspWXRCfkUGtdg+RR6wIDAQABoyAwHjAMBgNVHRMBAf8EAjAAMA4G
A1UdDwEB/wQEAwIHgDANBgkqhkiG9w0BAQsFAAOCAQEAJncx5LEXKTICDF0o7OfK
B43zmkrwrGkYQ90HIAT9EHoQsTgALgr73ruHnDn9mMaGMEma3DkQWoVuQSAxaqzL
TxuvoETOpiyign7RLaMagxIHCs9wcw/vrPHUsJZ2jUTK4lSaJnIeyyc9X8sNTyLS
p7BA2ChKZwLn9Ex6g4UoGXMq4bXAWoGZAzHPooXtq4HWkGixF7BtLpyQTm19rXQ7
5fSE/zm3jbHMV039e5MEUrsNM3Ga4fWkiJu+4KSS/sqnx1r4R4GG40yz0XMS96zP
+Aof5vC7i0yO5RflkIxzBc3pWk+FCXbTHdDyXnQPXsYMGz8Z2jMz/IoVzuyEWM17
Nw==
-----END CERTIFICATE-----
