Certificate:
    Data:
        Version: 3 (0x2)
        Serial Number: 25 (0x19)
    Signature Algorithm: sha256WithRSAEncryption
        Issuer: C=US, ST=California, L=Santa Clara, O=pkg5, CN=cs8_ch1_ta3/emailAddress=cs8_ch1_ta3
        Validity
            Not Before: Jan 22 01:57:57 2016 GMT
            Not After : Oct 18 01:57:57 2018 GMT
        Subject: C=US, ST=California, L=Santa Clara, O=pkg5, CN=cs1_cs8_ch1_ta3/emailAddress=cs1_cs8_ch1_ta3
        Subject Public Key Info:
            Public Key Algorithm: rsaEncryption
                Public-Key: (1024 bit)
                Modulus:
                    00:d1:75:ff:04:69:3f:69:3d:bf:6f:6a:70:24:59:
                    60:2d:c4:96:67:a6:a0:f4:9b:0c:3c:0d:69:86:67:
                    20:da:cb:d6:22:4c:50:7c:47:66:ab:a1:4f:a8:25:
                    6b:a5:58:c4:7a:de:9a:c3:3f:a5:1c:3a:e8:32:a7:
                    1c:1b:57:4d:62:0a:b6:98:3a:f5:ab:93:bf:b6:ff:
                    85:94:73:1d:4e:b6:25:28:a1:ca:0c:82:a6:0b:85:
                    94:52:b0:dd:8f:b2:fd:4a:5f:ce:83:94:3a:77:b9:
                    08:24:ed:80:f1:b8:5d:45:a5:80:fa:c6:e7:9a:f8:
                    a2:1a:a5:6f:32:06:a7:1f:15
                Exponent: 65537 (0x10001)
        X509v3 extensions:
            X509v3 Basic Constraints: critical
                CA:FALSE
            X509v3 Key Usage: critical
                Digital Signature
    Signature Algorithm: sha256WithRSAEncryption
         0d:65:4f:e9:ee:1e:4b:95:4c:ab:53:e8:52:f4:f1:2d:ff:2d:
         49:31:22:38:31:5d:b8:a3:d1:24:84:9f:94:36:51:1e:01:93:
         79:fc:eb:82:07:07:6f:75:fb:38:a6:20:6e:f4:05:b7:a8:e3:
         3e:ed:aa:da:64:12:0a:0f:86:91:fb:2b:99:1b:fd:1f:9d:fa:
         f1:c1:12:be:0a:6a:cb:29:74:f9:1d:cf:7b:4f:40:87:a0:b2:
         76:9a:96:81:20:7b:d8:7b:2e:ff:ae:8f:49:af:7b:cd:bc:48:
         bf:ee:1a:7e:62:2a:bc:2a:fc:a0:3a:11:72:b4:95:a8:2b:a4:
         12:1b
-----BEGIN CERTIFICATE-----
MIICkTCCAfqgAwIBAgIBGTANBgkqhkiG9w0BAQsFADB5MQswCQYDVQQGEwJVUzET
MBEGA1UECAwKQ2FsaWZvcm5pYTEUMBIGA1UEBwwLU2FudGEgQ2xhcmExDTALBgNV
BAoMBHBrZzUxFDASBgNVBAMMC2NzOF9jaDFfdGEzMRowGAYJKoZIhvcNAQkBFgtj
czhfY2gxX3RhMzAeFw0xNjAxMjIwMTU3NTdaFw0xODEwMTgwMTU3NTdaMIGBMQsw
CQYDVQQGEwJVUzETMBEGA1UECAwKQ2FsaWZvcm5pYTEUMBIGA1UEBwwLU2FudGEg
Q2xhcmExDTALBgNVBAoMBHBrZzUxGDAWBgNVBAMMD2NzMV9jczhfY2gxX3RhMzEe
MBwGCSqGSIb3DQEJARYPY3MxX2NzOF9jaDFfdGEzMIGfMA0GCSqGSIb3DQEBAQUA
A4GNADCBiQKBgQDRdf8EaT9pPb9vanAkWWAtxJZnpqD0mww8DWmGZyDay9YiTFB8
R2aroU+oJWulWMR63prDP6UcOugypxwbV01iCraYOvWrk7+2/4WUcx1OtiUoocoM
gqYLhZRSsN2Psv1KX86DlDp3uQgk7YDxuF1FpYD6xuea+KIapW8yBqcfFQIDAQAB
oyAwHjAMBgNVHRMBAf8EAjAAMA4GA1UdDwEB/wQEAwIHgDANBgkqhkiG9w0BAQsF
AAOBgQANZU/p7h5LlUyrU+hS9PEt/y1JMSI4MV24o9EkhJ+UNlEeAZN5/OuCBwdv
dfs4piBu9AW3qOM+7araZBIKD4aR+yuZG/0fnfrxwRK+CmrLKXT5Hc97T0CHoLJ2
mpaBIHvYey7/ro9Jr3vNvEi/7hp+Yiq8KvygOhFytJWoK6QSGw==
-----END CERTIFICATE-----
