Certificate:
    Data:
        Version: 3 (0x2)
        Serial Number: 24 (0x18)
    Signature Algorithm: sha256WithRSAEncryption
        Issuer: C=US, ST=California, L=Santa Clara, O=pkg5, CN=cs8_ch1_ta3/emailAddress=cs8_ch1_ta3
        Validity
            Not Before: Jul 19 11:35:47 2023 GMT
            Not After : Apr 14 11:35:47 2026 GMT
        Subject: C=US, ST=California, L=Santa Clara, O=pkg5, CN=cs1_cs8_ch1_ta3/emailAddress=cs1_cs8_ch1_ta3
        Subject Public Key Info:
            Public Key Algorithm: rsaEncryption
                Public-Key: (2048 bit)
                Modulus:
                    00:b4:c9:37:75:8d:fd:63:1c:5a:2f:ab:be:40:6b:
                    21:fb:50:5d:34:f8:b9:f8:26:e3:df:ad:29:ca:62:
                    71:a4:c1:54:3c:90:32:75:66:6e:80:8c:43:2b:b1:
                    70:60:37:1d:34:22:3a:ac:cd:a6:f5:e7:ed:93:18:
                    2d:4a:a8:87:8c:66:7e:4b:67:1c:09:14:b1:3d:ca:
                    3d:1f:93:e1:c1:e9:ed:bd:50:52:22:a1:26:d6:eb:
                    27:eb:35:39:7d:77:ed:74:68:69:d5:f5:95:06:c5:
                    61:05:8a:09:cb:9e:ef:88:3d:a6:ed:f1:31:47:a3:
                    ba:04:90:48:18:97:a7:39:39:82:a8:ed:bb:e4:67:
                    33:27:21:db:76:d4:23:f6:31:b6:00:9b:96:0c:4c:
                    ca:14:06:97:a8:3b:b0:aa:34:43:69:ba:6f:23:fd:
                    90:70:6b:87:0e:f2:d6:a4:e7:16:6f:bc:55:8e:42:
                    1f:44:5b:7c:47:6f:54:05:a7:35:f4:4a:33:25:d8:
                    a4:5e:78:d4:aa:21:b6:fd:e5:f4:c1:73:94:ef:6f:
                    b1:c4:47:b3:23:70:a5:b3:f2:e2:c8:70:b3:5e:03:
                    8e:7c:61:38:f6:9a:e9:9d:c9:6d:fd:23:6d:46:38:
                    b3:16:50:b4:f1:b7:4c:65:59:78:82:5b:33:1c:95:
                    31:db
                Exponent: 65537 (0x10001)
        X509v3 extensions:
            X509v3 Basic Constraints: critical
                CA:FALSE
            X509v3 Key Usage: critical
                Digital Signature
    Signature Algorithm: sha256WithRSAEncryption
         17:8e:91:6e:91:8b:d5:98:ea:9d:08:07:05:bf:07:57:aa:f5:
         35:2e:b1:80:d6:37:c3:e8:bd:6e:4a:a9:95:fc:c6:5f:4a:fc:
         15:a8:c4:93:a8:72:fb:53:de:37:0d:a9:9d:c1:b0:af:ad:19:
         35:a8:3c:5a:fb:f3:60:a4:67:f3:f5:9f:0d:3b:c1:33:5c:4b:
         12:53:06:c0:87:99:4d:48:95:7c:7f:d9:c3:ea:22:9c:a3:4d:
         1d:e2:c7:4f:7e:08:07:29:3a:33:d2:fa:8c:ad:e6:c1:99:52:
         f8:df:2d:97:d9:d3:4b:c6:a1:30:08:96:1d:c4:da:98:e1:58:
         08:31:42:8d:ef:b8:f0:e0:00:fe:6b:f5:98:24:19:e3:50:32:
         00:66:a1:a8:8d:b9:a5:7d:44:7d:03:bb:05:aa:b5:47:ab:c4:
         6f:df:49:47:6f:f4:9e:e9:93:64:db:91:f4:75:7d:6c:45:e9:
         34:d9:a4:08:12:7b:18:07:5d:d1:9f:83:4c:93:27:ab:26:c1:
         ee:3b:6e:1b:76:c6:e8:35:41:f6:8d:7a:04:94:67:fd:50:25:
         f3:f6:c2:8f:13:9d:52:db:4a:6e:76:d8:5c:3f:11:df:74:7b:
         0e:a3:49:1f:6e:08:cc:b4:ed:18:1d:71:e9:92:0d:6c:6b:fd:
         22:11:56:8e
-----BEGIN CERTIFICATE-----
MIIDljCCAn6gAwIBAgIBGDANBgkqhkiG9w0BAQsFADB5MQswCQYDVQQGEwJVUzET
MBEGA1UECAwKQ2FsaWZvcm5pYTEUMBIGA1UEBwwLU2FudGEgQ2xhcmExDTALBgNV
BAoMBHBrZzUxFDASBgNVBAMMC2NzOF9jaDFfdGEzMRowGAYJKoZIhvcNAQkBFgtj
czhfY2gxX3RhMzAeFw0yMzA3MTkxMTM1NDdaFw0yNjA0MTQxMTM1NDdaMIGBMQsw
CQYDVQQGEwJVUzETMBEGA1UECAwKQ2FsaWZvcm5pYTEUMBIGA1UEBwwLU2FudGEg
Q2xhcmExDTALBgNVBAoMBHBrZzUxGDAWBgNVBAMMD2NzMV9jczhfY2gxX3RhMzEe
MBwGCSqGSIb3DQEJARYPY3MxX2NzOF9jaDFfdGEzMIIBIjANBgkqhkiG9w0BAQEF
AAOCAQ8AMIIBCgKCAQEAtMk3dY39YxxaL6u+QGsh+1BdNPi5+Cbj360pymJxpMFU
PJAydWZugIxDK7FwYDcdNCI6rM2m9eftkxgtSqiHjGZ+S2ccCRSxPco9H5Phwent
vVBSIqEm1usn6zU5fXftdGhp1fWVBsVhBYoJy57viD2m7fExR6O6BJBIGJenOTmC
qO275GczJyHbdtQj9jG2AJuWDEzKFAaXqDuwqjRDabpvI/2QcGuHDvLWpOcWb7xV
jkIfRFt8R29UBac19EozJdikXnjUqiG2/eX0wXOU72+xxEezI3Cls/LiyHCzXgOO
fGE49prpnclt/SNtRjizFlC08bdMZVl4glszHJUx2wIDAQABoyAwHjAMBgNVHRMB
Af8EAjAAMA4GA1UdDwEB/wQEAwIHgDANBgkqhkiG9w0BAQsFAAOCAQEAF46RbpGL
1ZjqnQgHBb8HV6r1NS6xgNY3w+i9bkqplfzGX0r8FajEk6hy+1PeNw2pncGwr60Z
Nag8WvvzYKRn8/WfDTvBM1xLElMGwIeZTUiVfH/Zw+oinKNNHeLHT34IByk6M9L6
jK3mwZlS+N8tl9nTS8ahMAiWHcTamOFYCDFCje+48OAA/mv1mCQZ41AyAGahqI25
pX1EfQO7Baq1R6vEb99JR2/0numTZNuR9HV9bEXpNNmkCBJ7GAdd0Z+DTJMnqybB
7jtuG3bG6DVB9o16BJRn/VAl8/bCjxOdUttKbnbYXD8R33R7DqNJH24IzLTtGB1x
6ZINbGv9IhFWjg==
-----END CERTIFICATE-----
