Certificate:
    Data:
        Version: 3 (0x2)
        Serial Number: 42 (0x2a)
    Signature Algorithm: sha256WithRSAEncryption
        Issuer: C=US, ST=California, L=Santa Clara, O=pkg5, OU=ta6, CN=localhost/emailAddress=ta6
        Validity
            Not Before: Jul 19 11:35:52 2023 GMT
            Not After : Apr 14 11:35:52 2026 GMT
        Subject: C=US, ST=California, L=Santa Clara, O=pkg5, OU=cs1_ta6, CN=localhost/emailAddress=cs1_ta6
        Subject Public Key Info:
            Public Key Algorithm: rsaEncryption
                Public-Key: (2048 bit)
                Modulus:
                    00:d4:18:dd:bf:b9:74:1f:45:8e:2d:7c:01:de:42:
                    ec:ce:a7:33:a4:29:14:8a:c2:92:67:53:70:20:6e:
                    39:fa:a3:ea:30:76:99:fe:f9:15:e3:6b:95:22:18:
                    a5:a2:43:e8:c5:18:eb:e5:dc:bc:99:7a:78:58:08:
                    29:7c:aa:76:3a:e9:f0:0a:0f:89:59:9e:02:bb:43:
                    a2:2b:af:73:26:22:91:3a:1f:70:2d:45:fa:1e:b3:
                    9d:b9:72:83:c6:32:53:a5:3f:e0:4c:a6:84:e7:dd:
                    b9:87:c2:e9:82:42:a9:5b:34:f7:67:59:9f:5a:d2:
                    b2:41:9c:e3:ef:2a:e0:6f:73:c6:35:d4:7c:dc:a9:
                    24:ce:93:f8:fd:34:e2:bb:0b:18:09:d3:12:73:da:
                    72:dc:38:e9:1a:1e:64:7a:49:50:72:b6:6e:fd:53:
                    3a:4b:4f:a4:a4:37:d1:04:b7:67:1a:26:82:30:83:
                    1b:1c:2b:4d:10:ac:8d:1e:5b:bd:3a:cd:53:42:d6:
                    30:6f:44:16:27:b6:d5:47:9b:be:0c:36:90:52:d0:
                    6f:a8:89:e3:bd:f3:05:51:b0:e1:ac:0b:c0:04:73:
                    9c:af:23:01:2a:c2:9d:64:8e:a6:42:2a:e5:62:11:
                    83:6e:1f:7a:77:96:b7:90:9f:98:c8:f7:ff:85:f6:
                    c7:6b
                Exponent: 65537 (0x10001)
        X509v3 extensions:
            X509v3 Basic Constraints: critical
                CA:FALSE
            X509v3 Key Usage: critical
                Digital Signature
    Signature Algorithm: sha256WithRSAEncryption
         76:e8:68:59:7a:9e:ea:41:d3:c4:9f:55:2c:44:79:92:bb:06:
         e5:87:3b:eb:68:71:8e:c3:5e:1d:6c:87:46:31:08:b8:ee:8f:
         04:e1:55:04:15:9e:45:a1:ec:93:25:0b:ee:73:07:d8:97:68:
         94:38:bc:1e:30:ed:7c:9e:1a:af:aa:08:f3:d0:f6:c2:ed:31:
         87:93:cb:12:50:0c:5e:f5:42:53:de:ba:90:f3:e0:b0:46:df:
         59:2c:d6:6d:93:c0:c4:f4:43:39:29:ac:23:b3:29:df:33:8d:
         a4:12:6a:00:4d:ef:69:d6:b3:e3:dc:fc:95:a4:b7:e5:91:3d:
         9a:5d:78:90:27:63:54:09:9c:26:28:6d:a4:b3:11:78:fd:e0:
         cb:31:b8:b9:2f:9d:1d:1e:28:08:d5:64:42:81:05:28:e4:b0:
         8e:94:ae:cd:6e:15:1d:fd:bb:05:96:2f:f3:5a:f0:a2:0e:52:
         4c:8b:c8:5a:dd:29:b7:92:a7:42:b5:ae:6e:c0:3e:4d:9e:10:
         33:5d:d8:5c:26:65:ac:ff:f6:21:6e:61:38:94:78:b2:11:b8:
         f8:1c:67:53:4d:58:90:93:2c:1c:c8:79:7d:db:a6:cb:50:a8:
         30:fb:2d:0b:04:68:cd:26:a0:ed:ff:03:a4:98:08:1b:2a:55:
         51:79:78:95
-----BEGIN CERTIFICATE-----
MIIDnjCCAoagAwIBAgIBKjANBgkqhkiG9w0BAQsFADB9MQswCQYDVQQGEwJVUzET
MBEGA1UECAwKQ2FsaWZvcm5pYTEUMBIGA1UEBwwLU2FudGEgQ2xhcmExDTALBgNV
BAoMBHBrZzUxDDAKBgNVBAsMA3RhNjESMBAGA1UEAwwJbG9jYWxob3N0MRIwEAYJ
KoZIhvcNAQkBFgN0YTYwHhcNMjMwNzE5MTEzNTUyWhcNMjYwNDE0MTEzNTUyWjCB
hTELMAkGA1UEBhMCVVMxEzARBgNVBAgMCkNhbGlmb3JuaWExFDASBgNVBAcMC1Nh
bnRhIENsYXJhMQ0wCwYDVQQKDARwa2c1MRAwDgYDVQQLDAdjczFfdGE2MRIwEAYD
VQQDDAlsb2NhbGhvc3QxFjAUBgkqhkiG9w0BCQEWB2NzMV90YTYwggEiMA0GCSqG
SIb3DQEBAQUAA4IBDwAwggEKAoIBAQDUGN2/uXQfRY4tfAHeQuzOpzOkKRSKwpJn
U3Agbjn6o+owdpn++RXja5UiGKWiQ+jFGOvl3LyZenhYCCl8qnY66fAKD4lZngK7
Q6Irr3MmIpE6H3AtRfoes525coPGMlOlP+BMpoTn3bmHwumCQqlbNPdnWZ9a0rJB
nOPvKuBvc8Y11HzcqSTOk/j9NOK7CxgJ0xJz2nLcOOkaHmR6SVBytm79UzpLT6Sk
N9EEt2caJoIwgxscK00QrI0eW706zVNC1jBvRBYnttVHm74MNpBS0G+oieO98wVR
sOGsC8AEc5yvIwEqwp1kjqZCKuViEYNuH3p3lreQn5jI9/+F9sdrAgMBAAGjIDAe
MAwGA1UdEwEB/wQCMAAwDgYDVR0PAQH/BAQDAgeAMA0GCSqGSIb3DQEBCwUAA4IB
AQB26GhZep7qQdPEn1UsRHmSuwblhzvraHGOw14dbIdGMQi47o8E4VUEFZ5FoeyT
JQvucwfYl2iUOLweMO18nhqvqgjz0PbC7TGHk8sSUAxe9UJT3rqQ8+CwRt9ZLNZt
k8DE9EM5KawjsynfM42kEmoATe9p1rPj3PyVpLflkT2aXXiQJ2NUCZwmKG2ksxF4
/eDLMbi5L50dHigI1WRCgQUo5LCOlK7NbhUd/bsFli/zWvCiDlJMi8ha3Sm3kqdC
ta5uwD5NnhAzXdhcJmWs//YhbmE4lHiyEbj4HGdTTViQkywcyHl926bLUKgw+y0L
BGjNJqDt/wOkmAgbKlVReXiV
-----END CERTIFICATE-----
