Certificate:
    Data:
        Version: 3 (0x2)
        Serial Number: 13 (0xd)
        Signature Algorithm: sha256WithRSAEncryption
        Issuer: C=US, ST=California, L=Menlo Park, O=pkg5, CN=pubCA1_ta3/emailAddress=pubCA1_ta3
        Validity
            Not Before: Aug  4 20:59:25 2010 GMT
            Not After : Apr 30 20:59:25 2013 GMT
        Subject: C=US, ST=California, L=Menlo Park, O=pkg5, CN=cs1_p1_ta3/emailAddress=cs1_p1_ta3
        Subject Public Key Info:
            Public Key Algorithm: rsaEncryption
            RSA Public Key: (1024 bit)
                Modulus (1024 bit):
                    00:dd:8e:8a:e1:5f:20:65:74:0d:91:f3:d6:bd:76:
                    67:58:99:ae:d7:99:bc:78:1f:d0:bb:d9:97:95:41:
                    3b:42:4b:cc:cc:36:d8:27:00:2a:c3:27:92:4c:2d:
                    5f:62:81:0c:b2:6d:1b:93:ca:a4:1c:18:09:8c:26:
                    22:bf:80:a4:fe:48:37:87:64:63:32:95:41:8f:f6:
                    35:98:93:f0:61:f2:4b:eb:b0:34:36:67:85:a1:9d:
                    21:75:de:ab:9f:32:ae:3a:93:64:48:7f:ef:5a:fa:
                    44:e2:1b:9f:9d:10:3c:c3:9c:90:dd:e1:fe:33:31:
                    4a:22:cb:82:ab:84:2a:1e:af
                Exponent: 65537 (0x10001)
        X509v3 extensions:
            X509v3 Basic Constraints: critical
                CA:FALSE
            X509v3 Key Usage: 
                Digital Signature
    Signature Algorithm: sha256WithRSAEncryption
        3c:c2:d6:d7:6b:2a:e4:79:6d:b3:c8:48:64:b6:54:0c:30:d0:
        3b:cd:4e:b8:f8:cd:0a:94:53:e5:10:b9:9e:93:f3:5a:a5:5e:
        8c:4f:a6:d9:6c:98:ac:b6:e9:87:5e:85:ca:80:7f:34:5f:8a:
        97:7a:f3:fc:8e:8d:de:6c:58:02:dc:ee:46:96:46:38:60:13:
        7d:3a:5e:b8:32:e9:15:33:3f:0f:f2:21:2c:ea:ef:cf:0b:ff:
        b8:07:58:2a:61:15:2c:fe:69:86:02:78:76:60:ce:51:30:8a:
        26:ed:aa:9e:ee:b0:64:81:2f:0f:5c:a5:cd:47:cd:59:0b:3b:
        aa:12
-----BEGIN CERTIFICATE-----
MIICfzCCAeigAwIBAgIBDTANBgkqhkiG9w0BAQsFADB2MQswCQYDVQQGEwJVUzET
MBEGA1UECBMKQ2FsaWZvcm5pYTETMBEGA1UEBxMKTWVubG8gUGFyazENMAsGA1UE
ChMEcGtnNTETMBEGA1UEAxQKcHViQ0ExX3RhMzEZMBcGCSqGSIb3DQEJARYKcHVi
Q0ExX3RhMzAeFw0xMDA4MDQyMDU5MjVaFw0xMzA0MzAyMDU5MjVaMHYxCzAJBgNV
BAYTAlVTMRMwEQYDVQQIEwpDYWxpZm9ybmlhMRMwEQYDVQQHEwpNZW5sbyBQYXJr
MQ0wCwYDVQQKEwRwa2c1MRMwEQYDVQQDFApjczFfcDFfdGEzMRkwFwYJKoZIhvcN
AQkBFgpjczFfcDFfdGEzMIGfMA0GCSqGSIb3DQEBAQUAA4GNADCBiQKBgQDdjorh
XyBldA2R89a9dmdYma7Xmbx4H9C72ZeVQTtCS8zMNtgnACrDJ5JMLV9igQyybRuT
yqQcGAmMJiK/gKT+SDeHZGMylUGP9jWYk/Bh8kvrsDQ2Z4WhnSF13qufMq46k2RI
f+9a+kTiG5+dEDzDnJDd4f4zMUoiy4KrhCoerwIDAQABox0wGzAMBgNVHRMBAf8E
AjAAMAsGA1UdDwQEAwIHgDANBgkqhkiG9w0BAQsFAAOBgQA8wtbXayrkeW2zyEhk
tlQMMNA7zU64+M0KlFPlELmek/NapV6MT6bZbJistumHXoXKgH80X4qXevP8jo3e
bFgC3O5GlkY4YBN9Ol64MukVMz8P8iEs6u/PC/+4B1gqYRUs/mmGAnh2YM5RMIom
7aqe7rBkgS8PXKXNR81ZCzuqEg==
-----END CERTIFICATE-----
