Certificate:
    Data:
        Version: 3 (0x2)
        Serial Number: 29 (0x1d)
        Signature Algorithm: sha256WithRSAEncryption
        Issuer: C=US, ST=California, L=Menlo Park, O=pkg5, CN=pubCA5_ta3/emailAddress=pubCA5_ta3
        Validity
            Not Before: Jan 28 02:54:21 2011 GMT
            Not After : Oct 24 02:54:21 2013 GMT
        Subject: C=US, ST=California, L=Menlo Park, O=pkg5, CN=cs1_p5_ta3/emailAddress=cs1_p5_ta3
        Subject Public Key Info:
            Public Key Algorithm: rsaEncryption
            RSA Public Key: (1024 bit)
                Modulus (1024 bit):
                    00:b3:b9:bc:52:49:6a:cc:8f:ca:8e:6d:1e:40:87:
                    3a:c6:c9:00:0b:93:e1:76:45:27:3e:d2:8c:db:2c:
                    06:35:f3:06:df:4b:e9:63:3e:0e:62:2d:9c:86:6f:
                    05:a3:90:6e:4e:b2:89:c7:c5:60:7a:8f:f0:7a:f8:
                    53:31:fe:e4:c3:e4:ae:09:67:4a:15:f5:ae:97:a1:
                    6c:1f:ec:0a:99:ea:25:4f:a7:fe:f8:e0:55:e1:23:
                    ba:65:08:3b:42:ac:c6:b1:30:b5:c5:ed:10:5b:3e:
                    06:d0:63:fb:da:d2:39:e0:fa:b6:17:ac:cb:c0:ed:
                    ae:54:cf:f9:73:e4:e8:e4:2d
                Exponent: 65537 (0x10001)
        X509v3 extensions:
            X509v3 Basic Constraints: critical
                CA:FALSE
            X509v3 Key Usage: critical
                Digital Signature
    Signature Algorithm: sha256WithRSAEncryption
        26:bd:71:87:c8:bb:70:76:91:0f:7a:68:e5:4b:2c:80:ba:73:
        7c:65:30:b5:16:4f:7a:0a:27:17:90:bc:74:c5:6a:c4:ab:3c:
        3c:78:f5:87:ad:cf:68:1a:4e:1d:10:34:3f:b7:a5:18:d9:d3:
        f7:79:82:7d:16:08:77:d0:20:2c:cd:a1:2d:95:be:fb:d3:64:
        d4:07:b3:3f:51:a4:6f:77:dc:c3:a9:3a:f9:bc:10:49:80:5a:
        f6:2e:d1:c3:34:40:05:6a:65:7a:40:08:4a:e5:32:f3:de:0d:
        87:7e:cf:fd:8b:a4:9d:2c:28:9c:ee:9d:f4:45:a4:9c:c6:0c:
        d0:25
-----BEGIN CERTIFICATE-----
MIICgjCCAeugAwIBAgIBHTANBgkqhkiG9w0BAQsFADB2MQswCQYDVQQGEwJVUzET
MBEGA1UECBMKQ2FsaWZvcm5pYTETMBEGA1UEBxMKTWVubG8gUGFyazENMAsGA1UE
ChMEcGtnNTETMBEGA1UEAxQKcHViQ0E1X3RhMzEZMBcGCSqGSIb3DQEJARYKcHVi
Q0E1X3RhMzAeFw0xMTAxMjgwMjU0MjFaFw0xMzEwMjQwMjU0MjFaMHYxCzAJBgNV
BAYTAlVTMRMwEQYDVQQIEwpDYWxpZm9ybmlhMRMwEQYDVQQHEwpNZW5sbyBQYXJr
MQ0wCwYDVQQKEwRwa2c1MRMwEQYDVQQDFApjczFfcDVfdGEzMRkwFwYJKoZIhvcN
AQkBFgpjczFfcDVfdGEzMIGfMA0GCSqGSIb3DQEBAQUAA4GNADCBiQKBgQCzubxS
SWrMj8qObR5AhzrGyQALk+F2RSc+0ozbLAY18wbfS+ljPg5iLZyGbwWjkG5OsonH
xWB6j/B6+FMx/uTD5K4JZ0oV9a6XoWwf7AqZ6iVPp/744FXhI7plCDtCrMaxMLXF
7RBbPgbQY/va0jng+rYXrMvA7a5Uz/lz5OjkLQIDAQABoyAwHjAMBgNVHRMBAf8E
AjAAMA4GA1UdDwEB/wQEAwIHgDANBgkqhkiG9w0BAQsFAAOBgQAmvXGHyLtwdpEP
emjlSyyAunN8ZTC1Fk96CicXkLx0xWrEqzw8ePWHrc9oGk4dEDQ/t6UY2dP3eYJ9
Fgh30CAszaEtlb7702TUB7M/UaRvd9zDqTr5vBBJgFr2LtHDNEAFamV6QAhK5TLz
3g2Hfs/9i6SdLCic7p30RaScxgzQJQ==
-----END CERTIFICATE-----
