Certificate:
    Data:
        Version: 3 (0x2)
        Serial Number: 29 (0x1d)
    Signature Algorithm: sha256WithRSAEncryption
        Issuer: C=US, ST=California, L=Santa Clara, O=pkg5, CN=ch1.2_ta3/emailAddress=ch1.2_ta3
        Validity
            Not Before: Mar 18 23:38:22 2016 GMT
            Not After : Dec 13 23:38:22 2018 GMT
        Subject: C=US, ST=California, L=Santa Clara, O=pkg5, CN=cs1_ch1.2_ta3/emailAddress=cs1_ch1.2_ta3
        Subject Public Key Info:
            Public Key Algorithm: rsaEncryption
                Public-Key: (1024 bit)
                Modulus:
                    00:9f:cd:4f:ea:3e:1f:39:50:1d:72:b5:24:61:29:
                    f9:18:01:19:f5:0c:46:a8:05:89:3f:04:13:c0:1d:
                    62:b4:3a:60:4b:93:50:2d:b5:f9:e9:39:72:9a:a1:
                    97:ce:f3:e8:f0:d0:7a:31:c8:46:73:69:62:23:1c:
                    0c:16:46:70:bb:93:7e:d6:99:eb:79:fd:83:ad:7c:
                    fc:f0:bf:a8:79:5a:09:83:30:16:cd:c6:8d:b3:14:
                    dd:92:b3:f4:b5:a7:ad:81:a1:bc:3b:23:b1:2e:a0:
                    37:57:90:4e:da:bd:a9:3b:ad:27:55:7b:7e:45:ba:
                    60:8c:b3:ab:c1:0b:da:72:1b
                Exponent: 65537 (0x10001)
        X509v3 extensions:
            X509v3 Basic Constraints: critical
                CA:FALSE
            X509v3 Key Usage: critical
                Digital Signature
    Signature Algorithm: sha256WithRSAEncryption
         31:20:53:c6:2f:f5:31:29:c5:67:6c:bd:8b:39:3c:ac:d5:b3:
         98:b1:2b:cb:32:68:82:22:09:70:0f:04:f7:2c:f8:9f:f0:7b:
         65:9d:48:84:67:75:95:b6:71:1d:09:d9:11:a4:fe:5c:3f:3b:
         b1:93:95:b9:79:34:2b:85:80:ef:3c:77:05:3c:83:d9:cf:38:
         75:5a:59:e6:dc:3a:02:b9:79:85:62:3a:45:0a:45:09:91:86:
         12:13:f0:c7:fb:e8:eb:2c:de:04:9c:5e:b3:e0:56:de:24:ad:
         10:ee:4a:8f:f7:03:2b:25:0b:71:68:0b:2b:ad:54:da:4f:10:
         05:25:6c:08:aa:bb:22:a8:84:cc:e6:3f:ee:24:f2:cc:4b:cc:
         40:be:3e:c4:a5:92:85:c3:a0:85:71:56:64:9d:75:77:05:63:
         15:96:a4:57:b3:8f:8e:14:cf:ea:e4:05:ef:e0:3a:13:f3:54:
         7e:cd:af:fa:98:6f:22:0d:63:06:44:44:66:c2:84:a2:ca:c9:
         ff:b8:98:05:a3:59:6c:87:d9:58:54:b2:98:27:02:a9:5d:0e:
         83:c4:21:85:e5:68:d7:49:59:40:a4:63:59:40:2a:07:bc:88:
         93:7b:32:8d:6d:77:f8:25:85:e3:64:7b:69:c4:56:8f:d4:f9:
         13:c2:20:0c
-----BEGIN CERTIFICATE-----
MIIDCTCCAfGgAwIBAgIBHTANBgkqhkiG9w0BAQsFADB1MQswCQYDVQQGEwJVUzET
MBEGA1UECAwKQ2FsaWZvcm5pYTEUMBIGA1UEBwwLU2FudGEgQ2xhcmExDTALBgNV
BAoMBHBrZzUxEjAQBgNVBAMMCWNoMS4yX3RhMzEYMBYGCSqGSIb3DQEJARYJY2gx
LjJfdGEzMB4XDTE2MDMxODIzMzgyMloXDTE4MTIxMzIzMzgyMlowfTELMAkGA1UE
BhMCVVMxEzARBgNVBAgMCkNhbGlmb3JuaWExFDASBgNVBAcMC1NhbnRhIENsYXJh
MQ0wCwYDVQQKDARwa2c1MRYwFAYDVQQDDA1jczFfY2gxLjJfdGEzMRwwGgYJKoZI
hvcNAQkBFg1jczFfY2gxLjJfdGEzMIGfMA0GCSqGSIb3DQEBAQUAA4GNADCBiQKB
gQCfzU/qPh85UB1ytSRhKfkYARn1DEaoBYk/BBPAHWK0OmBLk1AttfnpOXKaoZfO
8+jw0HoxyEZzaWIjHAwWRnC7k37Wmet5/YOtfPzwv6h5WgmDMBbNxo2zFN2Ss/S1
p62Bobw7I7EuoDdXkE7avak7rSdVe35FumCMs6vBC9pyGwIDAQABoyAwHjAMBgNV
HRMBAf8EAjAAMA4GA1UdDwEB/wQEAwIHgDANBgkqhkiG9w0BAQsFAAOCAQEAMSBT
xi/1MSnFZ2y9izk8rNWzmLEryzJogiIJcA8E9yz4n/B7ZZ1IhGd1lbZxHQnZEaT+
XD87sZOVuXk0K4WA7zx3BTyD2c84dVpZ5tw6Arl5hWI6RQpFCZGGEhPwx/vo6yze
BJxes+BW3iStEO5Kj/cDKyULcWgLK61U2k8QBSVsCKq7IqiEzOY/7iTyzEvMQL4+
xKWShcOghXFWZJ11dwVjFZakV7OPjhTP6uQF7+A6E/NUfs2v+phvIg1jBkREZsKE
osrJ/7iYBaNZbIfZWFSymCcCqV0Og8QhheVo10lZQKRjWUAqB7yIk3syjW13+CWF
42R7acRWj9T5E8IgDA==
-----END CERTIFICATE-----
