Certificate:
    Data:
        Version: 3 (0x2)
        Serial Number: 18 (0x12)
        Signature Algorithm: sha256WithRSAEncryption
        Issuer: C=US, ST=California, L=Menlo Park, O=pkg5, CN=pubCA2_ta3/emailAddress=pubCA2_ta3
        Validity
            Not Before: Aug  4 20:59:27 2010 GMT
            Not After : Apr 30 20:59:27 2013 GMT
        Subject: C=US, ST=California, L=Menlo Park, O=pkg5, CN=cs1_p2_ta3/emailAddress=cs1_p2_ta3
        Subject Public Key Info:
            Public Key Algorithm: rsaEncryption
            RSA Public Key: (1024 bit)
                Modulus (1024 bit):
                    00:d0:1e:f6:58:e2:2b:d0:15:fe:da:5c:5d:11:84:
                    b9:7c:65:42:51:e2:92:9e:43:c0:71:c2:0b:ba:4b:
                    07:60:14:08:27:16:f5:2c:16:44:6d:89:0e:cf:6f:
                    47:2d:ef:12:df:0d:9d:9c:94:cf:4e:f0:00:1c:07:
                    3b:6c:e5:10:61:97:f3:c0:20:12:6c:00:87:9d:95:
                    e4:3b:14:de:7d:97:77:59:9a:2c:9a:f6:a9:0c:20:
                    3f:0b:da:a9:13:32:d3:a9:a7:5f:38:9f:b5:7f:19:
                    0f:f1:ff:c0:a6:7f:e9:76:24:66:72:29:ce:6d:6a:
                    a2:c3:3e:34:0a:34:b8:c4:9b
                Exponent: 65537 (0x10001)
        X509v3 extensions:
            X509v3 Basic Constraints: critical
                CA:FALSE
            X509v3 Key Usage: 
                Digital Signature
    Signature Algorithm: sha256WithRSAEncryption
        2f:4c:87:b3:14:32:98:dd:06:48:ce:26:54:7d:49:d7:3d:6a:
        a3:ac:52:bc:55:9e:9f:09:82:1a:ea:cc:c3:a4:a2:83:4e:98:
        73:cd:29:f5:0b:46:4f:f7:e6:97:cb:96:8f:60:ca:22:b0:dc:
        37:0e:7b:89:4c:24:13:aa:9a:4e:65:f7:66:f2:3c:99:e3:12:
        e4:59:db:b9:9f:46:a4:27:19:1b:90:f3:2b:8d:01:88:78:81:
        34:90:0e:14:a9:80:05:f1:19:28:22:e1:00:f3:e4:a6:e1:28:
        0d:d0:36:ac:9f:1c:05:9c:17:e3:0f:2b:40:6b:1a:7a:07:60:
        8c:b5
-----BEGIN CERTIFICATE-----
MIICfzCCAeigAwIBAgIBEjANBgkqhkiG9w0BAQsFADB2MQswCQYDVQQGEwJVUzET
MBEGA1UECBMKQ2FsaWZvcm5pYTETMBEGA1UEBxMKTWVubG8gUGFyazENMAsGA1UE
ChMEcGtnNTETMBEGA1UEAxQKcHViQ0EyX3RhMzEZMBcGCSqGSIb3DQEJARYKcHVi
Q0EyX3RhMzAeFw0xMDA4MDQyMDU5MjdaFw0xMzA0MzAyMDU5MjdaMHYxCzAJBgNV
BAYTAlVTMRMwEQYDVQQIEwpDYWxpZm9ybmlhMRMwEQYDVQQHEwpNZW5sbyBQYXJr
MQ0wCwYDVQQKEwRwa2c1MRMwEQYDVQQDFApjczFfcDJfdGEzMRkwFwYJKoZIhvcN
AQkBFgpjczFfcDJfdGEzMIGfMA0GCSqGSIb3DQEBAQUAA4GNADCBiQKBgQDQHvZY
4ivQFf7aXF0RhLl8ZUJR4pKeQ8Bxwgu6SwdgFAgnFvUsFkRtiQ7Pb0ct7xLfDZ2c
lM9O8AAcBzts5RBhl/PAIBJsAIedleQ7FN59l3dZmiya9qkMID8L2qkTMtOpp184
n7V/GQ/x/8Cmf+l2JGZyKc5taqLDPjQKNLjEmwIDAQABox0wGzAMBgNVHRMBAf8E
AjAAMAsGA1UdDwQEAwIHgDANBgkqhkiG9w0BAQsFAAOBgQAvTIezFDKY3QZIziZU
fUnXPWqjrFK8VZ6fCYIa6szDpKKDTphzzSn1C0ZP9+aXy5aPYMoisNw3DnuJTCQT
qppOZfdm8jyZ4xLkWdu5n0akJxkbkPMrjQGIeIE0kA4UqYAF8RkoIuEA8+Sm4SgN
0DasnxwFnBfjDytAaxp6B2CMtQ==
-----END CERTIFICATE-----
