Certificate:
    Data:
        Version: 3 (0x2)
        Serial Number: 33 (0x21)
    Signature Algorithm: sha256WithRSAEncryption
        Issuer: C=US, ST=California, L=Santa Clara, O=pkg5, CN=ch1.4_ta3/emailAddress=ch1.4_ta3
        Validity
            Not Before: Dec 13 00:13:37 2013 GMT
            Not After : Sep  8 00:13:37 2016 GMT
        Subject: C=US, ST=California, L=Santa Clara, O=pkg5, CN=cs1_ch1.4_ta3/emailAddress=cs1_ch1.4_ta3
        Subject Public Key Info:
            Public Key Algorithm: rsaEncryption
                Public-Key: (1024 bit)
                Modulus:
                    00:c2:93:d3:55:0b:34:cf:57:bc:a5:91:9e:80:a9:
                    7a:83:fb:26:66:c5:c1:71:20:ab:f9:80:9a:59:eb:
                    54:83:83:6b:ad:79:a8:7e:17:67:20:1a:a8:7e:57:
                    6e:f8:dd:54:9a:6e:f0:2d:10:32:59:1f:74:53:6d:
                    a2:50:6b:23:0c:bb:34:32:84:ed:7d:fe:f5:8e:a7:
                    f4:92:bb:29:a8:91:7d:e8:5e:56:30:e6:fa:fb:d2:
                    d7:b9:af:f2:86:c2:dc:b7:33:71:62:2a:2d:79:38:
                    a0:b1:0d:eb:87:03:56:c5:1c:c9:fb:33:5c:3c:d2:
                    b9:f2:c0:b6:3c:de:e2:d8:3d
                Exponent: 65537 (0x10001)
        X509v3 extensions:
            X509v3 Basic Constraints: critical
                CA:FALSE
            X509v3 Key Usage: critical
                Digital Signature
    Signature Algorithm: sha256WithRSAEncryption
         7c:85:b5:58:70:73:83:28:62:ea:1a:2f:5d:29:10:50:54:6e:
         86:dc:e2:f8:7f:bd:5e:bb:52:40:62:60:45:72:56:2d:b3:29:
         9f:29:d6:1e:90:f2:67:3f:98:5f:e4:d2:39:3c:9f:a4:df:0c:
         f9:75:4c:0f:2d:94:d9:fe:a2:f9:68:66:3c:bf:0f:0a:73:12:
         23:33:56:8f:40:65:44:59:b6:2e:90:a7:5e:fb:17:29:42:36:
         4b:ac:f5:e2:67:ee:7e:94:c0:a2:29:9a:1c:bf:74:94:b8:83:
         11:d7:ac:a4:e1:b0:c1:7e:db:79:de:b4:ab:67:52:2e:51:d4:
         ab:65
-----BEGIN CERTIFICATE-----
MIICiDCCAfGgAwIBAgIBITANBgkqhkiG9w0BAQsFADB1MQswCQYDVQQGEwJVUzET
MBEGA1UECAwKQ2FsaWZvcm5pYTEUMBIGA1UEBwwLU2FudGEgQ2xhcmExDTALBgNV
BAoMBHBrZzUxEjAQBgNVBAMMCWNoMS40X3RhMzEYMBYGCSqGSIb3DQEJARYJY2gx
LjRfdGEzMB4XDTEzMTIxMzAwMTMzN1oXDTE2MDkwODAwMTMzN1owfTELMAkGA1UE
BhMCVVMxEzARBgNVBAgMCkNhbGlmb3JuaWExFDASBgNVBAcMC1NhbnRhIENsYXJh
MQ0wCwYDVQQKDARwa2c1MRYwFAYDVQQDDA1jczFfY2gxLjRfdGEzMRwwGgYJKoZI
hvcNAQkBFg1jczFfY2gxLjRfdGEzMIGfMA0GCSqGSIb3DQEBAQUAA4GNADCBiQKB
gQDCk9NVCzTPV7ylkZ6AqXqD+yZmxcFxIKv5gJpZ61SDg2uteah+F2cgGqh+V274
3VSabvAtEDJZH3RTbaJQayMMuzQyhO19/vWOp/SSuymokX3oXlYw5vr70te5r/KG
wty3M3FiKi15OKCxDeuHA1bFHMn7M1w80rnywLY83uLYPQIDAQABoyAwHjAMBgNV
HRMBAf8EAjAAMA4GA1UdDwEB/wQEAwIHgDANBgkqhkiG9w0BAQsFAAOBgQB8hbVY
cHODKGLqGi9dKRBQVG6G3OL4f71eu1JAYmBFclYtsymfKdYekPJnP5hf5NI5PJ+k
3wz5dUwPLZTZ/qL5aGY8vw8KcxIjM1aPQGVEWbYukKde+xcpQjZLrPXiZ+5+lMCi
KZocv3SUuIMR16yk4bDBftt53rSrZ1IuUdSrZQ==
-----END CERTIFICATE-----
