Certificate:
    Data:
        Version: 3 (0x2)
        Serial Number: 17 (0x11)
    Signature Algorithm: sha256WithRSAEncryption
        Issuer: C=US, ST=California, L=Santa Clara, O=pkg5, CN=ch1_ta3/emailAddress=ch1_ta3
        Validity
            Not Before: Jan 22 15:33:10 2019 GMT
            Not After : Oct 18 15:33:10 2021 GMT
        Subject: C=US, ST=California, L=Santa Clara, O=pkg5, CN=cs1_ch1_ta3/emailAddress=cs1_ch1_ta3
        Subject Public Key Info:
            Public Key Algorithm: rsaEncryption
                Public-Key: (1024 bit)
                Modulus:
                    00:c3:a8:aa:4b:a2:48:2b:16:74:ab:69:ef:0f:4b:
                    76:2b:48:54:2c:d8:d8:1e:46:2f:83:9d:a5:6b:dd:
                    fa:9a:8b:db:ae:da:d3:f1:db:84:32:b0:01:66:0c:
                    e3:25:14:9b:52:fe:83:a4:3d:56:cf:05:9f:00:42:
                    09:97:92:92:82:2b:f8:8d:b9:08:2d:1b:e0:9e:c6:
                    16:83:a0:55:f6:2a:61:5c:76:d7:22:fb:38:4b:82:
                    43:44:70:04:52:55:3b:7b:33:da:79:8f:eb:b9:91:
                    32:a8:55:a2:40:66:ad:36:f0:fb:b6:8f:d7:fa:fa:
                    1d:19:34:dd:99:21:76:68:33
                Exponent: 65537 (0x10001)
        X509v3 extensions:
            X509v3 Basic Constraints: critical
                CA:FALSE
            X509v3 Key Usage: critical
                Digital Signature
    Signature Algorithm: sha256WithRSAEncryption
         b1:c5:bc:f9:df:11:ea:24:c7:9e:a5:2c:d1:24:64:07:20:51:
         f7:0b:03:ae:d4:bc:76:34:35:a6:50:a1:0a:1f:bd:7c:9f:7a:
         52:f5:85:3b:8f:f3:41:b6:aa:ab:4e:1b:75:d1:08:d2:b0:70:
         1e:01:ac:16:54:0a:10:e3:a7:25:ec:a8:7e:07:2e:28:bc:02:
         7c:ff:d3:f1:c8:3b:38:74:cb:8b:ff:93:75:8f:f8:81:95:aa:
         79:84:ae:91:ee:91:8b:9f:f1:e0:5b:f9:e8:9d:82:4e:4c:f5:
         ae:fa:a1:4f:59:08:d3:e0:e1:36:0c:76:77:31:5b:d9:30:b4:
         6e:21:c4:3b:d9:ce:f3:a7:32:a9:2c:1b:e0:96:ae:1b:8e:41:
         ca:98:d5:28:49:82:5f:cc:15:64:03:34:b2:a9:03:30:76:ea:
         ff:e3:d4:34:d0:5d:28:be:d7:89:bd:65:e7:5b:43:26:eb:fe:
         c4:9c:e8:01:36:98:d8:fd:82:ef:c1:23:05:18:95:48:e2:0c:
         94:d6:51:ef:a2:94:db:4a:ae:27:d5:06:77:28:cb:54:d2:c6:
         38:17:1d:16:2c:6e:9b:6b:16:ea:8b:40:29:be:27:d5:a0:03:
         4a:82:c2:f7:1a:ba:24:99:4c:47:55:a5:e2:09:52:99:e3:c3:
         85:67:3b:9f
-----BEGIN CERTIFICATE-----
MIIDATCCAemgAwIBAgIBETANBgkqhkiG9w0BAQsFADBxMQswCQYDVQQGEwJVUzET
MBEGA1UECAwKQ2FsaWZvcm5pYTEUMBIGA1UEBwwLU2FudGEgQ2xhcmExDTALBgNV
BAoMBHBrZzUxEDAOBgNVBAMMB2NoMV90YTMxFjAUBgkqhkiG9w0BCQEWB2NoMV90
YTMwHhcNMTkwMTIyMTUzMzEwWhcNMjExMDE4MTUzMzEwWjB5MQswCQYDVQQGEwJV
UzETMBEGA1UECAwKQ2FsaWZvcm5pYTEUMBIGA1UEBwwLU2FudGEgQ2xhcmExDTAL
BgNVBAoMBHBrZzUxFDASBgNVBAMMC2NzMV9jaDFfdGEzMRowGAYJKoZIhvcNAQkB
FgtjczFfY2gxX3RhMzCBnzANBgkqhkiG9w0BAQEFAAOBjQAwgYkCgYEAw6iqS6JI
KxZ0q2nvD0t2K0hULNjYHkYvg52la936movbrtrT8duEMrABZgzjJRSbUv6DpD1W
zwWfAEIJl5KSgiv4jbkILRvgnsYWg6BV9iphXHbXIvs4S4JDRHAEUlU7ezPaeY/r
uZEyqFWiQGatNvD7to/X+vodGTTdmSF2aDMCAwEAAaMgMB4wDAYDVR0TAQH/BAIw
ADAOBgNVHQ8BAf8EBAMCB4AwDQYJKoZIhvcNAQELBQADggEBALHFvPnfEeokx56l
LNEkZAcgUfcLA67UvHY0NaZQoQofvXyfelL1hTuP80G2qqtOG3XRCNKwcB4BrBZU
ChDjpyXsqH4HLii8Anz/0/HIOzh0y4v/k3WP+IGVqnmErpHukYuf8eBb+eidgk5M
9a76oU9ZCNPg4TYMdncxW9kwtG4hxDvZzvOnMqksG+CWrhuOQcqY1ShJgl/MFWQD
NLKpAzB26v/j1DTQXSi+14m9ZedbQybr/sSc6AE2mNj9gu/BIwUYlUjiDJTWUe+i
lNtKrifVBncoy1TSxjgXHRYsbptrFuqLQCm+J9WgA0qCwvcauiSZTEdVpeIJUpnj
w4VnO58=
-----END CERTIFICATE-----
