Certificate:
    Data:
        Version: 3 (0x2)
        Serial Number: 9 (0x9)
    Signature Algorithm: sha256WithRSAEncryption
        Issuer: C=US, ST=California, L=Santa Clara, O=pkg5, CN=ch5.1_ta1/emailAddress=ch5.1_ta1
        Validity
            Not Before: Jan 22 01:57:55 2016 GMT
            Not After : Oct 18 01:57:55 2018 GMT
        Subject: C=US, ST=California, L=Santa Clara, O=pkg5, CN=cs1_ch5.1_ta1/emailAddress=cs1_ch5.1_ta1
        Subject Public Key Info:
            Public Key Algorithm: rsaEncryption
                Public-Key: (1024 bit)
                Modulus:
                    00:a6:e7:4d:9e:5e:83:9a:ff:3d:49:f8:2f:68:50:
                    a6:fb:5b:cd:53:53:02:25:34:3b:5c:26:f5:68:b4:
                    c6:97:3c:69:1c:d6:b1:42:67:61:68:ad:f9:17:5e:
                    4b:28:24:54:9d:de:05:9b:97:e1:22:d4:dc:cf:63:
                    29:f6:0d:40:f4:de:7c:1a:81:e3:37:d8:26:ac:74:
                    94:cc:a7:cb:e8:83:74:b7:23:9d:9f:2c:08:01:52:
                    12:a1:99:79:df:a7:a5:00:c8:01:8e:d2:46:26:40:
                    1f:79:0d:92:2d:c9:49:8e:26:17:59:34:3c:80:92:
                    1b:43:80:96:89:a2:94:d0:81
                Exponent: 65537 (0x10001)
        X509v3 extensions:
            X509v3 Basic Constraints: critical
                CA:FALSE
            X509v3 Key Usage: critical
                Digital Signature
    Signature Algorithm: sha256WithRSAEncryption
         2e:6c:ea:2c:69:5e:54:16:4f:ad:8c:48:af:e0:60:0d:4f:2d:
         9f:4c:4e:07:b1:90:1e:5c:48:da:3e:5c:f9:e9:c4:79:97:57:
         45:c3:e4:27:70:c4:d5:ea:ea:db:cc:c7:5e:62:d5:0c:b6:2e:
         68:88:df:de:ab:a8:08:73:75:c6:4c:72:d9:ef:3b:f8:2c:5c:
         e9:8d:71:b4:82:5f:51:26:f5:b6:5e:5d:5d:18:ba:5b:ec:51:
         b0:d2:2d:f6:f5:cc:9b:a2:62:67:77:0c:cc:9a:a8:b9:87:c9:
         5b:85:bb:dd:1c:30:a9:03:77:6b:c8:ec:74:31:56:f0:eb:dd:
         e9:b8:de:3b:79:22:34:e4:3c:1a:13:33:0e:3a:b3:ee:7c:b9:
         5c:ba:a4:51:a4:a3:b1:1f:b7:f1:71:b2:1a:60:66:c1:70:9c:
         cb:fc:36:03:eb:bc:cf:13:99:e8:41:92:ba:4b:91:55:51:e8:
         8d:0e:28:40:17:e7:aa:07:ae:b0:ab:22:86:ee:7d:5f:0a:37:
         f3:cf:9e:d7:b0:f9:11:80:ee:0c:3e:00:7d:1f:0e:19:0f:b0:
         6e:af:08:20:b8:98:99:a0:5f:38:b0:6b:fd:f9:a0:ba:09:07:
         15:cd:19:d0:6c:53:c1:b1:6c:5e:06:10:e4:e7:f6:f9:fa:44:
         92:e8:da:3b
-----BEGIN CERTIFICATE-----
MIIDCTCCAfGgAwIBAgIBCTANBgkqhkiG9w0BAQsFADB1MQswCQYDVQQGEwJVUzET
MBEGA1UECAwKQ2FsaWZvcm5pYTEUMBIGA1UEBwwLU2FudGEgQ2xhcmExDTALBgNV
BAoMBHBrZzUxEjAQBgNVBAMMCWNoNS4xX3RhMTEYMBYGCSqGSIb3DQEJARYJY2g1
LjFfdGExMB4XDTE2MDEyMjAxNTc1NVoXDTE4MTAxODAxNTc1NVowfTELMAkGA1UE
BhMCVVMxEzARBgNVBAgMCkNhbGlmb3JuaWExFDASBgNVBAcMC1NhbnRhIENsYXJh
MQ0wCwYDVQQKDARwa2c1MRYwFAYDVQQDDA1jczFfY2g1LjFfdGExMRwwGgYJKoZI
hvcNAQkBFg1jczFfY2g1LjFfdGExMIGfMA0GCSqGSIb3DQEBAQUAA4GNADCBiQKB
gQCm502eXoOa/z1J+C9oUKb7W81TUwIlNDtcJvVotMaXPGkc1rFCZ2ForfkXXkso
JFSd3gWbl+Ei1NzPYyn2DUD03nwageM32CasdJTMp8vog3S3I52fLAgBUhKhmXnf
p6UAyAGO0kYmQB95DZItyUmOJhdZNDyAkhtDgJaJopTQgQIDAQABoyAwHjAMBgNV
HRMBAf8EAjAAMA4GA1UdDwEB/wQEAwIHgDANBgkqhkiG9w0BAQsFAAOCAQEALmzq
LGleVBZPrYxIr+BgDU8tn0xOB7GQHlxI2j5c+enEeZdXRcPkJ3DE1erq28zHXmLV
DLYuaIjf3quoCHN1xkxy2e87+Cxc6Y1xtIJfUSb1tl5dXRi6W+xRsNIt9vXMm6Ji
Z3cMzJqouYfJW4W73RwwqQN3a8jsdDFW8Ovd6bjeO3kiNOQ8GhMzDjqz7ny5XLqk
UaSjsR+38XGyGmBmwXCcy/w2A+u8zxOZ6EGSukuRVVHojQ4oQBfnqgeusKsihu59
Xwo388+e17D5EYDuDD4AfR8OGQ+wbq8IILiYmaBfOLBr/fmgugkHFc0Z0GxTwbFs
XgYQ5Of2+fpEkujaOw==
-----END CERTIFICATE-----
