Certificate:
    Data:
        Version: 3 (0x2)
        Serial Number: 33 (0x21)
    Signature Algorithm: sha256WithRSAEncryption
        Issuer: C=US, ST=California, L=Santa Clara, O=pkg5, CN=ch1.4_ta3/emailAddress=ch1.4_ta3
        Validity
            Not Before: Mar 18 23:38:22 2016 GMT
            Not After : Dec 13 23:38:22 2018 GMT
        Subject: C=US, ST=California, L=Santa Clara, O=pkg5, CN=cs1_ch1.4_ta3/emailAddress=cs1_ch1.4_ta3
        Subject Public Key Info:
            Public Key Algorithm: rsaEncryption
                Public-Key: (1024 bit)
                Modulus:
                    00:da:45:8b:b7:db:d7:47:9a:44:5d:3d:52:64:de:
                    e5:2c:11:7a:f3:2e:4b:73:ee:5f:a3:cc:6f:e1:85:
                    6b:ae:ac:4c:65:74:81:42:26:c4:ad:31:49:6d:ce:
                    41:7c:90:fd:35:58:cd:4b:cf:e8:b2:16:b6:c4:10:
                    8b:bd:78:74:12:31:02:a5:9b:6f:20:d8:65:b7:5c:
                    a1:33:a3:40:17:f1:a0:6d:b0:47:af:06:26:ae:8e:
                    93:5e:8d:0b:d4:62:96:63:69:e4:67:b4:0b:2e:bb:
                    cb:40:b9:a2:0e:9b:31:da:49:33:c5:53:3f:ed:b9:
                    86:75:04:46:04:fc:50:f4:63
                Exponent: 65537 (0x10001)
        X509v3 extensions:
            X509v3 Basic Constraints: critical
                CA:FALSE
            X509v3 Key Usage: critical
                Digital Signature
    Signature Algorithm: sha256WithRSAEncryption
         50:0a:bf:8a:1c:f1:ff:51:ce:fe:57:aa:2e:6e:5e:e0:85:48:
         1b:4f:6c:90:26:8f:83:61:30:82:51:8d:6b:77:67:21:47:ad:
         70:94:2c:f8:f4:44:ff:c6:f6:26:e9:e7:f1:af:52:53:a0:c0:
         16:f9:34:b2:68:4c:8c:51:ff:76:73:af:53:cf:54:04:57:68:
         81:af:bf:6a:12:df:71:6b:54:f6:ff:da:c9:71:4a:25:cb:19:
         b2:25:ed:36:c5:2f:d3:b6:99:ee:8c:fd:eb:de:5d:5b:cd:a2:
         64:06:a8:4d:37:92:d4:01:af:5c:21:af:53:2a:24:ee:ea:a4:
         5b:70:e9:93:2d:f4:18:1c:9b:2d:1d:f0:a8:1b:ab:41:11:e3:
         51:95:fa:e7:44:7f:6d:75:73:5d:4e:a3:41:c1:83:52:b2:19:
         e0:bd:cc:80:8e:64:7a:a6:5b:31:b3:ba:d2:6b:5a:7a:3c:f2:
         6c:77:ff:fc:51:33:69:43:57:b6:50:c2:5c:3a:57:54:ad:7a:
         13:1a:d9:7b:c6:0f:15:44:e0:2b:b6:88:5a:1c:eb:6f:a0:46:
         b3:ff:ed:93:ce:ee:0e:2f:19:99:aa:4b:25:42:44:9e:50:50:
         54:46:e9:06:b0:35:98:d3:2e:39:55:32:50:80:cb:53:4f:d3:
         82:f3:0b:eb
-----BEGIN CERTIFICATE-----
MIIDCTCCAfGgAwIBAgIBITANBgkqhkiG9w0BAQsFADB1MQswCQYDVQQGEwJVUzET
MBEGA1UECAwKQ2FsaWZvcm5pYTEUMBIGA1UEBwwLU2FudGEgQ2xhcmExDTALBgNV
BAoMBHBrZzUxEjAQBgNVBAMMCWNoMS40X3RhMzEYMBYGCSqGSIb3DQEJARYJY2gx
LjRfdGEzMB4XDTE2MDMxODIzMzgyMloXDTE4MTIxMzIzMzgyMlowfTELMAkGA1UE
BhMCVVMxEzARBgNVBAgMCkNhbGlmb3JuaWExFDASBgNVBAcMC1NhbnRhIENsYXJh
MQ0wCwYDVQQKDARwa2c1MRYwFAYDVQQDDA1jczFfY2gxLjRfdGEzMRwwGgYJKoZI
hvcNAQkBFg1jczFfY2gxLjRfdGEzMIGfMA0GCSqGSIb3DQEBAQUAA4GNADCBiQKB
gQDaRYu329dHmkRdPVJk3uUsEXrzLktz7l+jzG/hhWuurExldIFCJsStMUltzkF8
kP01WM1Lz+iyFrbEEIu9eHQSMQKlm28g2GW3XKEzo0AX8aBtsEevBiaujpNejQvU
YpZjaeRntAsuu8tAuaIOmzHaSTPFUz/tuYZ1BEYE/FD0YwIDAQABoyAwHjAMBgNV
HRMBAf8EAjAAMA4GA1UdDwEB/wQEAwIHgDANBgkqhkiG9w0BAQsFAAOCAQEAUAq/
ihzx/1HO/leqLm5e4IVIG09skCaPg2EwglGNa3dnIUetcJQs+PRE/8b2Junn8a9S
U6DAFvk0smhMjFH/dnOvU89UBFdoga+/ahLfcWtU9v/ayXFKJcsZsiXtNsUv07aZ
7oz9695dW82iZAaoTTeS1AGvXCGvUyok7uqkW3Dpky30GBybLR3wqBurQRHjUZX6
50R/bXVzXU6jQcGDUrIZ4L3MgI5keqZbMbO60mtaejzybHf//FEzaUNXtlDCXDpX
VK16ExrZe8YPFUTgK7aIWhzrb6BGs//tk87uDi8ZmapLJUJEnlBQVEbpBrA1mNMu
OVUyUIDLU0/TgvML6w==
-----END CERTIFICATE-----
