Certificate:
    Data:
        Version: 3 (0x2)
        Serial Number: 31 (0x1f)
    Signature Algorithm: sha256WithRSAEncryption
        Issuer: C=US, ST=California, L=Santa Clara, O=pkg5, CN=ch1.3_ta3/emailAddress=ch1.3_ta3
        Validity
            Not Before: Sep 22 05:33:28 2021 GMT
            Not After : Jun 18 05:33:28 2024 GMT
        Subject: C=US, ST=California, L=Santa Clara, O=pkg5, CN=cs1_ch1.3_ta3/emailAddress=cs1_ch1.3_ta3
        Subject Public Key Info:
            Public Key Algorithm: rsaEncryption
                Public-Key: (1024 bit)
                Modulus:
                    00:bf:fb:61:97:86:f4:9e:8b:94:4c:d3:c1:83:31:
                    f0:cb:9f:06:a4:d5:e4:1c:f7:f4:cd:33:28:01:01:
                    a5:63:80:e4:89:44:ab:ce:99:ef:28:80:ed:52:5f:
                    b3:39:b4:3b:f5:c3:87:00:f3:21:8f:25:d3:44:28:
                    30:76:ff:ee:aa:d3:e7:4d:d9:9f:4d:d9:5f:9a:c8:
                    2b:8b:7e:aa:85:30:d6:8c:77:88:92:63:a6:1a:50:
                    a5:1d:6a:d9:bb:85:ae:e1:fb:ce:a8:df:c0:0c:c4:
                    5a:bd:ed:97:b7:31:5c:f5:dd:30:ee:d2:f6:2d:da:
                    cf:14:c2:11:2d:e7:e8:ec:c5
                Exponent: 65537 (0x10001)
        X509v3 extensions:
            X509v3 Basic Constraints: critical
                CA:FALSE
            X509v3 Key Usage: critical
                Digital Signature
    Signature Algorithm: sha256WithRSAEncryption
         2a:61:04:58:2a:bd:be:00:af:e2:48:ec:82:bb:4e:7c:e8:a6:
         62:80:dc:39:03:76:6a:4f:d3:9f:76:c3:12:4c:d8:01:3c:0b:
         2c:c4:08:a9:e1:5e:7b:e8:00:fe:6d:b1:3e:c2:dc:16:76:21:
         0a:fd:3d:b1:50:ab:25:49:b2:6c:a6:a6:f7:8d:05:23:8d:4b:
         93:c7:0c:6f:56:a3:81:a8:69:b4:a3:e8:f1:bb:96:3c:f4:3e:
         8d:19:c6:d6:1d:d7:46:25:f2:68:35:98:ca:b7:00:ca:be:18:
         91:31:cc:8d:c5:26:bf:c7:c9:fa:3c:78:4e:4e:c1:54:a1:79:
         82:9a:45:ff:36:30:60:48:f3:1a:d9:d9:75:7b:8c:1a:28:1f:
         99:f0:06:79:5b:33:77:08:26:66:33:94:26:a8:af:64:02:b4:
         b2:a0:35:8c:d8:c5:4e:a5:99:be:b1:71:b1:b0:30:a3:dc:ea:
         a3:8b:fd:23:97:52:8d:88:af:5b:3b:bc:24:d3:9a:80:db:f8:
         36:c1:bb:a0:76:c8:d9:d9:b8:af:e6:74:70:d8:65:a4:f4:e9:
         9a:8c:4b:65:c6:66:6b:20:9c:08:e1:66:9e:18:a4:42:92:f7:
         36:10:a4:9a:fd:f1:6d:b5:40:82:6a:1e:1d:2e:65:3e:c2:fa:
         5f:94:69:5c
-----BEGIN CERTIFICATE-----
MIIDCTCCAfGgAwIBAgIBHzANBgkqhkiG9w0BAQsFADB1MQswCQYDVQQGEwJVUzET
MBEGA1UECAwKQ2FsaWZvcm5pYTEUMBIGA1UEBwwLU2FudGEgQ2xhcmExDTALBgNV
BAoMBHBrZzUxEjAQBgNVBAMMCWNoMS4zX3RhMzEYMBYGCSqGSIb3DQEJARYJY2gx
LjNfdGEzMB4XDTIxMDkyMjA1MzMyOFoXDTI0MDYxODA1MzMyOFowfTELMAkGA1UE
BhMCVVMxEzARBgNVBAgMCkNhbGlmb3JuaWExFDASBgNVBAcMC1NhbnRhIENsYXJh
MQ0wCwYDVQQKDARwa2c1MRYwFAYDVQQDDA1jczFfY2gxLjNfdGEzMRwwGgYJKoZI
hvcNAQkBFg1jczFfY2gxLjNfdGEzMIGfMA0GCSqGSIb3DQEBAQUAA4GNADCBiQKB
gQC/+2GXhvSei5RM08GDMfDLnwak1eQc9/TNMygBAaVjgOSJRKvOme8ogO1SX7M5
tDv1w4cA8yGPJdNEKDB2/+6q0+dN2Z9N2V+ayCuLfqqFMNaMd4iSY6YaUKUdatm7
ha7h+86o38AMxFq97Ze3MVz13TDu0vYt2s8UwhEt5+jsxQIDAQABoyAwHjAMBgNV
HRMBAf8EAjAAMA4GA1UdDwEB/wQEAwIHgDANBgkqhkiG9w0BAQsFAAOCAQEAKmEE
WCq9vgCv4kjsgrtOfOimYoDcOQN2ak/Tn3bDEkzYATwLLMQIqeFee+gA/m2xPsLc
FnYhCv09sVCrJUmybKam940FI41Lk8cMb1ajgahptKPo8buWPPQ+jRnG1h3XRiXy
aDWYyrcAyr4YkTHMjcUmv8fJ+jx4Tk7BVKF5gppF/zYwYEjzGtnZdXuMGigfmfAG
eVszdwgmZjOUJqivZAK0sqA1jNjFTqWZvrFxsbAwo9zqo4v9I5dSjYivWzu8JNOa
gNv4NsG7oHbI2dm4r+Z0cNhlpPTpmoxLZcZmayCcCOFmnhikQpL3NhCkmv3xbbVA
gmoeHS5lPsL6X5RpXA==
-----END CERTIFICATE-----
