Certificate:
    Data:
        Version: 3 (0x2)
        Serial Number: 29 (0x1d)
        Signature Algorithm: sha256WithRSAEncryption
        Issuer: C=US, ST=California, L=Menlo Park, O=pkg5, CN=ch1.2_ta3/emailAddress=ch1.2_ta3
        Validity
            Not Before: Mar 21 00:49:30 2011 GMT
            Not After : Dec 15 00:49:30 2013 GMT
        Subject: C=US, ST=California, L=Menlo Park, O=pkg5, CN=cs1_ch1.2_ta3/emailAddress=cs1_ch1.2_ta3
        Subject Public Key Info:
            Public Key Algorithm: rsaEncryption
            RSA Public Key: (1024 bit)
                Modulus (1024 bit):
                    00:a1:cf:9c:66:1e:c9:07:ed:2b:39:8a:5f:e5:f2:
                    f1:d3:f2:ad:01:f1:81:85:63:04:7f:b8:65:35:05:
                    e6:bd:3d:28:97:96:54:bc:ae:1b:46:b5:5c:f5:c0:
                    ac:75:63:4f:52:80:8b:4c:30:81:8e:85:96:a4:f1:
                    46:e7:77:1e:7f:3e:80:10:41:cc:e7:92:73:ad:fb:
                    fb:0d:3a:2b:e2:d6:43:0e:ef:b9:54:06:2e:f7:1d:
                    1d:aa:57:49:06:3e:65:8e:a9:9d:09:0e:83:55:12:
                    de:39:91:44:86:ba:d4:69:be:b8:89:a1:7b:8c:60:
                    39:30:ea:95:f9:03:3e:c4:53
                Exponent: 65537 (0x10001)
        X509v3 extensions:
            X509v3 Basic Constraints: critical
                CA:FALSE
            X509v3 Key Usage: critical
                Digital Signature
    Signature Algorithm: sha256WithRSAEncryption
        25:86:6a:6e:7a:be:f5:54:95:b2:ce:49:56:50:fa:ad:e3:34:
        84:fe:d9:9e:fb:0e:73:f7:62:3c:c7:29:95:54:91:68:32:cb:
        74:91:91:cc:68:a8:e4:12:07:b3:33:d9:f4:5e:bc:8e:0c:35:
        bf:cb:fa:fc:07:75:c1:35:1e:ea:03:2d:60:a8:d3:39:5b:af:
        2f:67:d9:2d:98:da:48:4e:12:ee:87:1c:e5:db:42:7e:ca:45:
        4c:23:3d:21:53:fc:ee:66:77:9d:09:08:44:55:9b:2a:0d:10:
        da:67:77:89:70:00:97:9b:eb:3a:b4:41:98:16:31:cf:bc:b5:
        88:bf
-----BEGIN CERTIFICATE-----
MIIChjCCAe+gAwIBAgIBHTANBgkqhkiG9w0BAQsFADB0MQswCQYDVQQGEwJVUzET
MBEGA1UECBMKQ2FsaWZvcm5pYTETMBEGA1UEBxMKTWVubG8gUGFyazENMAsGA1UE
ChMEcGtnNTESMBAGA1UEAxQJY2gxLjJfdGEzMRgwFgYJKoZIhvcNAQkBFgljaDEu
Ml90YTMwHhcNMTEwMzIxMDA0OTMwWhcNMTMxMjE1MDA0OTMwWjB8MQswCQYDVQQG
EwJVUzETMBEGA1UECBMKQ2FsaWZvcm5pYTETMBEGA1UEBxMKTWVubG8gUGFyazEN
MAsGA1UEChMEcGtnNTEWMBQGA1UEAxQNY3MxX2NoMS4yX3RhMzEcMBoGCSqGSIb3
DQEJARYNY3MxX2NoMS4yX3RhMzCBnzANBgkqhkiG9w0BAQEFAAOBjQAwgYkCgYEA
oc+cZh7JB+0rOYpf5fLx0/KtAfGBhWMEf7hlNQXmvT0ol5ZUvK4bRrVc9cCsdWNP
UoCLTDCBjoWWpPFG53cefz6AEEHM55Jzrfv7DTor4tZDDu+5VAYu9x0dqldJBj5l
jqmdCQ6DVRLeOZFEhrrUab64iaF7jGA5MOqV+QM+xFMCAwEAAaMgMB4wDAYDVR0T
AQH/BAIwADAOBgNVHQ8BAf8EBAMCB4AwDQYJKoZIhvcNAQELBQADgYEAJYZqbnq+
9VSVss5JVlD6reM0hP7ZnvsOc/diPMcplVSRaDLLdJGRzGio5BIHszPZ9F68jgw1
v8v6/Ad1wTUe6gMtYKjTOVuvL2fZLZjaSE4S7occ5dtCfspFTCM9IVP87mZ3nQkI
RFWbKg0Q2md3iXAAl5vrOrRBmBYxz7y1iL8=
-----END CERTIFICATE-----
