Certificate:
    Data:
        Version: 3 (0x2)
        Serial Number: 17 (0x11)
        Signature Algorithm: sha256WithRSAEncryption
        Issuer: C=US, ST=California, L=Menlo Park, O=pkg5, CN=ch1_ta3/emailAddress=ch1_ta3
        Validity
            Not Before: Mar 21 00:49:28 2011 GMT
            Not After : Dec 15 00:49:28 2013 GMT
        Subject: C=US, ST=California, L=Menlo Park, O=pkg5, CN=cs1_ch1_ta3/emailAddress=cs1_ch1_ta3
        Subject Public Key Info:
            Public Key Algorithm: rsaEncryption
            RSA Public Key: (1024 bit)
                Modulus (1024 bit):
                    00:c0:f4:07:51:f9:0b:0f:11:0a:28:50:d3:7a:43:
                    1f:24:71:ac:79:35:17:3c:44:b2:f9:67:b6:b3:ee:
                    73:27:f6:7d:7b:e9:21:66:33:73:54:5e:98:f9:72:
                    87:cf:e4:6f:4e:d8:65:76:74:65:41:2d:4c:99:d6:
                    69:82:c9:ca:35:c3:d7:5e:6a:ec:c5:cd:a6:e0:3e:
                    da:00:b6:ae:e6:a6:0f:f1:2d:1a:bd:92:1a:d8:14:
                    ae:92:90:fb:e9:16:e2:38:85:20:df:dd:8a:11:af:
                    c2:3b:37:9b:ce:99:4e:89:ff:32:c7:53:e1:e0:ad:
                    ed:a6:12:96:9d:97:40:96:b5
                Exponent: 65537 (0x10001)
        X509v3 extensions:
            X509v3 Basic Constraints: critical
                CA:FALSE
            X509v3 Key Usage: critical
                Digital Signature
    Signature Algorithm: sha256WithRSAEncryption
        29:26:20:2c:c3:ae:e3:84:28:2a:15:af:48:cc:a4:87:d2:8b:
        7e:dd:76:80:11:f8:4c:e3:97:0c:34:42:96:78:9f:44:97:b6:
        61:3f:66:be:24:60:b4:40:0d:8d:56:3b:ec:d3:31:8d:ae:ac:
        1a:cb:cf:e5:68:67:21:87:1a:9b:b1:06:18:c4:d8:9b:d0:1a:
        4f:ed:8f:8e:5a:d5:4d:24:ea:d0:55:5b:2f:2c:d7:e8:8d:ff:
        99:5b:c1:32:55:f2:f4:d3:72:0b:b5:80:0c:8d:ce:8d:83:29:
        6f:2e:e1:e0:d7:99:fe:37:b5:3a:14:71:3e:ec:0c:ec:31:7d:
        2c:f0
-----BEGIN CERTIFICATE-----
MIICfjCCAeegAwIBAgIBETANBgkqhkiG9w0BAQsFADBwMQswCQYDVQQGEwJVUzET
MBEGA1UECBMKQ2FsaWZvcm5pYTETMBEGA1UEBxMKTWVubG8gUGFyazENMAsGA1UE
ChMEcGtnNTEQMA4GA1UEAxQHY2gxX3RhMzEWMBQGCSqGSIb3DQEJARYHY2gxX3Rh
MzAeFw0xMTAzMjEwMDQ5MjhaFw0xMzEyMTUwMDQ5MjhaMHgxCzAJBgNVBAYTAlVT
MRMwEQYDVQQIEwpDYWxpZm9ybmlhMRMwEQYDVQQHEwpNZW5sbyBQYXJrMQ0wCwYD
VQQKEwRwa2c1MRQwEgYDVQQDFAtjczFfY2gxX3RhMzEaMBgGCSqGSIb3DQEJARYL
Y3MxX2NoMV90YTMwgZ8wDQYJKoZIhvcNAQEBBQADgY0AMIGJAoGBAMD0B1H5Cw8R
CihQ03pDHyRxrHk1FzxEsvlntrPucyf2fXvpIWYzc1RemPlyh8/kb07YZXZ0ZUEt
TJnWaYLJyjXD115q7MXNpuA+2gC2ruamD/EtGr2SGtgUrpKQ++kW4jiFIN/dihGv
wjs3m86ZTon/MsdT4eCt7aYSlp2XQJa1AgMBAAGjIDAeMAwGA1UdEwEB/wQCMAAw
DgYDVR0PAQH/BAQDAgeAMA0GCSqGSIb3DQEBCwUAA4GBACkmICzDruOEKCoVr0jM
pIfSi37ddoAR+Ezjlww0QpZ4n0SXtmE/Zr4kYLRADY1WO+zTMY2urBrLz+VoZyGH
GpuxBhjE2JvQGk/tj45a1U0k6tBVWy8s1+iN/5lbwTJV8vTTcgu1gAyNzo2DKW8u
4eDXmf43tToUcT7sDOwxfSzw
-----END CERTIFICATE-----
