Certificate:
    Data:
        Version: 3 (0x2)
        Serial Number: 46 (0x2e)
        Signature Algorithm: sha256WithRSAEncryption
        Issuer: C=US, ST=California, L=Santa Clara, O=pkg5, OU=ta10, CN=localhost/emailAddress=ta10
        Validity
            Not Before: Mar 18 08:51:49 2026 GMT
            Not After : Dec 12 08:51:49 2028 GMT
        Subject: C=US, ST=California, L=Santa Clara, O=pkg5, OU=cs1_ta10, CN=localhost/emailAddress=cs1_ta10
        Subject Public Key Info:
            Public Key Algorithm: rsaEncryption
                Public-Key: (2048 bit)
                Modulus:
                    00:ce:5f:9e:8c:2b:8a:72:ea:8e:f4:af:a2:7b:50:
                    88:f8:97:ba:77:8c:5e:b7:b7:91:35:a6:fb:00:01:
                    94:d0:97:97:9d:ae:d8:f4:31:48:26:08:c2:d1:b5:
                    98:84:54:1a:4b:1b:68:ee:8c:94:41:26:42:f1:97:
                    f1:17:59:4c:ab:7a:0d:67:4c:89:a3:2a:d3:0f:68:
                    35:66:c5:6c:aa:95:a3:39:3e:88:de:18:98:da:c6:
                    5d:cc:4c:75:d2:85:9c:b0:4d:ba:6b:90:1f:31:af:
                    b2:19:9e:39:db:71:ee:68:08:42:00:a5:00:db:2b:
                    cf:a1:8c:d6:a3:93:6c:87:64:ac:b1:f7:88:d0:0c:
                    ac:42:0e:1e:ea:20:4b:5e:82:1c:96:0b:cf:19:1c:
                    05:6b:48:d1:e5:8c:55:b0:a9:76:70:3e:37:a5:35:
                    a5:ba:49:69:21:58:6d:6a:36:64:ae:e1:ed:fb:e8:
                    66:44:f3:6b:94:02:e0:63:6d:59:83:97:95:a6:a7:
                    77:d6:24:e8:bb:54:04:50:09:ee:86:2c:08:4a:3b:
                    9a:ec:e0:e1:b3:21:1f:18:57:08:13:f0:de:a0:2f:
                    19:04:36:4d:d4:a4:52:b5:4c:69:33:1b:6a:c7:a1:
                    ab:b0:d1:73:9e:bd:95:5c:0f:20:29:48:c6:fe:06:
                    51:93
                Exponent: 65537 (0x10001)
        X509v3 extensions:
            X509v3 Basic Constraints: critical
                CA:FALSE
            X509v3 Key Usage: critical
                Digital Signature
            X509v3 Subject Key Identifier: 
                09:ED:2B:42:31:E3:C4:6F:E8:D1:E4:15:F3:DB:CC:CC:72:86:A9:7B
            X509v3 Authority Key Identifier: 
                9C:77:50:9D:21:AD:40:6D:4E:94:A4:55:B0:89:EF:1C:E6:CA:9C:00
    Signature Algorithm: sha256WithRSAEncryption
    Signature Value:
        2b:31:e1:7e:0f:38:29:a6:95:17:03:c0:9f:3f:5e:80:28:9c:
        d2:a8:b6:6e:56:e5:86:b5:58:b8:50:00:a6:5a:ef:99:c1:64:
        f6:f2:7b:e5:21:32:20:56:38:01:00:3c:53:2b:d5:ae:05:65:
        86:bb:8c:fd:d4:55:21:73:68:97:e3:2d:27:2a:02:d1:dc:69:
        da:60:05:0d:22:64:1a:22:c0:2c:e4:43:b3:50:bb:df:67:65:
        5c:70:80:96:62:0e:30:f5:9f:fb:7a:21:c8:52:14:44:75:2f:
        c9:b2:b3:b3:91:fe:f2:d6:d7:be:4e:e7:3b:6a:4d:19:57:92:
        7d:5c:0a:9a:fb:77:c9:82:a0:a5:df:61:55:85:32:9f:26:f9:
        4c:91:97:af:cd:08:c7:b9:c9:30:73:09:7e:80:7a:d4:97:b1:
        36:7b:95:30:31:c4:10:fa:44:12:43:44:33:aa:11:5f:c4:44:
        24:f7:c2:db:ad:d0:98:5e:45:d8:c8:16:72:47:25:8a:d3:41:
        0b:67:1f:c6:ff:9e:a1:03:1b:00:0c:b9:6d:79:2b:4b:cb:13:
        04:e8:75:45:a1:fc:4e:2a:d0:38:29:50:2e:c0:fe:56:4c:53:
        64:b3:33:81:33:11:10:bd:54:cc:74:3e:1d:57:e1:b0:ab:e8:
        f3:2a:78:d9
-----BEGIN CERTIFICATE-----
MIID4jCCAsqgAwIBAgIBLjANBgkqhkiG9w0BAQsFADB/MQswCQYDVQQGEwJVUzET
MBEGA1UECAwKQ2FsaWZvcm5pYTEUMBIGA1UEBwwLU2FudGEgQ2xhcmExDTALBgNV
BAoMBHBrZzUxDTALBgNVBAsMBHRhMTAxEjAQBgNVBAMMCWxvY2FsaG9zdDETMBEG
CSqGSIb3DQEJARYEdGExMDAeFw0yNjAzMTgwODUxNDlaFw0yODEyMTIwODUxNDla
MIGHMQswCQYDVQQGEwJVUzETMBEGA1UECAwKQ2FsaWZvcm5pYTEUMBIGA1UEBwwL
U2FudGEgQ2xhcmExDTALBgNVBAoMBHBrZzUxETAPBgNVBAsMCGNzMV90YTEwMRIw
EAYDVQQDDAlsb2NhbGhvc3QxFzAVBgkqhkiG9w0BCQEWCGNzMV90YTEwMIIBIjAN
BgkqhkiG9w0BAQEFAAOCAQ8AMIIBCgKCAQEAzl+ejCuKcuqO9K+ie1CI+Je6d4xe
t7eRNab7AAGU0JeXna7Y9DFIJgjC0bWYhFQaSxto7oyUQSZC8ZfxF1lMq3oNZ0yJ
oyrTD2g1ZsVsqpWjOT6I3hiY2sZdzEx10oWcsE26a5AfMa+yGZ4523HuaAhCAKUA
2yvPoYzWo5Nsh2SssfeI0AysQg4e6iBLXoIclgvPGRwFa0jR5YxVsKl2cD43pTWl
uklpIVhtajZkruHt++hmRPNrlALgY21Zg5eVpqd31iTou1QEUAnuhiwISjua7ODh
syEfGFcIE/DeoC8ZBDZN1KRStUxpMxtqx6GrsNFznr2VXA8gKUjG/gZRkwIDAQAB
o2AwXjAMBgNVHRMBAf8EAjAAMA4GA1UdDwEB/wQEAwIHgDAdBgNVHQ4EFgQUCe0r
QjHjxG/o0eQV89vMzHKGqXswHwYDVR0jBBgwFoAUnHdQnSGtQG1OlKRVsInvHObK
nAAwDQYJKoZIhvcNAQELBQADggEBACsx4X4POCmmlRcDwJ8/XoAonNKotm5W5Ya1
WLhQAKZa75nBZPbye+UhMiBWOAEAPFMr1a4FZYa7jP3UVSFzaJfjLScqAtHcadpg
BQ0iZBoiwCzkQ7NQu99nZVxwgJZiDjD1n/t6IchSFER1L8mys7OR/vLW175O5ztq
TRlXkn1cCpr7d8mCoKXfYVWFMp8m+UyRl6/NCMe5yTBzCX6AetSXsTZ7lTAxxBD6
RBJDRDOqEV/ERCT3wtut0JheRdjIFnJHJYrTQQtnH8b/nqEDGwAMuW15K0vLEwTo
dUWh/E4q0DgpUC7A/lZMU2SzM4EzERC9VMx0Ph1X4bCr6PMqeNk=
-----END CERTIFICATE-----
