Certificate:
    Data:
        Version: 3 (0x2)
        Serial Number: 36 (0x24)
    Signature Algorithm: sha256WithRSAEncryption
        Issuer: C=US, ST=California, L=Santa Clara, O=pkg5, CN=ch1_ta4/emailAddress=ch1_ta4
        Validity
            Not Before: Jan 22 01:57:59 2016 GMT
            Not After : Oct 18 01:57:59 2018 GMT
        Subject: C=US, ST=California, L=Santa Clara, O=pkg5, CN=cs1_ch1_ta4/emailAddress=cs1_ch1_ta4
        Subject Public Key Info:
            Public Key Algorithm: rsaEncryption
                Public-Key: (1024 bit)
                Modulus:
                    00:e1:15:20:0f:ca:11:75:35:b3:ae:ce:9f:fc:2e:
                    7a:b7:b9:4b:05:02:a4:d9:52:c5:1f:36:ce:60:b0:
                    57:20:bf:55:47:52:97:53:57:7c:b4:8f:cd:c6:49:
                    b1:c2:d7:d5:14:a2:59:38:2f:59:3c:2b:bc:d7:44:
                    8f:e8:10:25:d2:e4:61:02:b1:c2:3b:87:ac:0d:f0:
                    1e:93:3c:57:2d:00:b4:1d:e5:aa:e2:a2:22:9b:65:
                    47:63:f4:04:17:ae:b6:f9:75:28:93:15:bd:cb:d6:
                    a0:ef:1b:b9:c7:39:6c:45:5e:c2:b3:c4:4b:3f:39:
                    cb:3b:27:24:bc:dc:53:28:7b
                Exponent: 65537 (0x10001)
        X509v3 extensions:
            X509v3 Basic Constraints: critical
                CA:FALSE
            X509v3 CRL Distribution Points: 

                Full Name:
                  URI:http://localhost:12001/file/0/ch1_ta4_crl.pem

    Signature Algorithm: sha256WithRSAEncryption
         0c:86:66:94:e6:7d:13:28:d0:6f:d0:58:64:6a:dc:73:ec:11:
         af:a3:98:cf:e3:c5:cd:e5:48:78:d5:5c:19:f0:2b:6e:2b:12:
         c9:45:f1:5f:28:a8:07:96:9b:a8:b2:40:e1:98:6a:47:61:1e:
         d5:4b:cc:2a:fd:49:51:84:dc:1a:2a:26:c6:b3:61:2e:5b:05:
         7f:0c:ee:b1:53:3b:7d:0f:f4:b4:0c:28:2d:5a:09:fa:1c:28:
         b3:85:fd:e2:1f:8c:aa:c6:75:ff:16:d9:a6:17:64:10:69:21:
         c2:02:04:a3:04:d8:f6:00:4c:e9:c4:45:24:a2:e0:9b:68:4f:
         1f:ee:f9:9b:ed:ac:9a:c3:7b:b3:52:91:06:4e:9f:5f:d0:d3:
         14:83:69:a7:44:12:85:b2:09:39:a8:c6:c1:62:4e:d8:00:f7:
         82:a7:de:c6:f6:5b:df:20:8c:25:ce:29:78:56:94:7a:72:da:
         71:e9:b7:15:62:d0:f6:56:78:a2:c3:b1:7c:a4:ba:28:5f:89:
         bf:2a:3b:dd:e4:e1:79:a3:6b:d5:98:e4:de:96:68:4f:e6:dc:
         8e:ed:6a:dc:c8:69:8d:3f:6b:3b:fe:77:1a:1a:1b:ad:84:9a:
         e0:bf:7b:2b:e9:92:3a:59:62:65:07:17:22:3c:c1:d8:81:44:
         61:30:c3:1a
-----BEGIN CERTIFICATE-----
MIIDMTCCAhmgAwIBAgIBJDANBgkqhkiG9w0BAQsFADBxMQswCQYDVQQGEwJVUzET
MBEGA1UECAwKQ2FsaWZvcm5pYTEUMBIGA1UEBwwLU2FudGEgQ2xhcmExDTALBgNV
BAoMBHBrZzUxEDAOBgNVBAMMB2NoMV90YTQxFjAUBgkqhkiG9w0BCQEWB2NoMV90
YTQwHhcNMTYwMTIyMDE1NzU5WhcNMTgxMDE4MDE1NzU5WjB5MQswCQYDVQQGEwJV
UzETMBEGA1UECAwKQ2FsaWZvcm5pYTEUMBIGA1UEBwwLU2FudGEgQ2xhcmExDTAL
BgNVBAoMBHBrZzUxFDASBgNVBAMMC2NzMV9jaDFfdGE0MRowGAYJKoZIhvcNAQkB
FgtjczFfY2gxX3RhNDCBnzANBgkqhkiG9w0BAQEFAAOBjQAwgYkCgYEA4RUgD8oR
dTWzrs6f/C56t7lLBQKk2VLFHzbOYLBXIL9VR1KXU1d8tI/NxkmxwtfVFKJZOC9Z
PCu810SP6BAl0uRhArHCO4esDfAekzxXLQC0HeWq4qIim2VHY/QEF662+XUokxW9
y9ag7xu5xzlsRV7Cs8RLPznLOyckvNxTKHsCAwEAAaNQME4wDAYDVR0TAQH/BAIw
ADA+BgNVHR8ENzA1MDOgMaAvhi1odHRwOi8vbG9jYWxob3N0OjEyMDAxL2ZpbGUv
MC9jaDFfdGE0X2NybC5wZW0wDQYJKoZIhvcNAQELBQADggEBAAyGZpTmfRMo0G/Q
WGRq3HPsEa+jmM/jxc3lSHjVXBnwK24rEslF8V8oqAeWm6iyQOGYakdhHtVLzCr9
SVGE3BoqJsazYS5bBX8M7rFTO30P9LQMKC1aCfocKLOF/eIfjKrGdf8W2aYXZBBp
IcICBKME2PYATOnERSSi4JtoTx/u+ZvtrJrDe7NSkQZOn1/Q0xSDaadEEoWyCTmo
xsFiTtgA94Kn3sb2W98gjCXOKXhWlHpy2nHptxVi0PZWeKLDsXykuihfib8qO93k
4Xmja9WY5N6WaE/m3I7tatzIaY0/azv+dxoaG62EmuC/eyvpkjpZYmUHFyI8wdiB
RGEwwxo=
-----END CERTIFICATE-----
