Certificate:
    Data:
        Version: 3 (0x2)
        Serial Number: 27 (0x1b)
        Signature Algorithm: sha256WithRSAEncryption
        Issuer: C=US, ST=California, L=Menlo Park, O=pkg5, CN=ch1.1_ta3/emailAddress=ch1.1_ta3
        Validity
            Not Before: Mar 21 00:49:29 2011 GMT
            Not After : Dec 15 00:49:29 2013 GMT
        Subject: C=US, ST=California, L=Menlo Park, O=pkg5, CN=cs1_ch1.1_ta3/emailAddress=cs1_ch1.1_ta3
        Subject Public Key Info:
            Public Key Algorithm: rsaEncryption
            RSA Public Key: (1024 bit)
                Modulus (1024 bit):
                    00:9e:9e:a5:8e:28:f4:bd:9e:0d:46:b9:af:dc:80:
                    5a:72:49:2f:c8:27:3c:66:ba:13:cb:57:04:0c:0b:
                    a1:71:e2:a0:97:ba:08:79:8c:43:8a:c8:49:5c:8d:
                    a9:b9:79:11:17:68:ea:ca:01:1b:68:0f:98:f6:86:
                    eb:e6:3f:d6:c8:96:a0:b8:5b:93:89:9c:d7:bc:b7:
                    62:80:68:74:f8:bd:76:33:77:7c:13:ea:f3:53:dc:
                    30:ce:80:46:93:51:2e:6a:49:bd:bd:48:a7:44:0b:
                    bf:a2:f7:79:b1:34:27:72:b0:e7:1e:13:3e:ec:0e:
                    7e:bf:00:eb:e3:ac:77:62:1f
                Exponent: 65537 (0x10001)
        X509v3 extensions:
            X509v3 Basic Constraints: critical
                CA:FALSE
            X509v3 Key Usage: critical
                Digital Signature
    Signature Algorithm: sha256WithRSAEncryption
        ac:d1:6e:7d:ab:d7:f2:e1:83:3d:79:74:3f:c3:64:61:81:b0:
        68:84:57:1d:3a:21:e4:93:ac:82:e2:11:e0:15:c6:bb:a1:b9:
        7f:59:96:00:63:31:99:e9:77:d9:b1:cd:b5:87:3d:1e:96:ab:
        c1:1b:90:05:1c:b2:0b:f3:42:26:87:61:79:a7:0f:dc:fb:f3:
        e6:4f:65:ff:a1:2b:64:06:9e:82:82:45:a3:4f:0b:3c:67:31:
        c2:ea:6f:dd:06:d3:b5:a0:e0:d1:a0:a9:fd:1e:cb:e2:0b:82:
        7d:aa:08:5f:bd:12:18:d4:1d:77:7e:35:1c:6e:67:68:bb:0b:
        a4:2c
-----BEGIN CERTIFICATE-----
MIIChjCCAe+gAwIBAgIBGzANBgkqhkiG9w0BAQsFADB0MQswCQYDVQQGEwJVUzET
MBEGA1UECBMKQ2FsaWZvcm5pYTETMBEGA1UEBxMKTWVubG8gUGFyazENMAsGA1UE
ChMEcGtnNTESMBAGA1UEAxQJY2gxLjFfdGEzMRgwFgYJKoZIhvcNAQkBFgljaDEu
MV90YTMwHhcNMTEwMzIxMDA0OTI5WhcNMTMxMjE1MDA0OTI5WjB8MQswCQYDVQQG
EwJVUzETMBEGA1UECBMKQ2FsaWZvcm5pYTETMBEGA1UEBxMKTWVubG8gUGFyazEN
MAsGA1UEChMEcGtnNTEWMBQGA1UEAxQNY3MxX2NoMS4xX3RhMzEcMBoGCSqGSIb3
DQEJARYNY3MxX2NoMS4xX3RhMzCBnzANBgkqhkiG9w0BAQEFAAOBjQAwgYkCgYEA
np6ljij0vZ4NRrmv3IBackkvyCc8ZroTy1cEDAuhceKgl7oIeYxDishJXI2puXkR
F2jqygEbaA+Y9obr5j/WyJaguFuTiZzXvLdigGh0+L12M3d8E+rzU9wwzoBGk1Eu
akm9vUinRAu/ovd5sTQncrDnHhM+7A5+vwDr46x3Yh8CAwEAAaMgMB4wDAYDVR0T
AQH/BAIwADAOBgNVHQ8BAf8EBAMCB4AwDQYJKoZIhvcNAQELBQADgYEArNFufavX
8uGDPXl0P8NkYYGwaIRXHToh5JOsguIR4BXGu6G5f1mWAGMxmel32bHNtYc9Hpar
wRuQBRyyC/NCJodheacP3Pvz5k9l/6ErZAaegoJFo08LPGcxwupv3QbTtaDg0aCp
/R7L4guCfaoIX70SGNQdd341HG5naLsLpCw=
-----END CERTIFICATE-----
