Certificate:
    Data:
        Version: 3 (0x2)
        Serial Number: 11 (0xb)
        Signature Algorithm: sha256WithRSAEncryption
        Issuer: C=US, ST=California, L=Menlo Park, O=pkg5, CN=ch5.2_ta1/emailAddress=ch5.2_ta1
        Validity
            Not Before: Mar 21 00:49:25 2011 GMT
            Not After : Dec 15 00:49:25 2013 GMT
        Subject: C=US, ST=California, L=Menlo Park, O=pkg5, CN=cs1_ch5.2_ta1/emailAddress=cs1_ch5.2_ta1
        Subject Public Key Info:
            Public Key Algorithm: rsaEncryption
            RSA Public Key: (1024 bit)
                Modulus (1024 bit):
                    00:b9:44:f7:70:52:8f:e0:c5:7b:7e:68:01:46:0b:
                    e1:54:1a:91:82:96:5d:d9:60:a7:a6:c2:2d:cf:f6:
                    b1:e6:bc:fe:b5:02:49:20:5e:b7:2e:88:07:05:4e:
                    88:9e:96:f5:51:22:b1:72:23:88:21:7d:70:d4:51:
                    c1:38:26:87:3c:d2:59:b4:0a:b4:0c:99:fb:eb:89:
                    a8:15:fa:ff:2a:40:52:e2:b3:d1:79:61:4b:a5:f3:
                    8a:0a:18:4b:76:26:9d:68:c7:83:03:88:77:38:ab:
                    d6:2d:95:17:20:43:cc:6b:c5:d2:1d:85:b7:c0:b4:
                    b7:8c:f7:cc:3e:cc:79:8d:3d
                Exponent: 65537 (0x10001)
        X509v3 extensions:
            X509v3 Basic Constraints: critical
                CA:FALSE
            X509v3 Key Usage: critical
                Digital Signature
    Signature Algorithm: sha256WithRSAEncryption
        15:39:6a:5e:1b:b7:b0:9d:56:ed:4e:0f:28:5e:ba:84:d0:14:
        92:4b:51:1f:3f:a7:2b:dc:ac:3d:6a:d6:79:7d:16:e6:db:04:
        a2:4b:03:c9:d0:d0:4d:09:60:c8:92:ae:cf:ec:39:0e:fb:a2:
        17:bf:0d:1b:ff:99:b6:c8:2a:cb:f9:25:bc:b1:8e:94:2b:dc:
        e1:47:43:a0:21:9c:b3:f3:62:d0:ae:49:e0:aa:a9:a8:23:c5:
        7f:60:9a:ce:cc:4b:48:6a:98:2a:58:68:df:89:88:fe:d3:17:
        50:82:3b:33:45:4a:08:56:2e:e4:5e:4f:3b:6f:c5:e1:c0:53:
        28:a8
-----BEGIN CERTIFICATE-----
MIIChjCCAe+gAwIBAgIBCzANBgkqhkiG9w0BAQsFADB0MQswCQYDVQQGEwJVUzET
MBEGA1UECBMKQ2FsaWZvcm5pYTETMBEGA1UEBxMKTWVubG8gUGFyazENMAsGA1UE
ChMEcGtnNTESMBAGA1UEAxQJY2g1LjJfdGExMRgwFgYJKoZIhvcNAQkBFgljaDUu
Ml90YTEwHhcNMTEwMzIxMDA0OTI1WhcNMTMxMjE1MDA0OTI1WjB8MQswCQYDVQQG
EwJVUzETMBEGA1UECBMKQ2FsaWZvcm5pYTETMBEGA1UEBxMKTWVubG8gUGFyazEN
MAsGA1UEChMEcGtnNTEWMBQGA1UEAxQNY3MxX2NoNS4yX3RhMTEcMBoGCSqGSIb3
DQEJARYNY3MxX2NoNS4yX3RhMTCBnzANBgkqhkiG9w0BAQEFAAOBjQAwgYkCgYEA
uUT3cFKP4MV7fmgBRgvhVBqRgpZd2WCnpsItz/ax5rz+tQJJIF63LogHBU6Inpb1
USKxciOIIX1w1FHBOCaHPNJZtAq0DJn764moFfr/KkBS4rPReWFLpfOKChhLdiad
aMeDA4h3OKvWLZUXIEPMa8XSHYW3wLS3jPfMPsx5jT0CAwEAAaMgMB4wDAYDVR0T
AQH/BAIwADAOBgNVHQ8BAf8EBAMCB4AwDQYJKoZIhvcNAQELBQADgYEAFTlqXhu3
sJ1W7U4PKF66hNAUkktRHz+nK9ysPWrWeX0W5tsEoksDydDQTQlgyJKuz+w5Dvui
F78NG/+Ztsgqy/klvLGOlCvc4UdDoCGcs/Ni0K5J4KqpqCPFf2CazsxLSGqYKlho
34mI/tMXUII7M0VKCFYu5F5PO2/F4cBTKKg=
-----END CERTIFICATE-----
