Certificate:
    Data:
        Version: 3 (0x2)
        Serial Number: 33 (0x21)
        Signature Algorithm: sha256WithRSAEncryption
        Issuer: C=US, ST=California, L=Santa Clara, O=pkg5, CN=ch1.4_ta3/emailAddress=ch1.4_ta3
        Validity
            Not Before: Mar 18 08:51:41 2026 GMT
            Not After : Dec 12 08:51:41 2028 GMT
        Subject: C=US, ST=California, L=Santa Clara, O=pkg5, CN=cs1_ch1.4_ta3/emailAddress=cs1_ch1.4_ta3
        Subject Public Key Info:
            Public Key Algorithm: rsaEncryption
                Public-Key: (2048 bit)
                Modulus:
                    00:9c:d4:ca:5a:d8:b3:e4:2d:f6:a2:48:8c:ff:ce:
                    b1:3c:9a:bf:94:66:bd:e8:55:da:cb:fa:70:4b:f9:
                    66:92:f4:57:58:0d:7e:26:24:e1:c3:6f:6a:7b:cb:
                    ed:91:e8:29:f2:d1:21:d9:3c:fb:f4:b6:dd:3f:cc:
                    19:0f:8e:2c:32:0e:6c:71:19:f7:7f:9e:a1:fc:ea:
                    b1:eb:4d:1d:73:ac:30:7b:69:90:ed:67:4e:ee:8d:
                    03:e5:fb:89:e5:b1:b0:8b:40:14:13:46:e4:2e:a1:
                    f8:1e:b4:a1:a9:62:fe:f4:b4:62:57:41:0a:c7:c9:
                    f1:8a:d2:e9:7e:78:3d:20:d3:35:23:e9:4f:22:65:
                    97:8b:84:18:85:a4:56:81:7d:83:6f:58:a1:48:14:
                    2d:b4:f1:ec:f3:3f:dc:15:06:81:ad:6b:4d:ff:a6:
                    3e:6d:83:99:6d:ce:e6:80:fc:d6:c2:c8:dc:64:2f:
                    bb:f1:cc:b4:49:e9:06:bf:a3:ab:f8:ec:f1:3a:59:
                    ca:b1:fd:89:49:07:34:73:c2:c9:8e:aa:2e:2d:ae:
                    4a:25:e0:a1:4d:53:a2:a0:19:79:10:64:2b:72:24:
                    1a:18:ea:32:7d:3e:05:01:34:95:d4:a2:77:c6:b7:
                    97:e7:eb:83:23:bc:52:4f:0a:a7:e1:fe:41:1f:0e:
                    09:7b
                Exponent: 65537 (0x10001)
        X509v3 extensions:
            X509v3 Basic Constraints: critical
                CA:FALSE
            X509v3 Key Usage: critical
                Digital Signature
            X509v3 Subject Key Identifier: 
                00:25:41:97:C4:03:9A:4E:00:61:68:D8:66:F9:F6:26:5B:BB:07:06
            X509v3 Authority Key Identifier: 
                CD:A1:A2:60:7A:B9:FF:61:E9:29:73:28:2C:DA:7D:14:30:14:E8:CC
    Signature Algorithm: sha256WithRSAEncryption
    Signature Value:
        16:de:95:6d:cf:0e:38:fc:bd:43:3d:d7:61:50:db:84:07:4b:
        74:5b:df:32:c1:43:dd:c7:1e:19:c5:73:0e:83:cb:cb:b1:f5:
        b5:0e:c8:fa:4e:b6:a1:11:85:93:96:22:98:f8:43:78:64:ed:
        0b:cf:f5:d3:64:20:ba:5c:85:07:a7:03:a1:b0:05:87:ea:32:
        7a:07:84:24:fb:e6:92:19:68:9d:f4:94:a4:47:40:bf:a6:8b:
        05:8a:d2:c9:6f:83:d0:bd:a8:73:39:db:4d:5a:2f:fe:b7:a8:
        ab:ed:a9:0a:9d:aa:af:65:9e:cc:9f:36:83:ed:31:4c:df:c6:
        25:e4:ef:29:bd:0c:61:82:6d:07:c6:2a:b9:2b:42:97:6e:ef:
        9e:d9:88:5e:a5:26:c6:f5:e6:3a:d0:b5:07:da:9b:41:41:88:
        93:6d:cb:da:73:70:3d:c1:72:06:a3:29:e9:01:99:81:6f:77:
        d4:01:16:f1:5d:36:a1:44:d0:98:1b:13:4e:93:fe:a6:28:50:
        31:77:53:d5:62:2c:27:57:62:77:bc:51:e2:e7:5b:3e:44:68:
        f5:fd:1a:c2:0e:aa:aa:82:43:5b:49:4f:20:20:42:5e:28:57:
        0b:d4:8b:22:00:bb:1c:05:1c:e4:e2:3d:fd:6f:02:68:95:ba:
        e7:0f:18:0a
-----BEGIN CERTIFICATE-----
MIIDzTCCArWgAwIBAgIBITANBgkqhkiG9w0BAQsFADB1MQswCQYDVQQGEwJVUzET
MBEGA1UECAwKQ2FsaWZvcm5pYTEUMBIGA1UEBwwLU2FudGEgQ2xhcmExDTALBgNV
BAoMBHBrZzUxEjAQBgNVBAMMCWNoMS40X3RhMzEYMBYGCSqGSIb3DQEJARYJY2gx
LjRfdGEzMB4XDTI2MDMxODA4NTE0MVoXDTI4MTIxMjA4NTE0MVowfTELMAkGA1UE
BhMCVVMxEzARBgNVBAgMCkNhbGlmb3JuaWExFDASBgNVBAcMC1NhbnRhIENsYXJh
MQ0wCwYDVQQKDARwa2c1MRYwFAYDVQQDDA1jczFfY2gxLjRfdGEzMRwwGgYJKoZI
hvcNAQkBFg1jczFfY2gxLjRfdGEzMIIBIjANBgkqhkiG9w0BAQEFAAOCAQ8AMIIB
CgKCAQEAnNTKWtiz5C32okiM/86xPJq/lGa96FXay/pwS/lmkvRXWA1+JiThw29q
e8vtkegp8tEh2Tz79LbdP8wZD44sMg5scRn3f56h/Oqx600dc6wwe2mQ7WdO7o0D
5fuJ5bGwi0AUE0bkLqH4HrShqWL+9LRiV0EKx8nxitLpfng9INM1I+lPImWXi4QY
haRWgX2Db1ihSBQttPHs8z/cFQaBrWtN/6Y+bYOZbc7mgPzWwsjcZC+78cy0SekG
v6Or+OzxOlnKsf2JSQc0c8LJjqouLa5KJeChTVOioBl5EGQrciQaGOoyfT4FATSV
1KJ3xreX5+uDI7xSTwqn4f5BHw4JewIDAQABo2AwXjAMBgNVHRMBAf8EAjAAMA4G
A1UdDwEB/wQEAwIHgDAdBgNVHQ4EFgQUACVBl8QDmk4AYWjYZvn2Jlu7BwYwHwYD
VR0jBBgwFoAUzaGiYHq5/2HpKXMoLNp9FDAU6MwwDQYJKoZIhvcNAQELBQADggEB
ABbelW3PDjj8vUM912FQ24QHS3Rb3zLBQ93HHhnFcw6Dy8ux9bUOyPpOtqERhZOW
Ipj4Q3hk7QvP9dNkILpchQenA6GwBYfqMnoHhCT75pIZaJ30lKRHQL+miwWK0slv
g9C9qHM5201aL/63qKvtqQqdqq9lnsyfNoPtMUzfxiXk7ym9DGGCbQfGKrkrQpdu
757ZiF6lJsb15jrQtQfam0FBiJNty9pzcD3BcgajKekBmYFvd9QBFvFdNqFE0Jgb
E06T/qYoUDF3U9ViLCdXYne8UeLnWz5EaPX9GsIOqqqCQ1tJTyAgQl4oVwvUiyIA
uxwFHOTiPf1vAmiVuucPGAo=
-----END CERTIFICATE-----
