Certificate:
    Data:
        Version: 3 (0x2)
        Serial Number: 14 (0xe)
    Signature Algorithm: sha256WithRSAEncryption
        Issuer: C=US, ST=California, L=Santa Clara, O=pkg5, CN=ch5.3_ta1/emailAddress=ch5.3_ta1
        Validity
            Not Before: Jan 22 15:33:09 2019 GMT
            Not After : Oct 18 15:33:09 2021 GMT
        Subject: C=US, ST=California, L=Santa Clara, O=pkg5, CN=cs1_ch5.3_ta1/emailAddress=cs1_ch5.3_ta1
        Subject Public Key Info:
            Public Key Algorithm: rsaEncryption
                Public-Key: (1024 bit)
                Modulus:
                    00:c7:14:89:34:6c:b7:71:04:75:3c:e6:3a:95:8b:
                    42:9e:db:70:fb:a5:0d:57:fb:61:8c:88:f7:41:bf:
                    6e:d4:36:15:c8:23:14:96:d5:ce:bd:28:16:0d:93:
                    17:8c:be:1e:3f:b7:28:91:39:fe:e5:a8:e2:42:49:
                    2a:b0:fe:4c:14:59:32:f2:6a:ad:43:df:94:c9:93:
                    36:24:37:f4:1e:da:c1:12:e0:22:da:0f:1b:f8:26:
                    37:90:f4:df:27:a0:5c:68:13:f1:ed:ac:97:9f:63:
                    4f:cd:00:ee:26:02:62:20:74:55:e0:a9:0c:c0:26:
                    c2:cc:ef:ac:9d:90:a8:72:eb
                Exponent: 65537 (0x10001)
        X509v3 extensions:
            X509v3 Basic Constraints: critical
                CA:FALSE
            X509v3 Key Usage: critical
                Digital Signature
    Signature Algorithm: sha256WithRSAEncryption
         65:c0:cd:1d:f6:b7:78:41:0a:f2:ca:61:35:79:97:b6:51:2b:
         51:78:ce:06:a4:46:50:23:50:b7:69:5a:06:e0:54:63:d9:34:
         51:87:29:a2:43:2f:67:3c:9c:84:1b:0b:31:6d:66:19:39:eb:
         be:3e:45:c8:2a:ca:39:67:be:67:a2:20:20:53:35:35:cd:16:
         82:5f:2f:ee:08:eb:c5:83:e2:b3:27:34:47:9c:77:6b:fa:64:
         69:8b:12:97:39:35:0c:8a:5d:c7:97:4d:d4:3b:37:e9:8c:09:
         1a:2d:05:a0:3a:9b:05:6b:32:12:29:7f:2e:1e:1a:b8:7c:9f:
         ed:bd:9a:78:18:ab:30:6b:03:56:0e:00:c9:0b:2c:d5:44:0b:
         69:8f:97:22:35:51:0b:0f:fd:9b:33:12:0f:4d:0d:8b:ea:4e:
         f2:62:a5:4f:23:fd:f1:a1:c3:12:92:66:2e:35:bc:5a:d4:a6:
         c9:23:cf:6c:3f:2f:87:af:13:8f:73:c4:71:68:74:e1:80:f1:
         b2:0d:69:68:2a:75:84:d4:35:06:cf:8d:eb:e6:a3:28:11:d4:
         b2:aa:23:b0:46:f9:19:8c:ef:40:6b:ea:7c:36:3c:03:88:02:
         9c:27:3f:72:e1:6c:24:a0:6c:23:29:23:6c:e3:12:0f:15:01:
         fc:83:cd:d4
-----BEGIN CERTIFICATE-----
MIIDCTCCAfGgAwIBAgIBDjANBgkqhkiG9w0BAQsFADB1MQswCQYDVQQGEwJVUzET
MBEGA1UECAwKQ2FsaWZvcm5pYTEUMBIGA1UEBwwLU2FudGEgQ2xhcmExDTALBgNV
BAoMBHBrZzUxEjAQBgNVBAMMCWNoNS4zX3RhMTEYMBYGCSqGSIb3DQEJARYJY2g1
LjNfdGExMB4XDTE5MDEyMjE1MzMwOVoXDTIxMTAxODE1MzMwOVowfTELMAkGA1UE
BhMCVVMxEzARBgNVBAgMCkNhbGlmb3JuaWExFDASBgNVBAcMC1NhbnRhIENsYXJh
MQ0wCwYDVQQKDARwa2c1MRYwFAYDVQQDDA1jczFfY2g1LjNfdGExMRwwGgYJKoZI
hvcNAQkBFg1jczFfY2g1LjNfdGExMIGfMA0GCSqGSIb3DQEBAQUAA4GNADCBiQKB
gQDHFIk0bLdxBHU85jqVi0Ke23D7pQ1X+2GMiPdBv27UNhXIIxSW1c69KBYNkxeM
vh4/tyiROf7lqOJCSSqw/kwUWTLyaq1D35TJkzYkN/Qe2sES4CLaDxv4JjeQ9N8n
oFxoE/HtrJefY0/NAO4mAmIgdFXgqQzAJsLM76ydkKhy6wIDAQABoyAwHjAMBgNV
HRMBAf8EAjAAMA4GA1UdDwEB/wQEAwIHgDANBgkqhkiG9w0BAQsFAAOCAQEAZcDN
Hfa3eEEK8sphNXmXtlErUXjOBqRGUCNQt2laBuBUY9k0UYcpokMvZzychBsLMW1m
GTnrvj5FyCrKOWe+Z6IgIFM1Nc0Wgl8v7gjrxYPisyc0R5x3a/pkaYsSlzk1DIpd
x5dN1Ds36YwJGi0FoDqbBWsyEil/Lh4auHyf7b2aeBirMGsDVg4AyQss1UQLaY+X
IjVRCw/9mzMSD00Ni+pO8mKlTyP98aHDEpJmLjW8WtSmySPPbD8vh68Tj3PEcWh0
4YDxsg1paCp1hNQ1Bs+N6+ajKBHUsqojsEb5GYzvQGvqfDY8A4gCnCc/cuFsJKBs
IykjbOMSDxUB/IPN1A==
-----END CERTIFICATE-----
