Certificate:
    Data:
        Version: 3 (0x2)
        Serial Number: 27 (0x1b)
        Signature Algorithm: sha256WithRSAEncryption
        Issuer: C=US, ST=California, L=Santa Clara, O=pkg5, CN=ch1.1_ta3/emailAddress=ch1.1_ta3
        Validity
            Not Before: Mar 18 08:51:39 2026 GMT
            Not After : Dec 12 08:51:39 2028 GMT
        Subject: C=US, ST=California, L=Santa Clara, O=pkg5, CN=cs1_ch1.1_ta3/emailAddress=cs1_ch1.1_ta3
        Subject Public Key Info:
            Public Key Algorithm: rsaEncryption
                Public-Key: (2048 bit)
                Modulus:
                    00:ca:51:c7:0b:8b:00:1e:79:39:ea:9e:b6:d9:1b:
                    c5:44:d8:33:0a:3b:e6:d6:58:62:52:a0:e6:62:2f:
                    6f:ef:5d:d2:b2:af:16:e4:3f:39:88:dc:97:fb:72:
                    88:58:b1:0b:86:0a:66:79:78:ea:e1:f8:db:20:64:
                    40:aa:3e:5a:6e:b6:3d:e4:6a:9b:10:5e:04:3f:1a:
                    df:f7:19:f1:db:f5:55:5d:0b:90:2e:fe:b1:df:99:
                    f0:7a:46:68:32:41:d6:61:d8:c5:de:0f:f9:b4:48:
                    be:e8:bd:64:6e:9c:f4:5e:b0:be:4b:54:df:99:2f:
                    03:94:43:66:7e:0d:f5:d7:f5:20:0a:e6:d9:34:11:
                    7f:11:fa:b8:d6:14:2e:62:23:eb:03:6d:50:eb:d0:
                    d6:ea:a9:ec:ba:3b:b5:47:62:db:b6:c9:0f:38:75:
                    f7:0a:09:96:22:19:37:5e:3f:6a:7d:9b:9e:95:6d:
                    97:f0:5e:b5:ba:a4:1b:24:05:38:54:99:7e:8f:6e:
                    8b:27:15:98:ce:70:dd:d8:ac:9e:88:45:75:50:c3:
                    b6:f8:96:b7:b0:00:e2:4a:35:e8:08:c4:7d:f1:4c:
                    3e:e3:03:e3:2f:ee:d3:56:94:6e:b9:02:fa:ae:63:
                    5d:c1:97:b8:b9:ce:76:ca:65:57:1e:15:9f:c3:1e:
                    39:8f
                Exponent: 65537 (0x10001)
        X509v3 extensions:
            X509v3 Basic Constraints: critical
                CA:FALSE
            X509v3 Key Usage: critical
                Digital Signature
            X509v3 Subject Key Identifier: 
                E3:FA:14:DC:59:F4:4D:FF:57:F0:F8:4B:7E:BC:F3:BE:38:8D:3F:03
            X509v3 Authority Key Identifier: 
                E8:99:C4:9E:0C:BF:1A:B0:CD:0E:00:69:23:55:F9:FE:1A:E6:93:03
    Signature Algorithm: sha256WithRSAEncryption
    Signature Value:
        05:7f:fa:66:46:f5:fb:f5:e6:40:b5:c1:73:b0:e2:20:50:3c:
        6d:37:03:66:49:24:47:61:a6:51:b8:a7:01:14:eb:a2:e9:ef:
        88:50:45:e5:95:59:b2:eb:5e:48:8d:5f:04:72:1e:dc:9b:5a:
        95:db:b5:cc:ea:19:4d:51:30:58:b2:b4:b5:47:a4:fe:9e:20:
        f7:be:44:22:06:e7:bd:bd:7f:5a:2a:74:56:eb:19:b4:f3:e4:
        bf:2d:41:73:5c:41:b4:9d:20:59:03:f7:89:ed:4d:27:6a:d8:
        15:94:51:43:79:6b:eb:d4:39:ff:bd:a8:bb:18:29:29:71:cf:
        19:a6:f8:70:1e:c4:2d:e2:cc:f0:01:9b:86:7a:7d:02:56:5c:
        af:aa:6e:69:7c:d0:94:6c:11:fe:46:9c:5f:21:51:8e:e4:4c:
        65:fb:c9:22:94:78:c4:fa:e7:8b:33:bf:bd:67:43:d4:29:0c:
        ca:30:ad:4a:98:6e:b7:64:3a:f0:60:8e:78:d8:a8:51:55:e1:
        11:6d:1e:b9:9d:d4:86:c8:c5:13:db:46:d8:1f:47:47:18:04:
        4b:f6:38:5a:b3:c8:29:6f:5c:42:54:e3:6b:20:75:e4:22:21:
        7d:dc:d6:62:1e:0b:a6:53:38:38:4e:26:17:33:ca:fd:4e:e8:
        07:6e:13:10
-----BEGIN CERTIFICATE-----
MIIDzTCCArWgAwIBAgIBGzANBgkqhkiG9w0BAQsFADB1MQswCQYDVQQGEwJVUzET
MBEGA1UECAwKQ2FsaWZvcm5pYTEUMBIGA1UEBwwLU2FudGEgQ2xhcmExDTALBgNV
BAoMBHBrZzUxEjAQBgNVBAMMCWNoMS4xX3RhMzEYMBYGCSqGSIb3DQEJARYJY2gx
LjFfdGEzMB4XDTI2MDMxODA4NTEzOVoXDTI4MTIxMjA4NTEzOVowfTELMAkGA1UE
BhMCVVMxEzARBgNVBAgMCkNhbGlmb3JuaWExFDASBgNVBAcMC1NhbnRhIENsYXJh
MQ0wCwYDVQQKDARwa2c1MRYwFAYDVQQDDA1jczFfY2gxLjFfdGEzMRwwGgYJKoZI
hvcNAQkBFg1jczFfY2gxLjFfdGEzMIIBIjANBgkqhkiG9w0BAQEFAAOCAQ8AMIIB
CgKCAQEAylHHC4sAHnk56p622RvFRNgzCjvm1lhiUqDmYi9v713Ssq8W5D85iNyX
+3KIWLELhgpmeXjq4fjbIGRAqj5abrY95GqbEF4EPxrf9xnx2/VVXQuQLv6x35nw
ekZoMkHWYdjF3g/5tEi+6L1kbpz0XrC+S1TfmS8DlENmfg311/UgCubZNBF/Efq4
1hQuYiPrA21Q69DW6qnsuju1R2LbtskPOHX3CgmWIhk3Xj9qfZuelW2X8F61uqQb
JAU4VJl+j26LJxWYznDd2KyeiEV1UMO2+Ja3sADiSjXoCMR98Uw+4wPjL+7TVpRu
uQL6rmNdwZe4uc52ymVXHhWfwx45jwIDAQABo2AwXjAMBgNVHRMBAf8EAjAAMA4G
A1UdDwEB/wQEAwIHgDAdBgNVHQ4EFgQU4/oU3Fn0Tf9X8PhLfrzzvjiNPwMwHwYD
VR0jBBgwFoAU6JnEngy/GrDNDgBpI1X5/hrmkwMwDQYJKoZIhvcNAQELBQADggEB
AAV/+mZG9fv15kC1wXOw4iBQPG03A2ZJJEdhplG4pwEU66Lp74hQReWVWbLrXkiN
XwRyHtybWpXbtczqGU1RMFiytLVHpP6eIPe+RCIG5729f1oqdFbrGbTz5L8tQXNc
QbSdIFkD94ntTSdq2BWUUUN5a+vUOf+9qLsYKSlxzxmm+HAexC3izPABm4Z6fQJW
XK+qbml80JRsEf5GnF8hUY7kTGX7ySKUeMT654szv71nQ9QpDMowrUqYbrdkOvBg
jnjYqFFV4RFtHrmd1IbIxRPbRtgfR0cYBEv2OFqzyClvXEJU42sgdeQiIX3c1mIe
C6ZTODhOJhczyv1O6AduExA=
-----END CERTIFICATE-----
