Certificate:
    Data:
        Version: 3 (0x2)
        Serial Number: 47 (0x2f)
        Signature Algorithm: sha256WithRSAEncryption
        Issuer: C=US, ST=California, L=Menlo Park, O=pkg5, OU=ta11, CN=localhost/emailAddress=ta11
        Validity
            Not Before: Apr 11 22:37:55 2011 GMT
            Not After : Jan  5 22:37:55 2014 GMT
        Subject: C=US, ST=California, L=Menlo Park, O=pkg5, OU=cs1_ta11, CN=localhost/emailAddress=cs1_ta11
        Subject Public Key Info:
            Public Key Algorithm: rsaEncryption
            RSA Public Key: (1024 bit)
                Modulus (1024 bit):
                    00:d0:21:b2:10:04:9f:9c:ed:82:b7:0e:98:3f:b6:
                    27:97:24:74:1d:88:1e:42:29:bc:3b:1b:91:a5:92:
                    4f:80:2a:81:05:71:2f:1b:3f:49:92:d1:9e:bf:e8:
                    39:a8:6f:81:0d:53:20:04:fa:33:32:b7:96:3e:66:
                    f7:85:d4:4d:32:e7:11:3e:aa:2f:3a:40:3f:28:97:
                    b3:ee:9f:5d:b2:4c:e1:5e:7d:2e:d1:4f:ec:ff:b4:
                    34:b4:64:b9:56:ed:2b:59:5c:e0:c5:e1:91:66:20:
                    f2:56:9d:6e:55:69:60:38:6d:8a:c3:8d:d6:b9:30:
                    37:ac:ed:eb:bf:ed:46:b7:5f
                Exponent: 65537 (0x10001)
        X509v3 extensions:
            X509v3 Basic Constraints: critical
                CA:FALSE
            X509v3 Key Usage: critical
                Digital Signature
    Signature Algorithm: sha256WithRSAEncryption
        6a:b0:56:90:12:50:3d:5b:96:88:2c:f3:fc:67:2b:ed:07:84:
        f7:f6:34:e6:51:b4:fb:67:15:0f:88:65:f5:34:3c:53:9b:ab:
        a4:fc:fd:06:96:f3:de:8f:2c:89:fd:26:41:20:cf:21:03:3b:
        17:0c:8b:7b:f1:a9:85:8d:a7:f5:58:5a:58:a1:e4:fa:dc:b2:
        3b:23:d6:ae:bc:f9:b9:34:5c:f2:00:49:9e:e7:f6:a7:60:ff:
        1b:22:50:db:80:1a:c8:81:40:bc:00:ee:4b:44:ef:4b:d0:13:
        b0:a2:e7:fb:03:e9:aa:39:7a:aa:00:f0:75:30:9c:31:8e:c8:
        75:13
-----BEGIN CERTIFICATE-----
MIICmzCCAgSgAwIBAgIBLzANBgkqhkiG9w0BAQsFADB+MQswCQYDVQQGEwJVUzET
MBEGA1UECBMKQ2FsaWZvcm5pYTETMBEGA1UEBxMKTWVubG8gUGFyazENMAsGA1UE
ChMEcGtnNTENMAsGA1UECxMEdGExMTESMBAGA1UEAxMJbG9jYWxob3N0MRMwEQYJ
KoZIhvcNAQkBFgR0YTExMB4XDTExMDQxMTIyMzc1NVoXDTE0MDEwNTIyMzc1NVow
gYYxCzAJBgNVBAYTAlVTMRMwEQYDVQQIEwpDYWxpZm9ybmlhMRMwEQYDVQQHEwpN
ZW5sbyBQYXJrMQ0wCwYDVQQKEwRwa2c1MREwDwYDVQQLFAhjczFfdGExMTESMBAG
A1UEAxMJbG9jYWxob3N0MRcwFQYJKoZIhvcNAQkBFghjczFfdGExMTCBnzANBgkq
hkiG9w0BAQEFAAOBjQAwgYkCgYEA0CGyEASfnO2Ctw6YP7YnlyR0HYgeQim8OxuR
pZJPgCqBBXEvGz9JktGev+g5qG+BDVMgBPozMreWPmb3hdRNMucRPqovOkA/KJez
7p9dskzhXn0u0U/s/7Q0tGS5Vu0rWVzgxeGRZiDyVp1uVWlgOG2Kw43WuTA3rO3r
v+1Gt18CAwEAAaMgMB4wDAYDVR0TAQH/BAIwADAOBgNVHQ8BAf8EBAMCB4AwDQYJ
KoZIhvcNAQELBQADgYEAarBWkBJQPVuWiCzz/Gcr7QeE9/Y05lG0+2cVD4hl9TQ8
U5urpPz9Bpbz3o8sif0mQSDPIQM7FwyLe/GphY2n9VhaWKHk+tyyOyPWrrz5uTRc
8gBJnuf2p2D/GyJQ24AayIFAvADuS0TvS9ATsKLn+wPpqjl6qgDwdTCcMY7IdRM=
-----END CERTIFICATE-----
