Certificate:
    Data:
        Version: 3 (0x2)
        Serial Number: 25 (0x19)
        Signature Algorithm: sha256WithRSAEncryption
        Issuer: C=US, ST=California, L=Menlo Park, O=pkg5, CN=cs8_ch1_ta3/emailAddress=cs8_ch1_ta3
        Validity
            Not Before: Mar 21 00:49:29 2011 GMT
            Not After : Dec 15 00:49:29 2013 GMT
        Subject: C=US, ST=California, L=Menlo Park, O=pkg5, CN=cs1_cs8_ch1_ta3/emailAddress=cs1_cs8_ch1_ta3
        Subject Public Key Info:
            Public Key Algorithm: rsaEncryption
            RSA Public Key: (1024 bit)
                Modulus (1024 bit):
                    00:b7:e1:e5:53:8b:fe:2e:f4:82:1a:1a:10:f8:1d:
                    3f:0f:04:e4:35:8b:19:20:11:af:ad:c2:ff:5a:12:
                    04:f0:4e:4d:3a:b3:ce:42:c3:c5:ad:2a:ca:87:04:
                    c2:f3:8a:5c:22:c9:b9:d5:08:ba:5c:9c:1a:06:d8:
                    db:ea:70:6c:0a:8c:22:0a:9c:9b:ea:4d:0f:d9:98:
                    da:df:d8:cd:26:82:f8:ae:77:93:6a:16:3f:54:eb:
                    c1:c7:fc:94:bb:05:dc:9d:cf:ae:bc:71:e9:f0:4a:
                    09:d7:06:14:d4:db:63:d6:b2:bc:84:9f:90:a0:21:
                    75:45:2b:f3:2c:fa:e8:98:cd
                Exponent: 65537 (0x10001)
        X509v3 extensions:
            X509v3 Basic Constraints: critical
                CA:FALSE
            X509v3 Key Usage: critical
                Digital Signature
    Signature Algorithm: sha256WithRSAEncryption
        80:df:ac:6d:f0:f0:d8:14:72:fa:cc:20:8d:9b:58:f2:1e:bf:
        a1:31:02:e6:2c:09:fe:2e:c2:d9:02:b4:14:57:9a:60:ea:20:
        69:5e:ea:ff:30:86:fe:57:6b:f0:39:68:23:d3:0c:aa:82:dc:
        2e:47:91:66:a2:05:14:c8:f9:a1:21:7b:77:19:16:fb:6f:52:
        a6:04:a1:13:cb:89:b3:1e:fe:d0:f4:e4:9b:4a:65:4a:59:a6:
        12:1f:0b:ed:82:bb:06:4b:da:73:52:d5:3f:c7:8a:b2:ba:3f:
        78:73:d6:11:ae:94:62:18:db:86:da:1d:87:75:47:df:66:89:
        6e:3d
-----BEGIN CERTIFICATE-----
MIICjzCCAfigAwIBAgIBGTANBgkqhkiG9w0BAQsFADB4MQswCQYDVQQGEwJVUzET
MBEGA1UECBMKQ2FsaWZvcm5pYTETMBEGA1UEBxMKTWVubG8gUGFyazENMAsGA1UE
ChMEcGtnNTEUMBIGA1UEAxQLY3M4X2NoMV90YTMxGjAYBgkqhkiG9w0BCQEWC2Nz
OF9jaDFfdGEzMB4XDTExMDMyMTAwNDkyOVoXDTEzMTIxNTAwNDkyOVowgYAxCzAJ
BgNVBAYTAlVTMRMwEQYDVQQIEwpDYWxpZm9ybmlhMRMwEQYDVQQHEwpNZW5sbyBQ
YXJrMQ0wCwYDVQQKEwRwa2c1MRgwFgYDVQQDFA9jczFfY3M4X2NoMV90YTMxHjAc
BgkqhkiG9w0BCQEWD2NzMV9jczhfY2gxX3RhMzCBnzANBgkqhkiG9w0BAQEFAAOB
jQAwgYkCgYEAt+HlU4v+LvSCGhoQ+B0/DwTkNYsZIBGvrcL/WhIE8E5NOrPOQsPF
rSrKhwTC84pcIsm51Qi6XJwaBtjb6nBsCowiCpyb6k0P2Zja39jNJoL4rneTahY/
VOvBx/yUuwXcnc+uvHHp8EoJ1wYU1Ntj1rK8hJ+QoCF1RSvzLPromM0CAwEAAaMg
MB4wDAYDVR0TAQH/BAIwADAOBgNVHQ8BAf8EBAMCB4AwDQYJKoZIhvcNAQELBQAD
gYEAgN+sbfDw2BRy+swgjZtY8h6/oTEC5iwJ/i7C2QK0FFeaYOogaV7q/zCG/ldr
8DloI9MMqoLcLkeRZqIFFMj5oSF7dxkW+29SpgShE8uJsx7+0PTkm0plSlmmEh8L
7YK7Bkvac1LVP8eKsro/eHPWEa6UYhjbhtodh3VH32aJbj0=
-----END CERTIFICATE-----
