Certificate:
    Data:
        Version: 3 (0x2)
        Serial Number: 43 (0x2b)
        Signature Algorithm: sha256WithRSAEncryption
        Issuer: C=US, ST=California, L=Santa Clara, O=pkg5, OU=ta7, CN=localhost/emailAddress=ta7
        Validity
            Not Before: Mar 18 08:51:47 2026 GMT
            Not After : Dec 12 08:51:47 2028 GMT
        Subject: C=US, ST=California, L=Santa Clara, O=pkg5, OU=cs1_ta7, CN=localhost/emailAddress=cs1_ta7
        Subject Public Key Info:
            Public Key Algorithm: rsaEncryption
                Public-Key: (2048 bit)
                Modulus:
                    00:e5:34:9e:48:6d:1b:ce:76:b0:fc:a3:63:fe:1d:
                    3b:04:66:74:15:78:32:df:0c:9a:9c:44:24:b9:5e:
                    31:2a:fd:bf:35:ed:23:77:a0:01:39:73:c0:92:e4:
                    54:cf:41:d0:18:ee:69:a9:ec:8a:28:17:5a:89:80:
                    58:4d:1e:d9:6b:76:eb:48:74:25:ed:67:e7:bf:cc:
                    9c:67:31:09:82:31:35:b2:58:a0:95:48:7e:72:35:
                    92:11:6d:15:9d:5a:12:06:52:d8:80:39:5b:c1:da:
                    ac:bd:65:14:c7:08:26:99:54:e8:d0:74:b2:94:54:
                    15:cb:59:db:95:1e:cb:46:3b:cf:3b:4b:8a:14:92:
                    46:c7:8f:e6:66:d0:31:a4:8d:52:2d:67:f7:9a:6c:
                    d3:2b:1b:2b:bb:b2:b9:09:be:60:bf:4a:33:dd:31:
                    9c:cf:53:31:b7:67:0a:14:23:3a:b1:56:d8:5c:c1:
                    8d:71:7a:8c:0d:f0:e6:78:98:7f:a9:1e:7d:fe:9c:
                    91:99:3f:52:9c:f8:30:e1:78:09:94:b6:ea:b6:4d:
                    d7:4d:6a:f9:9e:59:16:9f:a2:c8:71:88:60:8e:2f:
                    a6:12:21:c5:6d:32:0e:b0:28:2a:81:c6:f5:ab:fe:
                    9f:a9:b2:19:54:55:b4:11:f0:07:42:77:51:00:6b:
                    a8:c1
                Exponent: 65537 (0x10001)
        X509v3 extensions:
            X509v3 Basic Constraints: critical
                CA:FALSE
            X509v3 Key Usage: critical
                Digital Signature
            X509v3 Subject Key Identifier: 
                B6:BD:9E:46:76:5C:BB:AA:69:02:AA:FA:1C:DA:6F:B2:81:C6:04:1D
            X509v3 Authority Key Identifier: 
                EC:5A:81:02:74:9B:BB:1F:BA:5A:47:94:CF:B7:98:9F:0A:0C:54:4B
    Signature Algorithm: sha256WithRSAEncryption
    Signature Value:
        4d:05:7a:df:9a:ca:ca:15:a5:0c:24:1c:1a:5b:a4:c4:24:77:
        a4:25:d7:b8:c8:ca:56:c6:47:75:5c:46:35:5a:c4:92:0a:7b:
        d2:cb:41:5f:f6:9a:52:5a:9c:5d:c4:b1:d4:e7:cb:0c:e3:21:
        48:ba:9d:1e:15:9a:28:78:f9:1d:01:fa:d5:a6:49:63:33:70:
        92:81:36:f7:0b:c6:18:ef:80:3a:2c:02:8d:20:3f:78:8d:b0:
        dd:59:cc:21:35:0b:e9:68:26:5f:0c:bc:45:89:de:c6:8c:94:
        2f:ee:c1:c4:d7:a1:02:02:a2:41:41:61:e1:fc:87:55:38:09:
        59:55:82:9e:7e:17:01:a2:23:ad:0a:98:5d:86:ee:25:fd:f5:
        70:b9:2f:85:3c:1a:2f:4b:bf:ab:e3:cd:38:be:8b:01:a7:20:
        cb:19:68:e5:ee:4c:a2:45:34:07:65:67:7f:67:e6:bc:57:a0:
        6d:2c:48:60:e5:bc:66:93:0f:6c:6b:25:49:b5:bf:67:91:8b:
        0c:f4:97:8c:e0:47:8d:a5:27:e4:53:ce:64:42:5c:e2:2f:9d:
        67:a3:79:5b:7a:e4:a1:8a:95:50:04:8a:23:62:30:f9:5a:ab:
        ad:dd:af:30:37:a9:6e:a9:5a:75:ae:81:76:01:5c:7b:c9:6c:
        db:c3:b1:ef
-----BEGIN CERTIFICATE-----
MIID3jCCAsagAwIBAgIBKzANBgkqhkiG9w0BAQsFADB9MQswCQYDVQQGEwJVUzET
MBEGA1UECAwKQ2FsaWZvcm5pYTEUMBIGA1UEBwwLU2FudGEgQ2xhcmExDTALBgNV
BAoMBHBrZzUxDDAKBgNVBAsMA3RhNzESMBAGA1UEAwwJbG9jYWxob3N0MRIwEAYJ
KoZIhvcNAQkBFgN0YTcwHhcNMjYwMzE4MDg1MTQ3WhcNMjgxMjEyMDg1MTQ3WjCB
hTELMAkGA1UEBhMCVVMxEzARBgNVBAgMCkNhbGlmb3JuaWExFDASBgNVBAcMC1Nh
bnRhIENsYXJhMQ0wCwYDVQQKDARwa2c1MRAwDgYDVQQLDAdjczFfdGE3MRIwEAYD
VQQDDAlsb2NhbGhvc3QxFjAUBgkqhkiG9w0BCQEWB2NzMV90YTcwggEiMA0GCSqG
SIb3DQEBAQUAA4IBDwAwggEKAoIBAQDlNJ5IbRvOdrD8o2P+HTsEZnQVeDLfDJqc
RCS5XjEq/b817SN3oAE5c8CS5FTPQdAY7mmp7IooF1qJgFhNHtlrdutIdCXtZ+e/
zJxnMQmCMTWyWKCVSH5yNZIRbRWdWhIGUtiAOVvB2qy9ZRTHCCaZVOjQdLKUVBXL
WduVHstGO887S4oUkkbHj+Zm0DGkjVItZ/eabNMrGyu7srkJvmC/SjPdMZzPUzG3
ZwoUIzqxVthcwY1xeowN8OZ4mH+pHn3+nJGZP1Kc+DDheAmUtuq2TddNavmeWRaf
oshxiGCOL6YSIcVtMg6wKCqBxvWr/p+pshlUVbQR8AdCd1EAa6jBAgMBAAGjYDBe
MAwGA1UdEwEB/wQCMAAwDgYDVR0PAQH/BAQDAgeAMB0GA1UdDgQWBBS2vZ5Gdly7
qmkCqvoc2m+ygcYEHTAfBgNVHSMEGDAWgBTsWoECdJu7H7paR5TPt5ifCgxUSzAN
BgkqhkiG9w0BAQsFAAOCAQEATQV635rKyhWlDCQcGlukxCR3pCXXuMjKVsZHdVxG
NVrEkgp70stBX/aaUlqcXcSx1OfLDOMhSLqdHhWaKHj5HQH61aZJYzNwkoE29wvG
GO+AOiwCjSA/eI2w3VnMITUL6WgmXwy8RYnexoyUL+7BxNehAgKiQUFh4fyHVTgJ
WVWCnn4XAaIjrQqYXYbuJf31cLkvhTwaL0u/q+PNOL6LAacgyxlo5e5MokU0B2Vn
f2fmvFegbSxIYOW8ZpMPbGslSbW/Z5GLDPSXjOBHjaUn5FPOZEJc4i+dZ6N5W3rk
oYqVUASKI2Iw+Vqrrd2vMDepbqlada6BdgFce8ls28Ox7w==
-----END CERTIFICATE-----
