Certificate:
    Data:
        Version: 3 (0x2)
        Serial Number: 24 (0x18)
    Signature Algorithm: sha256WithRSAEncryption
        Issuer: C=US, ST=California, L=Santa Clara, O=pkg5, CN=cs8_ch1_ta3/emailAddress=cs8_ch1_ta3
        Validity
            Not Before: Mar 18 23:38:21 2016 GMT
            Not After : Dec 13 23:38:21 2018 GMT
        Subject: C=US, ST=California, L=Santa Clara, O=pkg5, CN=cs1_cs8_ch1_ta3/emailAddress=cs1_cs8_ch1_ta3
        Subject Public Key Info:
            Public Key Algorithm: rsaEncryption
                Public-Key: (1024 bit)
                Modulus:
                    00:cc:7d:15:d0:dd:6e:e1:8b:5e:fc:15:d8:0d:84:
                    d0:7b:05:51:d6:50:69:15:02:22:02:1f:40:1b:2c:
                    3a:81:1f:f9:88:2e:1e:2f:fe:5d:46:fc:8f:f2:02:
                    60:e9:5b:6e:e5:2b:88:5b:b6:63:76:7e:40:6b:c5:
                    04:80:ea:5b:79:04:db:19:ac:57:2f:14:db:6f:4d:
                    a9:06:6d:a0:3c:6b:be:27:08:0e:28:6c:6a:20:64:
                    bd:dc:02:d4:ff:54:64:38:a9:f7:96:2d:50:65:51:
                    de:0c:75:84:f3:39:b7:a4:f8:65:08:c2:fd:11:f6:
                    8c:21:33:22:58:39:0e:bf:a5
                Exponent: 65537 (0x10001)
        X509v3 extensions:
            X509v3 Basic Constraints: critical
                CA:FALSE
            X509v3 Key Usage: critical
                Digital Signature
    Signature Algorithm: sha256WithRSAEncryption
         54:3f:da:af:ae:5c:2b:d5:71:23:c3:8b:d4:2c:c3:2a:37:08:
         c5:eb:88:78:c0:28:d3:bf:cf:ca:66:34:b9:41:91:e1:98:f5:
         15:ba:fa:01:5c:94:52:bd:75:7c:fa:9d:2f:7f:57:c4:d9:9e:
         35:39:d7:ea:32:36:de:f1:ae:e4:87:6d:82:e7:e5:62:69:47:
         26:7e:67:c5:e1:3b:6b:df:9a:78:d5:b9:72:bf:44:31:ce:99:
         3b:d6:39:fe:61:f8:1f:73:47:3d:82:90:4c:6f:fe:73:70:d2:
         5d:8e:62:ba:e8:57:8d:4c:ec:3a:52:76:8f:56:a8:bb:2f:83:
         0a:df
-----BEGIN CERTIFICATE-----
MIICkTCCAfqgAwIBAgIBGDANBgkqhkiG9w0BAQsFADB5MQswCQYDVQQGEwJVUzET
MBEGA1UECAwKQ2FsaWZvcm5pYTEUMBIGA1UEBwwLU2FudGEgQ2xhcmExDTALBgNV
BAoMBHBrZzUxFDASBgNVBAMMC2NzOF9jaDFfdGEzMRowGAYJKoZIhvcNAQkBFgtj
czhfY2gxX3RhMzAeFw0xNjAzMTgyMzM4MjFaFw0xODEyMTMyMzM4MjFaMIGBMQsw
CQYDVQQGEwJVUzETMBEGA1UECAwKQ2FsaWZvcm5pYTEUMBIGA1UEBwwLU2FudGEg
Q2xhcmExDTALBgNVBAoMBHBrZzUxGDAWBgNVBAMMD2NzMV9jczhfY2gxX3RhMzEe
MBwGCSqGSIb3DQEJARYPY3MxX2NzOF9jaDFfdGEzMIGfMA0GCSqGSIb3DQEBAQUA
A4GNADCBiQKBgQDMfRXQ3W7hi178FdgNhNB7BVHWUGkVAiICH0AbLDqBH/mILh4v
/l1G/I/yAmDpW27lK4hbtmN2fkBrxQSA6lt5BNsZrFcvFNtvTakGbaA8a74nCA4o
bGogZL3cAtT/VGQ4qfeWLVBlUd4MdYTzObek+GUIwv0R9owhMyJYOQ6/pQIDAQAB
oyAwHjAMBgNVHRMBAf8EAjAAMA4GA1UdDwEB/wQEAwIHgDANBgkqhkiG9w0BAQsF
AAOBgQBUP9qvrlwr1XEjw4vULMMqNwjF64h4wCjTv8/KZjS5QZHhmPUVuvoBXJRS
vXV8+p0vf1fE2Z41OdfqMjbe8a7kh22C5+ViaUcmfmfF4Ttr35p41blyv0Qxzpk7
1jn+Yfgfc0c9gpBMb/5zcNJdjmK66FeNTOw6UnaPVqi7L4MK3w==
-----END CERTIFICATE-----
