Certificate:
    Data:
        Version: 3 (0x2)
        Serial Number: 27 (0x1b)
    Signature Algorithm: sha256WithRSAEncryption
        Issuer: C=US, ST=California, L=Santa Clara, O=pkg5, CN=ch1.1_ta3/emailAddress=ch1.1_ta3
        Validity
            Not Before: Mar 18 23:38:21 2016 GMT
            Not After : Dec 13 23:38:21 2018 GMT
        Subject: C=US, ST=California, L=Santa Clara, O=pkg5, CN=cs1_ch1.1_ta3/emailAddress=cs1_ch1.1_ta3
        Subject Public Key Info:
            Public Key Algorithm: rsaEncryption
                Public-Key: (1024 bit)
                Modulus:
                    00:f2:5e:0c:51:ac:76:13:dc:f3:90:32:3c:18:58:
                    e5:5e:cc:a4:d2:76:4e:25:f3:3c:9c:73:ad:91:4f:
                    97:54:45:13:44:03:8b:9e:d2:02:51:7d:9f:31:3b:
                    31:02:76:82:2f:94:a0:f2:13:7b:34:47:45:b7:d5:
                    f4:bb:24:74:38:54:94:4f:51:cf:3b:d1:b7:d0:ac:
                    47:ed:2d:4d:08:48:e1:10:b4:4a:a6:e5:71:0e:63:
                    d4:88:bd:07:8b:f8:d0:86:c0:e4:c6:47:80:68:64:
                    b7:23:dc:7b:53:0f:65:8e:16:64:3d:ef:e9:27:d2:
                    2b:28:0a:3d:b0:e1:c2:50:0f
                Exponent: 65537 (0x10001)
        X509v3 extensions:
            X509v3 Basic Constraints: critical
                CA:FALSE
            X509v3 Key Usage: critical
                Digital Signature
    Signature Algorithm: sha256WithRSAEncryption
         82:62:26:c6:f2:99:cd:6b:9c:54:fb:87:44:22:e2:f0:ea:99:
         8c:25:cd:a0:92:3a:84:45:1b:d4:2c:17:ad:10:77:7d:3b:e7:
         30:79:18:c9:de:f2:e1:4a:fd:c1:c6:7a:27:62:dc:c0:03:90:
         a5:5d:2e:13:27:f9:91:40:0f:a3:fa:40:6c:2c:53:0b:33:e5:
         5c:7b:80:88:dc:10:c5:12:79:1d:61:6e:62:25:97:7d:69:e5:
         2d:78:3b:72:4a:3e:e8:6d:57:d8:ae:82:50:a5:54:28:f6:94:
         da:b9:ec:46:08:e2:ef:a8:bf:5b:57:37:86:39:08:54:2b:c4:
         98:95:47:de:37:f7:c8:db:c6:74:91:2c:f9:49:a2:d0:47:96:
         a5:52:20:ee:17:c0:54:8a:01:cb:29:e3:f4:3f:7b:f3:f9:0a:
         ad:93:15:9f:d5:e8:4f:b5:ec:90:91:4b:2d:25:c2:3e:9c:83:
         4d:b5:03:70:a1:dc:09:bd:2b:f1:1a:98:b5:44:bc:ad:4f:e4:
         cf:2e:dc:9b:7d:84:d4:f9:b5:ba:fc:0e:cb:af:3b:36:ff:ef:
         2e:78:85:b3:a0:eb:e6:fd:f3:11:22:bc:f5:c8:c6:95:df:6a:
         85:8e:1b:a8:05:92:85:6e:c8:86:b9:11:fb:cc:2d:23:87:85:
         d8:57:eb:6d
-----BEGIN CERTIFICATE-----
MIIDCTCCAfGgAwIBAgIBGzANBgkqhkiG9w0BAQsFADB1MQswCQYDVQQGEwJVUzET
MBEGA1UECAwKQ2FsaWZvcm5pYTEUMBIGA1UEBwwLU2FudGEgQ2xhcmExDTALBgNV
BAoMBHBrZzUxEjAQBgNVBAMMCWNoMS4xX3RhMzEYMBYGCSqGSIb3DQEJARYJY2gx
LjFfdGEzMB4XDTE2MDMxODIzMzgyMVoXDTE4MTIxMzIzMzgyMVowfTELMAkGA1UE
BhMCVVMxEzARBgNVBAgMCkNhbGlmb3JuaWExFDASBgNVBAcMC1NhbnRhIENsYXJh
MQ0wCwYDVQQKDARwa2c1MRYwFAYDVQQDDA1jczFfY2gxLjFfdGEzMRwwGgYJKoZI
hvcNAQkBFg1jczFfY2gxLjFfdGEzMIGfMA0GCSqGSIb3DQEBAQUAA4GNADCBiQKB
gQDyXgxRrHYT3POQMjwYWOVezKTSdk4l8zycc62RT5dURRNEA4ue0gJRfZ8xOzEC
doIvlKDyE3s0R0W31fS7JHQ4VJRPUc870bfQrEftLU0ISOEQtEqm5XEOY9SIvQeL
+NCGwOTGR4BoZLcj3HtTD2WOFmQ97+kn0isoCj2w4cJQDwIDAQABoyAwHjAMBgNV
HRMBAf8EAjAAMA4GA1UdDwEB/wQEAwIHgDANBgkqhkiG9w0BAQsFAAOCAQEAgmIm
xvKZzWucVPuHRCLi8OqZjCXNoJI6hEUb1CwXrRB3fTvnMHkYyd7y4Ur9wcZ6J2Lc
wAOQpV0uEyf5kUAPo/pAbCxTCzPlXHuAiNwQxRJ5HWFuYiWXfWnlLXg7cko+6G1X
2K6CUKVUKPaU2rnsRgji76i/W1c3hjkIVCvEmJVH3jf3yNvGdJEs+Umi0EeWpVIg
7hfAVIoByynj9D978/kKrZMVn9XoT7XskJFLLSXCPpyDTbUDcKHcCb0r8RqYtUS8
rU/kzy7cm32E1Pm1uvwOy687Nv/vLniFs6Dr5v3zESK89cjGld9qhY4bqAWShW7I
hrkR+8wtI4eF2FfrbQ==
-----END CERTIFICATE-----
