Certificate:
    Data:
        Version: 3 (0x2)
        Serial Number: 15 (0xf)
    Signature Algorithm: sha256WithRSAEncryption
        Issuer: C=US, ST=California, L=Santa Clara, O=pkg5, CN=ta2/emailAddress=ta2
        Validity
            Not Before: Jul 19 11:35:46 2023 GMT
            Not After : Apr 14 11:35:46 2026 GMT
        Subject: C=US, ST=California, L=Santa Clara, O=pkg5, CN=cs1_ta2/emailAddress=cs1_ta2
        Subject Public Key Info:
            Public Key Algorithm: rsaEncryption
                Public-Key: (2048 bit)
                Modulus:
                    00:bc:b9:58:4e:84:2e:f7:79:d5:8e:52:d5:b7:c8:
                    eb:7d:69:e3:d2:c7:40:1c:07:cf:8b:e1:2c:11:6e:
                    04:ce:da:2b:58:08:7c:f3:a0:cd:1d:ad:e7:a4:b8:
                    77:6a:53:34:a4:de:d2:ef:0c:86:fe:8a:c0:69:b8:
                    b6:4c:f4:79:7b:b8:bf:ea:9a:86:81:fd:bd:f1:ba:
                    ac:35:51:6c:48:72:4e:1c:81:a7:69:ca:0e:d3:4c:
                    7a:bc:e0:d8:50:cf:80:11:61:34:34:3a:08:22:47:
                    94:21:a1:d4:d4:bb:4b:db:ef:b7:37:78:c5:22:40:
                    d6:01:a0:31:ce:70:ab:bd:7a:64:51:93:8b:85:26:
                    c0:cb:61:9a:f7:43:ab:c1:d7:cd:ac:b3:b1:44:74:
                    d1:fa:db:c2:25:a7:8f:b3:1f:e7:eb:5b:8b:14:2e:
                    bf:63:ad:fe:77:73:dc:d2:70:81:92:4a:e3:4e:3b:
                    51:0a:a3:26:b2:8f:9b:a8:88:19:67:f7:98:3e:c0:
                    1f:ea:29:9c:cf:34:a7:94:14:e9:8b:d6:41:3a:b6:
                    37:1c:0a:d1:a7:84:38:49:3d:7f:b6:0e:3b:be:52:
                    18:4b:09:8e:42:65:11:4c:a5:82:61:88:33:89:3d:
                    e4:30:5e:f1:b4:41:ea:31:f3:6c:51:fc:88:f8:9d:
                    6a:39
                Exponent: 65537 (0x10001)
        X509v3 extensions:
            X509v3 Basic Constraints: critical
                CA:FALSE
            X509v3 Key Usage: critical
                Digital Signature
    Signature Algorithm: sha256WithRSAEncryption
         a5:53:9f:44:6c:01:ef:da:f2:58:6f:52:d6:e2:b8:db:33:15:
         8c:46:60:ac:7b:7e:9d:cb:61:28:43:4a:fd:bf:dd:fa:6e:5e:
         40:43:be:52:fb:d5:48:6a:2f:67:25:75:8b:ae:f7:53:57:32:
         13:f2:7b:be:4a:e9:e5:e8:8a:36:d9:21:c2:d8:2b:9c:5c:d7:
         3a:b0:fa:1a:29:15:c0:11:f0:97:cb:46:9c:fe:6f:19:ef:92:
         a3:9f:cb:f6:bd:be:e7:de:5b:a2:47:f9:15:b9:90:6b:02:d3:
         6b:78:e1:b3:76:ba:81:0b:d6:55:1b:df:3a:ad:f3:65:27:24:
         64:f0:9f:fd:9f:e9:fb:1e:9e:0b:7c:73:b6:18:82:13:b8:66:
         7e:76:6c:8b:75:87:4e:6d:0b:d0:05:d0:cb:4a:51:99:86:12:
         a0:a6:a4:af:41:21:a3:8d:67:74:10:b7:d4:12:7c:db:f9:e4:
         ff:dd:7f:da:db:7e:cc:00:d7:fa:1d:38:cf:b9:db:47:46:8e:
         35:9f:38:8b:0a:2c:9a:60:05:7c:37:88:e7:f1:5a:5e:b7:9b:
         81:97:40:68:1b:f5:6d:49:ac:04:d4:07:ff:6b:56:91:12:01:
         43:e7:b0:9f:e4:99:23:10:c4:58:df:75:d6:aa:64:cb:61:bd:
         23:2c:82:84
-----BEGIN CERTIFICATE-----
MIIDdTCCAl2gAwIBAgIBDzANBgkqhkiG9w0BAQsFADBpMQswCQYDVQQGEwJVUzET
MBEGA1UECAwKQ2FsaWZvcm5pYTEUMBIGA1UEBwwLU2FudGEgQ2xhcmExDTALBgNV
BAoMBHBrZzUxDDAKBgNVBAMMA3RhMjESMBAGCSqGSIb3DQEJARYDdGEyMB4XDTIz
MDcxOTExMzU0NloXDTI2MDQxNDExMzU0NlowcTELMAkGA1UEBhMCVVMxEzARBgNV
BAgMCkNhbGlmb3JuaWExFDASBgNVBAcMC1NhbnRhIENsYXJhMQ0wCwYDVQQKDARw
a2c1MRAwDgYDVQQDDAdjczFfdGEyMRYwFAYJKoZIhvcNAQkBFgdjczFfdGEyMIIB
IjANBgkqhkiG9w0BAQEFAAOCAQ8AMIIBCgKCAQEAvLlYToQu93nVjlLVt8jrfWnj
0sdAHAfPi+EsEW4EztorWAh886DNHa3npLh3alM0pN7S7wyG/orAabi2TPR5e7i/
6pqGgf298bqsNVFsSHJOHIGnacoO00x6vODYUM+AEWE0NDoIIkeUIaHU1LtL2++3
N3jFIkDWAaAxznCrvXpkUZOLhSbAy2Ga90OrwdfNrLOxRHTR+tvCJaePsx/n61uL
FC6/Y63+d3Pc0nCBkkrjTjtRCqMmso+bqIgZZ/eYPsAf6imczzSnlBTpi9ZBOrY3
HArRp4Q4ST1/tg47vlIYSwmOQmURTKWCYYgziT3kMF7xtEHqMfNsUfyI+J1qOQID
AQABoyAwHjAMBgNVHRMBAf8EAjAAMA4GA1UdDwEB/wQEAwIHgDANBgkqhkiG9w0B
AQsFAAOCAQEApVOfRGwB79ryWG9S1uK42zMVjEZgrHt+ncthKENK/b/d+m5eQEO+
UvvVSGovZyV1i673U1cyE/J7vkrp5eiKNtkhwtgrnFzXOrD6GikVwBHwl8tGnP5v
Ge+So5/L9r2+595bokf5FbmQawLTa3jhs3a6gQvWVRvfOq3zZSckZPCf/Z/p+x6e
C3xzthiCE7hmfnZsi3WHTm0L0AXQy0pRmYYSoKakr0Eho41ndBC31BJ82/nk/91/
2tt+zADX+h04z7nbR0aONZ84iwosmmAFfDeI5/FaXrebgZdAaBv1bUmsBNQH/2tW
kRIBQ+ewn+SZIxDEWN911qpky2G9IyyChA==
-----END CERTIFICATE-----
