Certificate:
    Data:
        Version: 3 (0x2)
        Serial Number: 9 (0x9)
        Signature Algorithm: sha256WithRSAEncryption
        Issuer: C=US, ST=California, L=Menlo Park, O=pkg5, CN=ch5.1_ta1/emailAddress=ch5.1_ta1
        Validity
            Not Before: Apr 11 22:37:41 2011 GMT
            Not After : Jan  5 22:37:41 2014 GMT
        Subject: C=US, ST=California, L=Menlo Park, O=pkg5, CN=cs1_ch5.1_ta1/emailAddress=cs1_ch5.1_ta1
        Subject Public Key Info:
            Public Key Algorithm: rsaEncryption
            RSA Public Key: (1024 bit)
                Modulus (1024 bit):
                    00:9d:74:cf:25:35:26:cd:52:2e:9a:fc:8d:0b:4f:
                    85:33:83:61:7a:f1:f1:c1:55:3d:dc:2e:20:77:8e:
                    20:de:eb:e4:37:b6:6a:a4:c8:94:09:6c:f8:36:bd:
                    78:a6:3f:2c:64:c3:23:d3:c7:fa:1c:36:a3:24:51:
                    c0:ac:2d:20:6f:15:bf:aa:d8:94:5f:5f:8e:0a:c5:
                    e0:aa:24:02:a5:f9:e4:cc:97:7f:74:b1:f1:a1:ab:
                    30:6c:70:74:a4:5a:bd:5e:d7:69:64:6a:42:8d:c5:
                    d0:b9:21:66:5a:9b:37:25:fa:34:cc:08:21:45:cb:
                    23:10:eb:66:66:d2:9b:bc:19
                Exponent: 65537 (0x10001)
        X509v3 extensions:
            X509v3 Basic Constraints: critical
                CA:FALSE
            X509v3 Key Usage: critical
                Digital Signature
    Signature Algorithm: sha256WithRSAEncryption
        3d:79:e6:0f:d3:33:eb:e7:fb:d4:39:f7:41:1e:f2:47:56:01:
        d3:8b:bd:0d:0c:d5:ae:f1:85:6d:34:74:78:b3:27:20:88:4d:
        bd:3a:b1:ac:d2:5c:f6:f3:87:f9:af:76:3a:93:60:a4:f5:97:
        4c:c3:a6:aa:2a:f1:22:61:ea:2d:e4:97:f4:57:f7:30:84:85:
        81:a1:aa:12:5a:37:82:96:11:d0:53:40:6c:5e:28:9f:42:1c:
        3c:89:ae:d5:88:5d:cc:3e:4d:5c:ab:94:03:de:95:4a:b1:f2:
        6b:cd:c1:cd:08:fa:87:88:80:e4:97:0f:36:55:3b:5d:60:a6:
        1e:e3
-----BEGIN CERTIFICATE-----
MIIChjCCAe+gAwIBAgIBCTANBgkqhkiG9w0BAQsFADB0MQswCQYDVQQGEwJVUzET
MBEGA1UECBMKQ2FsaWZvcm5pYTETMBEGA1UEBxMKTWVubG8gUGFyazENMAsGA1UE
ChMEcGtnNTESMBAGA1UEAxQJY2g1LjFfdGExMRgwFgYJKoZIhvcNAQkBFgljaDUu
MV90YTEwHhcNMTEwNDExMjIzNzQxWhcNMTQwMTA1MjIzNzQxWjB8MQswCQYDVQQG
EwJVUzETMBEGA1UECBMKQ2FsaWZvcm5pYTETMBEGA1UEBxMKTWVubG8gUGFyazEN
MAsGA1UEChMEcGtnNTEWMBQGA1UEAxQNY3MxX2NoNS4xX3RhMTEcMBoGCSqGSIb3
DQEJARYNY3MxX2NoNS4xX3RhMTCBnzANBgkqhkiG9w0BAQEFAAOBjQAwgYkCgYEA
nXTPJTUmzVIumvyNC0+FM4NhevHxwVU93C4gd44g3uvkN7ZqpMiUCWz4Nr14pj8s
ZMMj08f6HDajJFHArC0gbxW/qtiUX1+OCsXgqiQCpfnkzJd/dLHxoaswbHB0pFq9
XtdpZGpCjcXQuSFmWps3Jfo0zAghRcsjEOtmZtKbvBkCAwEAAaMgMB4wDAYDVR0T
AQH/BAIwADAOBgNVHQ8BAf8EBAMCB4AwDQYJKoZIhvcNAQELBQADgYEAPXnmD9Mz
6+f71Dn3QR7yR1YB04u9DQzVrvGFbTR0eLMnIIhNvTqxrNJc9vOH+a92OpNgpPWX
TMOmqirxImHqLeSX9Ff3MISFgaGqElo3gpYR0FNAbF4on0IcPImu1YhdzD5NXKuU
A96VSrHya83BzQj6h4iA5JcPNlU7XWCmHuM=
-----END CERTIFICATE-----
