Certificate:
    Data:
        Version: 3 (0x2)
        Serial Number: 39 (0x27)
        Signature Algorithm: sha256WithRSAEncryption
        Issuer: C=US, ST=California, L=Menlo Park, O=pkg5, CN=ch1.1_ta4/emailAddress=ch1.1_ta4
        Validity
            Not Before: Mar 21 00:49:33 2011 GMT
            Not After : Dec 15 00:49:33 2013 GMT
        Subject: C=US, ST=California, L=Menlo Park, O=pkg5, CN=cs1_ch1.1_ta4/emailAddress=cs1_ch1.1_ta4
        Subject Public Key Info:
            Public Key Algorithm: rsaEncryption
            RSA Public Key: (1024 bit)
                Modulus (1024 bit):
                    00:b1:85:77:87:f1:8e:bc:79:3e:8c:58:50:41:f3:
                    e8:26:07:80:e2:80:5f:41:ab:2c:fe:15:60:5e:fc:
                    50:47:ba:19:65:e0:4e:42:28:18:67:61:55:3f:a4:
                    3f:e8:e0:10:60:7d:94:72:d7:e7:25:43:61:16:29:
                    06:7c:7f:e2:a6:c7:b7:ec:b5:9f:bf:98:8a:e7:f3:
                    55:7f:8e:d9:2a:c7:ac:be:f3:0a:4e:90:39:fd:a3:
                    9e:b1:2b:dd:cf:fc:61:d0:cb:b6:52:7e:34:eb:8b:
                    01:6c:a9:cd:37:75:ae:2f:7c:61:6c:a0:c6:53:6a:
                    a6:1a:24:cd:93:72:ec:94:cf
                Exponent: 65537 (0x10001)
        X509v3 extensions:
            X509v3 Basic Constraints: critical
                CA:FALSE
            X509v3 CRL Distribution Points: 
                URI:http://localhost:12001/file/0/ch1.1_ta4_crl.pem

    Signature Algorithm: sha256WithRSAEncryption
        a5:fb:3c:71:a7:fb:45:a2:a5:f0:42:3a:9f:25:40:e5:d1:c6:
        03:90:a0:4b:ca:83:21:8c:fc:3f:53:9c:1a:2e:bf:69:28:0d:
        f1:bb:fd:bc:b8:66:5a:b9:c8:59:1e:1a:94:8a:c8:07:14:23:
        f8:ec:a3:40:c8:67:aa:ae:bf:a3:f4:13:bc:80:76:f0:8b:5c:
        99:99:e3:f2:0a:7d:a0:5b:24:16:a1:64:02:f1:5c:2c:1c:9a:
        f0:6d:9e:20:6d:54:2b:d7:5e:84:1d:a6:85:e2:17:1f:ed:cb:
        82:96:1b:f4:1d:c5:2f:ee:cd:5c:19:6b:59:25:1e:c6:a5:51:
        9e:74
-----BEGIN CERTIFICATE-----
MIICuDCCAiGgAwIBAgIBJzANBgkqhkiG9w0BAQsFADB0MQswCQYDVQQGEwJVUzET
MBEGA1UECBMKQ2FsaWZvcm5pYTETMBEGA1UEBxMKTWVubG8gUGFyazENMAsGA1UE
ChMEcGtnNTESMBAGA1UEAxQJY2gxLjFfdGE0MRgwFgYJKoZIhvcNAQkBFgljaDEu
MV90YTQwHhcNMTEwMzIxMDA0OTMzWhcNMTMxMjE1MDA0OTMzWjB8MQswCQYDVQQG
EwJVUzETMBEGA1UECBMKQ2FsaWZvcm5pYTETMBEGA1UEBxMKTWVubG8gUGFyazEN
MAsGA1UEChMEcGtnNTEWMBQGA1UEAxQNY3MxX2NoMS4xX3RhNDEcMBoGCSqGSIb3
DQEJARYNY3MxX2NoMS4xX3RhNDCBnzANBgkqhkiG9w0BAQEFAAOBjQAwgYkCgYEA
sYV3h/GOvHk+jFhQQfPoJgeA4oBfQass/hVgXvxQR7oZZeBOQigYZ2FVP6Q/6OAQ
YH2UctfnJUNhFikGfH/ipse37LWfv5iK5/NVf47ZKsesvvMKTpA5/aOesSvdz/xh
0Mu2Un4064sBbKnNN3WuL3xhbKDGU2qmGiTNk3LslM8CAwEAAaNSMFAwDAYDVR0T
AQH/BAIwADBABgNVHR8EOTA3MDWgM6Axhi9odHRwOi8vbG9jYWxob3N0OjEyMDAx
L2ZpbGUvMC9jaDEuMV90YTRfY3JsLnBlbTANBgkqhkiG9w0BAQsFAAOBgQCl+zxx
p/tFoqXwQjqfJUDl0cYDkKBLyoMhjPw/U5waLr9pKA3xu/28uGZauchZHhqUisgH
FCP47KNAyGeqrr+j9BO8gHbwi1yZmePyCn2gWyQWoWQC8VwsHJrwbZ4gbVQr116E
HaaF4hcf7cuClhv0HcUv7s1cGWtZJR7GpVGedA==
-----END CERTIFICATE-----
