Certificate:
    Data:
        Version: 3 (0x2)
        Serial Number: 25 (0x19)
        Signature Algorithm: sha256WithRSAEncryption
        Issuer: C=US, ST=California, L=Menlo Park, O=pkg5, CN=cs8_ch1_ta3/emailAddress=cs8_ch1_ta3
        Validity
            Not Before: Apr 11 22:37:46 2011 GMT
            Not After : Jan  5 22:37:46 2014 GMT
        Subject: C=US, ST=California, L=Menlo Park, O=pkg5, CN=cs1_cs8_ch1_ta3/emailAddress=cs1_cs8_ch1_ta3
        Subject Public Key Info:
            Public Key Algorithm: rsaEncryption
            RSA Public Key: (1024 bit)
                Modulus (1024 bit):
                    00:a8:89:d6:f6:e1:32:a9:bc:a5:c2:c8:00:1c:a1:
                    04:fc:93:5a:5c:29:1d:37:7e:29:e1:7f:69:79:24:
                    ab:05:5a:83:71:d8:3c:bb:e5:1c:b8:e0:5e:a8:bd:
                    41:06:cb:69:f6:d2:b9:48:c4:93:7c:ae:c6:38:bc:
                    d7:9a:f2:db:8d:f9:5f:51:c4:1b:d2:c5:0e:57:6d:
                    0b:73:19:a8:34:e6:5b:81:80:43:77:3a:8e:54:59:
                    91:69:a9:aa:9f:2b:24:24:1e:06:e8:bc:f2:3f:c3:
                    ee:33:3f:f4:5f:76:fd:24:05:48:a8:98:2f:15:eb:
                    16:d5:24:6b:ea:59:e6:06:51
                Exponent: 65537 (0x10001)
        X509v3 extensions:
            X509v3 Basic Constraints: critical
                CA:FALSE
            X509v3 Key Usage: critical
                Digital Signature
    Signature Algorithm: sha256WithRSAEncryption
        27:04:6d:7c:c0:89:81:f7:16:04:e2:f7:f1:4a:3b:60:17:4d:
        f2:c3:0b:78:32:a5:f0:b4:e4:4e:2e:8e:06:d6:2d:3a:65:33:
        a1:16:60:47:78:1f:f3:d3:72:c5:c7:43:f8:bb:0e:22:2a:7b:
        a6:3e:9c:1e:40:c8:71:ff:28:82:0b:d9:93:8c:b9:f6:a2:ca:
        d5:52:81:b6:b7:a1:20:09:e8:8a:68:e5:24:d1:dd:da:dc:1a:
        01:3d:e5:77:77:fe:64:f5:b6:14:f9:8b:04:3f:11:7e:62:f5:
        ee:01:7c:d9:d5:b7:00:19:a9:49:05:94:0b:30:22:63:d2:0d:
        3e:7a
-----BEGIN CERTIFICATE-----
MIICjzCCAfigAwIBAgIBGTANBgkqhkiG9w0BAQsFADB4MQswCQYDVQQGEwJVUzET
MBEGA1UECBMKQ2FsaWZvcm5pYTETMBEGA1UEBxMKTWVubG8gUGFyazENMAsGA1UE
ChMEcGtnNTEUMBIGA1UEAxQLY3M4X2NoMV90YTMxGjAYBgkqhkiG9w0BCQEWC2Nz
OF9jaDFfdGEzMB4XDTExMDQxMTIyMzc0NloXDTE0MDEwNTIyMzc0NlowgYAxCzAJ
BgNVBAYTAlVTMRMwEQYDVQQIEwpDYWxpZm9ybmlhMRMwEQYDVQQHEwpNZW5sbyBQ
YXJrMQ0wCwYDVQQKEwRwa2c1MRgwFgYDVQQDFA9jczFfY3M4X2NoMV90YTMxHjAc
BgkqhkiG9w0BCQEWD2NzMV9jczhfY2gxX3RhMzCBnzANBgkqhkiG9w0BAQEFAAOB
jQAwgYkCgYEAqInW9uEyqbylwsgAHKEE/JNaXCkdN34p4X9peSSrBVqDcdg8u+Uc
uOBeqL1BBstp9tK5SMSTfK7GOLzXmvLbjflfUcQb0sUOV20LcxmoNOZbgYBDdzqO
VFmRaamqnyskJB4G6LzyP8PuMz/0X3b9JAVIqJgvFesW1SRr6lnmBlECAwEAAaMg
MB4wDAYDVR0TAQH/BAIwADAOBgNVHQ8BAf8EBAMCB4AwDQYJKoZIhvcNAQELBQAD
gYEAJwRtfMCJgfcWBOL38Uo7YBdN8sMLeDKl8LTkTi6OBtYtOmUzoRZgR3gf89Ny
xcdD+LsOIip7pj6cHkDIcf8oggvZk4y59qLK1VKBtrehIAnoimjlJNHd2twaAT3l
d3f+ZPW2FPmLBD8RfmL17gF82dW3ABmpSQWUCzAiY9INPno=
-----END CERTIFICATE-----
