Certificate:
    Data:
        Version: 3 (0x2)
        Serial Number: 25 (0x19)
        Signature Algorithm: sha256WithRSAEncryption
        Issuer: C=US, ST=California, L=Menlo Park, O=pkg5, CN=pubCA3_ta3/emailAddress=pubCA3_ta3
        Validity
            Not Before: Jan 28 02:54:21 2011 GMT
            Not After : Oct 24 02:54:21 2013 GMT
        Subject: C=US, ST=California, L=Menlo Park, O=pkg5, CN=cs1_p3_ta3/emailAddress=cs1_p3_ta3
        Subject Public Key Info:
            Public Key Algorithm: rsaEncryption
            RSA Public Key: (1024 bit)
                Modulus (1024 bit):
                    00:d6:d5:e1:f4:de:f3:97:61:e0:be:91:78:5f:65:
                    f1:be:e1:60:cd:6d:77:93:49:f4:72:d7:18:6c:3c:
                    94:6a:a4:e8:fe:d5:48:70:f2:6b:ef:bf:e1:18:ab:
                    2f:93:8a:0a:7f:4d:47:61:46:08:9b:bd:2d:31:a2:
                    b0:0e:0b:77:76:01:77:68:9f:c5:6e:ab:6c:6c:07:
                    2e:62:01:39:ef:43:8e:34:0b:dd:cb:47:ad:58:48:
                    bb:1c:a8:df:db:ef:b4:1b:77:15:59:95:e6:14:2a:
                    de:98:c7:79:58:e2:77:f7:f4:f4:08:79:21:99:16:
                    5a:5e:43:b0:3e:98:af:28:01
                Exponent: 65537 (0x10001)
        X509v3 extensions:
            X509v3 Basic Constraints: critical
                CA:FALSE
            X509v3 Key Usage: critical
                Digital Signature
    Signature Algorithm: sha256WithRSAEncryption
        ae:c7:65:5a:78:09:d1:18:b1:ed:5e:2f:3b:7e:41:1f:93:b6:
        43:7e:33:ab:43:cc:bd:5c:05:ae:b2:51:cc:28:db:22:aa:b5:
        4c:35:90:09:4f:64:c0:62:04:83:fd:cd:7b:81:61:2e:63:0b:
        0b:94:f1:b3:c0:d9:a9:91:e9:2a:df:f8:fb:02:01:6f:90:49:
        15:0e:ac:54:21:5b:e8:9a:37:2f:d3:67:6a:90:21:e5:0d:4b:
        e2:b9:3e:21:c4:a9:5e:f6:91:57:53:77:ae:8e:01:e8:d2:3f:
        52:fe:27:e9:56:36:eb:91:5e:63:03:8c:51:b7:c1:0e:78:3b:
        54:38
-----BEGIN CERTIFICATE-----
MIICgjCCAeugAwIBAgIBGTANBgkqhkiG9w0BAQsFADB2MQswCQYDVQQGEwJVUzET
MBEGA1UECBMKQ2FsaWZvcm5pYTETMBEGA1UEBxMKTWVubG8gUGFyazENMAsGA1UE
ChMEcGtnNTETMBEGA1UEAxQKcHViQ0EzX3RhMzEZMBcGCSqGSIb3DQEJARYKcHVi
Q0EzX3RhMzAeFw0xMTAxMjgwMjU0MjFaFw0xMzEwMjQwMjU0MjFaMHYxCzAJBgNV
BAYTAlVTMRMwEQYDVQQIEwpDYWxpZm9ybmlhMRMwEQYDVQQHEwpNZW5sbyBQYXJr
MQ0wCwYDVQQKEwRwa2c1MRMwEQYDVQQDFApjczFfcDNfdGEzMRkwFwYJKoZIhvcN
AQkBFgpjczFfcDNfdGEzMIGfMA0GCSqGSIb3DQEBAQUAA4GNADCBiQKBgQDW1eH0
3vOXYeC+kXhfZfG+4WDNbXeTSfRy1xhsPJRqpOj+1Uhw8mvvv+EYqy+Tigp/TUdh
RgibvS0xorAOC3d2AXdon8Vuq2xsBy5iATnvQ440C93LR61YSLscqN/b77QbdxVZ
leYUKt6Yx3lY4nf39PQIeSGZFlpeQ7A+mK8oAQIDAQABoyAwHjAMBgNVHRMBAf8E
AjAAMA4GA1UdDwEB/wQEAwIHgDANBgkqhkiG9w0BAQsFAAOBgQCux2VaeAnRGLHt
Xi87fkEfk7ZDfjOrQ8y9XAWuslHMKNsiqrVMNZAJT2TAYgSD/c17gWEuYwsLlPGz
wNmpkekq3/j7AgFvkEkVDqxUIVvomjcv02dqkCHlDUviuT4hxKle9pFXU3eujgHo
0j9S/ifpVjbrkV5jA4xRt8EOeDtUOA==
-----END CERTIFICATE-----
