Certificate:
    Data:
        Version: 3 (0x2)
        Serial Number: 46 (0x2e)
    Signature Algorithm: sha256WithRSAEncryption
        Issuer: C=US, ST=California, L=Santa Clara, O=pkg5, OU=ta10, CN=localhost/emailAddress=ta10
        Validity
            Not Before: Sep 22 05:33:39 2021 GMT
            Not After : Jun 18 05:33:39 2024 GMT
        Subject: C=US, ST=California, L=Santa Clara, O=pkg5, OU=cs1_ta10, CN=localhost/emailAddress=cs1_ta10
        Subject Public Key Info:
            Public Key Algorithm: rsaEncryption
                Public-Key: (1024 bit)
                Modulus:
                    00:e4:89:e5:91:72:37:5a:a3:77:1b:ef:1b:92:21:
                    2f:ab:1d:96:c2:0f:32:78:b2:f9:ca:ee:7d:7b:47:
                    20:55:93:ce:d5:a7:7b:6e:18:57:a2:33:0c:95:bd:
                    97:e0:58:ad:07:a7:f2:53:5e:d6:a2:87:e6:dc:e0:
                    56:d9:99:a0:cd:29:d7:e5:c0:8f:31:d4:ae:d1:30:
                    a6:16:f6:87:7d:8b:3b:a0:26:fc:f2:49:ae:de:62:
                    a8:63:1a:52:79:8d:1b:95:43:87:88:b3:11:fa:3b:
                    3f:74:cb:83:ed:b4:d0:4d:ca:8f:bd:d5:ad:04:5e:
                    da:32:7c:50:2b:d7:68:91:e3
                Exponent: 65537 (0x10001)
        X509v3 extensions:
            X509v3 Basic Constraints: critical
                CA:FALSE
            X509v3 Key Usage: critical
                Digital Signature
    Signature Algorithm: sha256WithRSAEncryption
         88:1b:71:34:bc:b0:93:cd:ab:b5:98:df:a9:c9:64:f4:9d:5e:
         ac:60:19:56:ca:d9:08:4c:a2:3c:7c:dc:f4:75:b4:d8:b2:74:
         fd:d8:45:d0:17:ee:4a:d2:89:52:26:0d:50:a6:66:c1:16:5e:
         94:45:b2:77:9f:8b:00:c1:8c:e3:02:4e:6a:ef:4c:f8:ce:fb:
         a5:d3:ba:6f:e0:ba:2a:79:1b:bf:85:d9:7b:83:fd:12:15:2d:
         e2:47:12:3c:3a:88:82:2b:53:59:9d:48:6d:87:b9:cc:aa:5a:
         f7:a8:4b:ed:08:81:00:33:86:f5:e5:0f:33:51:72:f4:eb:62:
         90:28:30:7f:55:16:e6:2b:a0:42:6d:72:16:b2:29:35:61:59:
         e7:2c:04:ef:47:55:bf:d9:f2:4f:04:49:2c:ca:70:62:1d:49:
         65:73:4b:bb:16:97:52:9e:85:83:b6:86:ef:3c:ef:4d:10:d3:
         9e:4d:41:5e:7e:39:ec:07:ee:e7:14:61:7e:05:34:59:2f:04:
         15:1f:47:a3:9f:9e:8d:6e:09:fd:30:3b:21:98:c3:3c:b7:fb:
         e6:b7:34:6a:37:43:da:e2:92:1d:bd:d6:1a:1a:5a:d3:a0:7f:
         71:35:ac:27:7e:34:9a:d1:f2:d9:7c:32:cc:e1:e2:b0:fb:1e:
         16:14:1e:a4
-----BEGIN CERTIFICATE-----
MIIDHjCCAgagAwIBAgIBLjANBgkqhkiG9w0BAQsFADB/MQswCQYDVQQGEwJVUzET
MBEGA1UECAwKQ2FsaWZvcm5pYTEUMBIGA1UEBwwLU2FudGEgQ2xhcmExDTALBgNV
BAoMBHBrZzUxDTALBgNVBAsMBHRhMTAxEjAQBgNVBAMMCWxvY2FsaG9zdDETMBEG
CSqGSIb3DQEJARYEdGExMDAeFw0yMTA5MjIwNTMzMzlaFw0yNDA2MTgwNTMzMzla
MIGHMQswCQYDVQQGEwJVUzETMBEGA1UECAwKQ2FsaWZvcm5pYTEUMBIGA1UEBwwL
U2FudGEgQ2xhcmExDTALBgNVBAoMBHBrZzUxETAPBgNVBAsMCGNzMV90YTEwMRIw
EAYDVQQDDAlsb2NhbGhvc3QxFzAVBgkqhkiG9w0BCQEWCGNzMV90YTEwMIGfMA0G
CSqGSIb3DQEBAQUAA4GNADCBiQKBgQDkieWRcjdao3cb7xuSIS+rHZbCDzJ4svnK
7n17RyBVk87Vp3tuGFeiMwyVvZfgWK0Hp/JTXtaih+bc4FbZmaDNKdflwI8x1K7R
MKYW9od9izugJvzySa7eYqhjGlJ5jRuVQ4eIsxH6Oz90y4PttNBNyo+91a0EXtoy
fFAr12iR4wIDAQABoyAwHjAMBgNVHRMBAf8EAjAAMA4GA1UdDwEB/wQEAwIHgDAN
BgkqhkiG9w0BAQsFAAOCAQEAiBtxNLywk82rtZjfqclk9J1erGAZVsrZCEyiPHzc
9HW02LJ0/dhF0BfuStKJUiYNUKZmwRZelEWyd5+LAMGM4wJOau9M+M77pdO6b+C6
Knkbv4XZe4P9EhUt4kcSPDqIgitTWZ1IbYe5zKpa96hL7QiBADOG9eUPM1Fy9Oti
kCgwf1UW5iugQm1yFrIpNWFZ5ywE70dVv9nyTwRJLMpwYh1JZXNLuxaXUp6Fg7aG
7zzvTRDTnk1BXn457Afu5xRhfgU0WS8EFR9Ho5+ejW4J/TA7IZjDPLf75rc0ajdD
2uKSHb3WGhpa06B/cTWsJ340mtHy2XwyzOHisPseFhQepA==
-----END CERTIFICATE-----
