Certificate:
    Data:
        Version: 3 (0x2)
        Serial Number: 44 (0x2c)
    Signature Algorithm: sha256WithRSAEncryption
        Issuer: C=US, ST=California, L=Santa Clara, O=pkg5, OU=ta8, CN=localhost/emailAddress=ta8
        Validity
            Not Before: Dec 13 00:13:38 2013 GMT
            Not After : Sep  8 00:13:38 2016 GMT
        Subject: C=US, ST=California, L=Santa Clara, O=pkg5, OU=cs1_ta8, CN=localhost/emailAddress=cs1_ta8
        Subject Public Key Info:
            Public Key Algorithm: rsaEncryption
                Public-Key: (1024 bit)
                Modulus:
                    00:eb:76:dd:67:17:86:2d:82:c1:49:8d:1e:fd:34:
                    12:74:70:5b:bd:91:50:64:4f:53:48:65:85:cf:0d:
                    a6:8b:54:ca:a4:4f:58:fc:5e:b8:e9:ce:61:7c:8e:
                    04:0c:06:e8:4a:66:9f:77:d3:5c:ed:2e:b0:d7:c6:
                    61:14:d4:33:8c:5e:71:1a:1a:0a:c9:e5:90:23:7d:
                    9c:c5:f8:42:e1:13:40:6b:e2:20:ab:04:c1:80:b4:
                    1b:03:de:6d:b5:99:03:34:28:b2:db:ca:32:00:ac:
                    b8:36:4d:da:3c:33:8b:89:aa:4b:78:c5:9b:64:aa:
                    74:7d:65:ff:86:11:ad:cd:15
                Exponent: 65537 (0x10001)
        X509v3 extensions:
            X509v3 Basic Constraints: critical
                CA:FALSE
            X509v3 Key Usage: critical
                Digital Signature
    Signature Algorithm: sha256WithRSAEncryption
         37:1a:ca:2a:23:42:8d:36:41:51:8d:64:97:c6:51:e2:aa:c9:
         b8:68:c0:20:40:23:1f:1a:db:9b:4b:65:39:f1:60:48:6f:e1:
         c5:30:57:f3:02:35:f2:07:37:ea:a4:42:45:1c:6a:57:71:8b:
         71:1a:ee:16:1e:03:e7:8a:c4:92:90:2f:82:ee:b2:cd:bd:39:
         df:3d:e7:d0:1b:bd:82:58:e1:a6:29:bd:4d:b3:40:a4:35:c1:
         e0:13:6f:ab:0c:1e:f2:7c:b2:8d:03:5c:fa:1a:e7:f0:76:1a:
         84:a0:ec:c5:eb:c4:ac:7e:cf:35:11:36:5e:04:06:5c:4c:e2:
         76:22
-----BEGIN CERTIFICATE-----
MIICmTCCAgKgAwIBAgIBLDANBgkqhkiG9w0BAQsFADB9MQswCQYDVQQGEwJVUzET
MBEGA1UECAwKQ2FsaWZvcm5pYTEUMBIGA1UEBwwLU2FudGEgQ2xhcmExDTALBgNV
BAoMBHBrZzUxDDAKBgNVBAsMA3RhODESMBAGA1UEAwwJbG9jYWxob3N0MRIwEAYJ
KoZIhvcNAQkBFgN0YTgwHhcNMTMxMjEzMDAxMzM4WhcNMTYwOTA4MDAxMzM4WjCB
hTELMAkGA1UEBhMCVVMxEzARBgNVBAgMCkNhbGlmb3JuaWExFDASBgNVBAcMC1Nh
bnRhIENsYXJhMQ0wCwYDVQQKDARwa2c1MRAwDgYDVQQLDAdjczFfdGE4MRIwEAYD
VQQDDAlsb2NhbGhvc3QxFjAUBgkqhkiG9w0BCQEWB2NzMV90YTgwgZ8wDQYJKoZI
hvcNAQEBBQADgY0AMIGJAoGBAOt23WcXhi2CwUmNHv00EnRwW72RUGRPU0hlhc8N
potUyqRPWPxeuOnOYXyOBAwG6Epmn3fTXO0usNfGYRTUM4xecRoaCsnlkCN9nMX4
QuETQGviIKsEwYC0GwPebbWZAzQostvKMgCsuDZN2jwzi4mqS3jFm2SqdH1l/4YR
rc0VAgMBAAGjIDAeMAwGA1UdEwEB/wQCMAAwDgYDVR0PAQH/BAQDAgeAMA0GCSqG
SIb3DQEBCwUAA4GBADcayiojQo02QVGNZJfGUeKqybhowCBAIx8a25tLZTnxYEhv
4cUwV/MCNfIHN+qkQkUcaldxi3Ea7hYeA+eKxJKQL4Luss29Od8959AbvYJY4aYp
vU2zQKQ1weATb6sMHvJ8so0DXPoa5/B2GoSg7MXrxKx+zzURNl4EBlxM4nYi
-----END CERTIFICATE-----
