Certificate:
    Data:
        Version: 3 (0x2)
        Serial Number: 47 (0x2f)
        Signature Algorithm: sha256WithRSAEncryption
        Issuer: C=US, ST=California, L=Santa Clara, O=pkg5, OU=ta11, CN=localhost/emailAddress=ta11
        Validity
            Not Before: Mar 18 08:51:50 2026 GMT
            Not After : Dec 12 08:51:50 2028 GMT
        Subject: C=US, ST=California, L=Santa Clara, O=pkg5, OU=cs1_ta11, CN=localhost/emailAddress=cs1_ta11
        Subject Public Key Info:
            Public Key Algorithm: rsaEncryption
                Public-Key: (2048 bit)
                Modulus:
                    00:c3:8b:e9:ff:ef:9c:56:f5:a5:67:b4:e9:63:7b:
                    be:d3:69:9b:3d:7c:a6:62:35:8e:06:73:d4:28:fb:
                    ee:8e:77:18:f1:c1:da:c1:39:26:90:bf:2c:67:e2:
                    29:f2:13:e5:e1:2a:9e:4d:ef:bd:d2:41:6e:1e:8e:
                    5b:77:d4:10:40:8e:e6:7d:fc:55:39:3f:76:2b:61:
                    76:34:1a:55:15:c0:d3:4c:e5:da:b9:98:b8:53:c3:
                    6d:2c:6a:14:e1:e9:57:c0:7f:fa:99:b4:e0:a0:0a:
                    28:17:c1:8d:7c:3c:fb:cf:27:4b:43:d5:5b:59:98:
                    f0:62:87:e7:8b:a0:5e:f6:76:d9:ec:19:73:69:3c:
                    82:cb:c8:22:aa:fe:8c:6b:b6:96:c4:f2:2d:2e:64:
                    ec:50:eb:1f:c5:bc:47:a7:19:75:5b:b7:59:8a:43:
                    d7:8b:9c:84:4e:7a:f5:2d:d2:ac:d4:4f:1d:50:e7:
                    0d:93:62:c7:e8:49:97:c2:48:7f:17:eb:81:2b:c0:
                    fa:18:23:c0:33:5c:1d:56:f3:5d:66:96:47:ad:4f:
                    e3:66:f6:bd:49:7a:94:70:ce:ff:66:c8:3a:2d:c7:
                    cb:e3:96:c5:b0:84:46:6a:b6:aa:15:b4:2e:c0:06:
                    43:ba:29:1a:ac:8c:69:70:8d:6d:4f:ad:85:6b:71:
                    ee:7f
                Exponent: 65537 (0x10001)
        X509v3 extensions:
            X509v3 Basic Constraints: critical
                CA:FALSE
            X509v3 Key Usage: critical
                Digital Signature
            X509v3 Subject Key Identifier: 
                E9:8C:F9:34:FC:A6:29:85:4B:1A:66:79:4C:2E:00:03:9F:8C:26:BF
            X509v3 Authority Key Identifier: 
                43:71:20:B9:64:59:C7:15:ED:59:7D:66:05:42:36:CA:E1:82:64:65
    Signature Algorithm: sha256WithRSAEncryption
    Signature Value:
        9f:a1:67:36:d6:83:f4:15:40:ef:04:be:5d:74:5f:c4:1c:85:
        b7:fd:18:9b:7d:b2:54:33:b7:5c:dc:10:da:6b:9b:e1:44:46:
        03:6a:24:78:bf:49:61:75:8d:34:46:2c:90:47:7a:e0:8b:31:
        ba:a1:22:b3:f1:9b:7c:4a:00:48:4a:eb:09:40:82:84:5f:59:
        65:e9:0d:8e:ca:f4:13:84:fb:12:67:da:13:0a:f6:2e:93:cf:
        55:bb:36:71:c8:4d:7e:5f:92:53:f7:33:a4:8d:22:07:a8:67:
        17:7d:47:64:09:85:b1:90:6a:e4:2b:fa:ce:d5:fc:30:51:e3:
        16:78:69:92:ea:fb:26:b6:05:87:62:8c:73:98:a7:64:7b:2a:
        7f:c3:ef:31:c0:f0:83:f1:13:e1:d6:94:78:12:fa:f6:59:15:
        a6:da:14:cc:f9:35:11:12:d4:0b:42:43:e9:9c:99:fc:fb:ae:
        99:71:f0:39:d7:f1:98:8e:e5:5d:4a:d7:71:fd:ca:c0:1c:63:
        fe:b2:f1:a8:84:c1:35:87:f8:ad:0a:50:f7:64:3b:68:78:60:
        08:8a:71:36:2a:13:ea:b4:16:d6:a8:04:a7:40:8f:ac:f4:0c:
        2e:62:1a:9c:39:82:66:40:0e:a4:ce:c7:5e:e2:4a:ed:cf:4b:
        06:14:8d:67
-----BEGIN CERTIFICATE-----
MIID4jCCAsqgAwIBAgIBLzANBgkqhkiG9w0BAQsFADB/MQswCQYDVQQGEwJVUzET
MBEGA1UECAwKQ2FsaWZvcm5pYTEUMBIGA1UEBwwLU2FudGEgQ2xhcmExDTALBgNV
BAoMBHBrZzUxDTALBgNVBAsMBHRhMTExEjAQBgNVBAMMCWxvY2FsaG9zdDETMBEG
CSqGSIb3DQEJARYEdGExMTAeFw0yNjAzMTgwODUxNTBaFw0yODEyMTIwODUxNTBa
MIGHMQswCQYDVQQGEwJVUzETMBEGA1UECAwKQ2FsaWZvcm5pYTEUMBIGA1UEBwwL
U2FudGEgQ2xhcmExDTALBgNVBAoMBHBrZzUxETAPBgNVBAsMCGNzMV90YTExMRIw
EAYDVQQDDAlsb2NhbGhvc3QxFzAVBgkqhkiG9w0BCQEWCGNzMV90YTExMIIBIjAN
BgkqhkiG9w0BAQEFAAOCAQ8AMIIBCgKCAQEAw4vp/++cVvWlZ7TpY3u+02mbPXym
YjWOBnPUKPvujncY8cHawTkmkL8sZ+Ip8hPl4SqeTe+90kFuHo5bd9QQQI7mffxV
OT92K2F2NBpVFcDTTOXauZi4U8NtLGoU4elXwH/6mbTgoAooF8GNfDz7zydLQ9Vb
WZjwYofni6Be9nbZ7BlzaTyCy8giqv6Ma7aWxPItLmTsUOsfxbxHpxl1W7dZikPX
i5yETnr1LdKs1E8dUOcNk2LH6EmXwkh/F+uBK8D6GCPAM1wdVvNdZpZHrU/jZva9
SXqUcM7/Zsg6LcfL45bFsIRGaraqFbQuwAZDuikarIxpcI1tT62Fa3HufwIDAQAB
o2AwXjAMBgNVHRMBAf8EAjAAMA4GA1UdDwEB/wQEAwIHgDAdBgNVHQ4EFgQU6Yz5
NPymKYVLGmZ5TC4AA5+MJr8wHwYDVR0jBBgwFoAUQ3EguWRZxxXtWX1mBUI2yuGC
ZGUwDQYJKoZIhvcNAQELBQADggEBAJ+hZzbWg/QVQO8Evl10X8Qchbf9GJt9slQz
t1zcENprm+FERgNqJHi/SWF1jTRGLJBHeuCLMbqhIrPxm3xKAEhK6wlAgoRfWWXp
DY7K9BOE+xJn2hMK9i6Tz1W7NnHITX5fklP3M6SNIgeoZxd9R2QJhbGQauQr+s7V
/DBR4xZ4aZLq+ya2BYdijHOYp2R7Kn/D7zHA8IPxE+HWlHgS+vZZFabaFMz5NRES
1AtCQ+mcmfz7rplx8DnX8ZiO5V1K13H9ysAcY/6y8aiEwTWH+K0KUPdkO2h4YAiK
cTYqE+q0FtaoBKdAj6z0DC5iGpw5gmZADqTOx17iSu3PSwYUjWc=
-----END CERTIFICATE-----
