Certificate:
    Data:
        Version: 3 (0x2)
        Serial Number: 6 (0x6)
        Signature Algorithm: sha256WithRSAEncryption
        Issuer: C=US, ST=California, L=Santa Clara, O=pkg5, CN=ch5_ta1/emailAddress=ch5_ta1
        Validity
            Not Before: Mar 18 08:51:29 2026 GMT
            Not After : Dec 12 08:51:29 2028 GMT
        Subject: C=US, ST=California, L=Santa Clara, O=pkg5, CN=cs1_ch5_ta1/emailAddress=cs1_ch5_ta1
        Subject Public Key Info:
            Public Key Algorithm: rsaEncryption
                Public-Key: (2048 bit)
                Modulus:
                    00:ad:47:cc:44:f3:8a:fc:32:29:ff:3b:6f:61:a6:
                    92:27:d2:09:4b:4c:87:4b:bc:5e:77:0f:c2:84:6d:
                    4f:31:e0:a1:92:b5:84:a1:91:6e:37:7a:56:48:d5:
                    23:a4:d9:53:31:9c:2a:ed:41:e0:4c:7e:87:d3:5c:
                    1a:c4:9b:d3:71:a1:62:9a:91:3b:dc:fc:05:1a:48:
                    75:b5:69:f8:a4:79:e0:d6:62:c5:e5:5e:ea:7e:8b:
                    e5:12:39:1f:2a:66:da:d0:e6:53:ee:d8:7b:87:85:
                    9e:15:f0:33:f8:ef:88:a4:56:e4:bf:94:30:82:fb:
                    cd:3a:73:52:8e:0b:f3:48:78:e9:2f:eb:2f:a3:3c:
                    d7:53:d0:09:d9:f2:13:d7:eb:07:69:ed:4d:0c:92:
                    af:ab:0d:f7:dd:fd:8f:53:9a:0a:71:c6:44:75:bb:
                    57:72:ed:18:83:23:1e:f4:5b:54:f4:42:2d:b6:79:
                    f1:31:a6:bc:57:c1:41:d6:7a:5c:01:4d:09:55:8d:
                    45:bf:18:89:05:53:a0:e2:ff:37:7f:b0:60:60:03:
                    ee:fa:15:fd:79:af:34:ec:ea:d0:8c:67:ab:a6:d2:
                    51:3c:7e:4d:77:20:8d:9b:18:f4:e6:07:ea:b8:41:
                    8f:74:6d:a2:be:9a:0b:1d:74:af:6c:67:9b:7c:0f:
                    f2:05
                Exponent: 65537 (0x10001)
        X509v3 extensions:
            X509v3 Basic Constraints: critical
                CA:FALSE
            X509v3 Key Usage: critical
                Digital Signature
            X509v3 Subject Key Identifier: 
                5E:05:1F:D1:FE:FD:DC:EA:BC:7F:FD:F6:1D:2D:F2:B0:1D:05:C2:47
            X509v3 Authority Key Identifier: 
                88:6F:5B:93:C9:D4:A3:30:CC:AA:2F:02:32:79:4E:E9:2C:3A:DA:75
    Signature Algorithm: sha256WithRSAEncryption
    Signature Value:
        01:62:17:44:5e:c4:80:27:85:e6:7c:48:cf:41:18:35:86:0f:
        bd:a3:fd:fe:0f:42:51:a9:a9:c2:c4:79:ac:92:34:b8:7b:1d:
        32:0e:fb:e6:65:cb:49:32:bd:9f:96:94:c2:20:51:4e:83:d3:
        9e:d4:c4:30:cd:2c:6f:39:22:30:7e:ce:ce:20:a2:41:db:1b:
        9f:ce:cb:4b:2f:51:df:99:d5:eb:63:70:67:f5:94:a4:0b:b4:
        11:b9:0c:bf:f8:a8:8f:b2:82:93:4a:39:78:2e:50:52:c5:1f:
        7a:83:e2:8d:e1:42:20:57:a2:4e:21:49:9f:93:9c:0a:f2:5e:
        9e:30:8b:96:a0:7c:f6:05:be:7b:6f:97:f2:76:fc:66:b3:5f:
        b3:57:cc:f0:bb:ea:fe:3b:08:18:8d:48:a6:ae:2c:d1:27:8d:
        9c:63:73:bf:fc:1a:b1:28:42:17:92:b7:40:08:98:d8:f9:8d:
        5d:9f:c1:c4:3e:72:e4:5f:59:bb:e7:cc:35:cf:0c:3c:9e:eb:
        d8:c8:3c:2e:e0:93:37:f9:0d:63:97:5a:d2:a2:66:3c:a3:22:
        8a:72:6c:7b:06:f7:9d:a2:b4:4d:07:e2:00:1e:85:7b:6b:80:
        ae:05:c0:f7:f1:3b:8d:0f:52:fa:74:eb:3e:4a:8d:09:27:0b:
        c9:4c:df:36
-----BEGIN CERTIFICATE-----
MIIDxTCCAq2gAwIBAgIBBjANBgkqhkiG9w0BAQsFADBxMQswCQYDVQQGEwJVUzET
MBEGA1UECAwKQ2FsaWZvcm5pYTEUMBIGA1UEBwwLU2FudGEgQ2xhcmExDTALBgNV
BAoMBHBrZzUxEDAOBgNVBAMMB2NoNV90YTExFjAUBgkqhkiG9w0BCQEWB2NoNV90
YTEwHhcNMjYwMzE4MDg1MTI5WhcNMjgxMjEyMDg1MTI5WjB5MQswCQYDVQQGEwJV
UzETMBEGA1UECAwKQ2FsaWZvcm5pYTEUMBIGA1UEBwwLU2FudGEgQ2xhcmExDTAL
BgNVBAoMBHBrZzUxFDASBgNVBAMMC2NzMV9jaDVfdGExMRowGAYJKoZIhvcNAQkB
FgtjczFfY2g1X3RhMTCCASIwDQYJKoZIhvcNAQEBBQADggEPADCCAQoCggEBAK1H
zETzivwyKf87b2GmkifSCUtMh0u8XncPwoRtTzHgoZK1hKGRbjd6VkjVI6TZUzGc
Ku1B4Ex+h9NcGsSb03GhYpqRO9z8BRpIdbVp+KR54NZixeVe6n6L5RI5Hypm2tDm
U+7Ye4eFnhXwM/jviKRW5L+UMIL7zTpzUo4L80h46S/rL6M811PQCdnyE9frB2nt
TQySr6sN9939j1OaCnHGRHW7V3LtGIMjHvRbVPRCLbZ58TGmvFfBQdZ6XAFNCVWN
Rb8YiQVToOL/N3+wYGAD7voV/XmvNOzq0Ixnq6bSUTx+TXcgjZsY9OYH6rhBj3Rt
or6aCx10r2xnm3wP8gUCAwEAAaNgMF4wDAYDVR0TAQH/BAIwADAOBgNVHQ8BAf8E
BAMCB4AwHQYDVR0OBBYEFF4FH9H+/dzqvH/99h0t8rAdBcJHMB8GA1UdIwQYMBaA
FIhvW5PJ1KMwzKovAjJ5TuksOtp1MA0GCSqGSIb3DQEBCwUAA4IBAQABYhdEXsSA
J4XmfEjPQRg1hg+9o/3+D0JRqanCxHmskjS4ex0yDvvmZctJMr2flpTCIFFOg9Oe
1MQwzSxvOSIwfs7OIKJB2xufzstLL1HfmdXrY3Bn9ZSkC7QRuQy/+KiPsoKTSjl4
LlBSxR96g+KN4UIgV6JOIUmfk5wK8l6eMIuWoHz2Bb57b5fydvxms1+zV8zwu+r+
OwgYjUimrizRJ42cY3O//BqxKEIXkrdACJjY+Y1dn8HEPnLkX1m758w1zww8nuvY
yDwu4JM3+Q1jl1rSomY8oyKKcmx7BvedorRNB+IAHoV7a4CuBcD38TuND1L6dOs+
So0JJwvJTN82
-----END CERTIFICATE-----
