Certificate:
    Data:
        Version: 3 (0x2)
        Serial Number: 42 (0x2a)
    Signature Algorithm: sha256WithRSAEncryption
        Issuer: C=US, ST=California, L=Santa Clara, O=pkg5, OU=ta6, CN=localhost/emailAddress=ta6
        Validity
            Not Before: Sep 22 05:33:36 2021 GMT
            Not After : Jun 18 05:33:36 2024 GMT
        Subject: C=US, ST=California, L=Santa Clara, O=pkg5, OU=cs1_ta6, CN=localhost/emailAddress=cs1_ta6
        Subject Public Key Info:
            Public Key Algorithm: rsaEncryption
                Public-Key: (1024 bit)
                Modulus:
                    00:ba:6b:2c:fd:8c:e3:1c:59:dd:14:d0:8c:1a:1b:
                    62:07:30:54:a1:46:21:48:c6:93:5d:e1:b1:24:bd:
                    a0:6e:12:90:c1:20:00:f8:f0:27:98:ab:4e:bf:ae:
                    64:d2:7f:f3:cc:b1:fa:f0:2e:24:20:f0:ff:63:7c:
                    6d:ed:f7:84:f1:98:23:02:6f:bc:f9:cf:11:fe:83:
                    e5:3c:82:82:a2:62:a1:ba:35:de:e6:3a:5f:ee:db:
                    32:dd:c0:29:d1:27:69:75:11:d7:02:48:cc:81:ba:
                    7e:d4:84:6b:b1:2b:31:1e:dc:47:2a:3c:a6:3f:2b:
                    4d:dc:74:78:e4:54:b9:4b:89
                Exponent: 65537 (0x10001)
        X509v3 extensions:
            X509v3 Basic Constraints: critical
                CA:FALSE
            X509v3 Key Usage: critical
                Digital Signature
    Signature Algorithm: sha256WithRSAEncryption
         4f:0a:b6:dd:0a:01:af:c7:49:88:d3:66:55:ba:83:eb:e5:74:
         76:4b:6e:ab:3e:ee:f7:ec:a9:f2:8a:d3:d2:5b:d7:da:46:c6:
         1b:ca:e4:69:9d:b0:e3:57:7a:1d:a7:fe:cc:af:f8:99:71:b6:
         12:48:c0:9f:bb:a5:3d:32:74:29:64:70:e9:0f:f7:cc:c2:80:
         b4:4d:e7:41:e6:b0:6e:92:7f:85:ec:1a:82:ae:e3:af:8c:53:
         42:44:ad:e3:53:06:d0:1e:c7:b1:62:a9:2a:f7:25:9b:4d:c6:
         ff:1f:53:d0:64:f6:3e:08:87:63:2b:b8:bf:0d:bf:fd:23:f3:
         53:14:f8:06:eb:89:6a:06:67:7c:5a:d4:a5:15:45:be:ae:ff:
         8a:7c:87:e7:f1:95:8d:53:23:67:e2:f4:7d:96:37:e2:2d:1f:
         8a:e6:08:29:10:e7:86:70:c0:4a:4e:ff:3a:43:bd:40:d9:eb:
         82:00:77:1d:ae:3f:7f:89:28:42:f8:4e:f7:a2:29:77:f6:f9:
         00:63:43:71:92:9d:88:18:9f:f7:6b:18:2e:d2:6a:71:4b:53:
         fd:0e:4f:48:8f:3f:e1:7e:22:55:c1:cd:1f:67:f1:ff:1b:c4:
         8e:28:e8:32:36:2d:54:7c:50:3f:48:cd:7a:16:cc:af:06:b9:
         f9:5f:4b:61
-----BEGIN CERTIFICATE-----
MIIDGjCCAgKgAwIBAgIBKjANBgkqhkiG9w0BAQsFADB9MQswCQYDVQQGEwJVUzET
MBEGA1UECAwKQ2FsaWZvcm5pYTEUMBIGA1UEBwwLU2FudGEgQ2xhcmExDTALBgNV
BAoMBHBrZzUxDDAKBgNVBAsMA3RhNjESMBAGA1UEAwwJbG9jYWxob3N0MRIwEAYJ
KoZIhvcNAQkBFgN0YTYwHhcNMjEwOTIyMDUzMzM2WhcNMjQwNjE4MDUzMzM2WjCB
hTELMAkGA1UEBhMCVVMxEzARBgNVBAgMCkNhbGlmb3JuaWExFDASBgNVBAcMC1Nh
bnRhIENsYXJhMQ0wCwYDVQQKDARwa2c1MRAwDgYDVQQLDAdjczFfdGE2MRIwEAYD
VQQDDAlsb2NhbGhvc3QxFjAUBgkqhkiG9w0BCQEWB2NzMV90YTYwgZ8wDQYJKoZI
hvcNAQEBBQADgY0AMIGJAoGBALprLP2M4xxZ3RTQjBobYgcwVKFGIUjGk13hsSS9
oG4SkMEgAPjwJ5irTr+uZNJ/88yx+vAuJCDw/2N8be33hPGYIwJvvPnPEf6D5TyC
gqJiobo13uY6X+7bMt3AKdEnaXUR1wJIzIG6ftSEa7ErMR7cRyo8pj8rTdx0eORU
uUuJAgMBAAGjIDAeMAwGA1UdEwEB/wQCMAAwDgYDVR0PAQH/BAQDAgeAMA0GCSqG
SIb3DQEBCwUAA4IBAQBPCrbdCgGvx0mI02ZVuoPr5XR2S26rPu737KnyitPSW9fa
RsYbyuRpnbDjV3odp/7Mr/iZcbYSSMCfu6U9MnQpZHDpD/fMwoC0TedB5rBukn+F
7BqCruOvjFNCRK3jUwbQHsexYqkq9yWbTcb/H1PQZPY+CIdjK7i/Db/9I/NTFPgG
64lqBmd8WtSlFUW+rv+KfIfn8ZWNUyNn4vR9ljfiLR+K5ggpEOeGcMBKTv86Q71A
2euCAHcdrj9/iShC+E73oil39vkAY0Nxkp2IGJ/3axgu0mpxS1P9Dk9Ijz/hfiJV
wc0fZ/H/G8SOKOgyNi1UfFA/SM16FsyvBrn5X0th
-----END CERTIFICATE-----
