Certificate:
    Data:
        Version: 3 (0x2)
        Serial Number: 25 (0x19)
    Signature Algorithm: sha256WithRSAEncryption
        Issuer: C=US, ST=California, L=Santa Clara, O=pkg5, CN=cs8_ch1_ta3/emailAddress=cs8_ch1_ta3
        Validity
            Not Before: Dec 13 00:13:36 2013 GMT
            Not After : Sep  8 00:13:36 2016 GMT
        Subject: C=US, ST=California, L=Santa Clara, O=pkg5, CN=cs1_cs8_ch1_ta3/emailAddress=cs1_cs8_ch1_ta3
        Subject Public Key Info:
            Public Key Algorithm: rsaEncryption
                Public-Key: (1024 bit)
                Modulus:
                    00:cc:fd:f6:7a:f6:04:88:b5:e3:ff:6f:ce:2a:01:
                    89:dd:07:a7:10:5d:ca:76:bf:d2:18:97:80:5a:b1:
                    b8:6e:6b:bd:6b:65:9a:24:0d:3d:dc:7f:eb:53:1f:
                    45:9e:9c:61:98:da:18:08:c3:3e:45:de:e0:1e:16:
                    93:2d:30:a4:e3:52:48:5d:97:80:3d:b9:3e:25:28:
                    b1:be:17:db:71:57:ba:3f:69:22:3e:83:c7:6f:fe:
                    69:fd:6d:cf:7a:2f:72:36:8d:85:28:38:50:0f:45:
                    2f:22:e8:49:04:da:17:d5:a1:15:7e:b6:0e:de:e4:
                    cc:2f:2a:e2:21:95:08:cb:07
                Exponent: 65537 (0x10001)
        X509v3 extensions:
            X509v3 Basic Constraints: critical
                CA:FALSE
            X509v3 Key Usage: critical
                Digital Signature
    Signature Algorithm: sha256WithRSAEncryption
         a7:ac:32:bc:eb:2c:bc:b7:f1:f5:7a:e0:5b:34:0f:f0:44:44:
         c5:9d:19:ca:4d:81:a6:9c:ea:43:be:fb:4f:3c:86:26:cf:f8:
         a5:d0:9b:4f:65:eb:90:a4:8c:12:54:1c:6b:7a:c8:d2:e5:2b:
         46:81:23:bc:e2:1a:a7:53:35:ea:fe:a5:e7:d4:d4:12:12:f1:
         28:65:e0:12:56:36:2e:78:e3:fa:ca:1e:5e:b5:6f:27:39:7a:
         fd:a0:1c:38:0b:2f:d6:68:24:9f:66:62:ea:28:82:f8:d4:10:
         40:02:af:d1:91:79:6d:bf:f8:de:d1:45:cd:7d:35:92:69:f3:
         30:4d
-----BEGIN CERTIFICATE-----
MIICkTCCAfqgAwIBAgIBGTANBgkqhkiG9w0BAQsFADB5MQswCQYDVQQGEwJVUzET
MBEGA1UECAwKQ2FsaWZvcm5pYTEUMBIGA1UEBwwLU2FudGEgQ2xhcmExDTALBgNV
BAoMBHBrZzUxFDASBgNVBAMMC2NzOF9jaDFfdGEzMRowGAYJKoZIhvcNAQkBFgtj
czhfY2gxX3RhMzAeFw0xMzEyMTMwMDEzMzZaFw0xNjA5MDgwMDEzMzZaMIGBMQsw
CQYDVQQGEwJVUzETMBEGA1UECAwKQ2FsaWZvcm5pYTEUMBIGA1UEBwwLU2FudGEg
Q2xhcmExDTALBgNVBAoMBHBrZzUxGDAWBgNVBAMMD2NzMV9jczhfY2gxX3RhMzEe
MBwGCSqGSIb3DQEJARYPY3MxX2NzOF9jaDFfdGEzMIGfMA0GCSqGSIb3DQEBAQUA
A4GNADCBiQKBgQDM/fZ69gSIteP/b84qAYndB6cQXcp2v9IYl4Basbhua71rZZok
DT3cf+tTH0WenGGY2hgIwz5F3uAeFpMtMKTjUkhdl4A9uT4lKLG+F9txV7o/aSI+
g8dv/mn9bc96L3I2jYUoOFAPRS8i6EkE2hfVoRV+tg7e5MwvKuIhlQjLBwIDAQAB
oyAwHjAMBgNVHRMBAf8EAjAAMA4GA1UdDwEB/wQEAwIHgDANBgkqhkiG9w0BAQsF
AAOBgQCnrDK86yy8t/H1euBbNA/wRETFnRnKTYGmnOpDvvtPPIYmz/il0JtPZeuQ
pIwSVBxresjS5StGgSO84hqnUzXq/qXn1NQSEvEoZeASVjYueOP6yh5etW8nOXr9
oBw4Cy/WaCSfZmLqKIL41BBAAq/RkXltv/je0UXNfTWSafMwTQ==
-----END CERTIFICATE-----
