Certificate:
    Data:
        Version: 3 (0x2)
        Serial Number: 47 (0x2f)
    Signature Algorithm: sha256WithRSAEncryption
        Issuer: C=US, ST=California, L=Santa Clara, O=pkg5, OU=ta11, CN=localhost/emailAddress=ta11
        Validity
            Not Before: Dec 13 00:13:39 2013 GMT
            Not After : Sep  8 00:13:39 2016 GMT
        Subject: C=US, ST=California, L=Santa Clara, O=pkg5, OU=cs1_ta11, CN=localhost/emailAddress=cs1_ta11
        Subject Public Key Info:
            Public Key Algorithm: rsaEncryption
                Public-Key: (1024 bit)
                Modulus:
                    00:e3:10:e4:f8:44:64:45:ea:54:25:0d:8e:5f:f7:
                    1c:bb:80:f5:1e:af:19:dd:ba:30:fa:1b:6c:3e:00:
                    9e:38:09:c8:e6:1a:5c:3f:4e:46:51:7d:2c:5e:82:
                    5b:2d:03:5a:f3:30:da:fc:0b:45:2e:c2:4a:0a:a5:
                    78:68:c5:81:d9:bb:b6:83:fc:90:64:0e:13:5d:75:
                    d1:79:9c:38:11:15:f1:7a:98:70:3d:3d:65:a7:65:
                    c4:c7:de:fb:70:02:81:0d:61:1c:f8:77:0d:c6:22:
                    41:91:c9:11:24:5a:5a:cc:f3:30:2f:22:47:fd:8a:
                    13:82:7a:c8:c2:3e:5e:78:57
                Exponent: 65537 (0x10001)
        X509v3 extensions:
            X509v3 Basic Constraints: critical
                CA:FALSE
            X509v3 Key Usage: critical
                Digital Signature
    Signature Algorithm: sha256WithRSAEncryption
         c2:e6:3c:ec:dd:c1:5d:d6:c9:2d:01:2a:7c:75:25:36:29:e1:
         96:73:4b:4d:4c:09:76:f1:a0:f1:c0:1e:d3:d4:ba:16:22:68:
         e7:3a:ba:31:7f:ac:67:69:4f:97:f8:f3:68:fa:6f:78:d6:cf:
         86:e3:56:f0:f7:23:f9:f8:89:77:60:5a:06:af:d0:c8:34:b5:
         07:23:be:97:03:8d:00:af:c3:43:26:46:24:97:03:e9:2e:74:
         a3:31:92:bd:cb:b6:2a:c3:0e:df:b1:22:45:42:bf:45:fc:1f:
         d9:49:66:22:77:90:08:a6:0c:2d:d7:0a:29:7f:be:7e:01:8b:
         a8:99
-----BEGIN CERTIFICATE-----
MIICnTCCAgagAwIBAgIBLzANBgkqhkiG9w0BAQsFADB/MQswCQYDVQQGEwJVUzET
MBEGA1UECAwKQ2FsaWZvcm5pYTEUMBIGA1UEBwwLU2FudGEgQ2xhcmExDTALBgNV
BAoMBHBrZzUxDTALBgNVBAsMBHRhMTExEjAQBgNVBAMMCWxvY2FsaG9zdDETMBEG
CSqGSIb3DQEJARYEdGExMTAeFw0xMzEyMTMwMDEzMzlaFw0xNjA5MDgwMDEzMzla
MIGHMQswCQYDVQQGEwJVUzETMBEGA1UECAwKQ2FsaWZvcm5pYTEUMBIGA1UEBwwL
U2FudGEgQ2xhcmExDTALBgNVBAoMBHBrZzUxETAPBgNVBAsMCGNzMV90YTExMRIw
EAYDVQQDDAlsb2NhbGhvc3QxFzAVBgkqhkiG9w0BCQEWCGNzMV90YTExMIGfMA0G
CSqGSIb3DQEBAQUAA4GNADCBiQKBgQDjEOT4RGRF6lQlDY5f9xy7gPUerxndujD6
G2w+AJ44CcjmGlw/TkZRfSxeglstA1rzMNr8C0UuwkoKpXhoxYHZu7aD/JBkDhNd
ddF5nDgRFfF6mHA9PWWnZcTH3vtwAoENYRz4dw3GIkGRyREkWlrM8zAvIkf9ihOC
esjCPl54VwIDAQABoyAwHjAMBgNVHRMBAf8EAjAAMA4GA1UdDwEB/wQEAwIHgDAN
BgkqhkiG9w0BAQsFAAOBgQDC5jzs3cFd1sktASp8dSU2KeGWc0tNTAl28aDxwB7T
1LoWImjnOroxf6xnaU+X+PNo+m941s+G41bw9yP5+Il3YFoGr9DINLUHI76XA40A
r8NDJkYklwPpLnSjMZK9y7Yqww7fsSJFQr9F/B/ZSWYid5AIpgwt1wopf75+AYuo
mQ==
-----END CERTIFICATE-----
