Certificate:
    Data:
        Version: 3 (0x2)
        Serial Number: 42 (0x2a)
        Signature Algorithm: sha256WithRSAEncryption
        Issuer: C=US, ST=California, L=Menlo Park, O=pkg5, OU=ta6, CN=localhost/emailAddress=ta6
        Validity
            Not Before: Apr 11 22:37:54 2011 GMT
            Not After : Jan  5 22:37:54 2014 GMT
        Subject: C=US, ST=California, L=Menlo Park, O=pkg5, OU=cs1_ta6, CN=localhost/emailAddress=cs1_ta6
        Subject Public Key Info:
            Public Key Algorithm: rsaEncryption
            RSA Public Key: (1024 bit)
                Modulus (1024 bit):
                    00:e1:f0:66:24:db:fa:5f:00:b6:c4:f6:63:f0:51:
                    7d:49:f9:92:71:e1:b3:8c:e7:fc:e9:e4:4f:79:76:
                    52:51:06:65:c1:5f:d4:51:26:30:46:c9:70:98:5a:
                    c5:a9:9e:6a:67:24:25:7a:68:5b:63:af:90:e7:b1:
                    fb:42:f9:15:9c:d4:41:c6:90:fd:c3:d3:d7:cf:fe:
                    00:c6:39:cb:6c:ae:9c:cb:74:c4:b6:1f:be:1b:58:
                    9f:c9:8a:33:66:ec:32:08:fc:d9:23:e1:29:e2:f3:
                    3e:3d:53:a7:78:e7:69:49:2b:39:72:8b:74:33:46:
                    b1:f7:3b:26:4f:8d:06:64:e7
                Exponent: 65537 (0x10001)
        X509v3 extensions:
            X509v3 Basic Constraints: critical
                CA:FALSE
            X509v3 Key Usage: critical
                Digital Signature
    Signature Algorithm: sha256WithRSAEncryption
        6b:e1:7e:83:a6:a1:f8:46:a6:85:bb:c7:25:20:83:bb:b4:e0:
        58:63:36:5a:97:1c:4c:76:24:a2:9d:c3:45:73:1f:22:39:97:
        2c:47:b1:f5:3e:ac:b4:00:6d:c5:32:49:0c:83:e9:94:44:fa:
        d6:e1:2d:a7:ae:66:34:9c:85:3e:a4:43:af:c0:2a:6c:f9:22:
        64:d2:bb:54:67:e8:99:df:41:f2:7c:87:77:67:b5:3d:14:37:
        75:32:56:69:21:f2:53:f2:d2:83:a1:fc:c0:3d:b5:4e:b5:d8:
        06:d8:4e:71:f8:cc:3c:3a:93:a4:a0:05:a3:4f:7b:b1:83:21:
        96:60
-----BEGIN CERTIFICATE-----
MIIClzCCAgCgAwIBAgIBKjANBgkqhkiG9w0BAQsFADB8MQswCQYDVQQGEwJVUzET
MBEGA1UECBMKQ2FsaWZvcm5pYTETMBEGA1UEBxMKTWVubG8gUGFyazENMAsGA1UE
ChMEcGtnNTEMMAoGA1UECxMDdGE2MRIwEAYDVQQDEwlsb2NhbGhvc3QxEjAQBgkq
hkiG9w0BCQEWA3RhNjAeFw0xMTA0MTEyMjM3NTRaFw0xNDAxMDUyMjM3NTRaMIGE
MQswCQYDVQQGEwJVUzETMBEGA1UECBMKQ2FsaWZvcm5pYTETMBEGA1UEBxMKTWVu
bG8gUGFyazENMAsGA1UEChMEcGtnNTEQMA4GA1UECxQHY3MxX3RhNjESMBAGA1UE
AxMJbG9jYWxob3N0MRYwFAYJKoZIhvcNAQkBFgdjczFfdGE2MIGfMA0GCSqGSIb3
DQEBAQUAA4GNADCBiQKBgQDh8GYk2/pfALbE9mPwUX1J+ZJx4bOM5/zp5E95dlJR
BmXBX9RRJjBGyXCYWsWpnmpnJCV6aFtjr5DnsftC+RWc1EHGkP3D09fP/gDGOcts
rpzLdMS2H74bWJ/JijNm7DII/Nkj4Sni8z49U6d452lJKzlyi3QzRrH3OyZPjQZk
5wIDAQABoyAwHjAMBgNVHRMBAf8EAjAAMA4GA1UdDwEB/wQEAwIHgDANBgkqhkiG
9w0BAQsFAAOBgQBr4X6DpqH4RqaFu8clIIO7tOBYYzZalxxMdiSincNFcx8iOZcs
R7H1Pqy0AG3FMkkMg+mURPrW4S2nrmY0nIU+pEOvwCps+SJk0rtUZ+iZ30HyfId3
Z7U9FDd1MlZpIfJT8tKDofzAPbVOtdgG2E5x+Mw8OpOkoAWjT3uxgyGWYA==
-----END CERTIFICATE-----
