Certificate:
    Data:
        Version: 3 (0x2)
        Serial Number: 14 (0xe)
        Signature Algorithm: sha256WithRSAEncryption
        Issuer: C=US, ST=California, L=Menlo Park, O=pkg5, CN=ch5.3_ta1/emailAddress=ch5.3_ta1
        Validity
            Not Before: Mar 21 00:49:26 2011 GMT
            Not After : Dec 15 00:49:26 2013 GMT
        Subject: C=US, ST=California, L=Menlo Park, O=pkg5, CN=cs1_ch5.3_ta1/emailAddress=cs1_ch5.3_ta1
        Subject Public Key Info:
            Public Key Algorithm: rsaEncryption
            RSA Public Key: (1024 bit)
                Modulus (1024 bit):
                    00:ba:d5:66:e3:d0:cd:3b:08:d4:e6:6a:9e:7f:22:
                    39:47:94:a9:77:5a:dd:26:6a:35:fc:d5:e0:1b:41:
                    cf:0d:ff:6f:66:09:96:8b:32:36:ea:68:69:82:5a:
                    c9:6f:20:ea:ff:1c:83:29:11:d8:f2:99:f8:5c:d4:
                    85:32:bb:c6:69:ca:dc:f7:d7:89:d4:72:2c:89:8a:
                    36:22:71:48:bc:fa:e0:f9:03:3c:14:7c:c2:48:92:
                    10:9f:21:db:2a:3b:01:f2:6f:96:18:61:b4:45:56:
                    27:81:aa:42:fd:d8:92:84:4e:fd:5d:65:ad:67:67:
                    4d:06:48:10:88:bb:77:af:23
                Exponent: 65537 (0x10001)
        X509v3 extensions:
            X509v3 Basic Constraints: critical
                CA:FALSE
            X509v3 Key Usage: critical
                Digital Signature
    Signature Algorithm: sha256WithRSAEncryption
        7e:14:ca:ef:10:0b:0d:a4:e4:7d:ba:39:5b:7c:63:b7:9a:d2:
        b7:cb:25:87:b3:fe:9f:34:55:d2:45:a6:b3:68:27:6d:a7:14:
        5c:68:43:0b:81:aa:0b:21:6d:1f:ad:ec:72:de:4b:99:b5:a4:
        f0:24:15:73:f1:eb:dd:6f:41:2f:3c:4b:06:44:eb:ec:f0:9d:
        29:79:ce:d2:ea:e2:55:1b:9f:cf:7c:ca:98:35:6f:98:ec:70:
        de:f1:04:fa:f1:89:ee:bf:af:a4:f8:35:92:b7:f9:27:a7:5e:
        76:cc:c0:79:ad:6b:46:d7:d1:a7:60:35:32:9f:26:b3:b2:e7:
        21:a5
-----BEGIN CERTIFICATE-----
MIIChjCCAe+gAwIBAgIBDjANBgkqhkiG9w0BAQsFADB0MQswCQYDVQQGEwJVUzET
MBEGA1UECBMKQ2FsaWZvcm5pYTETMBEGA1UEBxMKTWVubG8gUGFyazENMAsGA1UE
ChMEcGtnNTESMBAGA1UEAxQJY2g1LjNfdGExMRgwFgYJKoZIhvcNAQkBFgljaDUu
M190YTEwHhcNMTEwMzIxMDA0OTI2WhcNMTMxMjE1MDA0OTI2WjB8MQswCQYDVQQG
EwJVUzETMBEGA1UECBMKQ2FsaWZvcm5pYTETMBEGA1UEBxMKTWVubG8gUGFyazEN
MAsGA1UEChMEcGtnNTEWMBQGA1UEAxQNY3MxX2NoNS4zX3RhMTEcMBoGCSqGSIb3
DQEJARYNY3MxX2NoNS4zX3RhMTCBnzANBgkqhkiG9w0BAQEFAAOBjQAwgYkCgYEA
utVm49DNOwjU5mqefyI5R5Spd1rdJmo1/NXgG0HPDf9vZgmWizI26mhpglrJbyDq
/xyDKRHY8pn4XNSFMrvGacrc99eJ1HIsiYo2InFIvPrg+QM8FHzCSJIQnyHbKjsB
8m+WGGG0RVYngapC/diShE79XWWtZ2dNBkgQiLt3ryMCAwEAAaMgMB4wDAYDVR0T
AQH/BAIwADAOBgNVHQ8BAf8EBAMCB4AwDQYJKoZIhvcNAQELBQADgYEAfhTK7xAL
DaTkfbo5W3xjt5rSt8slh7P+nzRV0kWms2gnbacUXGhDC4GqCyFtH63sct5LmbWk
8CQVc/Hr3W9BLzxLBkTr7PCdKXnO0uriVRufz3zKmDVvmOxw3vEE+vGJ7r+vpPg1
krf5J6dedszAea1rRtfRp2A1Mp8ms7LnIaU=
-----END CERTIFICATE-----
