Certificate:
    Data:
        Version: 3 (0x2)
        Serial Number: 44 (0x2c)
        Signature Algorithm: sha256WithRSAEncryption
        Issuer: C=US, ST=California, L=Menlo Park, O=pkg5, OU=ta8, CN=localhost/emailAddress=ta8
        Validity
            Not Before: Apr 11 22:37:54 2011 GMT
            Not After : Jan  5 22:37:54 2014 GMT
        Subject: C=US, ST=California, L=Menlo Park, O=pkg5, OU=cs1_ta8, CN=localhost/emailAddress=cs1_ta8
        Subject Public Key Info:
            Public Key Algorithm: rsaEncryption
            RSA Public Key: (1024 bit)
                Modulus (1024 bit):
                    00:e7:a7:dd:2e:a7:89:c3:cc:da:a2:8b:bd:3b:ba:
                    bc:66:6a:cd:65:00:60:70:55:8c:f0:b7:89:c3:fc:
                    97:42:5c:cb:2c:f5:0a:1c:55:c7:79:b7:b9:28:30:
                    f4:9a:a4:e0:31:e5:52:df:f4:40:85:49:8e:fc:08:
                    a5:05:44:ed:b7:6e:00:0b:a7:2d:a1:2c:47:95:18:
                    dc:5e:d0:c4:24:3d:4c:a7:cb:76:91:fb:00:89:2a:
                    3f:7f:ab:f1:5e:b7:cb:24:6e:42:19:4d:d8:a7:12:
                    83:c1:8c:b6:fb:02:f0:9c:1f:51:c3:c5:49:ed:a7:
                    6e:09:bb:11:2f:a5:3f:00:d5
                Exponent: 65537 (0x10001)
        X509v3 extensions:
            X509v3 Basic Constraints: critical
                CA:FALSE
            X509v3 Key Usage: critical
                Digital Signature
    Signature Algorithm: sha256WithRSAEncryption
        b3:c8:ea:1e:23:23:a9:77:46:ae:c3:1c:cf:43:81:80:aa:a6:
        fb:25:ec:a2:fa:d5:c3:e9:1e:c7:78:e1:cc:a4:d7:3f:08:2f:
        5f:58:05:b8:d4:0b:c7:87:2e:93:f6:c5:cb:17:31:e3:fa:88:
        a3:0d:8d:4b:39:2b:96:dd:4d:21:91:37:e9:e7:f5:87:12:0f:
        4e:77:8f:f2:e0:ab:ed:39:76:69:e4:ee:bb:1a:eb:cf:50:a5:
        3b:23:42:74:1e:e0:00:56:ff:8f:7e:7d:97:04:9e:fc:25:a7:
        2a:ee:e7:6c:44:21:68:d3:39:79:e2:ac:02:38:a0:ad:dc:c1:
        32:f0
-----BEGIN CERTIFICATE-----
MIIClzCCAgCgAwIBAgIBLDANBgkqhkiG9w0BAQsFADB8MQswCQYDVQQGEwJVUzET
MBEGA1UECBMKQ2FsaWZvcm5pYTETMBEGA1UEBxMKTWVubG8gUGFyazENMAsGA1UE
ChMEcGtnNTEMMAoGA1UECxMDdGE4MRIwEAYDVQQDEwlsb2NhbGhvc3QxEjAQBgkq
hkiG9w0BCQEWA3RhODAeFw0xMTA0MTEyMjM3NTRaFw0xNDAxMDUyMjM3NTRaMIGE
MQswCQYDVQQGEwJVUzETMBEGA1UECBMKQ2FsaWZvcm5pYTETMBEGA1UEBxMKTWVu
bG8gUGFyazENMAsGA1UEChMEcGtnNTEQMA4GA1UECxQHY3MxX3RhODESMBAGA1UE
AxMJbG9jYWxob3N0MRYwFAYJKoZIhvcNAQkBFgdjczFfdGE4MIGfMA0GCSqGSIb3
DQEBAQUAA4GNADCBiQKBgQDnp90up4nDzNqii707urxmas1lAGBwVYzwt4nD/JdC
XMss9QocVcd5t7koMPSapOAx5VLf9ECFSY78CKUFRO23bgALpy2hLEeVGNxe0MQk
PUyny3aR+wCJKj9/q/Fet8skbkIZTdinEoPBjLb7AvCcH1HDxUntp24JuxEvpT8A
1QIDAQABoyAwHjAMBgNVHRMBAf8EAjAAMA4GA1UdDwEB/wQEAwIHgDANBgkqhkiG
9w0BAQsFAAOBgQCzyOoeIyOpd0auwxzPQ4GAqqb7Jeyi+tXD6R7HeOHMpNc/CC9f
WAW41AvHhy6T9sXLFzHj+oijDY1LOSuW3U0hkTfp5/WHEg9Od4/y4KvtOXZp5O67
GuvPUKU7I0J0HuAAVv+Pfn2XBJ78Jacq7udsRCFo0zl54qwCOKCt3MEy8A==
-----END CERTIFICATE-----
