Certificate:
    Data:
        Version: 3 (0x2)
        Serial Number: 35 (0x23)
        Signature Algorithm: sha256WithRSAEncryption
        Issuer: C=US, ST=California, L=Menlo Park, O=pkg5, CN=ch1_ta4/emailAddress=ch1_ta4
        Validity
            Not Before: Apr 11 22:37:50 2011 GMT
            Not After : Jan  5 22:37:50 2014 GMT
        Subject: C=US, ST=California, L=Menlo Park, O=pkg5, CN=cs1_ch1_ta4/emailAddress=cs1_ch1_ta4
        Subject Public Key Info:
            Public Key Algorithm: rsaEncryption
            RSA Public Key: (1024 bit)
                Modulus (1024 bit):
                    00:b2:8c:40:a3:36:97:32:f7:20:68:e2:f4:f5:76:
                    a3:13:03:4c:1e:32:7c:47:2f:16:32:14:4e:df:0b:
                    7a:6a:22:54:78:cf:69:c9:ea:a7:e6:82:17:6a:31:
                    11:38:7e:e4:f9:ed:be:a2:89:42:df:f4:df:f6:e4:
                    23:bd:ad:4a:c2:ba:a3:a9:26:39:60:ee:02:07:74:
                    25:6c:b0:7e:9f:6b:33:e1:e7:37:13:77:7b:a6:7f:
                    4e:e8:75:61:d4:6b:89:19:6b:e5:a5:df:52:5c:71:
                    25:37:d6:a7:e2:c8:7f:cd:4f:c4:44:b5:15:7c:62:
                    f3:d2:54:d2:9f:c5:99:7a:ad
                Exponent: 65537 (0x10001)
        X509v3 extensions:
            X509v3 Basic Constraints: critical
                CA:FALSE
            X509v3 CRL Distribution Points: 
                URI:http://localhost:12001/file/0/ch1_ta4_crl.pem

    Signature Algorithm: sha256WithRSAEncryption
        53:4e:93:21:c0:2f:46:e1:aa:bc:11:25:b1:ee:1a:6d:df:b8:
        ef:5d:0e:59:3d:fb:1f:1e:62:83:66:98:cb:71:26:b9:87:df:
        49:5f:8e:fb:ec:d5:4d:70:d7:57:64:7a:58:08:54:dd:2a:86:
        26:b7:9b:a1:dd:1b:00:45:b3:c2:f9:8a:06:17:cf:28:c3:00:
        13:7a:6c:83:52:ea:a3:0e:6e:3e:1e:98:56:c4:68:d9:1f:99:
        af:11:00:e5:5f:42:4d:54:4f:88:c4:43:ee:24:ee:ce:ce:17:
        9f:13:5a:f3:1c:e8:a6:76:7c:70:6e:63:1a:3b:52:1c:c0:83:
        01:7b
-----BEGIN CERTIFICATE-----
MIICrjCCAhegAwIBAgIBIzANBgkqhkiG9w0BAQsFADBwMQswCQYDVQQGEwJVUzET
MBEGA1UECBMKQ2FsaWZvcm5pYTETMBEGA1UEBxMKTWVubG8gUGFyazENMAsGA1UE
ChMEcGtnNTEQMA4GA1UEAxQHY2gxX3RhNDEWMBQGCSqGSIb3DQEJARYHY2gxX3Rh
NDAeFw0xMTA0MTEyMjM3NTBaFw0xNDAxMDUyMjM3NTBaMHgxCzAJBgNVBAYTAlVT
MRMwEQYDVQQIEwpDYWxpZm9ybmlhMRMwEQYDVQQHEwpNZW5sbyBQYXJrMQ0wCwYD
VQQKEwRwa2c1MRQwEgYDVQQDFAtjczFfY2gxX3RhNDEaMBgGCSqGSIb3DQEJARYL
Y3MxX2NoMV90YTQwgZ8wDQYJKoZIhvcNAQEBBQADgY0AMIGJAoGBALKMQKM2lzL3
IGji9PV2oxMDTB4yfEcvFjIUTt8LemoiVHjPacnqp+aCF2oxETh+5PntvqKJQt/0
3/bkI72tSsK6o6kmOWDuAgd0JWywfp9rM+HnNxN3e6Z/Tuh1YdRriRlr5aXfUlxx
JTfWp+LIf81PxES1FXxi89JU0p/FmXqtAgMBAAGjUDBOMAwGA1UdEwEB/wQCMAAw
PgYDVR0fBDcwNTAzoDGgL4YtaHR0cDovL2xvY2FsaG9zdDoxMjAwMS9maWxlLzAv
Y2gxX3RhNF9jcmwucGVtMA0GCSqGSIb3DQEBCwUAA4GBAFNOkyHAL0bhqrwRJbHu
Gm3fuO9dDlk9+x8eYoNmmMtxJrmH30lfjvvs1U1w11dkelgIVN0qhia3m6HdGwBF
s8L5igYXzyjDABN6bINS6qMObj4emFbEaNkfma8RAOVfQk1UT4jEQ+4k7s7OF58T
WvMc6KZ2fHBuYxo7UhzAgwF7
-----END CERTIFICATE-----
