Certificate:
    Data:
        Version: 3 (0x2)
        Serial Number: 31 (0x1f)
    Signature Algorithm: sha256WithRSAEncryption
        Issuer: C=US, ST=California, L=Santa Clara, O=pkg5, CN=ch1.3_ta3/emailAddress=ch1.3_ta3
        Validity
            Not Before: Dec 13 00:13:37 2013 GMT
            Not After : Sep  8 00:13:37 2016 GMT
        Subject: C=US, ST=California, L=Santa Clara, O=pkg5, CN=cs1_ch1.3_ta3/emailAddress=cs1_ch1.3_ta3
        Subject Public Key Info:
            Public Key Algorithm: rsaEncryption
                Public-Key: (1024 bit)
                Modulus:
                    00:fd:95:49:ab:6d:49:08:5c:f2:9b:77:e1:d0:71:
                    4d:98:1b:84:31:e2:90:b2:0a:f6:af:2e:12:5b:31:
                    d0:82:b4:ce:79:12:a5:56:44:d3:a5:49:51:68:45:
                    cc:73:0e:67:6f:05:74:ff:ce:e7:27:8e:21:72:6a:
                    df:58:42:b0:82:5d:ee:5f:9c:bc:be:10:d2:98:49:
                    2a:a6:13:47:ac:27:23:83:fd:90:fd:42:9f:4d:5d:
                    56:02:84:ff:53:40:51:ed:68:99:c6:20:c6:0d:e6:
                    fb:47:f9:d8:42:0b:36:ca:50:69:27:9f:b7:8a:36:
                    f6:5c:1a:0b:3e:9e:d7:12:89
                Exponent: 65537 (0x10001)
        X509v3 extensions:
            X509v3 Basic Constraints: critical
                CA:FALSE
            X509v3 Key Usage: critical
                Digital Signature
    Signature Algorithm: sha256WithRSAEncryption
         50:82:2e:b8:61:6b:62:5f:4f:cf:e8:f9:6f:67:ba:ea:b2:40:
         0c:49:40:e7:8d:db:af:e4:b0:61:8b:3c:6c:e5:43:d8:e9:8c:
         f7:c2:7b:5f:ce:c5:f8:0e:9c:e2:77:6a:38:e2:25:0f:f0:e3:
         d1:14:69:4a:ea:13:8a:91:ad:97:59:27:5e:4e:7c:f7:dc:b0:
         34:94:3c:b7:9e:3f:40:da:44:66:73:f9:2c:8b:7e:d4:85:d8:
         a6:58:fb:39:90:6e:3c:fd:b5:a1:39:82:dc:c3:87:97:d3:a7:
         ce:e1:9d:18:63:27:77:99:fa:a3:c3:d7:d1:67:1d:4e:d0:07:
         c2:9c
-----BEGIN CERTIFICATE-----
MIICiDCCAfGgAwIBAgIBHzANBgkqhkiG9w0BAQsFADB1MQswCQYDVQQGEwJVUzET
MBEGA1UECAwKQ2FsaWZvcm5pYTEUMBIGA1UEBwwLU2FudGEgQ2xhcmExDTALBgNV
BAoMBHBrZzUxEjAQBgNVBAMMCWNoMS4zX3RhMzEYMBYGCSqGSIb3DQEJARYJY2gx
LjNfdGEzMB4XDTEzMTIxMzAwMTMzN1oXDTE2MDkwODAwMTMzN1owfTELMAkGA1UE
BhMCVVMxEzARBgNVBAgMCkNhbGlmb3JuaWExFDASBgNVBAcMC1NhbnRhIENsYXJh
MQ0wCwYDVQQKDARwa2c1MRYwFAYDVQQDDA1jczFfY2gxLjNfdGEzMRwwGgYJKoZI
hvcNAQkBFg1jczFfY2gxLjNfdGEzMIGfMA0GCSqGSIb3DQEBAQUAA4GNADCBiQKB
gQD9lUmrbUkIXPKbd+HQcU2YG4Qx4pCyCvavLhJbMdCCtM55EqVWRNOlSVFoRcxz
DmdvBXT/zucnjiFyat9YQrCCXe5fnLy+ENKYSSqmE0esJyOD/ZD9Qp9NXVYChP9T
QFHtaJnGIMYN5vtH+dhCCzbKUGknn7eKNvZcGgs+ntcSiQIDAQABoyAwHjAMBgNV
HRMBAf8EAjAAMA4GA1UdDwEB/wQEAwIHgDANBgkqhkiG9w0BAQsFAAOBgQBQgi64
YWtiX0/P6PlvZ7rqskAMSUDnjduv5LBhizxs5UPY6Yz3wntfzsX4Dpzid2o44iUP
8OPRFGlK6hOKka2XWSdeTnz33LA0lDy3nj9A2kRmc/ksi37UhdimWPs5kG48/bWh
OYLcw4eX06fO4Z0YYyd3mfqjw9fRZx1O0AfCnA==
-----END CERTIFICATE-----
