Certificate:
    Data:
        Version: 3 (0x2)
        Serial Number: 6 (0x6)
    Signature Algorithm: sha256WithRSAEncryption
        Issuer: C=US, ST=California, L=Santa Clara, O=pkg5, CN=ch5_ta1/emailAddress=ch5_ta1
        Validity
            Not Before: Jan 22 01:57:54 2016 GMT
            Not After : Oct 18 01:57:54 2018 GMT
        Subject: C=US, ST=California, L=Santa Clara, O=pkg5, CN=cs1_ch5_ta1/emailAddress=cs1_ch5_ta1
        Subject Public Key Info:
            Public Key Algorithm: rsaEncryption
                Public-Key: (1024 bit)
                Modulus:
                    00:cf:e4:e6:a1:10:93:8b:7b:2a:9e:01:bb:ce:24:
                    a4:42:74:51:7d:d9:c2:f5:4b:5c:9b:5b:c0:4c:a2:
                    e2:e2:bf:9f:64:24:e9:bd:22:56:62:3b:f1:f2:49:
                    c0:91:63:0a:48:a6:68:cb:36:b9:b1:9c:57:b1:5e:
                    12:80:f8:26:c3:6e:c8:74:39:4a:23:39:bc:47:63:
                    e5:ab:18:b7:22:be:d7:5c:00:f5:a6:ec:0d:fb:0d:
                    cb:bd:fd:ae:b0:f2:e1:4c:c7:33:3b:50:1c:01:86:
                    e7:1d:34:5e:d8:72:19:c5:87:78:06:f2:f5:af:d7:
                    93:33:12:3a:4a:8a:4b:43:23
                Exponent: 65537 (0x10001)
        X509v3 extensions:
            X509v3 Basic Constraints: critical
                CA:FALSE
            X509v3 Key Usage: critical
                Digital Signature
    Signature Algorithm: sha256WithRSAEncryption
         7a:3f:1c:dd:05:05:04:00:12:66:28:10:1f:df:70:2b:5a:31:
         1e:a4:c7:59:59:45:45:0e:f7:1e:99:2f:a2:fe:c5:a9:93:c6:
         a8:a1:2b:b2:1d:56:a8:47:87:e7:46:25:f9:4c:bf:c2:65:cf:
         62:d9:e9:cc:91:11:98:43:81:e1:45:de:49:03:06:d0:b3:60:
         5a:d7:07:06:2e:fa:7b:32:24:b0:b2:6a:49:b1:aa:86:75:cf:
         9a:91:d7:b2:8b:ce:7a:22:6c:18:d7:87:51:2b:1d:86:fb:28:
         d4:64:37:59:68:70:73:07:8b:61:b9:74:fc:1a:cc:16:4b:5a:
         e8:98:7e:f7:0a:d7:6c:28:7a:06:3e:9f:55:d7:19:d9:03:b4:
         f2:a5:60:b0:34:c1:53:7b:0d:1c:fa:1c:80:7b:f1:9d:fd:38:
         33:2b:c9:cc:ec:b8:73:24:db:22:81:34:f5:e7:ca:73:eb:e2:
         ed:16:52:87:cc:92:e4:25:cb:19:9c:3f:2d:ec:2d:63:9d:24:
         35:0e:09:eb:9e:eb:22:10:df:98:b4:62:2f:3e:bd:d2:0d:7f:
         a4:d6:19:f2:80:64:7e:bf:e5:33:70:b1:d7:22:5e:b6:b2:f5:
         33:3a:3a:b6:e7:e4:c0:03:5e:b0:2f:1b:5b:fc:6b:37:d0:68:
         13:9d:ca:6f
-----BEGIN CERTIFICATE-----
MIIDATCCAemgAwIBAgIBBjANBgkqhkiG9w0BAQsFADBxMQswCQYDVQQGEwJVUzET
MBEGA1UECAwKQ2FsaWZvcm5pYTEUMBIGA1UEBwwLU2FudGEgQ2xhcmExDTALBgNV
BAoMBHBrZzUxEDAOBgNVBAMMB2NoNV90YTExFjAUBgkqhkiG9w0BCQEWB2NoNV90
YTEwHhcNMTYwMTIyMDE1NzU0WhcNMTgxMDE4MDE1NzU0WjB5MQswCQYDVQQGEwJV
UzETMBEGA1UECAwKQ2FsaWZvcm5pYTEUMBIGA1UEBwwLU2FudGEgQ2xhcmExDTAL
BgNVBAoMBHBrZzUxFDASBgNVBAMMC2NzMV9jaDVfdGExMRowGAYJKoZIhvcNAQkB
FgtjczFfY2g1X3RhMTCBnzANBgkqhkiG9w0BAQEFAAOBjQAwgYkCgYEAz+TmoRCT
i3sqngG7ziSkQnRRfdnC9Utcm1vATKLi4r+fZCTpvSJWYjvx8knAkWMKSKZoyza5
sZxXsV4SgPgmw27IdDlKIzm8R2Plqxi3Ir7XXAD1puwN+w3Lvf2usPLhTMczO1Ac
AYbnHTRe2HIZxYd4BvL1r9eTMxI6SopLQyMCAwEAAaMgMB4wDAYDVR0TAQH/BAIw
ADAOBgNVHQ8BAf8EBAMCB4AwDQYJKoZIhvcNAQELBQADggEBAHo/HN0FBQQAEmYo
EB/fcCtaMR6kx1lZRUUO9x6ZL6L+xamTxqihK7IdVqhHh+dGJflMv8Jlz2LZ6cyR
EZhDgeFF3kkDBtCzYFrXBwYu+nsyJLCyakmxqoZ1z5qR17KLznoibBjXh1ErHYb7
KNRkN1locHMHi2G5dPwazBZLWuiYfvcK12woegY+n1XXGdkDtPKlYLA0wVN7DRz6
HIB78Z39ODMryczsuHMk2yKBNPXnynPr4u0WUofMkuQlyxmcPy3sLWOdJDUOCeue
6yIQ35i0Yi8+vdINf6TWGfKAZH6/5TNwsdciXray9TM6Orbn5MADXrAvG1v8azfQ
aBOdym8=
-----END CERTIFICATE-----
