Certificate:
    Data:
        Version: 3 (0x2)
        Serial Number: 35 (0x23)
        Signature Algorithm: sha256WithRSAEncryption
        Issuer: C=US, ST=California, L=Menlo Park, O=pkg5, CN=pubCA2_ta4/emailAddress=pubCA2_ta4
        Validity
            Not Before: Jan 28 02:54:24 2011 GMT
            Not After : Oct 24 02:54:24 2013 GMT
        Subject: C=US, ST=California, L=Menlo Park, O=pkg5, CN=cs1_p2_ta4/emailAddress=cs1_p2_ta4
        Subject Public Key Info:
            Public Key Algorithm: rsaEncryption
            RSA Public Key: (1024 bit)
                Modulus (1024 bit):
                    00:cb:fa:59:73:5c:67:c6:f3:3a:0a:79:d9:b8:9d:
                    cd:6e:e5:bf:29:79:9f:d7:a0:1f:60:aa:bb:88:5e:
                    55:07:ae:9e:5e:7e:4c:f1:3a:25:1b:72:62:81:44:
                    2b:94:60:2f:24:37:b1:25:72:4f:14:e3:a5:38:ec:
                    c5:8f:54:d4:e1:90:71:43:86:dc:d1:a9:a2:84:b3:
                    a8:be:e2:ee:ce:57:69:29:e5:69:ac:cd:45:f3:e9:
                    1a:b3:38:f2:a5:e0:a0:8e:d8:0c:05:0a:bf:5e:d8:
                    22:67:60:08:10:ce:37:cb:46:b2:77:fd:56:08:7c:
                    62:d8:fc:5d:69:a6:e6:df:e3
                Exponent: 65537 (0x10001)
        X509v3 extensions:
            X509v3 Basic Constraints: critical
                CA:FALSE
            X509v3 CRL Distribution Points: 
                URI:http://localhost:12001/file/0/pubCA2_ta4_crl.pem

    Signature Algorithm: sha256WithRSAEncryption
        40:b2:b7:46:97:8c:3b:a8:c8:df:59:13:af:2c:a6:59:93:f2:
        d4:28:6f:bf:b1:3f:ac:7b:9d:f6:a8:29:be:15:1a:53:8d:86:
        35:44:25:4b:b5:59:ea:54:07:5c:91:9b:a5:9b:94:a6:de:dc:
        51:be:58:8d:cb:07:fe:1a:1a:1a:12:a5:b3:84:75:f5:9c:83:
        5f:25:4b:d1:81:31:bb:74:d0:fc:92:41:d4:d2:63:b1:0b:96:
        3c:da:b1:0b:1a:f6:6c:96:68:3b:36:6a:33:7c:c3:40:1b:7e:
        4b:e5:dc:88:b4:25:2b:fe:0c:23:df:84:43:28:7c:39:d6:11:
        22:23
-----BEGIN CERTIFICATE-----
MIICtTCCAh6gAwIBAgIBIzANBgkqhkiG9w0BAQsFADB2MQswCQYDVQQGEwJVUzET
MBEGA1UECBMKQ2FsaWZvcm5pYTETMBEGA1UEBxMKTWVubG8gUGFyazENMAsGA1UE
ChMEcGtnNTETMBEGA1UEAxQKcHViQ0EyX3RhNDEZMBcGCSqGSIb3DQEJARYKcHVi
Q0EyX3RhNDAeFw0xMTAxMjgwMjU0MjRaFw0xMzEwMjQwMjU0MjRaMHYxCzAJBgNV
BAYTAlVTMRMwEQYDVQQIEwpDYWxpZm9ybmlhMRMwEQYDVQQHEwpNZW5sbyBQYXJr
MQ0wCwYDVQQKEwRwa2c1MRMwEQYDVQQDFApjczFfcDJfdGE0MRkwFwYJKoZIhvcN
AQkBFgpjczFfcDJfdGE0MIGfMA0GCSqGSIb3DQEBAQUAA4GNADCBiQKBgQDL+llz
XGfG8zoKedm4nc1u5b8peZ/XoB9gqruIXlUHrp5efkzxOiUbcmKBRCuUYC8kN7El
ck8U46U47MWPVNThkHFDhtzRqaKEs6i+4u7OV2kp5WmszUXz6RqzOPKl4KCO2AwF
Cr9e2CJnYAgQzjfLRrJ3/VYIfGLY/F1ppubf4wIDAQABo1MwUTAMBgNVHRMBAf8E
AjAAMEEGA1UdHwQ6MDgwNqA0oDKGMGh0dHA6Ly9sb2NhbGhvc3Q6MTIwMDEvZmls
ZS8wL3B1YkNBMl90YTRfY3JsLnBlbTANBgkqhkiG9w0BAQsFAAOBgQBAsrdGl4w7
qMjfWROvLKZZk/LUKG+/sT+se532qCm+FRpTjYY1RCVLtVnqVAdckZulm5Sm3txR
vliNywf+GhoaEqWzhHX1nINfJUvRgTG7dND8kkHU0mOxC5Y82rELGvZslmg7Nmoz
fMNAG35L5dyItCUr/gwj34RDKHw51hEiIw==
-----END CERTIFICATE-----
