Certificate:
    Data:
        Version: 3 (0x2)
        Serial Number: 42 (0x2a)
        Signature Algorithm: sha256WithRSAEncryption
        Issuer: C=US, ST=California, L=Santa Clara, O=pkg5, OU=ta6, CN=localhost/emailAddress=ta6
        Validity
            Not Before: Mar 18 08:51:46 2026 GMT
            Not After : Dec 12 08:51:46 2028 GMT
        Subject: C=US, ST=California, L=Santa Clara, O=pkg5, OU=cs1_ta6, CN=localhost/emailAddress=cs1_ta6
        Subject Public Key Info:
            Public Key Algorithm: rsaEncryption
                Public-Key: (2048 bit)
                Modulus:
                    00:c1:09:37:73:8c:24:ad:3c:c0:87:53:ab:e2:e1:
                    df:72:b3:17:ea:51:e4:49:2e:31:86:ff:f5:30:f9:
                    8b:db:71:99:e1:40:8c:1e:51:c1:9b:95:d0:a4:8d:
                    ff:57:97:f6:6a:35:99:0a:18:a8:74:5a:f0:be:f9:
                    71:88:a9:84:47:29:0a:95:85:14:e2:6f:cb:73:84:
                    ed:b0:81:64:e9:bb:ce:fc:1d:a8:f5:62:4e:2f:62:
                    7f:18:70:30:27:f9:5b:bf:39:dc:4b:a6:d3:c8:79:
                    c8:c5:64:72:d0:34:d0:8c:42:4e:bd:1b:8f:12:a0:
                    00:3e:80:d7:5c:13:76:1d:12:86:d1:1d:57:e9:35:
                    f1:44:18:b2:1a:79:94:c3:b3:bb:40:87:68:2a:61:
                    06:91:2f:95:08:64:2f:07:87:3b:7a:3d:d5:ee:85:
                    32:d9:cf:77:4a:21:4f:f1:cd:6d:b2:fa:a4:ce:fc:
                    b9:b4:37:20:1e:15:3b:97:78:61:b7:00:7e:58:82:
                    ae:ce:7f:6d:1a:4e:bd:dd:24:88:62:01:94:ef:bb:
                    34:d4:dc:ec:69:80:e5:89:9d:f9:d7:e9:c5:f5:06:
                    7a:05:23:5a:d7:7e:59:e4:b0:19:33:1c:48:06:f6:
                    01:4f:f4:4f:01:ec:93:aa:6e:4e:56:91:91:85:14:
                    d8:a1
                Exponent: 65537 (0x10001)
        X509v3 extensions:
            X509v3 Basic Constraints: critical
                CA:FALSE
            X509v3 Key Usage: critical
                Digital Signature
            X509v3 Subject Key Identifier: 
                AC:36:6E:94:76:7F:29:40:D8:E3:27:7C:58:02:D8:4D:58:77:A9:62
            X509v3 Authority Key Identifier: 
                9D:9A:19:B7:0F:4E:D7:3A:24:87:E6:86:B8:BF:D8:D5:E8:57:09:56
    Signature Algorithm: sha256WithRSAEncryption
    Signature Value:
        77:7d:18:39:1c:c7:c6:85:73:b2:2d:6c:0c:b1:4e:1e:d2:ae:
        f0:e1:dd:41:1d:b8:64:aa:02:40:4f:11:4a:ff:70:85:ef:21:
        67:4d:dd:86:1b:54:87:7f:69:43:2c:56:a4:6f:82:fa:11:d5:
        f3:60:4c:e5:57:4e:07:08:13:d8:0b:29:6a:e4:9d:ac:ee:5b:
        f2:c5:0d:fc:6f:6c:83:ad:5e:71:75:eb:98:bf:69:e3:47:34:
        99:6a:d3:6b:1d:74:79:22:be:0d:c6:c3:ce:f4:75:a7:3d:c4:
        d1:d1:ce:ee:c9:01:fe:2f:91:90:57:79:01:b5:72:89:23:64:
        56:ba:34:aa:50:d1:ed:35:4e:ec:7a:ca:be:b7:11:a0:80:a6:
        6d:59:45:37:ed:ac:df:fd:f0:ae:5a:2f:ea:45:57:0f:8b:f9:
        8e:c2:5e:b7:4a:9a:27:ef:0b:f2:44:c0:64:ac:3c:c6:ab:87:
        7b:20:f7:39:05:4c:40:9c:ac:41:8d:77:4c:60:48:9d:7d:94:
        6d:77:a9:8a:57:5f:b6:7e:0e:9b:57:d1:eb:3a:b5:95:91:73:
        60:98:59:af:c5:e0:83:b2:cb:fb:a2:1a:2a:a0:19:a7:d2:04:
        79:34:2f:1d:eb:84:3d:8c:91:34:ad:82:e6:5e:f5:00:f7:01:
        fd:55:22:89
-----BEGIN CERTIFICATE-----
MIID3jCCAsagAwIBAgIBKjANBgkqhkiG9w0BAQsFADB9MQswCQYDVQQGEwJVUzET
MBEGA1UECAwKQ2FsaWZvcm5pYTEUMBIGA1UEBwwLU2FudGEgQ2xhcmExDTALBgNV
BAoMBHBrZzUxDDAKBgNVBAsMA3RhNjESMBAGA1UEAwwJbG9jYWxob3N0MRIwEAYJ
KoZIhvcNAQkBFgN0YTYwHhcNMjYwMzE4MDg1MTQ2WhcNMjgxMjEyMDg1MTQ2WjCB
hTELMAkGA1UEBhMCVVMxEzARBgNVBAgMCkNhbGlmb3JuaWExFDASBgNVBAcMC1Nh
bnRhIENsYXJhMQ0wCwYDVQQKDARwa2c1MRAwDgYDVQQLDAdjczFfdGE2MRIwEAYD
VQQDDAlsb2NhbGhvc3QxFjAUBgkqhkiG9w0BCQEWB2NzMV90YTYwggEiMA0GCSqG
SIb3DQEBAQUAA4IBDwAwggEKAoIBAQDBCTdzjCStPMCHU6vi4d9ysxfqUeRJLjGG
//Uw+YvbcZnhQIweUcGbldCkjf9Xl/ZqNZkKGKh0WvC++XGIqYRHKQqVhRTib8tz
hO2wgWTpu878Haj1Yk4vYn8YcDAn+Vu/OdxLptPIecjFZHLQNNCMQk69G48SoAA+
gNdcE3YdEobRHVfpNfFEGLIaeZTDs7tAh2gqYQaRL5UIZC8Hhzt6PdXuhTLZz3dK
IU/xzW2y+qTO/Lm0NyAeFTuXeGG3AH5Ygq7Of20aTr3dJIhiAZTvuzTU3OxpgOWJ
nfnX6cX1BnoFI1rXflnksBkzHEgG9gFP9E8B7JOqbk5WkZGFFNihAgMBAAGjYDBe
MAwGA1UdEwEB/wQCMAAwDgYDVR0PAQH/BAQDAgeAMB0GA1UdDgQWBBSsNm6Udn8p
QNjjJ3xYAthNWHepYjAfBgNVHSMEGDAWgBSdmhm3D07XOiSH5oa4v9jV6FcJVjAN
BgkqhkiG9w0BAQsFAAOCAQEAd30YORzHxoVzsi1sDLFOHtKu8OHdQR24ZKoCQE8R
Sv9whe8hZ03dhhtUh39pQyxWpG+C+hHV82BM5VdOBwgT2AspauSdrO5b8sUN/G9s
g61ecXXrmL9p40c0mWrTax10eSK+DcbDzvR1pz3E0dHO7skB/i+RkFd5AbVyiSNk
Vro0qlDR7TVO7HrKvrcRoICmbVlFN+2s3/3wrlov6kVXD4v5jsJet0qaJ+8L8kTA
ZKw8xquHeyD3OQVMQJysQY13TGBInX2UbXepildftn4Om1fR6zq1lZFzYJhZr8Xg
g7LL+6IaKqAZp9IEeTQvHeuEPYyRNK2C5l71APcB/VUiiQ==
-----END CERTIFICATE-----
