Certificate:
    Data:
        Version: 3 (0x2)
        Serial Number: 9 (0x9)
        Signature Algorithm: sha256WithRSAEncryption
        Issuer: C=US, ST=California, L=Menlo Park, O=pkg5, CN=ch5.1_ta1/emailAddress=ch5.1_ta1
        Validity
            Not Before: Mar 21 00:49:24 2011 GMT
            Not After : Dec 15 00:49:24 2013 GMT
        Subject: C=US, ST=California, L=Menlo Park, O=pkg5, CN=cs1_ch5.1_ta1/emailAddress=cs1_ch5.1_ta1
        Subject Public Key Info:
            Public Key Algorithm: rsaEncryption
            RSA Public Key: (1024 bit)
                Modulus (1024 bit):
                    00:bf:ce:74:08:89:5a:78:fe:33:bc:42:8f:19:79:
                    0f:76:ce:ff:da:f1:32:62:4a:34:ee:54:3a:81:61:
                    9a:02:81:02:4b:77:c7:7c:ef:50:99:68:f4:40:4d:
                    fa:41:a3:a4:86:a4:9c:6a:45:2b:99:15:ba:d8:d5:
                    97:f5:30:25:c0:f3:7c:a1:eb:50:58:8e:23:04:b0:
                    72:ea:bb:21:fc:6c:37:37:ab:85:c3:36:8c:42:dc:
                    83:12:6a:a1:b1:3e:8b:f9:b6:4c:43:8e:38:15:c1:
                    40:22:f8:7d:59:c0:9c:f6:75:85:0d:ed:43:4c:d8:
                    7f:84:c8:dd:a4:7d:66:c4:63
                Exponent: 65537 (0x10001)
        X509v3 extensions:
            X509v3 Basic Constraints: critical
                CA:FALSE
            X509v3 Key Usage: critical
                Digital Signature
    Signature Algorithm: sha256WithRSAEncryption
        35:e5:fc:ad:b3:07:3c:23:cc:b9:a1:82:8c:2e:97:3a:65:e1:
        25:03:16:50:e7:a3:69:cb:bf:e3:5e:be:59:60:ba:96:af:44:
        01:18:de:2e:c7:5f:cf:19:ca:59:fc:01:f5:86:e0:5e:e9:c6:
        70:9e:4c:e7:e1:ad:41:1b:be:11:a8:bb:cd:28:67:a8:7d:81:
        ec:55:25:5e:c6:c7:c3:f2:42:3e:07:e8:68:ca:5c:41:dd:34:
        b4:de:b2:f4:cb:dd:b3:e9:76:07:4c:d3:87:b1:4f:56:39:40:
        77:03:42:ae:80:be:d3:ae:cb:75:80:09:82:87:7c:3b:2a:e0:
        bd:04
-----BEGIN CERTIFICATE-----
MIIChjCCAe+gAwIBAgIBCTANBgkqhkiG9w0BAQsFADB0MQswCQYDVQQGEwJVUzET
MBEGA1UECBMKQ2FsaWZvcm5pYTETMBEGA1UEBxMKTWVubG8gUGFyazENMAsGA1UE
ChMEcGtnNTESMBAGA1UEAxQJY2g1LjFfdGExMRgwFgYJKoZIhvcNAQkBFgljaDUu
MV90YTEwHhcNMTEwMzIxMDA0OTI0WhcNMTMxMjE1MDA0OTI0WjB8MQswCQYDVQQG
EwJVUzETMBEGA1UECBMKQ2FsaWZvcm5pYTETMBEGA1UEBxMKTWVubG8gUGFyazEN
MAsGA1UEChMEcGtnNTEWMBQGA1UEAxQNY3MxX2NoNS4xX3RhMTEcMBoGCSqGSIb3
DQEJARYNY3MxX2NoNS4xX3RhMTCBnzANBgkqhkiG9w0BAQEFAAOBjQAwgYkCgYEA
v850CIlaeP4zvEKPGXkPds7/2vEyYko07lQ6gWGaAoECS3fHfO9QmWj0QE36QaOk
hqScakUrmRW62NWX9TAlwPN8oetQWI4jBLBy6rsh/Gw3N6uFwzaMQtyDEmqhsT6L
+bZMQ444FcFAIvh9WcCc9nWFDe1DTNh/hMjdpH1mxGMCAwEAAaMgMB4wDAYDVR0T
AQH/BAIwADAOBgNVHQ8BAf8EBAMCB4AwDQYJKoZIhvcNAQELBQADgYEANeX8rbMH
PCPMuaGCjC6XOmXhJQMWUOejacu/416+WWC6lq9EARjeLsdfzxnKWfwB9YbgXunG
cJ5M5+GtQRu+Eai7zShnqH2B7FUlXsbHw/JCPgfoaMpcQd00tN6y9Mvds+l2B0zT
h7FPVjlAdwNCroC+067LdYAJgod8OyrgvQQ=
-----END CERTIFICATE-----
