Certificate:
    Data:
        Version: 3 (0x2)
        Serial Number: 46 (0x2e)
    Signature Algorithm: sha256WithRSAEncryption
        Issuer: C=US, ST=California, L=Santa Clara, O=pkg5, OU=ta10, CN=localhost/emailAddress=ta10
        Validity
            Not Before: Dec 13 00:13:39 2013 GMT
            Not After : Sep  8 00:13:39 2016 GMT
        Subject: C=US, ST=California, L=Santa Clara, O=pkg5, OU=cs1_ta10, CN=localhost/emailAddress=cs1_ta10
        Subject Public Key Info:
            Public Key Algorithm: rsaEncryption
                Public-Key: (1024 bit)
                Modulus:
                    00:da:a5:56:23:b3:4b:c1:5a:2a:3c:95:5e:5e:98:
                    21:7b:82:e5:7d:87:c2:b0:ef:f4:7c:1d:88:3c:f0:
                    8d:c0:b3:da:44:fa:3e:1d:87:ca:86:7f:f6:64:5c:
                    81:7c:4b:98:3b:0e:3e:ac:49:d9:dd:27:67:ef:a1:
                    a7:b5:25:2e:62:f3:89:de:d4:46:a4:b3:76:16:67:
                    1a:62:0e:d9:e7:03:67:aa:0a:b7:b2:2c:16:be:e3:
                    d4:ca:8b:f6:2a:25:49:61:04:64:3b:e2:e5:94:e5:
                    dc:81:a1:ff:e1:40:fc:e5:ef:3b:70:d0:40:2c:cb:
                    3c:ea:d7:47:8f:1d:f8:47:3d
                Exponent: 65537 (0x10001)
        X509v3 extensions:
            X509v3 Basic Constraints: critical
                CA:FALSE
            X509v3 Key Usage: critical
                Digital Signature
    Signature Algorithm: sha256WithRSAEncryption
         6a:5b:26:9c:14:d2:2b:37:ba:32:2b:66:b7:a6:de:9f:03:85:
         63:e7:59:c7:05:1f:72:04:44:01:49:d0:88:a9:23:c7:a0:20:
         c2:6c:bb:0b:52:06:ee:34:b4:37:af:41:ad:e0:16:8f:8c:3d:
         04:98:98:62:2f:45:66:57:c4:25:db:3e:16:09:ff:8c:07:63:
         7e:59:31:24:ed:68:91:2d:b8:2e:3c:91:74:61:7e:8c:5e:e4:
         5c:3f:9f:ff:05:99:20:78:b9:be:6b:79:e6:aa:91:9e:85:25:
         07:79:dc:2b:22:dd:19:81:d5:c6:a9:e9:a8:5a:da:c6:09:8e:
         91:c7
-----BEGIN CERTIFICATE-----
MIICnTCCAgagAwIBAgIBLjANBgkqhkiG9w0BAQsFADB/MQswCQYDVQQGEwJVUzET
MBEGA1UECAwKQ2FsaWZvcm5pYTEUMBIGA1UEBwwLU2FudGEgQ2xhcmExDTALBgNV
BAoMBHBrZzUxDTALBgNVBAsMBHRhMTAxEjAQBgNVBAMMCWxvY2FsaG9zdDETMBEG
CSqGSIb3DQEJARYEdGExMDAeFw0xMzEyMTMwMDEzMzlaFw0xNjA5MDgwMDEzMzla
MIGHMQswCQYDVQQGEwJVUzETMBEGA1UECAwKQ2FsaWZvcm5pYTEUMBIGA1UEBwwL
U2FudGEgQ2xhcmExDTALBgNVBAoMBHBrZzUxETAPBgNVBAsMCGNzMV90YTEwMRIw
EAYDVQQDDAlsb2NhbGhvc3QxFzAVBgkqhkiG9w0BCQEWCGNzMV90YTEwMIGfMA0G
CSqGSIb3DQEBAQUAA4GNADCBiQKBgQDapVYjs0vBWio8lV5emCF7guV9h8Kw7/R8
HYg88I3As9pE+j4dh8qGf/ZkXIF8S5g7Dj6sSdndJ2fvoae1JS5i84ne1Eaks3YW
ZxpiDtnnA2eqCreyLBa+49TKi/YqJUlhBGQ74uWU5dyBof/hQPzl7ztw0EAsyzzq
10ePHfhHPQIDAQABoyAwHjAMBgNVHRMBAf8EAjAAMA4GA1UdDwEB/wQEAwIHgDAN
BgkqhkiG9w0BAQsFAAOBgQBqWyacFNIrN7oyK2a3pt6fA4Vj51nHBR9yBEQBSdCI
qSPHoCDCbLsLUgbuNLQ3r0Gt4BaPjD0EmJhiL0VmV8Ql2z4WCf+MB2N+WTEk7WiR
LbguPJF0YX6MXuRcP5//BZkgeLm+a3nmqpGehSUHedwrIt0ZgdXGqemoWtrGCY6R
xw==
-----END CERTIFICATE-----
