Certificate:
    Data:
        Version: 3 (0x2)
        Serial Number: 45 (0x2d)
    Signature Algorithm: sha256WithRSAEncryption
        Issuer: C=US, ST=California, L=Santa Clara, O=pkg5, OU=ta9, CN=localhost/emailAddress=ta9
        Validity
            Not Before: Jan 22 15:33:16 2019 GMT
            Not After : Oct 18 15:33:16 2021 GMT
        Subject: C=US, ST=California, L=Santa Clara, O=pkg5, OU=cs1_ta9, CN=localhost/emailAddress=cs1_ta9
        Subject Public Key Info:
            Public Key Algorithm: rsaEncryption
                Public-Key: (1024 bit)
                Modulus:
                    00:e3:de:88:65:99:a5:21:a5:d8:84:35:8d:61:18:
                    ad:d7:c6:3d:4c:0e:fe:55:b2:12:32:0e:41:e8:04:
                    de:76:48:7e:5e:21:a3:7b:a3:fd:f2:76:b1:eb:0c:
                    0e:73:27:a1:16:fb:b0:73:35:98:f9:76:39:09:ef:
                    cc:f6:f6:ec:61:4d:03:61:42:3c:26:72:24:29:8c:
                    8c:3c:c3:8f:69:85:5a:3f:d8:34:4d:81:8f:a4:d6:
                    2a:dd:a3:22:06:0d:5b:be:40:d7:04:7f:e8:1d:da:
                    d3:6c:9d:fb:7d:a8:62:60:2a:90:71:fa:c2:a3:ec:
                    2a:18:7c:bb:6e:08:3e:98:25
                Exponent: 65537 (0x10001)
        X509v3 extensions:
            X509v3 Basic Constraints: critical
                CA:FALSE
            X509v3 Key Usage: critical
                Digital Signature
    Signature Algorithm: sha256WithRSAEncryption
         7c:dc:ff:d9:23:4f:d5:65:05:66:57:16:d6:32:c9:d1:41:e3:
         06:7e:56:25:e9:45:59:d9:90:76:ba:5b:43:a3:ef:36:33:fb:
         6f:5f:9c:65:07:ee:9f:08:c2:75:14:c9:61:fc:f5:52:fc:1d:
         c9:b7:a6:15:0f:0f:42:f7:c6:ff:2b:1f:8a:81:c2:52:97:10:
         13:56:c9:48:67:3d:95:3e:be:1f:0a:27:04:cf:09:10:e6:5a:
         d0:70:60:ef:d6:b5:2e:84:95:03:da:04:74:b8:50:c5:c6:a1:
         a0:13:b5:0d:8a:06:92:61:b4:08:b1:d0:72:e3:34:34:81:f2:
         71:e1:b1:e7:c3:54:e7:4f:c4:92:09:e6:0c:3d:bf:9e:1e:3b:
         34:ee:30:e4:0d:cb:3b:5b:99:3b:a4:66:76:51:46:79:8a:ee:
         04:a0:38:82:5f:2a:2b:dd:fa:7a:f0:f2:9f:d5:c3:53:54:48:
         67:d4:a7:17:50:3f:93:ba:1b:df:16:c5:0e:91:e0:fa:ef:94:
         e8:65:3b:b9:d6:55:8b:48:23:6a:64:e6:cb:bf:23:f2:52:0c:
         33:f7:45:5d:cb:7e:ac:ae:61:35:63:a6:b0:4e:4b:c8:36:74:
         d7:d6:3b:ca:46:3d:37:1d:5f:63:0e:8a:0d:ec:97:8a:de:ea:
         0b:03:0a:87
-----BEGIN CERTIFICATE-----
MIIDGjCCAgKgAwIBAgIBLTANBgkqhkiG9w0BAQsFADB9MQswCQYDVQQGEwJVUzET
MBEGA1UECAwKQ2FsaWZvcm5pYTEUMBIGA1UEBwwLU2FudGEgQ2xhcmExDTALBgNV
BAoMBHBrZzUxDDAKBgNVBAsMA3RhOTESMBAGA1UEAwwJbG9jYWxob3N0MRIwEAYJ
KoZIhvcNAQkBFgN0YTkwHhcNMTkwMTIyMTUzMzE2WhcNMjExMDE4MTUzMzE2WjCB
hTELMAkGA1UEBhMCVVMxEzARBgNVBAgMCkNhbGlmb3JuaWExFDASBgNVBAcMC1Nh
bnRhIENsYXJhMQ0wCwYDVQQKDARwa2c1MRAwDgYDVQQLDAdjczFfdGE5MRIwEAYD
VQQDDAlsb2NhbGhvc3QxFjAUBgkqhkiG9w0BCQEWB2NzMV90YTkwgZ8wDQYJKoZI
hvcNAQEBBQADgY0AMIGJAoGBAOPeiGWZpSGl2IQ1jWEYrdfGPUwO/lWyEjIOQegE
3nZIfl4ho3uj/fJ2sesMDnMnoRb7sHM1mPl2OQnvzPb27GFNA2FCPCZyJCmMjDzD
j2mFWj/YNE2Bj6TWKt2jIgYNW75A1wR/6B3a02yd+32oYmAqkHH6wqPsKhh8u24I
PpglAgMBAAGjIDAeMAwGA1UdEwEB/wQCMAAwDgYDVR0PAQH/BAQDAgeAMA0GCSqG
SIb3DQEBCwUAA4IBAQB83P/ZI0/VZQVmVxbWMsnRQeMGflYl6UVZ2ZB2ultDo+82
M/tvX5xlB+6fCMJ1FMlh/PVS/B3Jt6YVDw9C98b/Kx+KgcJSlxATVslIZz2VPr4f
CicEzwkQ5lrQcGDv1rUuhJUD2gR0uFDFxqGgE7UNigaSYbQIsdBy4zQ0gfJx4bHn
w1TnT8SSCeYMPb+eHjs07jDkDcs7W5k7pGZ2UUZ5iu4EoDiCXyor3fp68PKf1cNT
VEhn1KcXUD+TuhvfFsUOkeD675ToZTu51lWLSCNqZObLvyPyUgwz90Vdy36srmE1
Y6awTkvINnTX1jvKRj03HV9jDooN7JeK3uoLAwqH
-----END CERTIFICATE-----
