Certificate:
    Data:
        Version: 3 (0x2)
        Serial Number: 15 (0xf)
    Signature Algorithm: sha256WithRSAEncryption
        Issuer: C=US, ST=California, L=Santa Clara, O=pkg5, CN=ta2/emailAddress=ta2
        Validity
            Not Before: Sep 22 05:33:20 2021 GMT
            Not After : Jun 18 05:33:20 2024 GMT
        Subject: C=US, ST=California, L=Santa Clara, O=pkg5, CN=cs1_ta2/emailAddress=cs1_ta2
        Subject Public Key Info:
            Public Key Algorithm: rsaEncryption
                Public-Key: (1024 bit)
                Modulus:
                    00:cc:55:21:30:2b:17:60:72:46:a5:fa:73:93:16:
                    66:21:4c:70:1f:20:d1:bf:0f:5c:82:87:25:c7:ff:
                    0f:d7:d2:9d:ee:ba:77:3b:42:50:eb:f8:d6:9c:f3:
                    19:3f:d2:f2:b8:aa:0e:2f:90:ac:b1:7d:fc:e0:75:
                    7d:92:bc:4e:59:5e:09:80:a3:99:fb:b3:fa:df:9f:
                    2c:ee:e9:d5:76:20:dd:b9:7f:10:0f:74:2f:b6:0d:
                    06:65:57:b1:bf:4c:02:45:42:5b:ed:67:a3:0d:6a:
                    e3:36:b6:d2:e0:1b:ff:a4:f6:cf:7a:15:e3:20:9d:
                    4d:38:e1:4d:01:33:5b:13:eb
                Exponent: 65537 (0x10001)
        X509v3 extensions:
            X509v3 Basic Constraints: critical
                CA:FALSE
            X509v3 Key Usage: critical
                Digital Signature
    Signature Algorithm: sha256WithRSAEncryption
         15:99:13:eb:0d:f0:ae:ef:e2:15:12:b4:e2:18:ac:87:6d:bf:
         19:0c:90:9b:9b:a0:06:fb:f1:2e:3e:e4:6a:18:88:51:bb:0a:
         75:ce:85:1e:77:2b:de:7d:8c:ce:7c:22:ee:ec:6b:b7:c5:4d:
         98:ac:f8:7f:9f:04:63:95:1f:55:5d:08:76:79:70:9d:11:c2:
         3b:06:2e:af:e3:38:54:e6:8e:ed:f7:78:d9:67:17:eb:7a:fb:
         ea:7f:7e:6e:ce:23:6f:f1:a5:5e:7b:6d:f5:31:2f:df:67:ee:
         16:54:ab:8f:6f:b9:67:c4:4a:3a:06:8a:32:5d:45:2b:f6:6f:
         59:49:6d:a5:b5:fe:5d:97:8a:35:f4:65:31:bb:2b:0b:64:75:
         c5:3b:c2:7a:bd:b3:9c:12:01:0a:38:94:64:0d:97:5e:59:20:
         f1:b4:f0:e3:8e:2e:5e:ff:a5:a1:d8:85:a5:d1:ef:0b:6f:f4:
         b4:7a:65:0a:de:85:df:b8:d5:e3:8c:0d:d1:80:70:3d:ab:cc:
         82:fc:b2:65:65:cb:79:bc:18:71:7a:af:55:a3:f5:f6:8d:8a:
         af:55:8e:83:be:c7:9e:30:f9:a0:22:45:c0:c5:85:00:38:6a:
         a5:5b:53:c4:e9:f5:54:d1:ad:bb:aa:82:dd:53:52:de:97:26:
         d1:b8:5c:56
-----BEGIN CERTIFICATE-----
MIIC8TCCAdmgAwIBAgIBDzANBgkqhkiG9w0BAQsFADBpMQswCQYDVQQGEwJVUzET
MBEGA1UECAwKQ2FsaWZvcm5pYTEUMBIGA1UEBwwLU2FudGEgQ2xhcmExDTALBgNV
BAoMBHBrZzUxDDAKBgNVBAMMA3RhMjESMBAGCSqGSIb3DQEJARYDdGEyMB4XDTIx
MDkyMjA1MzMyMFoXDTI0MDYxODA1MzMyMFowcTELMAkGA1UEBhMCVVMxEzARBgNV
BAgMCkNhbGlmb3JuaWExFDASBgNVBAcMC1NhbnRhIENsYXJhMQ0wCwYDVQQKDARw
a2c1MRAwDgYDVQQDDAdjczFfdGEyMRYwFAYJKoZIhvcNAQkBFgdjczFfdGEyMIGf
MA0GCSqGSIb3DQEBAQUAA4GNADCBiQKBgQDMVSEwKxdgckal+nOTFmYhTHAfING/
D1yChyXH/w/X0p3uunc7QlDr+Nac8xk/0vK4qg4vkKyxffzgdX2SvE5ZXgmAo5n7
s/rfnyzu6dV2IN25fxAPdC+2DQZlV7G/TAJFQlvtZ6MNauM2ttLgG/+k9s96FeMg
nU044U0BM1sT6wIDAQABoyAwHjAMBgNVHRMBAf8EAjAAMA4GA1UdDwEB/wQEAwIH
gDANBgkqhkiG9w0BAQsFAAOCAQEAFZkT6w3wru/iFRK04hish22/GQyQm5ugBvvx
Lj7kahiIUbsKdc6FHncr3n2Mznwi7uxrt8VNmKz4f58EY5UfVV0IdnlwnRHCOwYu
r+M4VOaO7fd42WcX63r76n9+bs4jb/GlXntt9TEv32fuFlSrj2+5Z8RKOgaKMl1F
K/ZvWUltpbX+XZeKNfRlMbsrC2R1xTvCer2znBIBCjiUZA2XXlkg8bTw444uXv+l
odiFpdHvC2/0tHplCt6F37jV44wN0YBwPavMgvyyZWXLebwYcXqvVaP19o2Kr1WO
g77HnjD5oCJFwMWFADhqpVtTxOn1VNGtu6qC3VNS3pcm0bhcVg==
-----END CERTIFICATE-----
