Certificate:
    Data:
        Version: 3 (0x2)
        Serial Number: 11 (0xb)
    Signature Algorithm: sha256WithRSAEncryption
        Issuer: C=US, ST=California, L=Santa Clara, O=pkg5, CN=ch5.2_ta1/emailAddress=ch5.2_ta1
        Validity
            Not Before: Jul 19 11:35:45 2023 GMT
            Not After : Apr 14 11:35:45 2026 GMT
        Subject: C=US, ST=California, L=Santa Clara, O=pkg5, CN=cs1_ch5.2_ta1/emailAddress=cs1_ch5.2_ta1
        Subject Public Key Info:
            Public Key Algorithm: rsaEncryption
                Public-Key: (2048 bit)
                Modulus:
                    00:d9:03:b3:54:4b:3c:af:1d:c1:af:71:e3:9c:ed:
                    84:c0:d8:71:9c:5a:36:d3:22:1d:11:5a:79:30:35:
                    d8:86:47:e4:bc:d5:7a:e4:e4:a8:d3:81:1f:32:29:
                    4e:7d:36:13:a3:90:21:ed:20:af:da:96:9c:7d:e5:
                    75:8f:28:4e:bc:7e:b7:bf:9e:ac:8b:86:69:ae:b7:
                    db:76:e1:1a:8f:c0:9a:97:1c:27:b6:84:58:1a:75:
                    f6:f2:8d:f1:a5:59:03:99:b8:3a:7d:26:04:31:93:
                    5d:cc:fd:ca:b4:c8:13:fa:66:18:77:34:96:1f:25:
                    12:41:52:3f:24:95:76:20:92:d7:d8:a9:fb:04:5e:
                    4b:8c:1f:65:d1:05:54:2d:e8:c6:d1:df:6e:1f:70:
                    d8:a2:29:ad:d4:95:ed:c8:77:7a:b8:23:ad:31:db:
                    4d:92:6a:ff:b1:e5:08:41:52:32:c8:f8:c5:5d:e7:
                    74:5b:d8:e7:27:9a:42:a0:f7:dd:0e:12:bc:74:54:
                    49:c0:d3:c6:41:f2:70:fd:7c:d2:bb:8c:e8:de:79:
                    56:99:3e:0a:5e:49:f8:ee:e7:5d:44:5f:51:12:7d:
                    42:fb:1a:8f:85:b5:19:97:a1:77:2f:24:ef:b7:4a:
                    88:de:0f:9d:ff:1d:4f:87:76:5c:bb:95:c4:86:0d:
                    a4:1b
                Exponent: 65537 (0x10001)
        X509v3 extensions:
            X509v3 Basic Constraints: critical
                CA:FALSE
            X509v3 Key Usage: critical
                Digital Signature
    Signature Algorithm: sha256WithRSAEncryption
         bf:7e:e3:18:18:7f:e5:6a:ea:07:7c:9d:0c:ef:1f:00:25:a8:
         2e:5f:cb:43:2c:15:cd:11:8a:28:b1:bb:ec:b9:f2:69:e5:42:
         51:70:f9:99:7b:11:9b:7a:14:ac:7b:0a:9d:95:0b:ae:6f:92:
         18:55:1a:72:eb:19:87:f1:08:df:e8:81:fa:dd:1a:10:9d:3e:
         01:b9:a2:67:0a:7c:77:25:43:af:c9:ce:e9:e2:1d:f2:76:c0:
         16:01:c1:4f:86:46:ca:61:fa:ac:21:7f:89:89:35:ef:cd:41:
         ca:e7:17:a1:17:6d:30:74:aa:6c:6f:8f:66:47:6f:76:fa:d9:
         53:56:b9:1d:a8:55:f3:b0:23:a1:8d:23:62:94:29:37:75:04:
         2f:c9:30:25:54:a1:1e:5a:3c:06:7d:e9:5a:08:e4:98:34:7a:
         0c:c9:81:76:b5:9e:37:0f:4f:8e:ce:bc:46:25:82:80:fc:a1:
         61:34:91:fb:0e:b7:7a:04:20:f9:17:94:15:a8:1c:c8:da:5c:
         69:73:f2:bb:97:85:62:4e:fa:22:3b:03:fa:d5:c4:35:98:1e:
         ef:6e:cd:64:df:31:06:cd:bb:67:6d:2c:13:68:fa:8d:da:1f:
         db:e4:71:a9:cc:21:9d:ac:73:c6:35:5d:14:74:98:08:f7:e8:
         86:7f:20:1b
-----BEGIN CERTIFICATE-----
MIIDjTCCAnWgAwIBAgIBCzANBgkqhkiG9w0BAQsFADB1MQswCQYDVQQGEwJVUzET
MBEGA1UECAwKQ2FsaWZvcm5pYTEUMBIGA1UEBwwLU2FudGEgQ2xhcmExDTALBgNV
BAoMBHBrZzUxEjAQBgNVBAMMCWNoNS4yX3RhMTEYMBYGCSqGSIb3DQEJARYJY2g1
LjJfdGExMB4XDTIzMDcxOTExMzU0NVoXDTI2MDQxNDExMzU0NVowfTELMAkGA1UE
BhMCVVMxEzARBgNVBAgMCkNhbGlmb3JuaWExFDASBgNVBAcMC1NhbnRhIENsYXJh
MQ0wCwYDVQQKDARwa2c1MRYwFAYDVQQDDA1jczFfY2g1LjJfdGExMRwwGgYJKoZI
hvcNAQkBFg1jczFfY2g1LjJfdGExMIIBIjANBgkqhkiG9w0BAQEFAAOCAQ8AMIIB
CgKCAQEA2QOzVEs8rx3Br3HjnO2EwNhxnFo20yIdEVp5MDXYhkfkvNV65OSo04Ef
MilOfTYTo5Ah7SCv2pacfeV1jyhOvH63v56si4ZprrfbduEaj8CalxwntoRYGnX2
8o3xpVkDmbg6fSYEMZNdzP3KtMgT+mYYdzSWHyUSQVI/JJV2IJLX2Kn7BF5LjB9l
0QVULejG0d9uH3DYoimt1JXtyHd6uCOtMdtNkmr/seUIQVIyyPjFXed0W9jnJ5pC
oPfdDhK8dFRJwNPGQfJw/XzSu4zo3nlWmT4KXkn47uddRF9REn1C+xqPhbUZl6F3
LyTvt0qI3g+d/x1Ph3Zcu5XEhg2kGwIDAQABoyAwHjAMBgNVHRMBAf8EAjAAMA4G
A1UdDwEB/wQEAwIHgDANBgkqhkiG9w0BAQsFAAOCAQEAv37jGBh/5WrqB3ydDO8f
ACWoLl/LQywVzRGKKLG77LnyaeVCUXD5mXsRm3oUrHsKnZULrm+SGFUacusZh/EI
3+iB+t0aEJ0+AbmiZwp8dyVDr8nO6eId8nbAFgHBT4ZGymH6rCF/iYk1781ByucX
oRdtMHSqbG+PZkdvdvrZU1a5HahV87AjoY0jYpQpN3UEL8kwJVShHlo8Bn3pWgjk
mDR6DMmBdrWeNw9Pjs68RiWCgPyhYTSR+w63egQg+ReUFagcyNpcaXPyu5eFYk76
IjsD+tXENZge727NZN8xBs27Z20sE2j6jdof2+RxqcwhnaxzxjVdFHSYCPfohn8g
Gw==
-----END CERTIFICATE-----
