Certificate:
    Data:
        Version: 3 (0x2)
        Serial Number: 35 (0x23)
        Signature Algorithm: sha256WithRSAEncryption
        Issuer: C=US, ST=California, L=Menlo Park, O=pkg5, CN=ch1_ta4/emailAddress=ch1_ta4
        Validity
            Not Before: Mar 21 00:49:32 2011 GMT
            Not After : Dec 15 00:49:32 2013 GMT
        Subject: C=US, ST=California, L=Menlo Park, O=pkg5, CN=cs1_ch1_ta4/emailAddress=cs1_ch1_ta4
        Subject Public Key Info:
            Public Key Algorithm: rsaEncryption
            RSA Public Key: (1024 bit)
                Modulus (1024 bit):
                    00:af:be:de:74:2a:a1:34:39:6a:e5:7d:9a:a5:a1:
                    4a:0c:e0:e5:4f:46:71:e4:5a:54:56:05:f1:ab:a5:
                    7e:17:b6:aa:d4:4e:9c:b7:46:fc:ef:9a:4a:f5:3b:
                    3b:b0:3a:67:d2:89:6d:3f:f7:6d:8d:59:1f:2b:b9:
                    a4:55:08:b6:76:c5:2e:71:eb:f9:4a:43:7c:db:13:
                    b2:a2:08:f3:b2:f1:1b:66:ef:ef:2d:a6:e6:0a:37:
                    8a:b3:f9:da:0c:fe:da:23:0c:ef:b6:88:a2:6d:62:
                    2d:76:42:5c:f3:2c:f8:3f:76:c3:e3:6e:f5:e4:3c:
                    6e:48:c6:2a:cd:c7:e8:d9:dd
                Exponent: 65537 (0x10001)
        X509v3 extensions:
            X509v3 Basic Constraints: critical
                CA:FALSE
            X509v3 CRL Distribution Points: 
                URI:http://localhost:12001/file/0/ch1_ta4_crl.pem

    Signature Algorithm: sha256WithRSAEncryption
        ad:09:e5:e2:0a:c7:01:40:b0:d1:ff:83:9a:f7:b7:ac:58:00:
        dd:a3:36:24:fb:65:f7:85:68:90:86:67:fb:f4:7e:1e:dd:8e:
        b6:78:ff:a0:5a:12:2a:6f:2c:2b:c0:e3:d7:80:09:25:72:e0:
        6b:3a:c3:e4:dd:72:76:05:05:b2:55:f2:38:3e:07:24:2d:47:
        4a:db:b2:c6:4e:9c:c4:43:c9:95:23:44:61:db:da:d6:84:9c:
        12:dd:63:87:99:7f:7b:00:aa:77:dd:50:76:66:a7:ea:7f:fc:
        e4:66:ae:08:d0:70:66:0f:23:d3:b4:cb:38:20:de:27:df:12:
        3d:b5
-----BEGIN CERTIFICATE-----
MIICrjCCAhegAwIBAgIBIzANBgkqhkiG9w0BAQsFADBwMQswCQYDVQQGEwJVUzET
MBEGA1UECBMKQ2FsaWZvcm5pYTETMBEGA1UEBxMKTWVubG8gUGFyazENMAsGA1UE
ChMEcGtnNTEQMA4GA1UEAxQHY2gxX3RhNDEWMBQGCSqGSIb3DQEJARYHY2gxX3Rh
NDAeFw0xMTAzMjEwMDQ5MzJaFw0xMzEyMTUwMDQ5MzJaMHgxCzAJBgNVBAYTAlVT
MRMwEQYDVQQIEwpDYWxpZm9ybmlhMRMwEQYDVQQHEwpNZW5sbyBQYXJrMQ0wCwYD
VQQKEwRwa2c1MRQwEgYDVQQDFAtjczFfY2gxX3RhNDEaMBgGCSqGSIb3DQEJARYL
Y3MxX2NoMV90YTQwgZ8wDQYJKoZIhvcNAQEBBQADgY0AMIGJAoGBAK++3nQqoTQ5
auV9mqWhSgzg5U9GceRaVFYF8aulfhe2qtROnLdG/O+aSvU7O7A6Z9KJbT/3bY1Z
Hyu5pFUItnbFLnHr+UpDfNsTsqII87LxG2bv7y2m5go3irP52gz+2iMM77aIom1i
LXZCXPMs+D92w+Nu9eQ8bkjGKs3H6NndAgMBAAGjUDBOMAwGA1UdEwEB/wQCMAAw
PgYDVR0fBDcwNTAzoDGgL4YtaHR0cDovL2xvY2FsaG9zdDoxMjAwMS9maWxlLzAv
Y2gxX3RhNF9jcmwucGVtMA0GCSqGSIb3DQEBCwUAA4GBAK0J5eIKxwFAsNH/g5r3
t6xYAN2jNiT7ZfeFaJCGZ/v0fh7djrZ4/6BaEipvLCvA49eACSVy4Gs6w+TdcnYF
BbJV8jg+ByQtR0rbssZOnMRDyZUjRGHb2taEnBLdY4eZf3sAqnfdUHZmp+p//ORm
rgjQcGYPI9O0yzgg3iffEj21
-----END CERTIFICATE-----
