Certificate:
    Data:
        Version: 3 (0x2)
        Serial Number: 41 (0x29)
    Signature Algorithm: sha256WithRSAEncryption
        Issuer: C=US, ST=California, L=Santa Clara, O=pkg5, CN=ch1_ta5/emailAddress=ch1_ta5
        Validity
            Not Before: Dec 13 00:13:38 2013 GMT
            Not After : Sep  8 00:13:38 2016 GMT
        Subject: C=US, ST=California, L=Santa Clara, O=pkg5, CN=cs1_ch1_ta5/emailAddress=cs1_ch1_ta5
        Subject Public Key Info:
            Public Key Algorithm: rsaEncryption
                Public-Key: (1024 bit)
                Modulus:
                    00:b4:65:08:30:97:70:86:fd:f9:89:7b:39:c4:95:
                    a5:a9:81:55:71:9e:f9:f1:72:94:ec:0a:fa:af:c6:
                    0b:43:68:db:17:2b:4e:40:ea:22:91:60:02:05:a2:
                    ef:88:ad:78:8a:28:13:ac:2f:8a:65:6d:38:f3:43:
                    9b:10:0e:c4:d1:d7:e7:ba:0f:31:06:1e:f6:f7:56:
                    3f:68:1e:95:91:5f:d8:02:13:66:21:72:ed:66:6e:
                    26:83:9a:de:60:87:e0:3a:63:e8:09:82:af:df:50:
                    ae:f6:19:41:ba:c5:ae:8f:3e:6a:ba:f7:8b:fb:cd:
                    90:a2:24:1e:7b:09:3e:a4:af
                Exponent: 65537 (0x10001)
        X509v3 extensions:
            X509v3 Basic Constraints: critical
                CA:FALSE
            X509v3 Key Usage: critical
                Digital Signature
    Signature Algorithm: sha256WithRSAEncryption
         60:5d:6b:d5:f4:71:25:3c:8d:93:35:51:dd:44:66:1b:98:10:
         03:07:04:a7:a9:73:e1:f8:8e:62:6e:05:6e:d5:e5:04:7d:47:
         fa:4d:1c:c6:a4:91:2e:96:d2:43:2d:92:11:54:d9:29:9a:13:
         a9:21:8c:06:de:e8:55:a0:ac:02:6e:8f:a2:bc:1b:50:20:5c:
         03:ff:45:b7:13:3a:ea:b2:35:90:f6:0d:a4:06:4f:f1:b0:9c:
         cc:ce:df:c0:b2:88:44:5a:f5:86:41:94:94:aa:67:d8:62:b8:
         73:c1:60:87:04:51:25:1e:75:ac:d4:da:5b:fd:3f:5d:bc:ac:
         8d:d7
-----BEGIN CERTIFICATE-----
MIICgDCCAemgAwIBAgIBKTANBgkqhkiG9w0BAQsFADBxMQswCQYDVQQGEwJVUzET
MBEGA1UECAwKQ2FsaWZvcm5pYTEUMBIGA1UEBwwLU2FudGEgQ2xhcmExDTALBgNV
BAoMBHBrZzUxEDAOBgNVBAMMB2NoMV90YTUxFjAUBgkqhkiG9w0BCQEWB2NoMV90
YTUwHhcNMTMxMjEzMDAxMzM4WhcNMTYwOTA4MDAxMzM4WjB5MQswCQYDVQQGEwJV
UzETMBEGA1UECAwKQ2FsaWZvcm5pYTEUMBIGA1UEBwwLU2FudGEgQ2xhcmExDTAL
BgNVBAoMBHBrZzUxFDASBgNVBAMMC2NzMV9jaDFfdGE1MRowGAYJKoZIhvcNAQkB
FgtjczFfY2gxX3RhNTCBnzANBgkqhkiG9w0BAQEFAAOBjQAwgYkCgYEAtGUIMJdw
hv35iXs5xJWlqYFVcZ758XKU7Ar6r8YLQ2jbFytOQOoikWACBaLviK14iigTrC+K
ZW0480ObEA7E0dfnug8xBh7291Y/aB6VkV/YAhNmIXLtZm4mg5reYIfgOmPoCYKv
31Cu9hlBusWujz5quveL+82QoiQeewk+pK8CAwEAAaMgMB4wDAYDVR0TAQH/BAIw
ADAOBgNVHQ8BAf8EBAMCB4AwDQYJKoZIhvcNAQELBQADgYEAYF1r1fRxJTyNkzVR
3URmG5gQAwcEp6lz4fiOYm4FbtXlBH1H+k0cxqSRLpbSQy2SEVTZKZoTqSGMBt7o
VaCsAm6PorwbUCBcA/9FtxM66rI1kPYNpAZP8bCczM7fwLKIRFr1hkGUlKpn2GK4
c8FghwRRJR51rNTaW/0/Xbysjdc=
-----END CERTIFICATE-----
