Certificate:
    Data:
        Version: 3 (0x2)
        Serial Number: 31 (0x1f)
    Signature Algorithm: sha256WithRSAEncryption
        Issuer: C=US, ST=California, L=Santa Clara, O=pkg5, CN=ch1.3_ta3/emailAddress=ch1.3_ta3
        Validity
            Not Before: Jul 19 11:35:49 2023 GMT
            Not After : Apr 14 11:35:49 2026 GMT
        Subject: C=US, ST=California, L=Santa Clara, O=pkg5, CN=cs1_ch1.3_ta3/emailAddress=cs1_ch1.3_ta3
        Subject Public Key Info:
            Public Key Algorithm: rsaEncryption
                Public-Key: (2048 bit)
                Modulus:
                    00:ad:d9:82:21:d8:7d:aa:08:9d:00:80:57:f3:4b:
                    38:c7:a5:b1:b7:a8:df:92:24:77:57:1f:05:9e:65:
                    1d:a4:13:49:a7:c9:75:e0:87:93:e8:48:a2:e6:0b:
                    a7:c1:47:4f:85:0a:c7:3f:a7:0b:3d:f1:1c:91:c4:
                    84:d3:69:e3:fe:e7:9e:4d:3e:e9:97:9c:07:05:dc:
                    ae:0b:e3:c8:ec:59:9c:71:8f:0b:d6:69:75:1c:13:
                    15:7d:18:c2:8a:5e:e2:cc:0f:1b:b0:a3:93:84:c3:
                    9d:67:0b:67:33:29:3e:a0:88:02:74:95:e5:b6:21:
                    47:aa:93:eb:8d:2f:35:e0:de:88:30:46:43:dd:76:
                    d3:34:f5:6b:00:dc:76:c4:a1:9c:a2:2b:93:8e:dd:
                    e0:c7:f2:ab:24:93:48:4f:81:af:5f:1a:74:e1:99:
                    80:9e:64:80:42:92:d4:f7:c8:80:f3:b6:be:ab:85:
                    ac:c1:df:e0:c1:25:3b:38:b8:a6:86:f8:0d:d8:6c:
                    63:d3:88:19:2b:15:ee:97:bb:fc:8b:20:2f:a8:1e:
                    08:87:21:0b:82:ba:9c:55:1a:e5:dc:e1:30:cf:69:
                    82:e1:6f:aa:2e:0b:0b:2e:44:a9:eb:38:66:32:0f:
                    0f:fe:77:76:51:5f:b7:a5:8a:9e:18:6c:41:40:e1:
                    fb:e3
                Exponent: 65537 (0x10001)
        X509v3 extensions:
            X509v3 Basic Constraints: critical
                CA:FALSE
            X509v3 Key Usage: critical
                Digital Signature
    Signature Algorithm: sha256WithRSAEncryption
         2e:8e:38:9e:fe:1c:3c:46:34:7f:71:eb:e5:7a:13:07:cb:e7:
         f1:7b:9d:8d:7b:86:c9:a1:52:8e:41:dc:d4:73:08:c5:7f:a3:
         e5:8a:b7:8b:ce:aa:b5:5f:e7:30:40:e4:d4:29:96:78:98:d3:
         7b:02:a5:40:22:ed:1c:af:44:1a:3c:7b:39:07:55:b8:50:70:
         26:ae:fb:4e:ac:37:38:99:d7:09:8c:ed:2c:10:db:a5:ae:e0:
         9a:63:b6:f4:e8:63:fe:34:38:9f:70:43:4a:80:0e:3f:28:9d:
         4e:cd:df:b3:5f:a3:af:88:59:a5:fa:3f:a3:73:1f:d2:c4:c1:
         93:b3:2f:1c:01:24:1e:e6:6b:5d:73:c5:6d:d4:f0:15:5e:e2:
         82:35:75:47:d2:f7:f9:29:78:55:97:ed:76:d1:d5:74:e2:5d:
         fc:5c:24:0d:b7:e7:95:39:5a:77:cb:15:61:29:1c:b5:69:72:
         fc:92:69:f8:2a:71:9d:9c:7e:61:33:05:7e:4a:df:be:e9:e1:
         8f:80:03:c1:b6:92:d0:70:fb:a9:6f:d1:3b:e7:d9:75:e9:c1:
         5d:a5:4b:b3:9d:cf:b2:28:2b:57:29:57:21:8b:fd:4b:82:25:
         ff:64:c1:26:3c:6c:2e:8b:d1:c7:ee:02:29:5d:37:87:ad:e9:
         b7:3c:15:c5
-----BEGIN CERTIFICATE-----
MIIDjTCCAnWgAwIBAgIBHzANBgkqhkiG9w0BAQsFADB1MQswCQYDVQQGEwJVUzET
MBEGA1UECAwKQ2FsaWZvcm5pYTEUMBIGA1UEBwwLU2FudGEgQ2xhcmExDTALBgNV
BAoMBHBrZzUxEjAQBgNVBAMMCWNoMS4zX3RhMzEYMBYGCSqGSIb3DQEJARYJY2gx
LjNfdGEzMB4XDTIzMDcxOTExMzU0OVoXDTI2MDQxNDExMzU0OVowfTELMAkGA1UE
BhMCVVMxEzARBgNVBAgMCkNhbGlmb3JuaWExFDASBgNVBAcMC1NhbnRhIENsYXJh
MQ0wCwYDVQQKDARwa2c1MRYwFAYDVQQDDA1jczFfY2gxLjNfdGEzMRwwGgYJKoZI
hvcNAQkBFg1jczFfY2gxLjNfdGEzMIIBIjANBgkqhkiG9w0BAQEFAAOCAQ8AMIIB
CgKCAQEArdmCIdh9qgidAIBX80s4x6Wxt6jfkiR3Vx8FnmUdpBNJp8l14IeT6Eii
5gunwUdPhQrHP6cLPfEckcSE02nj/ueeTT7pl5wHBdyuC+PI7FmccY8L1ml1HBMV
fRjCil7izA8bsKOThMOdZwtnMyk+oIgCdJXltiFHqpPrjS814N6IMEZD3XbTNPVr
ANx2xKGcoiuTjt3gx/KrJJNIT4GvXxp04ZmAnmSAQpLU98iA87a+q4Wswd/gwSU7
OLimhvgN2Gxj04gZKxXul7v8iyAvqB4IhyELgrqcVRrl3OEwz2mC4W+qLgsLLkSp
6zhmMg8P/nd2UV+3pYqeGGxBQOH74wIDAQABoyAwHjAMBgNVHRMBAf8EAjAAMA4G
A1UdDwEB/wQEAwIHgDANBgkqhkiG9w0BAQsFAAOCAQEALo44nv4cPEY0f3Hr5XoT
B8vn8XudjXuGyaFSjkHc1HMIxX+j5Yq3i86qtV/nMEDk1CmWeJjTewKlQCLtHK9E
Gjx7OQdVuFBwJq77Tqw3OJnXCYztLBDbpa7gmmO29Ohj/jQ4n3BDSoAOPyidTs3f
s1+jr4hZpfo/o3Mf0sTBk7MvHAEkHuZrXXPFbdTwFV7igjV1R9L3+Sl4VZftdtHV
dOJd/FwkDbfnlTlad8sVYSkctWly/JJp+CpxnZx+YTMFfkrfvunhj4ADwbaS0HD7
qW/RO+fZdenBXaVLs53PsigrVylXIYv9S4Il/2TBJjxsLovRx+4CKV03h63ptzwV
xQ==
-----END CERTIFICATE-----
