Certificate:
    Data:
        Version: 3 (0x2)
        Serial Number: 9 (0x9)
        Signature Algorithm: sha256WithRSAEncryption
        Issuer: C=US, ST=California, L=Santa Clara, O=pkg5, CN=ch5.1_ta1/emailAddress=ch5.1_ta1
        Validity
            Not Before: Mar 18 08:51:30 2026 GMT
            Not After : Dec 12 08:51:30 2028 GMT
        Subject: C=US, ST=California, L=Santa Clara, O=pkg5, CN=cs1_ch5.1_ta1/emailAddress=cs1_ch5.1_ta1
        Subject Public Key Info:
            Public Key Algorithm: rsaEncryption
                Public-Key: (2048 bit)
                Modulus:
                    00:a8:ec:d5:74:88:b9:2f:36:66:42:d2:9b:fd:06:
                    d4:f2:55:cd:c4:91:70:07:49:5a:dc:d1:87:4a:10:
                    aa:bb:77:86:56:8f:03:97:35:78:d1:75:74:c4:80:
                    98:9d:6f:89:36:5a:01:66:40:ca:07:a2:4e:ec:59:
                    16:dc:3c:73:ce:e2:ad:15:91:9c:52:67:c5:fb:42:
                    78:20:53:33:13:cb:8a:10:2c:23:62:7f:0e:d7:79:
                    0a:1b:cd:64:5f:b2:f5:2d:f6:89:21:88:45:d8:67:
                    7e:fa:91:3b:ec:bc:99:dd:1a:59:7f:ed:5c:98:11:
                    42:df:b5:c5:f6:a5:3d:d6:6d:b8:16:c1:d7:cc:21:
                    23:48:18:c2:4e:a9:88:40:66:8f:73:ae:5e:56:f6:
                    e7:a3:f9:62:52:5d:d3:14:82:2a:d1:17:0e:dd:72:
                    a1:c3:69:51:f1:5e:50:99:01:ac:14:e7:22:bd:fb:
                    6a:7b:76:77:a5:5d:9b:fe:74:8b:d7:f4:c9:23:fe:
                    7d:ea:23:7b:24:3c:44:b2:2c:80:e0:1d:89:4a:33:
                    41:67:12:fd:8f:0f:10:4d:85:bf:58:a1:00:c8:39:
                    1a:72:42:dc:8d:5c:58:51:90:38:a3:ed:b4:eb:0d:
                    1b:28:ef:c1:c2:00:99:b6:72:77:a7:45:be:d2:97:
                    e0:3f
                Exponent: 65537 (0x10001)
        X509v3 extensions:
            X509v3 Basic Constraints: critical
                CA:FALSE
            X509v3 Key Usage: critical
                Digital Signature
            X509v3 Subject Key Identifier: 
                BF:0C:07:B5:1B:EA:8D:0E:CD:9D:B5:10:D4:A4:4E:7E:9B:0E:57:94
            X509v3 Authority Key Identifier: 
                58:F4:BA:E0:5D:BA:EE:84:F7:E5:42:C0:C4:FD:35:82:75:0B:B5:81
    Signature Algorithm: sha256WithRSAEncryption
    Signature Value:
        23:e1:be:8e:8f:bf:fa:85:06:b4:9d:35:c5:6b:e8:15:a9:7e:
        bc:ff:bb:7f:a8:fe:d9:28:33:8b:40:a2:6b:01:2d:d2:2f:9f:
        0c:4a:d8:86:3a:d8:ab:09:1e:87:62:74:fd:74:6f:07:eb:73:
        cc:d6:31:86:ad:3a:60:09:e1:78:cd:6c:38:06:20:cd:66:c1:
        77:b5:d4:ca:02:82:aa:76:82:6a:d6:60:77:b6:ac:be:79:0c:
        fa:c1:2e:28:b6:3f:5e:a5:8d:0e:4b:08:b4:e6:f4:d3:3b:48:
        e2:3d:2b:8c:40:4f:87:bb:4a:0e:22:e3:76:fb:13:fa:cd:19:
        71:5d:d9:98:b4:2c:7f:cc:06:64:61:0b:dc:4f:15:93:11:8a:
        a5:c1:80:c9:20:5d:c4:10:c6:a0:a1:af:01:92:33:9b:db:12:
        68:68:71:47:c3:c2:c9:e9:89:fc:c7:b8:b9:73:f4:a7:35:31:
        e1:b8:47:84:0e:39:20:b1:09:03:a0:da:00:9c:02:47:e6:43:
        b1:58:96:39:ff:55:b6:f8:4b:3d:8b:d3:7a:73:65:68:71:96:
        13:d1:aa:92:3f:9c:f4:48:7f:96:33:85:0b:da:45:4d:83:d4:
        0c:85:ce:18:68:53:f8:d5:fb:a5:81:2b:2e:67:6b:07:0e:d0:
        71:ac:91:bc
-----BEGIN CERTIFICATE-----
MIIDzTCCArWgAwIBAgIBCTANBgkqhkiG9w0BAQsFADB1MQswCQYDVQQGEwJVUzET
MBEGA1UECAwKQ2FsaWZvcm5pYTEUMBIGA1UEBwwLU2FudGEgQ2xhcmExDTALBgNV
BAoMBHBrZzUxEjAQBgNVBAMMCWNoNS4xX3RhMTEYMBYGCSqGSIb3DQEJARYJY2g1
LjFfdGExMB4XDTI2MDMxODA4NTEzMFoXDTI4MTIxMjA4NTEzMFowfTELMAkGA1UE
BhMCVVMxEzARBgNVBAgMCkNhbGlmb3JuaWExFDASBgNVBAcMC1NhbnRhIENsYXJh
MQ0wCwYDVQQKDARwa2c1MRYwFAYDVQQDDA1jczFfY2g1LjFfdGExMRwwGgYJKoZI
hvcNAQkBFg1jczFfY2g1LjFfdGExMIIBIjANBgkqhkiG9w0BAQEFAAOCAQ8AMIIB
CgKCAQEAqOzVdIi5LzZmQtKb/QbU8lXNxJFwB0la3NGHShCqu3eGVo8DlzV40XV0
xICYnW+JNloBZkDKB6JO7FkW3DxzzuKtFZGcUmfF+0J4IFMzE8uKECwjYn8O13kK
G81kX7L1LfaJIYhF2Gd++pE77LyZ3RpZf+1cmBFC37XF9qU91m24FsHXzCEjSBjC
TqmIQGaPc65eVvbno/liUl3TFIIq0RcO3XKhw2lR8V5QmQGsFOcivftqe3Z3pV2b
/nSL1/TJI/596iN7JDxEsiyA4B2JSjNBZxL9jw8QTYW/WKEAyDkackLcjVxYUZA4
o+206w0bKO/BwgCZtnJ3p0W+0pfgPwIDAQABo2AwXjAMBgNVHRMBAf8EAjAAMA4G
A1UdDwEB/wQEAwIHgDAdBgNVHQ4EFgQUvwwHtRvqjQ7NnbUQ1KROfpsOV5QwHwYD
VR0jBBgwFoAUWPS64F267oT35ULAxP01gnULtYEwDQYJKoZIhvcNAQELBQADggEB
ACPhvo6Pv/qFBrSdNcVr6BWpfrz/u3+o/tkoM4tAomsBLdIvnwxK2IY62KsJHodi
dP10bwfrc8zWMYatOmAJ4XjNbDgGIM1mwXe11MoCgqp2gmrWYHe2rL55DPrBLii2
P16ljQ5LCLTm9NM7SOI9K4xAT4e7Sg4i43b7E/rNGXFd2Zi0LH/MBmRhC9xPFZMR
iqXBgMkgXcQQxqChrwGSM5vbEmhocUfDwsnpifzHuLlz9Kc1MeG4R4QOOSCxCQOg
2gCcAkfmQ7FYljn/Vbb4Sz2L03pzZWhxlhPRqpI/nPRIf5YzhQvaRU2D1AyFzhho
U/jV+6WBKy5nawcO0HGskbw=
-----END CERTIFICATE-----
