Certificate:
    Data:
        Version: 3 (0x2)
        Serial Number: 21 (0x15)
        Signature Algorithm: sha256WithRSAEncryption
        Issuer: C=US, ST=California, L=Menlo Park, O=pkg5, CN=cs8_p1_ta3/emailAddress=cs8_p1_ta3
        Validity
            Not Before: Jan 28 02:54:20 2011 GMT
            Not After : Oct 24 02:54:20 2013 GMT
        Subject: C=US, ST=California, L=Menlo Park, O=pkg5, CN=cs1_cs8_p1_ta3/emailAddress=cs1_cs8_p1_ta3
        Subject Public Key Info:
            Public Key Algorithm: rsaEncryption
            RSA Public Key: (1024 bit)
                Modulus (1024 bit):
                    00:b7:b3:67:af:2e:4f:cd:e6:84:61:80:0a:6a:0d:
                    d7:48:3e:34:76:b9:51:d4:47:4c:20:d1:cb:29:f3:
                    cb:30:f9:de:be:4c:dd:3b:7c:8b:ad:2a:b8:90:49:
                    f1:e5:e0:93:e9:c4:72:41:b7:c7:1e:ad:fb:6c:84:
                    51:3f:b6:58:cc:15:7a:cf:3c:16:fa:e1:29:2e:57:
                    90:90:5b:d1:55:a6:0c:76:6a:85:6c:19:71:0b:33:
                    cc:93:bb:4e:02:59:d0:08:dc:cb:8c:17:1f:40:de:
                    fb:ba:b5:24:e0:f0:b3:df:b1:94:d1:7b:80:d9:74:
                    a9:44:4e:b7:eb:cd:cf:62:ed
                Exponent: 65537 (0x10001)
        X509v3 extensions:
            X509v3 Basic Constraints: critical
                CA:FALSE
            X509v3 Key Usage: critical
                Digital Signature
    Signature Algorithm: sha256WithRSAEncryption
        7f:59:dd:b6:d7:6a:bf:e7:c2:c0:53:9c:8f:90:e3:e5:3a:75:
        04:35:ef:d8:39:f9:53:e6:1e:bf:8b:fd:c3:19:21:81:70:09:
        a1:e6:89:6f:9d:3c:f3:9c:c5:00:5b:0c:7d:e3:13:de:cf:1b:
        10:2b:ab:c3:d2:77:76:03:59:ef:43:39:a9:de:78:e9:a9:a1:
        fb:8b:b4:c7:ec:37:97:5b:65:ee:af:e4:66:c7:42:a8:24:73:
        d2:3f:37:fc:9f:79:93:53:88:81:0b:f6:be:f7:ac:f8:9d:37:
        c8:c6:66:81:2e:f0:8a:0e:41:95:24:9d:4c:90:50:94:51:45:
        46:8f
-----BEGIN CERTIFICATE-----
MIICijCCAfOgAwIBAgIBFTANBgkqhkiG9w0BAQsFADB2MQswCQYDVQQGEwJVUzET
MBEGA1UECBMKQ2FsaWZvcm5pYTETMBEGA1UEBxMKTWVubG8gUGFyazENMAsGA1UE
ChMEcGtnNTETMBEGA1UEAxQKY3M4X3AxX3RhMzEZMBcGCSqGSIb3DQEJARYKY3M4
X3AxX3RhMzAeFw0xMTAxMjgwMjU0MjBaFw0xMzEwMjQwMjU0MjBaMH4xCzAJBgNV
BAYTAlVTMRMwEQYDVQQIEwpDYWxpZm9ybmlhMRMwEQYDVQQHEwpNZW5sbyBQYXJr
MQ0wCwYDVQQKEwRwa2c1MRcwFQYDVQQDFA5jczFfY3M4X3AxX3RhMzEdMBsGCSqG
SIb3DQEJARYOY3MxX2NzOF9wMV90YTMwgZ8wDQYJKoZIhvcNAQEBBQADgY0AMIGJ
AoGBALezZ68uT83mhGGACmoN10g+NHa5UdRHTCDRyynzyzD53r5M3Tt8i60quJBJ
8eXgk+nEckG3xx6t+2yEUT+2WMwVes88FvrhKS5XkJBb0VWmDHZqhWwZcQszzJO7
TgJZ0Ajcy4wXH0De+7q1JODws9+xlNF7gNl0qUROt+vNz2LtAgMBAAGjIDAeMAwG
A1UdEwEB/wQCMAAwDgYDVR0PAQH/BAQDAgeAMA0GCSqGSIb3DQEBCwUAA4GBAH9Z
3bbXar/nwsBTnI+Q4+U6dQQ179g5+VPmHr+L/cMZIYFwCaHmiW+dPPOcxQBbDH3j
E97PGxArq8PSd3YDWe9DOaneeOmpofuLtMfsN5dbZe6v5GbHQqgkc9I/N/yfeZNT
iIEL9r73rPidN8jGZoEu8IoOQZUknUyQUJRRRUaP
-----END CERTIFICATE-----
