Certificate:
    Data:
        Version: 3 (0x2)
        Serial Number: 39 (0x27)
    Signature Algorithm: sha256WithRSAEncryption
        Issuer: C=US, ST=California, L=Santa Clara, O=pkg5, CN=ch1.1_ta4/emailAddress=ch1.1_ta4
        Validity
            Not Before: Jul 19 11:35:51 2023 GMT
            Not After : Apr 14 11:35:51 2026 GMT
        Subject: C=US, ST=California, L=Santa Clara, O=pkg5, CN=cs1_ch1.1_ta4/emailAddress=cs1_ch1.1_ta4
        Subject Public Key Info:
            Public Key Algorithm: rsaEncryption
                Public-Key: (2048 bit)
                Modulus:
                    00:be:98:fd:d5:eb:7f:b1:4c:3b:19:b8:f1:6b:0c:
                    b4:f9:12:6a:b3:85:7f:95:eb:15:5e:93:bb:1b:3e:
                    54:33:b6:aa:01:50:21:11:dc:04:45:c0:18:95:a4:
                    75:21:75:b2:87:22:26:97:85:ce:0a:6b:27:8b:3a:
                    52:c1:4e:8c:85:e8:97:1f:fd:c9:bf:61:59:da:fa:
                    14:a1:8d:0e:50:e5:88:39:0b:6a:4d:4a:68:f9:fb:
                    09:97:18:f3:cc:82:5a:40:d8:30:1a:fb:8c:25:e4:
                    ec:f0:14:19:fd:c3:79:c9:b4:68:69:4b:88:61:00:
                    7f:11:61:c2:bd:41:dc:28:bc:6c:76:e4:f7:bf:58:
                    88:09:e3:5a:d1:31:70:e2:8f:06:1b:2a:40:f1:ef:
                    84:a9:65:1c:24:bc:fa:78:a3:b4:da:70:32:77:7b:
                    bc:dc:70:88:b8:2f:5a:aa:68:7f:f1:92:bc:c5:8e:
                    ae:e7:1a:2d:b3:93:7a:f7:c9:4f:15:a7:f1:77:c9:
                    26:00:bb:68:12:3a:86:bf:ab:38:3c:28:99:7c:aa:
                    16:04:25:2e:96:34:a7:06:b1:0e:cc:18:3a:02:40:
                    e2:e7:6f:0d:e5:a5:0a:ff:ab:1d:a8:e9:3b:71:71:
                    c8:77:92:3d:c7:26:aa:f5:9b:c9:fc:55:02:3d:f8:
                    46:b7
                Exponent: 65537 (0x10001)
        X509v3 extensions:
            X509v3 Basic Constraints: critical
                CA:FALSE
            X509v3 CRL Distribution Points: 

                Full Name:
                  URI:http://localhost:12001/file/0/ch1.1_ta4_crl.pem

    Signature Algorithm: sha256WithRSAEncryption
         56:c1:73:08:87:6f:6a:d4:a8:aa:71:4f:1f:0f:c8:56:fc:aa:
         68:e2:a8:5e:33:bf:04:ff:46:74:9e:ac:aa:2a:ef:1c:c9:b4:
         97:51:94:d0:c5:8a:eb:66:35:2b:35:4c:ec:4b:33:67:55:bb:
         ef:ae:f1:c0:11:f7:15:fb:46:85:7c:23:fe:0f:74:42:7c:aa:
         91:cd:d6:c3:52:ce:08:6b:24:97:21:f5:2b:21:33:10:ee:0a:
         40:3e:b4:24:ce:ff:11:93:a0:a8:20:dd:86:09:82:bd:85:9b:
         19:a6:45:29:9f:cb:d3:b4:10:a4:64:e0:e4:43:88:a9:42:19:
         14:63:bf:ea:3c:3d:cd:7e:d1:25:1d:79:4e:b1:48:79:f5:4c:
         15:88:15:42:dc:e2:69:55:85:f3:57:b8:b1:49:64:a9:b0:60:
         9d:18:e4:6d:6f:57:fa:bd:9e:ab:11:65:b0:a7:94:86:9a:38:
         c5:d3:50:b6:bc:be:84:87:ec:5e:27:91:ad:ae:a2:c1:6e:a0:
         8f:75:23:71:3d:ba:cd:db:86:95:08:24:46:ed:3a:a6:3c:20:
         e9:97:82:3c:67:bd:f4:6d:36:fe:a7:89:bc:eb:61:a8:46:be:
         56:da:fe:98:cf:73:d8:e3:6c:0e:81:30:9c:95:21:59:79:e1:
         90:82:cd:6a
-----BEGIN CERTIFICATE-----
MIIDvzCCAqegAwIBAgIBJzANBgkqhkiG9w0BAQsFADB1MQswCQYDVQQGEwJVUzET
MBEGA1UECAwKQ2FsaWZvcm5pYTEUMBIGA1UEBwwLU2FudGEgQ2xhcmExDTALBgNV
BAoMBHBrZzUxEjAQBgNVBAMMCWNoMS4xX3RhNDEYMBYGCSqGSIb3DQEJARYJY2gx
LjFfdGE0MB4XDTIzMDcxOTExMzU1MVoXDTI2MDQxNDExMzU1MVowfTELMAkGA1UE
BhMCVVMxEzARBgNVBAgMCkNhbGlmb3JuaWExFDASBgNVBAcMC1NhbnRhIENsYXJh
MQ0wCwYDVQQKDARwa2c1MRYwFAYDVQQDDA1jczFfY2gxLjFfdGE0MRwwGgYJKoZI
hvcNAQkBFg1jczFfY2gxLjFfdGE0MIIBIjANBgkqhkiG9w0BAQEFAAOCAQ8AMIIB
CgKCAQEAvpj91et/sUw7Gbjxawy0+RJqs4V/lesVXpO7Gz5UM7aqAVAhEdwERcAY
laR1IXWyhyIml4XOCmsnizpSwU6MheiXH/3Jv2FZ2voUoY0OUOWIOQtqTUpo+fsJ
lxjzzIJaQNgwGvuMJeTs8BQZ/cN5ybRoaUuIYQB/EWHCvUHcKLxsduT3v1iICeNa
0TFw4o8GGypA8e+EqWUcJLz6eKO02nAyd3u83HCIuC9aqmh/8ZK8xY6u5xots5N6
98lPFafxd8kmALtoEjqGv6s4PCiZfKoWBCUuljSnBrEOzBg6AkDi528N5aUK/6sd
qOk7cXHId5I9xyaq9ZvJ/FUCPfhGtwIDAQABo1IwUDAMBgNVHRMBAf8EAjAAMEAG
A1UdHwQ5MDcwNaAzoDGGL2h0dHA6Ly9sb2NhbGhvc3Q6MTIwMDEvZmlsZS8wL2No
MS4xX3RhNF9jcmwucGVtMA0GCSqGSIb3DQEBCwUAA4IBAQBWwXMIh29q1KiqcU8f
D8hW/Kpo4qheM78E/0Z0nqyqKu8cybSXUZTQxYrrZjUrNUzsSzNnVbvvrvHAEfcV
+0aFfCP+D3RCfKqRzdbDUs4IaySXIfUrITMQ7gpAPrQkzv8Rk6CoIN2GCYK9hZsZ
pkUpn8vTtBCkZODkQ4ipQhkUY7/qPD3NftElHXlOsUh59UwViBVC3OJpVYXzV7ix
SWSpsGCdGORtb1f6vZ6rEWWwp5SGmjjF01C2vL6Eh+xeJ5GtrqLBbqCPdSNxPbrN
24aVCCRG7TqmPCDpl4I8Z730bTb+p4m862GoRr5W2v6Yz3PY42wOgTCclSFZeeGQ
gs1q
-----END CERTIFICATE-----
