Certificate:
    Data:
        Version: 3 (0x2)
        Serial Number: 15 (0xf)
        Signature Algorithm: sha256WithRSAEncryption
        Issuer: C=US, ST=California, L=Menlo Park, O=pkg5, CN=ta2/emailAddress=ta2
        Validity
            Not Before: Mar 21 00:49:26 2011 GMT
            Not After : Dec 15 00:49:26 2013 GMT
        Subject: C=US, ST=California, L=Menlo Park, O=pkg5, CN=cs1_ta2/emailAddress=cs1_ta2
        Subject Public Key Info:
            Public Key Algorithm: rsaEncryption
            RSA Public Key: (1024 bit)
                Modulus (1024 bit):
                    00:d1:4a:70:39:c8:22:72:ed:59:a6:45:f9:9a:cb:
                    75:6d:95:17:d1:d5:fc:4c:98:77:5b:2b:18:94:98:
                    0c:94:72:d5:52:76:65:ed:c7:84:a9:5d:37:fb:1b:
                    54:f3:0a:e5:1f:fe:7f:9b:b2:30:7a:1a:4b:c1:9c:
                    46:84:0d:9b:f9:59:c1:83:ce:9d:95:ec:f2:34:8f:
                    2b:a7:07:fb:3c:58:64:4f:89:0d:ac:e3:92:03:dd:
                    50:05:15:65:77:7f:ba:06:dc:f9:7b:e9:11:9a:16:
                    55:a1:ce:6e:c7:d9:f5:ca:54:f3:da:40:08:dd:45:
                    f5:27:09:95:7e:51:ba:f7:bb
                Exponent: 65537 (0x10001)
        X509v3 extensions:
            X509v3 Basic Constraints: critical
                CA:FALSE
            X509v3 Key Usage: critical
                Digital Signature
    Signature Algorithm: sha256WithRSAEncryption
        5d:98:9c:96:be:80:58:ef:e7:53:c2:79:29:8c:e1:40:18:63:
        22:09:e6:ee:c2:a1:22:f9:50:ce:f2:9d:72:21:1d:0d:f9:2a:
        2d:a8:eb:9f:03:5d:df:45:88:a8:52:e2:b9:0c:b0:27:7f:42:
        8a:1c:45:a1:3b:24:ab:38:b4:e5:b2:ab:7c:d1:57:80:9e:be:
        18:3a:ff:49:57:b0:61:cc:cc:63:98:e8:7b:79:de:2b:db:39:
        44:df:8a:0d:ad:9c:ce:6e:b6:1f:3c:fa:ad:f7:ac:02:eb:08:
        59:34:e9:74:bd:2d:bb:5d:8d:80:5d:bb:3b:18:3d:d6:3b:d2:
        9d:47
-----BEGIN CERTIFICATE-----
MIICbjCCAdegAwIBAgIBDzANBgkqhkiG9w0BAQsFADBoMQswCQYDVQQGEwJVUzET
MBEGA1UECBMKQ2FsaWZvcm5pYTETMBEGA1UEBxMKTWVubG8gUGFyazENMAsGA1UE
ChMEcGtnNTEMMAoGA1UEAxMDdGEyMRIwEAYJKoZIhvcNAQkBFgN0YTIwHhcNMTEw
MzIxMDA0OTI2WhcNMTMxMjE1MDA0OTI2WjBwMQswCQYDVQQGEwJVUzETMBEGA1UE
CBMKQ2FsaWZvcm5pYTETMBEGA1UEBxMKTWVubG8gUGFyazENMAsGA1UEChMEcGtn
NTEQMA4GA1UEAxQHY3MxX3RhMjEWMBQGCSqGSIb3DQEJARYHY3MxX3RhMjCBnzAN
BgkqhkiG9w0BAQEFAAOBjQAwgYkCgYEA0UpwOcgicu1ZpkX5mst1bZUX0dX8TJh3
WysYlJgMlHLVUnZl7ceEqV03+xtU8wrlH/5/m7IwehpLwZxGhA2b+VnBg86dlezy
NI8rpwf7PFhkT4kNrOOSA91QBRVld3+6Btz5e+kRmhZVoc5ux9n1ylTz2kAI3UX1
JwmVflG697sCAwEAAaMgMB4wDAYDVR0TAQH/BAIwADAOBgNVHQ8BAf8EBAMCB4Aw
DQYJKoZIhvcNAQELBQADgYEAXZiclr6AWO/nU8J5KYzhQBhjIgnm7sKhIvlQzvKd
ciEdDfkqLajrnwNd30WIqFLiuQywJ39CihxFoTskqzi05bKrfNFXgJ6+GDr/SVew
YczMY5joe3neK9s5RN+KDa2czm62Hzz6rfesAusIWTTpdL0tu12NgF27Oxg91jvS
nUc=
-----END CERTIFICATE-----
