Certificate:
    Data:
        Version: 3 (0x2)
        Serial Number: 24 (0x18)
    Signature Algorithm: sha256WithRSAEncryption
        Issuer: C=US, ST=California, L=Santa Clara, O=pkg5, CN=cs8_ch1_ta3/emailAddress=cs8_ch1_ta3
        Validity
            Not Before: Jan 22 15:33:11 2019 GMT
            Not After : Oct 18 15:33:11 2021 GMT
        Subject: C=US, ST=California, L=Santa Clara, O=pkg5, CN=cs1_cs8_ch1_ta3/emailAddress=cs1_cs8_ch1_ta3
        Subject Public Key Info:
            Public Key Algorithm: rsaEncryption
                Public-Key: (1024 bit)
                Modulus:
                    00:ef:35:81:17:87:15:b5:26:c8:4d:3c:06:eb:b1:
                    e5:30:c3:b8:3f:83:fd:d5:35:7c:3b:a7:db:41:b2:
                    aa:c9:9f:58:b0:5f:ce:90:6c:9c:76:5d:2f:b6:05:
                    a6:39:af:fd:0f:dd:24:0a:dd:48:8d:eb:88:eb:75:
                    82:20:be:64:5c:d3:b3:37:6d:6f:d0:66:76:eb:5e:
                    9c:f7:32:06:f8:f6:b1:04:61:d2:77:61:a2:ec:5e:
                    72:b9:0f:85:6c:14:44:7d:51:d2:39:f0:ac:13:f1:
                    be:93:a6:c7:5c:c5:65:37:e6:4c:72:db:b4:21:a3:
                    57:8e:a8:65:03:e9:44:38:3d
                Exponent: 65537 (0x10001)
        X509v3 extensions:
            X509v3 Basic Constraints: critical
                CA:FALSE
            X509v3 Key Usage: critical
                Digital Signature
    Signature Algorithm: sha256WithRSAEncryption
         40:08:15:d7:38:7c:41:d7:1b:19:11:b7:71:a0:f3:e1:01:5b:
         85:b6:b3:cf:44:cd:b2:1f:fb:6c:70:43:cf:79:97:f3:73:ab:
         7d:b3:28:d4:42:c4:d6:f2:5f:a7:38:26:b1:f1:39:39:f4:3e:
         a8:da:40:4e:f7:48:31:10:e1:30:72:e1:07:43:d9:14:fd:17:
         f7:08:3c:0a:9d:eb:a4:03:53:0c:a3:f4:e7:fa:99:b4:a5:fa:
         3f:97:4e:b6:ac:81:8f:f4:b2:5f:ff:50:9c:90:12:92:ef:e0:
         8c:ab:1e:9b:13:b7:1b:82:cf:ee:7a:91:34:35:4e:21:f0:5b:
         f8:5c
-----BEGIN CERTIFICATE-----
MIICkTCCAfqgAwIBAgIBGDANBgkqhkiG9w0BAQsFADB5MQswCQYDVQQGEwJVUzET
MBEGA1UECAwKQ2FsaWZvcm5pYTEUMBIGA1UEBwwLU2FudGEgQ2xhcmExDTALBgNV
BAoMBHBrZzUxFDASBgNVBAMMC2NzOF9jaDFfdGEzMRowGAYJKoZIhvcNAQkBFgtj
czhfY2gxX3RhMzAeFw0xOTAxMjIxNTMzMTFaFw0yMTEwMTgxNTMzMTFaMIGBMQsw
CQYDVQQGEwJVUzETMBEGA1UECAwKQ2FsaWZvcm5pYTEUMBIGA1UEBwwLU2FudGEg
Q2xhcmExDTALBgNVBAoMBHBrZzUxGDAWBgNVBAMMD2NzMV9jczhfY2gxX3RhMzEe
MBwGCSqGSIb3DQEJARYPY3MxX2NzOF9jaDFfdGEzMIGfMA0GCSqGSIb3DQEBAQUA
A4GNADCBiQKBgQDvNYEXhxW1JshNPAbrseUww7g/g/3VNXw7p9tBsqrJn1iwX86Q
bJx2XS+2BaY5r/0P3SQK3UiN64jrdYIgvmRc07M3bW/QZnbrXpz3Mgb49rEEYdJ3
YaLsXnK5D4VsFER9UdI58KwT8b6TpsdcxWU35kxy27Qho1eOqGUD6UQ4PQIDAQAB
oyAwHjAMBgNVHRMBAf8EAjAAMA4GA1UdDwEB/wQEAwIHgDANBgkqhkiG9w0BAQsF
AAOBgQBACBXXOHxB1xsZEbdxoPPhAVuFtrPPRM2yH/tscEPPeZfzc6t9syjUQsTW
8l+nOCax8Tk59D6o2kBO90gxEOEwcuEHQ9kU/Rf3CDwKneukA1MMo/Tn+pm0pfo/
l062rIGP9LJf/1CckBKS7+CMqx6bE7cbgs/uepE0NU4h8Fv4XA==
-----END CERTIFICATE-----
