Certificate:
    Data:
        Version: 3 (0x2)
        Serial Number: 18 (0x12)
    Signature Algorithm: sha256WithRSAEncryption
        Issuer: C=US, ST=California, L=Santa Clara, O=pkg5, CN=ch1_ta3/emailAddress=ch1_ta3
        Validity
            Not Before: Mar 18 23:38:20 2016 GMT
            Not After : Dec 13 23:38:20 2018 GMT
        Subject: C=US, ST=California, L=Santa Clara, O=pkg5, CN=cs2_ch1_ta3/emailAddress=cs2_ch1_ta3
        Subject Public Key Info:
            Public Key Algorithm: rsaEncryption
                Public-Key: (1024 bit)
                Modulus:
                    00:b5:59:8c:7f:ef:73:e8:b7:59:17:ae:f3:d1:54:
                    52:db:12:f6:96:c2:7d:ef:aa:5a:ad:75:a3:db:db:
                    c5:0d:68:44:ab:c8:02:e3:da:03:f5:a7:46:1d:2a:
                    85:02:6a:5f:49:3a:2c:86:ec:ea:5d:e3:5f:af:b3:
                    e5:3a:a0:06:6d:0c:82:01:37:6e:e5:29:e4:d3:b7:
                    7c:9f:03:4b:92:ab:18:9d:8b:af:ad:ae:40:31:31:
                    0f:db:40:82:fd:4e:1b:56:9f:01:69:0c:16:7a:4b:
                    7c:fd:50:e0:bb:a9:c2:f6:50:94:ec:c3:54:12:1e:
                    e5:c7:76:07:93:1a:0a:df:69
                Exponent: 65537 (0x10001)
        X509v3 extensions:
            X509v3 Basic Constraints: critical
                CA:FALSE
            X509v3 Issuer Alternative Name: critical
                <EMPTY>

    Signature Algorithm: sha256WithRSAEncryption
         1f:85:dc:07:0f:40:3c:c0:60:0f:c4:cc:06:33:58:57:b1:a1:
         04:9c:36:ce:4f:cc:25:7e:2d:63:8a:2f:f1:26:06:da:5d:d1:
         7d:0d:c9:28:a7:0c:f7:60:50:b4:05:5b:e2:03:69:17:3c:b0:
         c1:01:ee:01:4e:17:92:04:6f:c6:2c:36:94:ae:00:4c:b5:08:
         0e:ff:76:d8:8c:89:ae:34:87:ce:bd:33:ba:7b:34:ed:82:11:
         ef:df:3e:09:27:ff:30:55:46:31:44:67:68:f7:62:3f:90:75:
         4c:4c:19:d1:3d:77:4f:48:74:f3:11:d8:06:62:30:b2:5a:8f:
         7d:8d:35:f1:e0:72:60:06:bd:5b:4a:30:ab:df:75:21:90:73:
         63:75:95:61:fe:1e:9c:4e:d8:d5:ec:db:67:d4:8b:57:19:32:
         f3:f2:7e:80:bb:99:55:ff:f5:1a:9e:c2:4b:4e:b3:9d:f2:b7:
         5d:89:4d:bb:93:20:81:24:66:43:9c:b6:3f:b3:26:71:78:0a:
         17:f3:25:76:b4:51:1d:80:fd:44:87:8e:24:17:71:73:7a:8f:
         bd:1a:08:bf:61:57:51:bf:f7:50:44:14:3c:46:1f:d6:fb:e3:
         5c:32:c8:ed:55:45:0a:e9:94:ac:62:b4:89:01:e4:58:19:c0:
         82:d4:b9:08
-----BEGIN CERTIFICATE-----
MIIC/zCCAeegAwIBAgIBEjANBgkqhkiG9w0BAQsFADBxMQswCQYDVQQGEwJVUzET
MBEGA1UECAwKQ2FsaWZvcm5pYTEUMBIGA1UEBwwLU2FudGEgQ2xhcmExDTALBgNV
BAoMBHBrZzUxEDAOBgNVBAMMB2NoMV90YTMxFjAUBgkqhkiG9w0BCQEWB2NoMV90
YTMwHhcNMTYwMzE4MjMzODIwWhcNMTgxMjEzMjMzODIwWjB5MQswCQYDVQQGEwJV
UzETMBEGA1UECAwKQ2FsaWZvcm5pYTEUMBIGA1UEBwwLU2FudGEgQ2xhcmExDTAL
BgNVBAoMBHBrZzUxFDASBgNVBAMMC2NzMl9jaDFfdGEzMRowGAYJKoZIhvcNAQkB
FgtjczJfY2gxX3RhMzCBnzANBgkqhkiG9w0BAQEFAAOBjQAwgYkCgYEAtVmMf+9z
6LdZF67z0VRS2xL2lsJ976parXWj29vFDWhEq8gC49oD9adGHSqFAmpfSToshuzq
XeNfr7PlOqAGbQyCATdu5Snk07d8nwNLkqsYnYuvra5AMTEP20CC/U4bVp8BaQwW
ekt8/VDgu6nC9lCU7MNUEh7lx3YHkxoK32kCAwEAAaMeMBwwDAYDVR0TAQH/BAIw
ADAMBgNVHRIBAf8EAjAAMA0GCSqGSIb3DQEBCwUAA4IBAQAfhdwHD0A8wGAPxMwG
M1hXsaEEnDbOT8wlfi1jii/xJgbaXdF9Dckopwz3YFC0BVviA2kXPLDBAe4BTheS
BG/GLDaUrgBMtQgO/3bYjImuNIfOvTO6ezTtghHv3z4JJ/8wVUYxRGdo92I/kHVM
TBnRPXdPSHTzEdgGYjCyWo99jTXx4HJgBr1bSjCr33UhkHNjdZVh/h6cTtjV7Ntn
1ItXGTLz8n6Au5lV//UansJLTrOd8rddiU27kyCBJGZDnLY/syZxeAoX8yV2tFEd
gP1Eh44kF3Fzeo+9Ggi/YVdRv/dQRBQ8Rh/W++NcMsjtVUUK6ZSsYrSJAeRYGcCC
1LkI
-----END CERTIFICATE-----
