Certificate:
    Data:
        Version: 3 (0x2)
        Serial Number: 7 (0x7)
        Signature Algorithm: sha256WithRSAEncryption
        Issuer: C=US, ST=California, L=Menlo Park, O=pkg5, CN=ch5_ta1/emailAddress=ch5_ta1
        Validity
            Not Before: Mar 21 00:49:24 2011 GMT
            Not After : Dec 15 00:49:24 2013 GMT
        Subject: C=US, ST=California, L=Menlo Park, O=pkg5, CN=cs2_ch5_ta1/emailAddress=cs2_ch5_ta1
        Subject Public Key Info:
            Public Key Algorithm: rsaEncryption
            RSA Public Key: (1024 bit)
                Modulus (1024 bit):
                    00:de:1f:a8:50:7e:6c:fc:18:0a:4a:ef:9e:9e:ef:
                    1a:1c:87:54:8c:2f:09:55:b5:9d:2b:ae:be:ee:ca:
                    30:bf:ed:97:c2:8e:4e:6a:29:e6:d0:98:1a:57:72:
                    19:6d:b3:ad:2c:d0:f0:da:c4:f2:e1:81:27:b5:6a:
                    35:4c:30:d3:d5:54:e7:b5:3b:04:04:63:b5:05:0a:
                    50:35:44:19:14:7f:a9:ff:e1:24:e4:63:ef:81:f4:
                    9e:42:4a:14:b2:b4:ef:ae:36:94:a3:ad:23:3f:67:
                    2e:69:61:28:3a:2f:1b:9f:d8:f3:e3:76:f0:6c:88:
                    95:41:33:71:51:f1:90:8f:1d
                Exponent: 65537 (0x10001)
        X509v3 extensions:
            X509v3 Basic Constraints: critical
                CA:FALSE
            X509v3 CRL Distribution Points: 
                URI:http://localhost:12001/file/0/ch5_ta1_crl.pem

    Signature Algorithm: sha256WithRSAEncryption
        67:d1:ca:3f:b4:bc:18:78:03:7b:48:ce:90:a0:01:b9:44:f4:
        2a:08:25:94:f0:62:dc:4d:62:dc:8d:36:44:db:63:87:af:21:
        06:56:89:b8:e1:6b:31:58:e4:b3:94:57:86:ea:7c:89:0e:38:
        69:eb:9f:75:c2:79:55:b4:fc:e8:d9:45:0c:a1:52:8e:f2:d0:
        b5:35:51:b9:e1:10:50:5a:f3:50:e7:93:76:11:a4:00:e6:38:
        59:0d:0d:0d:2e:e8:66:30:20:0e:b0:5b:00:aa:ac:7d:14:ec:
        60:02:c1:b9:38:28:1b:42:f9:20:c8:43:13:cc:7e:86:33:eb:
        10:70
-----BEGIN CERTIFICATE-----
MIICrjCCAhegAwIBAgIBBzANBgkqhkiG9w0BAQsFADBwMQswCQYDVQQGEwJVUzET
MBEGA1UECBMKQ2FsaWZvcm5pYTETMBEGA1UEBxMKTWVubG8gUGFyazENMAsGA1UE
ChMEcGtnNTEQMA4GA1UEAxQHY2g1X3RhMTEWMBQGCSqGSIb3DQEJARYHY2g1X3Rh
MTAeFw0xMTAzMjEwMDQ5MjRaFw0xMzEyMTUwMDQ5MjRaMHgxCzAJBgNVBAYTAlVT
MRMwEQYDVQQIEwpDYWxpZm9ybmlhMRMwEQYDVQQHEwpNZW5sbyBQYXJrMQ0wCwYD
VQQKEwRwa2c1MRQwEgYDVQQDFAtjczJfY2g1X3RhMTEaMBgGCSqGSIb3DQEJARYL
Y3MyX2NoNV90YTEwgZ8wDQYJKoZIhvcNAQEBBQADgY0AMIGJAoGBAN4fqFB+bPwY
Ckrvnp7vGhyHVIwvCVW1nSuuvu7KML/tl8KOTmop5tCYGldyGW2zrSzQ8NrE8uGB
J7VqNUww09VU57U7BARjtQUKUDVEGRR/qf/hJORj74H0nkJKFLK07642lKOtIz9n
LmlhKDovG5/Y8+N28GyIlUEzcVHxkI8dAgMBAAGjUDBOMAwGA1UdEwEB/wQCMAAw
PgYDVR0fBDcwNTAzoDGgL4YtaHR0cDovL2xvY2FsaG9zdDoxMjAwMS9maWxlLzAv
Y2g1X3RhMV9jcmwucGVtMA0GCSqGSIb3DQEBCwUAA4GBAGfRyj+0vBh4A3tIzpCg
AblE9CoIJZTwYtxNYtyNNkTbY4evIQZWibjhazFY5LOUV4bqfIkOOGnrn3XCeVW0
/OjZRQyhUo7y0LU1UbnhEFBa81Dnk3YRpADmOFkNDQ0u6GYwIA6wWwCqrH0U7GAC
wbk4KBtC+SDIQxPMfoYz6xBw
-----END CERTIFICATE-----
