Certificate:
    Data:
        Version: 3 (0x2)
        Serial Number: 36 (0x24)
    Signature Algorithm: sha256WithRSAEncryption
        Issuer: C=US, ST=California, L=Santa Clara, O=pkg5, CN=ch1_ta4/emailAddress=ch1_ta4
        Validity
            Not Before: Sep 22 05:33:31 2021 GMT
            Not After : Jun 18 05:33:31 2024 GMT
        Subject: C=US, ST=California, L=Santa Clara, O=pkg5, CN=cs2_ch1_ta4/emailAddress=cs2_ch1_ta4
        Subject Public Key Info:
            Public Key Algorithm: rsaEncryption
                Public-Key: (1024 bit)
                Modulus:
                    00:e8:57:ba:40:48:0f:82:6b:f3:fb:8e:2a:2d:b1:
                    0b:b8:4a:a9:bc:9c:b0:23:96:c3:4c:c6:8c:de:06:
                    eb:ef:68:bc:70:33:9d:8f:78:29:1b:6b:05:71:ed:
                    c9:2c:8c:45:cb:d6:5f:8b:a3:23:2e:08:7c:7f:19:
                    1e:d6:4f:dd:86:a1:2b:07:ab:4e:00:11:8d:45:b2:
                    ab:54:03:c0:92:e2:34:8d:3e:51:7c:45:ed:d7:a1:
                    12:23:64:73:a0:c4:e7:20:c5:1d:bc:46:98:2b:b2:
                    80:cb:12:d0:c4:b2:f6:dd:e0:b3:3a:f2:b5:88:04:
                    8f:e5:0f:3f:16:73:2b:fd:c3
                Exponent: 65537 (0x10001)
        X509v3 extensions:
            X509v3 Subject Key Identifier: 
                5B:77:4F:2F:30:D7:3B:EB:24:FD:1C:FB:4C:16:23:BA:31:BD:64:87
            X509v3 Authority Key Identifier: 
                keyid:E3:7C:EE:D8:69:24:F4:F6:A2:B5:52:49:4C:3B:10:57:03:DA:97:06
                DirName:/C=US/ST=California/L=Santa Clara/O=pkg5/CN=ta4/emailAddress=ta4
                serial:22

            X509v3 Basic Constraints: critical
                CA:FALSE
            X509v3 CRL Distribution Points: 

                Full Name:
                  URI:http://localhost:12001/file/0/example_file

    Signature Algorithm: sha256WithRSAEncryption
         21:ef:d3:9b:03:75:98:07:bf:24:65:3a:b9:87:69:87:f7:cd:
         86:a4:f8:98:9f:4d:fe:0f:30:de:7b:f6:0e:af:25:76:98:cc:
         f2:3f:f4:2e:3a:9e:07:0a:59:cb:4e:fb:db:ab:32:bc:63:52:
         6b:f2:80:87:29:78:ef:34:14:e6:17:83:e1:d1:01:e4:db:a8:
         0f:4a:df:47:29:56:89:35:46:55:ff:e6:eb:2a:d7:8b:48:ab:
         66:ab:b6:80:da:11:e5:bc:5f:a3:e8:0a:fb:9f:43:9d:99:dd:
         41:8b:ab:e0:0e:34:a4:52:22:4e:8d:fa:2c:e4:7e:7f:1e:04:
         83:35:26:43:f9:1c:75:3f:f7:36:28:d9:68:56:da:a3:48:b9:
         31:d1:c3:3b:b4:24:0d:28:97:5c:33:89:f4:90:be:99:6f:dd:
         9b:7a:d3:ac:1d:4d:43:a6:76:e2:04:87:4a:db:cc:26:c3:37:
         e3:6a:6a:8f:2c:28:0f:25:72:fd:31:d0:c1:52:1e:44:db:8f:
         8b:e0:87:19:aa:90:6c:ed:4b:45:90:94:e9:93:7c:9b:10:32:
         3b:03:26:59:5a:2f:33:06:57:0f:15:9a:2b:bf:fc:3d:54:7f:
         78:9f:ab:e1:f6:0c:52:e0:d3:62:66:3f:78:3c:7e:dc:4a:c8:
         7d:b3:3e:ee
-----BEGIN CERTIFICATE-----
MIID5zCCAs+gAwIBAgIBJDANBgkqhkiG9w0BAQsFADBxMQswCQYDVQQGEwJVUzET
MBEGA1UECAwKQ2FsaWZvcm5pYTEUMBIGA1UEBwwLU2FudGEgQ2xhcmExDTALBgNV
BAoMBHBrZzUxEDAOBgNVBAMMB2NoMV90YTQxFjAUBgkqhkiG9w0BCQEWB2NoMV90
YTQwHhcNMjEwOTIyMDUzMzMxWhcNMjQwNjE4MDUzMzMxWjB5MQswCQYDVQQGEwJV
UzETMBEGA1UECAwKQ2FsaWZvcm5pYTEUMBIGA1UEBwwLU2FudGEgQ2xhcmExDTAL
BgNVBAoMBHBrZzUxFDASBgNVBAMMC2NzMl9jaDFfdGE0MRowGAYJKoZIhvcNAQkB
FgtjczJfY2gxX3RhNDCBnzANBgkqhkiG9w0BAQEFAAOBjQAwgYkCgYEA6Fe6QEgP
gmvz+44qLbELuEqpvJywI5bDTMaM3gbr72i8cDOdj3gpG2sFce3JLIxFy9Zfi6Mj
Lgh8fxke1k/dhqErB6tOABGNRbKrVAPAkuI0jT5RfEXt16ESI2RzoMTnIMUdvEaY
K7KAyxLQxLL23eCzOvK1iASP5Q8/FnMr/cMCAwEAAaOCAQQwggEAMB0GA1UdDgQW
BBRbd08vMNc76yT9HPtMFiO6Mb1khzCBkwYDVR0jBIGLMIGIgBTjfO7YaST09qK1
UklMOxBXA9qXBqFtpGswaTELMAkGA1UEBhMCVVMxEzARBgNVBAgMCkNhbGlmb3Ju
aWExFDASBgNVBAcMC1NhbnRhIENsYXJhMQ0wCwYDVQQKDARwa2c1MQwwCgYDVQQD
DAN0YTQxEjAQBgkqhkiG9w0BCQEWA3RhNIIBIjAMBgNVHRMBAf8EAjAAMDsGA1Ud
HwQ0MDIwMKAuoCyGKmh0dHA6Ly9sb2NhbGhvc3Q6MTIwMDEvZmlsZS8wL2V4YW1w
bGVfZmlsZTANBgkqhkiG9w0BAQsFAAOCAQEAIe/TmwN1mAe/JGU6uYdph/fNhqT4
mJ9N/g8w3nv2Dq8ldpjM8j/0LjqeBwpZy07726syvGNSa/KAhyl47zQU5heD4dEB
5NuoD0rfRylWiTVGVf/m6yrXi0irZqu2gNoR5bxfo+gK+59DnZndQYur4A40pFIi
To36LOR+fx4EgzUmQ/kcdT/3NijZaFbao0i5MdHDO7QkDSiXXDOJ9JC+mW/dm3rT
rB1NQ6Z24gSHStvMJsM342pqjywoDyVy/THQwVIeRNuPi+CHGaqQbO1LRZCU6ZN8
mxAyOwMmWVovMwZXDxWaK7/8PVR/eJ+r4fYMUuDTYmY/eDx+3ErIfbM+7g==
-----END CERTIFICATE-----
