Certificate:
    Data:
        Version: 3 (0x2)
        Serial Number: 7 (0x7)
        Signature Algorithm: sha256WithRSAEncryption
        Issuer: C=US, ST=California, L=Menlo Park, O=pkg5, CN=ch5_ta1/emailAddress=ch5_ta1
        Validity
            Not Before: Apr 11 22:37:40 2011 GMT
            Not After : Jan  5 22:37:40 2014 GMT
        Subject: C=US, ST=California, L=Menlo Park, O=pkg5, CN=cs2_ch5_ta1/emailAddress=cs2_ch5_ta1
        Subject Public Key Info:
            Public Key Algorithm: rsaEncryption
            RSA Public Key: (1024 bit)
                Modulus (1024 bit):
                    00:cd:c9:ab:ee:a1:89:01:60:89:00:7c:93:1f:fe:
                    4c:54:75:58:52:81:b0:cb:be:4c:a7:a7:23:18:86:
                    0e:9f:e1:41:99:dd:ff:e7:f3:66:1d:41:dd:aa:9e:
                    f7:23:2d:c4:0e:24:16:e2:4d:54:8b:38:72:55:b4:
                    11:26:f9:fc:04:fe:de:9b:83:02:01:98:36:8e:41:
                    42:f2:0b:a7:07:00:f9:0e:66:96:a0:e4:f3:32:06:
                    26:9d:41:fb:91:bf:7e:a8:c0:c7:62:e1:c9:ce:37:
                    de:07:b5:df:55:87:9a:a5:3b:d4:c5:b6:24:4b:2a:
                    e4:88:50:85:e9:d9:13:12:47
                Exponent: 65537 (0x10001)
        X509v3 extensions:
            X509v3 Basic Constraints: critical
                CA:FALSE
            X509v3 CRL Distribution Points: 
                URI:http://localhost:12001/file/0/ch5_ta1_crl.pem

    Signature Algorithm: sha256WithRSAEncryption
        58:ba:80:0f:56:d9:4e:90:97:38:a2:f5:b7:3d:98:ff:32:ec:
        63:01:79:25:5a:5b:d4:ac:bc:aa:e1:2d:c8:ea:34:32:b0:aa:
        ce:9f:de:e7:f2:f7:35:f8:e5:71:97:27:d1:66:80:e8:22:c7:
        bc:23:31:2b:98:60:b4:76:7b:62:38:ff:14:57:24:64:37:6b:
        9d:22:2a:f9:16:90:91:01:d7:f3:91:24:29:c3:c6:53:7a:0b:
        e9:af:2b:3b:5e:77:61:83:48:e8:e2:f2:a6:44:cc:5e:90:36:
        f2:8e:dd:59:b6:c8:21:92:17:30:87:66:c9:08:2d:b9:5b:3a:
        f2:4e
-----BEGIN CERTIFICATE-----
MIICrjCCAhegAwIBAgIBBzANBgkqhkiG9w0BAQsFADBwMQswCQYDVQQGEwJVUzET
MBEGA1UECBMKQ2FsaWZvcm5pYTETMBEGA1UEBxMKTWVubG8gUGFyazENMAsGA1UE
ChMEcGtnNTEQMA4GA1UEAxQHY2g1X3RhMTEWMBQGCSqGSIb3DQEJARYHY2g1X3Rh
MTAeFw0xMTA0MTEyMjM3NDBaFw0xNDAxMDUyMjM3NDBaMHgxCzAJBgNVBAYTAlVT
MRMwEQYDVQQIEwpDYWxpZm9ybmlhMRMwEQYDVQQHEwpNZW5sbyBQYXJrMQ0wCwYD
VQQKEwRwa2c1MRQwEgYDVQQDFAtjczJfY2g1X3RhMTEaMBgGCSqGSIb3DQEJARYL
Y3MyX2NoNV90YTEwgZ8wDQYJKoZIhvcNAQEBBQADgY0AMIGJAoGBAM3Jq+6hiQFg
iQB8kx/+TFR1WFKBsMu+TKenIxiGDp/hQZnd/+fzZh1B3aqe9yMtxA4kFuJNVIs4
clW0ESb5/AT+3puDAgGYNo5BQvILpwcA+Q5mlqDk8zIGJp1B+5G/fqjAx2Lhyc43
3ge131WHmqU71MW2JEsq5IhQhenZExJHAgMBAAGjUDBOMAwGA1UdEwEB/wQCMAAw
PgYDVR0fBDcwNTAzoDGgL4YtaHR0cDovL2xvY2FsaG9zdDoxMjAwMS9maWxlLzAv
Y2g1X3RhMV9jcmwucGVtMA0GCSqGSIb3DQEBCwUAA4GBAFi6gA9W2U6Qlzii9bc9
mP8y7GMBeSVaW9SsvKrhLcjqNDKwqs6f3ufy9zX45XGXJ9FmgOgix7wjMSuYYLR2
e2I4/xRXJGQ3a50iKvkWkJEB1/ORJCnDxlN6C+mvKzted2GDSOji8qZEzF6QNvKO
3Vm2yCGSFzCHZskILblbOvJO
-----END CERTIFICATE-----
