Certificate:
    Data:
        Version: 3 (0x2)
        Serial Number: 25 (0x19)
        Signature Algorithm: sha256WithRSAEncryption
        Issuer: C=US, ST=California, L=Menlo Park, O=pkg5, CN=pubCA1_ta4/emailAddress=pubCA1_ta4
        Validity
            Not Before: Aug  4 20:59:29 2010 GMT
            Not After : Apr 30 20:59:29 2013 GMT
        Subject: C=US, ST=California, L=Menlo Park, O=pkg5, CN=cs2_ta4/emailAddress=cs2_ta4
        Subject Public Key Info:
            Public Key Algorithm: rsaEncryption
            RSA Public Key: (1024 bit)
                Modulus (1024 bit):
                    00:d3:11:f2:56:c0:36:ef:ad:7f:18:53:a7:29:77:
                    9f:6a:82:43:cd:a6:65:0c:5e:ca:39:d9:fa:83:b2:
                    0d:24:e5:10:ae:85:c5:dc:02:aa:a6:38:4f:31:f3:
                    b6:ab:47:37:9b:f8:99:80:6c:d3:35:36:81:72:f1:
                    93:0f:6b:dd:ca:d7:5d:a1:6a:30:74:6e:07:9c:47:
                    c3:35:69:fc:38:e6:b5:3d:bc:65:e6:ad:67:ea:22:
                    90:06:d3:eb:aa:64:2f:3e:b3:4c:e1:a4:65:14:8e:
                    b2:96:85:fc:3c:1d:01:a5:4a:16:1a:b2:84:e9:a8:
                    03:d1:09:be:7b:3c:3b:0e:ed
                Exponent: 65537 (0x10001)
        X509v3 extensions:
            X509v3 Subject Key Identifier: 
                5A:AE:AB:13:F4:60:55:35:31:96:FF:3F:20:AD:22:DF:EE:C7:4E:D3
            X509v3 Authority Key Identifier: 
                keyid:EE:8D:78:53:11:FE:07:CB:C8:55:4B:EF:A6:2F:E1:83:72:BB:BA:21
                DirName:/C=US/ST=California/L=Menlo Park/O=pkg5/CN=ta4/emailAddress=ta4
                serial:17

            X509v3 Basic Constraints: critical
                CA:FALSE
            X509v3 CRL Distribution Points: 
                URI:http://localhost:12001/file/0/example_file

    Signature Algorithm: sha256WithRSAEncryption
        4d:74:90:ac:a2:9c:93:39:0c:41:a7:c1:2b:73:56:97:14:32:
        8d:64:01:78:82:a1:6f:a6:9c:3d:f5:75:80:3e:e2:b5:6c:cf:
        c8:f2:21:46:05:e2:30:da:ce:41:88:96:87:ac:7b:a6:42:2a:
        96:f7:1e:8d:4c:92:43:97:8f:99:08:29:47:ce:95:fb:7a:4e:
        84:2c:0b:80:4b:c9:bf:a1:dc:0b:63:c6:9c:4f:c4:59:12:39:
        e5:97:ee:6b:6e:86:33:18:43:da:16:5e:51:24:d0:0d:05:92:
        7d:12:89:cd:21:fc:4e:52:86:9a:02:f9:5e:51:38:62:55:33:
        d3:db
-----BEGIN CERTIFICATE-----
MIIDYDCCAsmgAwIBAgIBGTANBgkqhkiG9w0BAQsFADB2MQswCQYDVQQGEwJVUzET
MBEGA1UECBMKQ2FsaWZvcm5pYTETMBEGA1UEBxMKTWVubG8gUGFyazENMAsGA1UE
ChMEcGtnNTETMBEGA1UEAxQKcHViQ0ExX3RhNDEZMBcGCSqGSIb3DQEJARYKcHVi
Q0ExX3RhNDAeFw0xMDA4MDQyMDU5MjlaFw0xMzA0MzAyMDU5MjlaMHAxCzAJBgNV
BAYTAlVTMRMwEQYDVQQIEwpDYWxpZm9ybmlhMRMwEQYDVQQHEwpNZW5sbyBQYXJr
MQ0wCwYDVQQKEwRwa2c1MRAwDgYDVQQDFAdjczJfdGE0MRYwFAYJKoZIhvcNAQkB
FgdjczJfdGE0MIGfMA0GCSqGSIb3DQEBAQUAA4GNADCBiQKBgQDTEfJWwDbvrX8Y
U6cpd59qgkPNpmUMXso52fqDsg0k5RCuhcXcAqqmOE8x87arRzeb+JmAbNM1NoFy
8ZMPa93K112hajB0bgecR8M1afw45rU9vGXmrWfqIpAG0+uqZC8+s0zhpGUUjrKW
hfw8HQGlShYasoTpqAPRCb57PDsO7QIDAQABo4IBAjCB/zAdBgNVHQ4EFgQUWq6r
E/RgVTUxlv8/IK0i3+7HTtMwgZIGA1UdIwSBijCBh4AU7o14UxH+B8vIVUvvpi/h
g3K7uiGhbKRqMGgxCzAJBgNVBAYTAlVTMRMwEQYDVQQIEwpDYWxpZm9ybmlhMRMw
EQYDVQQHEwpNZW5sbyBQYXJrMQ0wCwYDVQQKEwRwa2c1MQwwCgYDVQQDEwN0YTQx
EjAQBgkqhkiG9w0BCQEWA3RhNIIBFzAMBgNVHRMBAf8EAjAAMDsGA1UdHwQ0MDIw
MKAuoCyGKmh0dHA6Ly9sb2NhbGhvc3Q6MTIwMDEvZmlsZS8wL2V4YW1wbGVfZmls
ZTANBgkqhkiG9w0BAQsFAAOBgQBNdJCsopyTOQxBp8Erc1aXFDKNZAF4gqFvppw9
9XWAPuK1bM/I8iFGBeIw2s5BiJaHrHumQiqW9x6NTJJDl4+ZCClHzpX7ek6ELAuA
S8m/odwLY8acT8RZEjnll+5rboYzGEPaFl5RJNANBZJ9EonNIfxOUoaaAvleUThi
VTPT2w==
-----END CERTIFICATE-----
