Certificate:
    Data:
        Version: 3 (0x2)
        Serial Number: 36 (0x24)
    Signature Algorithm: sha256WithRSAEncryption
        Issuer: C=US, ST=California, L=Santa Clara, O=pkg5, CN=ch1_ta4/emailAddress=ch1_ta4
        Validity
            Not Before: Dec 13 00:13:37 2013 GMT
            Not After : Sep  8 00:13:37 2016 GMT
        Subject: C=US, ST=California, L=Santa Clara, O=pkg5, CN=cs2_ch1_ta4/emailAddress=cs2_ch1_ta4
        Subject Public Key Info:
            Public Key Algorithm: rsaEncryption
                Public-Key: (1024 bit)
                Modulus:
                    00:ad:94:3a:b1:fd:3e:be:1e:33:73:ab:48:e2:ea:
                    99:d8:1d:4d:c4:80:e6:fe:b6:6e:86:45:c4:86:81:
                    df:c5:63:3d:b7:9b:50:75:bc:09:9d:cd:95:6c:6c:
                    47:88:6d:0c:0c:24:7a:b9:50:f0:39:12:4b:6b:0c:
                    2e:a3:7d:80:27:61:53:8b:63:c0:2e:a2:9e:b1:4d:
                    0b:5a:a4:fd:6f:32:20:1d:2c:ea:18:c4:e5:ed:62:
                    4d:ec:a7:ab:07:6e:8b:3f:c2:29:c7:30:90:7f:6a:
                    2a:cc:08:9b:82:4b:24:a1:79:a2:06:a6:5c:7a:60:
                    83:c5:ba:68:2c:ff:01:1f:d1
                Exponent: 65537 (0x10001)
        X509v3 extensions:
            X509v3 Subject Key Identifier: 
                9F:BB:AE:D3:46:0F:B1:D1:1B:E5:D0:7F:06:5D:5B:3D:15:22:E3:C5
            X509v3 Authority Key Identifier: 
                keyid:29:7A:F9:B4:E3:1B:8F:19:63:52:FA:19:A0:AB:DA:37:E4:70:A9:71
                DirName:/C=US/ST=California/L=Santa Clara/O=pkg5/CN=ta4/emailAddress=ta4
                serial:22

            X509v3 Basic Constraints: critical
                CA:FALSE
            X509v3 CRL Distribution Points: 

                Full Name:
                  URI:http://localhost:12001/file/0/example_file

    Signature Algorithm: sha256WithRSAEncryption
         19:54:e0:5b:f7:80:a2:90:05:af:21:fe:4c:1f:f1:4b:c1:2f:
         36:f3:e4:d1:93:16:67:48:89:62:69:37:92:71:61:aa:f1:4a:
         2d:fa:ca:cd:69:e5:50:53:45:0a:91:2c:44:f8:44:22:02:82:
         cd:6d:4b:15:85:cf:8d:ea:f8:98:1b:ff:7c:54:10:48:07:81:
         a4:04:37:36:c1:95:72:e6:a6:e7:db:59:2f:1c:c9:b4:46:da:
         98:53:e6:2e:24:9a:f3:9d:74:62:d5:28:96:66:a1:a2:47:21:
         0e:5d:8e:be:89:ac:d2:4f:89:eb:fd:db:2d:e0:92:d7:a8:99:
         c7:cf
-----BEGIN CERTIFICATE-----
MIIDZjCCAs+gAwIBAgIBJDANBgkqhkiG9w0BAQsFADBxMQswCQYDVQQGEwJVUzET
MBEGA1UECAwKQ2FsaWZvcm5pYTEUMBIGA1UEBwwLU2FudGEgQ2xhcmExDTALBgNV
BAoMBHBrZzUxEDAOBgNVBAMMB2NoMV90YTQxFjAUBgkqhkiG9w0BCQEWB2NoMV90
YTQwHhcNMTMxMjEzMDAxMzM3WhcNMTYwOTA4MDAxMzM3WjB5MQswCQYDVQQGEwJV
UzETMBEGA1UECAwKQ2FsaWZvcm5pYTEUMBIGA1UEBwwLU2FudGEgQ2xhcmExDTAL
BgNVBAoMBHBrZzUxFDASBgNVBAMMC2NzMl9jaDFfdGE0MRowGAYJKoZIhvcNAQkB
FgtjczJfY2gxX3RhNDCBnzANBgkqhkiG9w0BAQEFAAOBjQAwgYkCgYEArZQ6sf0+
vh4zc6tI4uqZ2B1NxIDm/rZuhkXEhoHfxWM9t5tQdbwJnc2VbGxHiG0MDCR6uVDw
ORJLawwuo32AJ2FTi2PALqKesU0LWqT9bzIgHSzqGMTl7WJN7KerB26LP8IpxzCQ
f2oqzAibgkskoXmiBqZcemCDxbpoLP8BH9ECAwEAAaOCAQQwggEAMB0GA1UdDgQW
BBSfu67TRg+x0Rvl0H8GXVs9FSLjxTCBkwYDVR0jBIGLMIGIgBQpevm04xuPGWNS
+hmgq9o35HCpcaFtpGswaTELMAkGA1UEBhMCVVMxEzARBgNVBAgMCkNhbGlmb3Ju
aWExFDASBgNVBAcMC1NhbnRhIENsYXJhMQ0wCwYDVQQKDARwa2c1MQwwCgYDVQQD
DAN0YTQxEjAQBgkqhkiG9w0BCQEWA3RhNIIBIjAMBgNVHRMBAf8EAjAAMDsGA1Ud
HwQ0MDIwMKAuoCyGKmh0dHA6Ly9sb2NhbGhvc3Q6MTIwMDEvZmlsZS8wL2V4YW1w
bGVfZmlsZTANBgkqhkiG9w0BAQsFAAOBgQAZVOBb94CikAWvIf5MH/FLwS828+TR
kxZnSIliaTeScWGq8Uot+srNaeVQU0UKkSxE+EQiAoLNbUsVhc+N6viYG/98VBBI
B4GkBDc2wZVy5qbn21kvHMm0RtqYU+YuJJrznXRi1SiWZqGiRyEOXY6+iazST4nr
/dst4JLXqJnHzw==
-----END CERTIFICATE-----
