Certificate:
    Data:
        Version: 3 (0x2)
        Serial Number: 18 (0x12)
    Signature Algorithm: sha256WithRSAEncryption
        Issuer: C=US, ST=California, L=Santa Clara, O=pkg5, CN=ch1_ta3/emailAddress=ch1_ta3
        Validity
            Not Before: Jan 22 01:57:56 2016 GMT
            Not After : Oct 18 01:57:56 2018 GMT
        Subject: C=US, ST=California, L=Santa Clara, O=pkg5, CN=cs2_ch1_ta3/emailAddress=cs2_ch1_ta3
        Subject Public Key Info:
            Public Key Algorithm: rsaEncryption
                Public-Key: (1024 bit)
                Modulus:
                    00:a7:2e:16:f6:57:bd:96:ef:ec:40:c5:df:96:74:
                    2f:34:9c:1f:66:a1:62:96:f3:fb:34:aa:ab:44:47:
                    3b:0b:24:b1:ca:94:91:23:48:0e:0d:7a:07:57:87:
                    1b:12:62:90:9f:b1:66:37:74:59:18:df:7b:ea:f2:
                    04:b8:e9:d2:b8:cd:a9:67:2c:7d:59:81:7c:89:67:
                    d3:44:e6:76:05:96:84:d1:eb:13:77:a3:cc:c8:58:
                    ed:ce:d7:af:ef:e2:35:c0:ad:4e:f3:f9:c5:e9:68:
                    39:35:0f:7d:90:cf:0b:29:d1:d9:19:a8:3b:17:2e:
                    a1:53:19:e3:a2:99:6d:aa:3b
                Exponent: 65537 (0x10001)
        X509v3 extensions:
            X509v3 Basic Constraints: critical
                CA:FALSE
            X509v3 Issuer Alternative Name: critical
                <EMPTY>

    Signature Algorithm: sha256WithRSAEncryption
         83:33:ef:16:73:52:9e:83:99:ef:b6:f8:79:71:bc:0f:9e:58:
         29:10:6b:8e:35:b4:40:d4:6a:51:0c:6a:e0:d9:29:f3:35:03:
         79:4b:eb:42:57:f4:69:df:51:ef:aa:07:53:5d:84:64:e0:df:
         82:49:1f:bf:79:3e:51:c6:d4:f5:39:a3:cf:7a:39:9a:a0:3d:
         d8:df:88:b0:b4:c1:2c:5c:35:93:03:86:19:1d:b4:0f:02:b5:
         78:89:3a:c5:05:1d:ed:87:09:5b:0f:34:2f:50:10:a8:ca:12:
         60:cb:0b:b1:a5:68:7c:54:e6:15:c5:f9:01:92:28:72:10:bc:
         64:1d:cc:3b:55:90:d0:e9:8d:30:e8:cf:3b:46:ab:a7:84:bf:
         67:60:2b:83:f3:46:23:11:a8:69:d0:b7:8f:27:1f:f3:32:86:
         40:fc:1f:34:bc:8d:66:66:22:3d:f1:9c:77:4a:c4:89:2d:ae:
         32:ed:53:75:ef:02:46:37:3c:06:bd:31:cc:44:72:d1:7a:57:
         17:91:5c:27:4b:13:9c:7b:59:e8:5c:ce:03:0c:f4:45:d8:68:
         e6:0d:35:03:fd:11:8f:30:9b:79:a8:4e:3a:99:b5:d5:0f:cf:
         cf:eb:24:ce:63:09:86:c1:f7:f2:2c:0b:8e:65:b3:ed:ed:0d:
         49:bc:17:76
-----BEGIN CERTIFICATE-----
MIIC/zCCAeegAwIBAgIBEjANBgkqhkiG9w0BAQsFADBxMQswCQYDVQQGEwJVUzET
MBEGA1UECAwKQ2FsaWZvcm5pYTEUMBIGA1UEBwwLU2FudGEgQ2xhcmExDTALBgNV
BAoMBHBrZzUxEDAOBgNVBAMMB2NoMV90YTMxFjAUBgkqhkiG9w0BCQEWB2NoMV90
YTMwHhcNMTYwMTIyMDE1NzU2WhcNMTgxMDE4MDE1NzU2WjB5MQswCQYDVQQGEwJV
UzETMBEGA1UECAwKQ2FsaWZvcm5pYTEUMBIGA1UEBwwLU2FudGEgQ2xhcmExDTAL
BgNVBAoMBHBrZzUxFDASBgNVBAMMC2NzMl9jaDFfdGEzMRowGAYJKoZIhvcNAQkB
FgtjczJfY2gxX3RhMzCBnzANBgkqhkiG9w0BAQEFAAOBjQAwgYkCgYEApy4W9le9
lu/sQMXflnQvNJwfZqFilvP7NKqrREc7CySxypSRI0gODXoHV4cbEmKQn7FmN3RZ
GN976vIEuOnSuM2pZyx9WYF8iWfTROZ2BZaE0esTd6PMyFjtztev7+I1wK1O8/nF
6Wg5NQ99kM8LKdHZGag7Fy6hUxnjopltqjsCAwEAAaMeMBwwDAYDVR0TAQH/BAIw
ADAMBgNVHRIBAf8EAjAAMA0GCSqGSIb3DQEBCwUAA4IBAQCDM+8Wc1Keg5nvtvh5
cbwPnlgpEGuONbRA1GpRDGrg2SnzNQN5S+tCV/Rp31HvqgdTXYRk4N+CSR+/eT5R
xtT1OaPPejmaoD3Y34iwtMEsXDWTA4YZHbQPArV4iTrFBR3thwlbDzQvUBCoyhJg
ywuxpWh8VOYVxfkBkihyELxkHcw7VZDQ6Y0w6M87RqunhL9nYCuD80YjEahp0LeP
Jx/zMoZA/B80vI1mZiI98Zx3SsSJLa4y7VN17wJGNzwGvTHMRHLRelcXkVwnSxOc
e1noXM4DDPRF2GjmDTUD/RGPMJt5qE46mbXVD8/P6yTOYwmGwffyLAuOZbPt7Q1J
vBd2
-----END CERTIFICATE-----
