Certificate:
    Data:
        Version: 3 (0x2)
        Serial Number: 14 (0xe)
        Signature Algorithm: sha256WithRSAEncryption
        Issuer: C=US, ST=California, L=Menlo Park, O=pkg5, CN=pubCA1_ta3/emailAddress=pubCA1_ta3
        Validity
            Not Before: Jan 28 02:54:18 2011 GMT
            Not After : Oct 24 02:54:18 2013 GMT
        Subject: C=US, ST=California, L=Menlo Park, O=pkg5, CN=cs2_p1_ta3/emailAddress=cs2_p1_ta3
        Subject Public Key Info:
            Public Key Algorithm: rsaEncryption
            RSA Public Key: (1024 bit)
                Modulus (1024 bit):
                    00:bd:d7:4b:2b:72:c6:0b:98:3b:3d:ec:72:3f:64:
                    78:bf:a2:c5:47:c1:20:2c:2c:b4:e5:0e:2c:be:aa:
                    7c:ec:9f:ea:ec:06:24:fa:e3:0d:64:ce:4c:59:84:
                    4c:c9:65:40:1f:d0:74:de:1b:90:49:ab:70:22:b7:
                    9b:ae:13:98:df:66:44:b4:2c:82:8b:c8:43:54:c0:
                    e3:bf:71:61:5a:96:4f:ef:86:f7:e0:d6:84:5d:81:
                    40:0f:1d:d5:25:98:fb:19:52:4b:40:39:3e:2a:d2:
                    2f:f6:15:7f:94:19:19:44:d7:85:c4:b5:9e:2a:e2:
                    e3:ca:8d:a4:8f:84:22:b8:0d
                Exponent: 65537 (0x10001)
        X509v3 extensions:
            X509v3 Basic Constraints: critical
                CA:FALSE
            X509v3 Issuer Alternative Name: critical
                <EMPTY>

    Signature Algorithm: sha256WithRSAEncryption
        12:18:e4:2e:db:dc:d1:db:98:c7:15:88:5e:10:47:9d:89:55:
        b8:43:44:2b:30:ff:ca:b9:19:74:ff:f3:05:c3:60:bb:f9:3a:
        5e:61:41:da:a3:03:59:cd:ae:39:d0:0b:83:e3:df:19:e5:1a:
        92:79:09:d6:6d:e4:00:4c:32:45:cf:7f:3e:bc:96:c6:2e:7d:
        80:d5:ae:11:c6:3d:4c:81:bb:97:39:9f:55:74:36:d5:19:63:
        ea:25:43:bc:8e:ab:88:86:e7:53:8f:e8:30:9a:51:3e:f1:6f:
        a2:21:43:b5:c8:d8:0b:84:65:a8:d5:06:55:f4:38:b9:35:90:
        ee:47
-----BEGIN CERTIFICATE-----
MIICgDCCAemgAwIBAgIBDjANBgkqhkiG9w0BAQsFADB2MQswCQYDVQQGEwJVUzET
MBEGA1UECBMKQ2FsaWZvcm5pYTETMBEGA1UEBxMKTWVubG8gUGFyazENMAsGA1UE
ChMEcGtnNTETMBEGA1UEAxQKcHViQ0ExX3RhMzEZMBcGCSqGSIb3DQEJARYKcHVi
Q0ExX3RhMzAeFw0xMTAxMjgwMjU0MThaFw0xMzEwMjQwMjU0MThaMHYxCzAJBgNV
BAYTAlVTMRMwEQYDVQQIEwpDYWxpZm9ybmlhMRMwEQYDVQQHEwpNZW5sbyBQYXJr
MQ0wCwYDVQQKEwRwa2c1MRMwEQYDVQQDFApjczJfcDFfdGEzMRkwFwYJKoZIhvcN
AQkBFgpjczJfcDFfdGEzMIGfMA0GCSqGSIb3DQEBAQUAA4GNADCBiQKBgQC910sr
csYLmDs97HI/ZHi/osVHwSAsLLTlDiy+qnzsn+rsBiT64w1kzkxZhEzJZUAf0HTe
G5BJq3Ait5uuE5jfZkS0LIKLyENUwOO/cWFalk/vhvfg1oRdgUAPHdUlmPsZUktA
OT4q0i/2FX+UGRlE14XEtZ4q4uPKjaSPhCK4DQIDAQABox4wHDAMBgNVHRMBAf8E
AjAAMAwGA1UdEgEB/wQCMAAwDQYJKoZIhvcNAQELBQADgYEAEhjkLtvc0duYxxWI
XhBHnYlVuENEKzD/yrkZdP/zBcNgu/k6XmFB2qMDWc2uOdALg+PfGeUaknkJ1m3k
AEwyRc9/PryWxi59gNWuEcY9TIG7lzmfVXQ21Rlj6iVDvI6riIbnU4/oMJpRPvFv
oiFDtcjYC4RlqNUGVfQ4uTWQ7kc=
-----END CERTIFICATE-----
