Certificate:
    Data:
        Version: 3 (0x2)
        Serial Number: 7 (0x7)
    Signature Algorithm: sha256WithRSAEncryption
        Issuer: C=US, ST=California, L=Santa Clara, O=pkg5, CN=ch5_ta1/emailAddress=ch5_ta1
        Validity
            Not Before: Jul 19 11:35:44 2023 GMT
            Not After : Apr 14 11:35:44 2026 GMT
        Subject: C=US, ST=California, L=Santa Clara, O=pkg5, CN=cs2_ch5_ta1/emailAddress=cs2_ch5_ta1
        Subject Public Key Info:
            Public Key Algorithm: rsaEncryption
                Public-Key: (2048 bit)
                Modulus:
                    00:e7:85:26:cb:46:cf:8e:d7:a6:aa:da:04:61:87:
                    70:72:13:aa:50:fc:0b:a1:30:4d:c8:21:63:d5:2b:
                    29:ed:c7:8a:4e:a7:04:d1:5f:61:91:18:7a:6c:ad:
                    9b:e2:74:51:6e:9f:52:ad:e7:6a:3f:c9:a6:22:1b:
                    5e:96:fb:f0:48:ca:0a:aa:7f:26:43:a7:b8:d0:8e:
                    99:31:64:36:64:8b:15:c2:a2:fa:57:b5:87:b9:48:
                    e3:be:2d:30:18:08:07:65:6e:51:1b:68:43:c9:2b:
                    33:57:40:8e:c6:83:3a:f2:50:c3:3b:f9:08:54:31:
                    7c:78:7e:02:ef:7c:e8:d6:52:5a:c2:67:40:04:8e:
                    0f:eb:cd:e7:a1:f3:61:19:8a:f6:e6:2c:7e:70:c0:
                    6f:c4:9e:fe:ca:83:1f:38:1c:e6:43:52:3b:30:b8:
                    b5:b3:20:de:5c:4f:33:1a:54:90:81:b3:7f:4a:3e:
                    ab:8f:33:4d:4a:c1:a1:2a:53:5e:32:63:60:7e:27:
                    fb:9b:48:05:ed:b5:45:f9:ea:9a:5a:99:9f:2a:8c:
                    bc:da:28:3c:04:dd:56:57:a1:5e:a6:b1:30:6f:ad:
                    ae:c8:32:5b:55:a5:41:3f:05:33:25:4b:0b:05:8a:
                    d1:1b:23:58:ce:97:3d:5a:12:db:3b:2e:a0:7b:8f:
                    56:0b
                Exponent: 65537 (0x10001)
        X509v3 extensions:
            X509v3 Basic Constraints: critical
                CA:FALSE
            X509v3 CRL Distribution Points: 

                Full Name:
                  URI:http://localhost:12001/file/0/ch5_ta1_crl.pem

    Signature Algorithm: sha256WithRSAEncryption
         04:45:1e:e7:72:23:e8:b1:f5:42:d5:0f:36:07:7c:df:a8:cc:
         d5:99:54:3f:a2:a4:ca:fe:5b:4d:b6:37:8f:86:0b:8f:68:61:
         d1:4a:89:05:0e:db:dc:df:8f:0d:ed:6a:1b:08:85:8f:20:3a:
         c2:bf:26:92:95:1f:af:80:85:3d:01:96:7b:03:47:e4:8c:d3:
         a2:d3:3f:02:65:ea:7f:b8:32:51:da:45:21:df:89:dc:2a:7a:
         29:d4:1b:3f:3a:18:b6:74:d8:bc:45:43:4f:ee:90:52:38:8b:
         11:e1:0c:c4:1b:5b:10:0a:e6:39:c4:23:bc:4f:31:c5:94:1d:
         d7:58:e7:f5:8a:07:f0:66:9b:83:11:15:52:5a:59:c3:41:9a:
         8a:1f:17:17:e3:9b:7e:b5:92:33:8a:34:9b:ba:a3:96:e3:37:
         38:0a:11:85:62:1d:33:0f:2e:46:82:15:b3:ff:c9:c1:ac:bd:
         09:42:34:f8:72:b2:f6:f1:01:f0:3b:73:6f:82:61:ae:d8:bf:
         b1:bc:13:a2:7e:7f:0c:b7:fd:44:ef:67:64:dd:fa:5d:c2:b4:
         a3:7e:37:55:a1:eb:44:ae:25:dc:2e:95:62:fe:d5:7e:55:5f:
         2e:e3:e8:a6:58:97:e9:07:2b:d3:bb:e9:e8:07:cb:20:f6:81:
         d7:25:80:7d
-----BEGIN CERTIFICATE-----
MIIDtTCCAp2gAwIBAgIBBzANBgkqhkiG9w0BAQsFADBxMQswCQYDVQQGEwJVUzET
MBEGA1UECAwKQ2FsaWZvcm5pYTEUMBIGA1UEBwwLU2FudGEgQ2xhcmExDTALBgNV
BAoMBHBrZzUxEDAOBgNVBAMMB2NoNV90YTExFjAUBgkqhkiG9w0BCQEWB2NoNV90
YTEwHhcNMjMwNzE5MTEzNTQ0WhcNMjYwNDE0MTEzNTQ0WjB5MQswCQYDVQQGEwJV
UzETMBEGA1UECAwKQ2FsaWZvcm5pYTEUMBIGA1UEBwwLU2FudGEgQ2xhcmExDTAL
BgNVBAoMBHBrZzUxFDASBgNVBAMMC2NzMl9jaDVfdGExMRowGAYJKoZIhvcNAQkB
FgtjczJfY2g1X3RhMTCCASIwDQYJKoZIhvcNAQEBBQADggEPADCCAQoCggEBAOeF
JstGz47XpqraBGGHcHITqlD8C6EwTcghY9UrKe3Hik6nBNFfYZEYemytm+J0UW6f
Uq3naj/JpiIbXpb78EjKCqp/JkOnuNCOmTFkNmSLFcKi+le1h7lI474tMBgIB2Vu
URtoQ8krM1dAjsaDOvJQwzv5CFQxfHh+Au986NZSWsJnQASOD+vN56HzYRmK9uYs
fnDAb8Se/sqDHzgc5kNSOzC4tbMg3lxPMxpUkIGzf0o+q48zTUrBoSpTXjJjYH4n
+5tIBe21RfnqmlqZnyqMvNooPATdVlehXqaxMG+trsgyW1WlQT8FMyVLCwWK0Rsj
WM6XPVoS2zsuoHuPVgsCAwEAAaNQME4wDAYDVR0TAQH/BAIwADA+BgNVHR8ENzA1
MDOgMaAvhi1odHRwOi8vbG9jYWxob3N0OjEyMDAxL2ZpbGUvMC9jaDVfdGExX2Ny
bC5wZW0wDQYJKoZIhvcNAQELBQADggEBAARFHudyI+ix9ULVDzYHfN+ozNWZVD+i
pMr+W022N4+GC49oYdFKiQUO29zfjw3tahsIhY8gOsK/JpKVH6+AhT0BlnsDR+SM
06LTPwJl6n+4MlHaRSHfidwqeinUGz86GLZ02LxFQ0/ukFI4ixHhDMQbWxAK5jnE
I7xPMcWUHddY5/WKB/Bmm4MRFVJaWcNBmoofFxfjm361kjOKNJu6o5bjNzgKEYVi
HTMPLkaCFbP/ycGsvQlCNPhysvbxAfA7c2+CYa7Yv7G8E6J+fwy3/UTvZ2Td+l3C
tKN+N1Wh60SuJdwulWL+1X5VXy7j6KZYl+kHK9O76egHyyD2gdclgH0=
-----END CERTIFICATE-----
