Certificate:
    Data:
        Version: 3 (0x2)
        Serial Number: 18 (0x12)
        Signature Algorithm: sha256WithRSAEncryption
        Issuer: C=US, ST=California, L=Menlo Park, O=pkg5, CN=ch1_ta3/emailAddress=ch1_ta3
        Validity
            Not Before: Mar 21 00:49:28 2011 GMT
            Not After : Dec 15 00:49:28 2013 GMT
        Subject: C=US, ST=California, L=Menlo Park, O=pkg5, CN=cs2_ch1_ta3/emailAddress=cs2_ch1_ta3
        Subject Public Key Info:
            Public Key Algorithm: rsaEncryption
            RSA Public Key: (1024 bit)
                Modulus (1024 bit):
                    00:d4:90:83:34:09:3e:04:2e:62:40:f3:44:99:9a:
                    7b:07:be:79:f3:c6:f6:28:0a:51:df:da:aa:fe:b8:
                    d1:9b:1c:b5:73:6a:31:ba:d2:9f:22:44:b7:3b:d8:
                    f6:80:96:c0:4c:e4:6f:48:90:69:81:6c:84:94:68:
                    33:74:62:9a:04:b0:1e:93:2c:4d:88:cd:9a:72:ce:
                    e9:53:3d:15:3e:73:2c:c9:f0:ed:87:a5:eb:cf:66:
                    3c:40:3c:a0:76:ac:c8:69:20:b8:f5:a8:fd:17:7a:
                    3c:eb:62:c9:a2:cc:56:6b:d8:b7:0c:ff:ed:f9:b1:
                    13:af:c0:69:aa:8d:0f:50:f1
                Exponent: 65537 (0x10001)
        X509v3 extensions:
            X509v3 Basic Constraints: critical
                CA:FALSE
            X509v3 Issuer Alternative Name: critical
                <EMPTY>

    Signature Algorithm: sha256WithRSAEncryption
        94:86:69:18:74:54:9a:9e:e3:69:24:c4:78:73:6c:e9:e5:b3:
        0f:22:4d:54:06:28:c3:bb:d5:ef:18:1c:ce:a1:d0:22:27:c8:
        e3:79:29:7d:c4:32:73:a2:d4:03:f8:1d:ce:cc:08:87:e2:26:
        b8:39:02:c0:e2:53:39:37:ad:76:d6:3c:54:87:71:ce:8e:df:
        01:2a:1d:96:6b:42:d5:0a:b6:0f:c7:9d:11:91:56:27:bf:2a:
        4e:14:72:22:21:96:be:7e:42:a1:59:27:3c:30:8d:bb:a9:4b:
        2b:75:d8:75:31:c4:e8:5b:cd:bc:2c:51:d4:62:72:45:29:e1:
        c5:08
-----BEGIN CERTIFICATE-----
MIICfDCCAeWgAwIBAgIBEjANBgkqhkiG9w0BAQsFADBwMQswCQYDVQQGEwJVUzET
MBEGA1UECBMKQ2FsaWZvcm5pYTETMBEGA1UEBxMKTWVubG8gUGFyazENMAsGA1UE
ChMEcGtnNTEQMA4GA1UEAxQHY2gxX3RhMzEWMBQGCSqGSIb3DQEJARYHY2gxX3Rh
MzAeFw0xMTAzMjEwMDQ5MjhaFw0xMzEyMTUwMDQ5MjhaMHgxCzAJBgNVBAYTAlVT
MRMwEQYDVQQIEwpDYWxpZm9ybmlhMRMwEQYDVQQHEwpNZW5sbyBQYXJrMQ0wCwYD
VQQKEwRwa2c1MRQwEgYDVQQDFAtjczJfY2gxX3RhMzEaMBgGCSqGSIb3DQEJARYL
Y3MyX2NoMV90YTMwgZ8wDQYJKoZIhvcNAQEBBQADgY0AMIGJAoGBANSQgzQJPgQu
YkDzRJmaewe+efPG9igKUd/aqv640ZsctXNqMbrSnyJEtzvY9oCWwEzkb0iQaYFs
hJRoM3RimgSwHpMsTYjNmnLO6VM9FT5zLMnw7Yel689mPEA8oHasyGkguPWo/Rd6
POtiyaLMVmvYtwz/7fmxE6/AaaqND1DxAgMBAAGjHjAcMAwGA1UdEwEB/wQCMAAw
DAYDVR0SAQH/BAIwADANBgkqhkiG9w0BAQsFAAOBgQCUhmkYdFSanuNpJMR4c2zp
5bMPIk1UBijDu9XvGBzOodAiJ8jjeSl9xDJzotQD+B3OzAiH4ia4OQLA4lM5N612
1jxUh3HOjt8BKh2Wa0LVCrYPx50RkVYnvypOFHIiIZa+fkKhWSc8MI27qUsrddh1
McToW828LFHUYnJFKeHFCA==
-----END CERTIFICATE-----
