Certificate:
    Data:
        Version: 3 (0x2)
        Serial Number: 7 (0x7)
        Signature Algorithm: sha256WithRSAEncryption
        Issuer: C=US, ST=California, L=Santa Clara, O=pkg5, CN=ch5_ta1/emailAddress=ch5_ta1
        Validity
            Not Before: Mar 18 08:51:29 2026 GMT
            Not After : Dec 12 08:51:29 2028 GMT
        Subject: C=US, ST=California, L=Santa Clara, O=pkg5, CN=cs2_ch5_ta1/emailAddress=cs2_ch5_ta1
        Subject Public Key Info:
            Public Key Algorithm: rsaEncryption
                Public-Key: (2048 bit)
                Modulus:
                    00:df:bd:c5:31:79:25:b4:3b:d1:94:85:fd:4b:90:
                    29:2a:2d:4d:56:65:41:28:21:cd:7e:3f:e9:c4:c3:
                    3b:81:a2:9a:5f:e9:97:c2:3b:d8:57:12:92:fb:33:
                    16:15:70:99:f1:26:ca:f0:57:8c:6e:b7:2a:ea:34:
                    c4:2f:a7:00:b9:8b:13:94:7f:8a:25:77:6c:cf:5a:
                    cc:b3:32:ff:63:36:30:8c:c3:e8:d0:1f:3e:b1:0b:
                    98:f1:d7:c7:13:15:af:5a:06:81:22:b1:87:1d:34:
                    94:40:47:ff:8a:d0:a9:75:64:07:58:25:96:8a:f1:
                    7a:05:a9:18:15:d6:6b:a7:b7:e6:ac:32:6a:9e:ba:
                    87:f3:dd:c2:0b:f4:d8:3a:b3:6d:9f:8b:ac:be:28:
                    85:22:ff:1f:19:9b:3e:b4:69:6b:35:5c:55:12:f8:
                    80:fa:5b:45:6a:57:0c:d9:30:04:01:cb:99:ef:8f:
                    63:c8:dc:49:4b:e2:64:9e:0c:63:27:46:d1:9f:ba:
                    62:49:da:78:0b:78:0d:16:e1:62:40:2b:35:56:ba:
                    a7:29:6f:b5:dc:01:04:13:1f:5a:27:b8:4c:49:10:
                    e6:3c:b0:d1:27:ff:05:c7:54:46:95:6c:91:39:9e:
                    3f:18:ee:11:1e:35:93:ed:2d:fe:c1:e0:94:c1:ad:
                    61:63
                Exponent: 65537 (0x10001)
        X509v3 extensions:
            X509v3 Basic Constraints: critical
                CA:FALSE
            X509v3 CRL Distribution Points: 
                Full Name:
                  URI:http://localhost:12001/file/0/ch5_ta1_crl.pem
            X509v3 Subject Key Identifier: 
                94:B7:CA:0D:B9:28:CD:F4:BA:07:53:F1:9C:66:C3:13:BC:59:3E:FF
            X509v3 Authority Key Identifier: 
                88:6F:5B:93:C9:D4:A3:30:CC:AA:2F:02:32:79:4E:E9:2C:3A:DA:75
    Signature Algorithm: sha256WithRSAEncryption
    Signature Value:
        8e:0d:34:70:15:4b:9b:ef:44:e9:f0:bc:9e:85:e3:73:8b:88:
        87:4a:7f:39:cb:bd:67:25:60:13:ce:af:aa:38:66:50:2a:e1:
        33:eb:c8:70:d0:31:d5:a3:e2:d2:ea:a8:16:08:fd:3c:da:fb:
        c3:43:20:76:67:76:fb:4a:96:2e:af:f2:4d:cc:b5:c8:a9:f9:
        1b:47:a9:24:c8:72:26:09:72:ad:50:24:e7:88:8c:98:36:82:
        99:a6:d5:00:13:1d:7e:86:74:9b:96:31:37:ee:c1:a4:b8:84:
        42:fe:85:6c:a1:c8:6c:db:cb:7d:d3:55:e5:a0:52:05:a8:73:
        05:71:85:3b:52:38:c7:ae:f5:00:6b:60:ab:5d:64:b1:de:d7:
        88:a8:11:b4:04:7e:25:09:b9:f9:db:07:ce:56:b2:ca:88:26:
        44:55:04:c1:02:63:d5:39:cc:b3:b5:da:54:96:0a:be:23:5f:
        15:17:9a:31:89:a0:2c:d1:ad:59:69:c7:dd:6b:7d:d5:80:cd:
        64:37:73:0f:1d:01:69:a4:3a:6d:d4:f6:9f:ea:57:72:d1:2c:
        e7:b2:9a:a8:6c:0c:54:c9:4b:de:01:27:b6:e1:50:75:69:61:
        6b:70:bf:b4:b9:24:e6:f5:30:82:f3:ef:f0:b9:63:8a:c6:79:
        df:6a:62:6b
-----BEGIN CERTIFICATE-----
MIID9zCCAt+gAwIBAgIBBzANBgkqhkiG9w0BAQsFADBxMQswCQYDVQQGEwJVUzET
MBEGA1UECAwKQ2FsaWZvcm5pYTEUMBIGA1UEBwwLU2FudGEgQ2xhcmExDTALBgNV
BAoMBHBrZzUxEDAOBgNVBAMMB2NoNV90YTExFjAUBgkqhkiG9w0BCQEWB2NoNV90
YTEwHhcNMjYwMzE4MDg1MTI5WhcNMjgxMjEyMDg1MTI5WjB5MQswCQYDVQQGEwJV
UzETMBEGA1UECAwKQ2FsaWZvcm5pYTEUMBIGA1UEBwwLU2FudGEgQ2xhcmExDTAL
BgNVBAoMBHBrZzUxFDASBgNVBAMMC2NzMl9jaDVfdGExMRowGAYJKoZIhvcNAQkB
FgtjczJfY2g1X3RhMTCCASIwDQYJKoZIhvcNAQEBBQADggEPADCCAQoCggEBAN+9
xTF5JbQ70ZSF/UuQKSotTVZlQSghzX4/6cTDO4Giml/pl8I72FcSkvszFhVwmfEm
yvBXjG63Kuo0xC+nALmLE5R/iiV3bM9azLMy/2M2MIzD6NAfPrELmPHXxxMVr1oG
gSKxhx00lEBH/4rQqXVkB1gllorxegWpGBXWa6e35qwyap66h/Pdwgv02DqzbZ+L
rL4ohSL/HxmbPrRpazVcVRL4gPpbRWpXDNkwBAHLme+PY8jcSUviZJ4MYydG0Z+6
YknaeAt4DRbhYkArNVa6pylvtdwBBBMfWie4TEkQ5jyw0Sf/BcdURpVskTmePxju
ER41k+0t/sHglMGtYWMCAwEAAaOBkTCBjjAMBgNVHRMBAf8EAjAAMD4GA1UdHwQ3
MDUwM6AxoC+GLWh0dHA6Ly9sb2NhbGhvc3Q6MTIwMDEvZmlsZS8wL2NoNV90YTFf
Y3JsLnBlbTAdBgNVHQ4EFgQUlLfKDbkozfS6B1PxnGbDE7xZPv8wHwYDVR0jBBgw
FoAUiG9bk8nUozDMqi8CMnlO6Sw62nUwDQYJKoZIhvcNAQELBQADggEBAI4NNHAV
S5vvROnwvJ6F43OLiIdKfznLvWclYBPOr6o4ZlAq4TPryHDQMdWj4tLqqBYI/Tza
+8NDIHZndvtKli6v8k3Mtcip+RtHqSTIciYJcq1QJOeIjJg2gpmm1QATHX6GdJuW
MTfuwaS4hEL+hWyhyGzby33TVeWgUgWocwVxhTtSOMeu9QBrYKtdZLHe14ioEbQE
fiUJufnbB85WssqIJkRVBMECY9U5zLO12lSWCr4jXxUXmjGJoCzRrVlpx91rfdWA
zWQ3cw8dAWmkOm3U9p/qV3LRLOeymqhsDFTJS94BJ7bhUHVpYWtwv7S5JOb1MILz
7/C5Y4rGed9qYms=
-----END CERTIFICATE-----
