Certificate:
    Data:
        Version: 3 (0x2)
        Serial Number: 36 (0x24)
        Signature Algorithm: sha256WithRSAEncryption
        Issuer: C=US, ST=California, L=Santa Clara, O=pkg5, CN=ch1_ta4/emailAddress=ch1_ta4
        Validity
            Not Before: Mar 18 08:51:42 2026 GMT
            Not After : Dec 12 08:51:42 2028 GMT
        Subject: C=US, ST=California, L=Santa Clara, O=pkg5, CN=cs2_ch1_ta4/emailAddress=cs2_ch1_ta4
        Subject Public Key Info:
            Public Key Algorithm: rsaEncryption
                Public-Key: (2048 bit)
                Modulus:
                    00:9e:55:dc:3f:b7:f7:8f:9a:23:76:81:70:d8:48:
                    6b:74:ee:a1:9a:8a:dc:0d:13:ff:1d:53:b3:b0:89:
                    82:0f:31:fb:a8:54:16:08:d6:3d:dd:44:da:e1:3d:
                    3c:46:79:73:11:e4:0e:ae:83:48:02:5b:e6:ef:d1:
                    c4:5d:a4:a4:80:8c:19:91:e6:34:28:0b:9a:da:bf:
                    b7:13:f0:f0:f1:ee:6b:b7:e1:3b:17:92:f3:96:61:
                    08:32:cf:02:8a:f1:1b:f6:62:13:e5:05:de:32:45:
                    8b:ad:aa:5b:0a:bd:16:ef:1d:d7:5e:a0:df:33:f2:
                    eb:d4:a8:44:a5:c5:71:7a:93:36:ae:ed:44:dd:0d:
                    c9:e1:48:61:69:b5:18:c4:27:b1:92:48:c9:13:26:
                    24:96:9e:fe:16:3d:97:41:13:5f:c6:79:20:13:3d:
                    d5:02:e5:59:c5:26:49:20:09:fa:ee:67:70:61:55:
                    d0:2f:99:66:6b:89:41:4f:09:07:4c:de:b7:e6:36:
                    53:9b:d2:5e:79:10:8f:11:ee:8d:df:98:d2:b2:a1:
                    33:79:d4:b1:d0:df:30:24:58:6e:5f:0b:a4:49:3b:
                    43:84:74:15:b5:2a:85:64:34:c8:7c:b2:e9:0d:05:
                    1d:eb:ee:82:d6:65:e5:15:c7:9e:c0:7a:01:8a:b9:
                    68:2d
                Exponent: 65537 (0x10001)
        X509v3 extensions:
            X509v3 Subject Key Identifier: 
                CD:F3:6A:0B:95:EA:BA:DE:01:E1:6D:E9:48:06:BC:D2:56:F7:BF:75
            X509v3 Authority Key Identifier: 
                keyid:85:4B:6A:83:21:30:D9:83:25:BA:5C:5A:91:81:AE:95:B1:27:64:46
                DirName:/C=US/ST=California/L=Santa Clara/O=pkg5/CN=ta4/emailAddress=ta4
                serial:22
            X509v3 Basic Constraints: critical
                CA:FALSE
            X509v3 CRL Distribution Points: 
                Full Name:
                  URI:http://localhost:12001/file/0/example_file
    Signature Algorithm: sha256WithRSAEncryption
    Signature Value:
        d7:d7:6b:aa:a2:e0:b8:cf:45:9e:3e:0a:fc:87:64:ef:49:08:
        fa:19:53:dc:99:fa:8a:75:4c:d6:15:fd:a7:4c:55:bb:d6:08:
        14:ee:df:c6:0a:88:8a:d3:69:26:37:56:2f:54:77:7f:64:b8:
        81:eb:0f:29:cf:48:b4:63:6c:bf:a9:ed:be:e1:0f:db:42:b5:
        8c:20:63:7e:eb:54:4a:61:6a:d9:75:fd:92:a3:2a:36:af:2f:
        9b:05:4c:c8:2e:2f:f7:90:40:2c:d0:1d:17:16:b5:33:9d:37:
        52:21:1d:d7:e2:d9:29:7f:62:3a:e6:a2:84:43:f5:bc:97:71:
        e4:a7:6d:01:d7:76:94:d3:29:3e:15:93:e4:41:80:16:83:17:
        33:ac:33:47:64:91:3a:4c:33:11:f1:95:c1:8b:24:a3:f2:41:
        d2:91:ad:45:39:16:05:ef:13:b6:b6:1a:19:24:a6:0a:8b:90:
        af:18:07:2b:25:9c:93:3e:c8:15:74:60:57:f2:c6:61:99:d8:
        84:28:d9:2f:8f:aa:33:4b:37:69:d3:bb:cd:91:c7:a8:d5:68:
        c3:f9:76:37:59:61:aa:bb:d1:47:04:bc:0f:6a:44:2c:e5:42:
        54:47:95:52:7a:42:04:cb:3a:0a:ea:7d:cd:10:91:df:41:32:
        b5:58:78:74
-----BEGIN CERTIFICATE-----
MIIEazCCA1OgAwIBAgIBJDANBgkqhkiG9w0BAQsFADBxMQswCQYDVQQGEwJVUzET
MBEGA1UECAwKQ2FsaWZvcm5pYTEUMBIGA1UEBwwLU2FudGEgQ2xhcmExDTALBgNV
BAoMBHBrZzUxEDAOBgNVBAMMB2NoMV90YTQxFjAUBgkqhkiG9w0BCQEWB2NoMV90
YTQwHhcNMjYwMzE4MDg1MTQyWhcNMjgxMjEyMDg1MTQyWjB5MQswCQYDVQQGEwJV
UzETMBEGA1UECAwKQ2FsaWZvcm5pYTEUMBIGA1UEBwwLU2FudGEgQ2xhcmExDTAL
BgNVBAoMBHBrZzUxFDASBgNVBAMMC2NzMl9jaDFfdGE0MRowGAYJKoZIhvcNAQkB
FgtjczJfY2gxX3RhNDCCASIwDQYJKoZIhvcNAQEBBQADggEPADCCAQoCggEBAJ5V
3D+394+aI3aBcNhIa3TuoZqK3A0T/x1Ts7CJgg8x+6hUFgjWPd1E2uE9PEZ5cxHk
Dq6DSAJb5u/RxF2kpICMGZHmNCgLmtq/txPw8PHua7fhOxeS85ZhCDLPAorxG/Zi
E+UF3jJFi62qWwq9Fu8d116g3zPy69SoRKXFcXqTNq7tRN0NyeFIYWm1GMQnsZJI
yRMmJJae/hY9l0ETX8Z5IBM91QLlWcUmSSAJ+u5ncGFV0C+ZZmuJQU8JB0zet+Y2
U5vSXnkQjxHujd+Y0rKhM3nUsdDfMCRYbl8LpEk7Q4R0FbUqhWQ0yHyy6Q0FHevu
gtZl5RXHnsB6AYq5aC0CAwEAAaOCAQQwggEAMB0GA1UdDgQWBBTN82oLleq63gHh
belIBrzSVve/dTCBkwYDVR0jBIGLMIGIgBSFS2qDITDZgyW6XFqRga6VsSdkRqFt
pGswaTELMAkGA1UEBhMCVVMxEzARBgNVBAgMCkNhbGlmb3JuaWExFDASBgNVBAcM
C1NhbnRhIENsYXJhMQ0wCwYDVQQKDARwa2c1MQwwCgYDVQQDDAN0YTQxEjAQBgkq
hkiG9w0BCQEWA3RhNIIBIjAMBgNVHRMBAf8EAjAAMDsGA1UdHwQ0MDIwMKAuoCyG
Kmh0dHA6Ly9sb2NhbGhvc3Q6MTIwMDEvZmlsZS8wL2V4YW1wbGVfZmlsZTANBgkq
hkiG9w0BAQsFAAOCAQEA19drqqLguM9Fnj4K/Idk70kI+hlT3Jn6inVM1hX9p0xV
u9YIFO7fxgqIitNpJjdWL1R3f2S4gesPKc9ItGNsv6ntvuEP20K1jCBjfutUSmFq
2XX9kqMqNq8vmwVMyC4v95BALNAdFxa1M503UiEd1+LZKX9iOuaihEP1vJdx5Kdt
Add2lNMpPhWT5EGAFoMXM6wzR2SROkwzEfGVwYsko/JB0pGtRTkWBe8TtrYaGSSm
CouQrxgHKyWckz7IFXRgV/LGYZnYhCjZL4+qM0s3adO7zZHHqNVow/l2N1lhqrvR
RwS8D2pELOVCVEeVUnpCBMs6Cup9zRCR30EytVh4dA==
-----END CERTIFICATE-----
