Certificate:
    Data:
        Version: 3 (0x2)
        Serial Number: 18 (0x12)
        Signature Algorithm: sha256WithRSAEncryption
        Issuer: C=US, ST=California, L=Menlo Park, O=pkg5, CN=ch1_ta3/emailAddress=ch1_ta3
        Validity
            Not Before: Apr 11 22:37:44 2011 GMT
            Not After : Jan  5 22:37:44 2014 GMT
        Subject: C=US, ST=California, L=Menlo Park, O=pkg5, CN=cs2_ch1_ta3/emailAddress=cs2_ch1_ta3
        Subject Public Key Info:
            Public Key Algorithm: rsaEncryption
            RSA Public Key: (1024 bit)
                Modulus (1024 bit):
                    00:c5:b6:f8:33:c7:cd:e9:6d:d9:aa:77:60:23:86:
                    71:56:dc:22:a3:cf:36:d7:b3:59:f7:5d:ae:82:ed:
                    3f:17:12:62:09:3e:3e:ec:fa:a6:92:df:05:ce:9a:
                    a2:6d:93:b9:7e:16:f9:c5:b3:83:1d:9a:96:6a:1b:
                    35:df:f6:b8:82:55:45:5b:43:0a:71:66:4f:bc:df:
                    00:13:25:22:df:79:76:b6:98:42:25:b2:a1:5c:47:
                    72:7b:96:9f:65:3f:37:02:97:29:16:9c:75:22:7b:
                    5d:31:53:80:0a:eb:cc:73:13:da:8e:61:f5:ca:f7:
                    af:fc:53:cd:b9:11:95:3c:3f
                Exponent: 65537 (0x10001)
        X509v3 extensions:
            X509v3 Basic Constraints: critical
                CA:FALSE
            X509v3 Issuer Alternative Name: critical
                <EMPTY>

    Signature Algorithm: sha256WithRSAEncryption
        2e:40:56:59:03:e3:5b:62:73:0c:57:dc:12:d8:4b:97:00:8b:
        66:c8:a6:10:29:78:3b:7a:52:fb:f9:63:94:44:b2:1b:eb:3f:
        13:e9:40:9b:24:01:38:f6:b2:f7:99:1e:d9:17:57:e3:df:ff:
        01:8b:00:02:7e:a0:f5:e5:3a:f0:72:4c:72:6f:76:07:26:ac:
        97:6d:c2:12:e1:64:99:29:ff:25:fd:21:c7:43:41:87:c5:bb:
        ce:06:c4:b1:f9:64:ad:e8:d8:90:ac:89:26:8a:1e:a3:d4:45:
        2d:8a:27:a4:88:8c:f3:97:5f:f7:82:d7:c4:76:98:f5:20:af:
        5e:23
-----BEGIN CERTIFICATE-----
MIICfDCCAeWgAwIBAgIBEjANBgkqhkiG9w0BAQsFADBwMQswCQYDVQQGEwJVUzET
MBEGA1UECBMKQ2FsaWZvcm5pYTETMBEGA1UEBxMKTWVubG8gUGFyazENMAsGA1UE
ChMEcGtnNTEQMA4GA1UEAxQHY2gxX3RhMzEWMBQGCSqGSIb3DQEJARYHY2gxX3Rh
MzAeFw0xMTA0MTEyMjM3NDRaFw0xNDAxMDUyMjM3NDRaMHgxCzAJBgNVBAYTAlVT
MRMwEQYDVQQIEwpDYWxpZm9ybmlhMRMwEQYDVQQHEwpNZW5sbyBQYXJrMQ0wCwYD
VQQKEwRwa2c1MRQwEgYDVQQDFAtjczJfY2gxX3RhMzEaMBgGCSqGSIb3DQEJARYL
Y3MyX2NoMV90YTMwgZ8wDQYJKoZIhvcNAQEBBQADgY0AMIGJAoGBAMW2+DPHzelt
2ap3YCOGcVbcIqPPNtezWfddroLtPxcSYgk+Puz6ppLfBc6aom2TuX4W+cWzgx2a
lmobNd/2uIJVRVtDCnFmT7zfABMlIt95draYQiWyoVxHcnuWn2U/NwKXKRacdSJ7
XTFTgArrzHMT2o5h9cr3r/xTzbkRlTw/AgMBAAGjHjAcMAwGA1UdEwEB/wQCMAAw
DAYDVR0SAQH/BAIwADANBgkqhkiG9w0BAQsFAAOBgQAuQFZZA+NbYnMMV9wS2EuX
AItmyKYQKXg7elL7+WOURLIb6z8T6UCbJAE49rL3mR7ZF1fj3/8BiwACfqD15Trw
ckxyb3YHJqyXbcIS4WSZKf8l/SHHQ0GHxbvOBsSx+WSt6NiQrIkmih6j1EUtiiek
iIzzl1/3gtfEdpj1IK9eIw==
-----END CERTIFICATE-----
