Certificate:
    Data:
        Version: 3 (0x2)
        Serial Number: 36 (0x24)
        Signature Algorithm: sha256WithRSAEncryption
        Issuer: C=US, ST=California, L=Menlo Park, O=pkg5, CN=ch1_ta4/emailAddress=ch1_ta4
        Validity
            Not Before: Apr 11 22:37:50 2011 GMT
            Not After : Jan  5 22:37:50 2014 GMT
        Subject: C=US, ST=California, L=Menlo Park, O=pkg5, CN=cs2_ch1_ta4/emailAddress=cs2_ch1_ta4
        Subject Public Key Info:
            Public Key Algorithm: rsaEncryption
            RSA Public Key: (1024 bit)
                Modulus (1024 bit):
                    00:bf:ac:9d:17:06:fb:0f:06:2b:8f:e1:70:02:28:
                    81:03:f5:1f:f4:4a:41:87:c5:4c:e1:4c:5b:9d:89:
                    2f:a2:d4:5e:1a:4b:b6:93:c7:10:41:d9:e9:e0:d5:
                    43:64:9f:39:1d:c8:2a:93:52:23:08:92:78:a3:5f:
                    3b:98:50:e8:72:3a:73:12:4f:99:4b:4d:0e:e8:5d:
                    92:f3:0b:5d:78:f6:5b:4b:c8:36:23:e3:ca:ab:8a:
                    aa:52:33:d1:1e:61:d1:3e:91:5d:ee:38:bc:c4:0e:
                    ee:54:f9:aa:00:a3:51:55:95:7a:c0:7b:0e:b2:d8:
                    55:9d:f8:ae:1f:32:a7:87:eb
                Exponent: 65537 (0x10001)
        X509v3 extensions:
            X509v3 Subject Key Identifier: 
                4E:1B:1F:2F:80:BA:AC:13:47:60:30:A5:43:F6:01:7D:54:3C:9B:24
            X509v3 Authority Key Identifier: 
                keyid:2A:94:C1:FF:E0:11:A0:91:F1:71:46:35:9A:37:3C:BC:C4:21:4A:8F
                DirName:/C=US/ST=California/L=Menlo Park/O=pkg5/CN=ta4/emailAddress=ta4
                serial:22

            X509v3 Basic Constraints: critical
                CA:FALSE
            X509v3 CRL Distribution Points: 
                URI:http://localhost:12001/file/0/example_file

    Signature Algorithm: sha256WithRSAEncryption
        6d:40:ad:c1:79:65:fc:25:80:f7:52:d5:6f:16:3c:b2:77:f8:
        35:e2:b5:d4:3c:49:f1:1c:02:d7:5a:61:aa:c2:c7:bd:53:4a:
        96:58:8e:3e:14:d3:38:89:43:70:f0:5c:73:e1:c0:36:5e:10:
        73:f4:93:c3:de:0c:61:49:be:2d:d0:1e:37:b4:03:49:a9:a4:
        37:42:77:6a:97:15:45:2f:7d:b2:dd:9d:b2:98:56:0a:70:14:
        83:ac:6f:e1:1e:97:31:9e:0a:30:ca:7d:5f:87:30:41:05:63:
        4b:38:cb:f0:c0:cd:4d:a6:d2:11:34:30:ba:f4:8a:74:73:70:
        ee:45
-----BEGIN CERTIFICATE-----
MIIDYjCCAsugAwIBAgIBJDANBgkqhkiG9w0BAQsFADBwMQswCQYDVQQGEwJVUzET
MBEGA1UECBMKQ2FsaWZvcm5pYTETMBEGA1UEBxMKTWVubG8gUGFyazENMAsGA1UE
ChMEcGtnNTEQMA4GA1UEAxQHY2gxX3RhNDEWMBQGCSqGSIb3DQEJARYHY2gxX3Rh
NDAeFw0xMTA0MTEyMjM3NTBaFw0xNDAxMDUyMjM3NTBaMHgxCzAJBgNVBAYTAlVT
MRMwEQYDVQQIEwpDYWxpZm9ybmlhMRMwEQYDVQQHEwpNZW5sbyBQYXJrMQ0wCwYD
VQQKEwRwa2c1MRQwEgYDVQQDFAtjczJfY2gxX3RhNDEaMBgGCSqGSIb3DQEJARYL
Y3MyX2NoMV90YTQwgZ8wDQYJKoZIhvcNAQEBBQADgY0AMIGJAoGBAL+snRcG+w8G
K4/hcAIogQP1H/RKQYfFTOFMW52JL6LUXhpLtpPHEEHZ6eDVQ2SfOR3IKpNSIwiS
eKNfO5hQ6HI6cxJPmUtNDuhdkvMLXXj2W0vINiPjyquKqlIz0R5h0T6RXe44vMQO
7lT5qgCjUVWVesB7DrLYVZ34rh8yp4frAgMBAAGjggECMIH/MB0GA1UdDgQWBBRO
Gx8vgLqsE0dgMKVD9gF9VDybJDCBkgYDVR0jBIGKMIGHgBQqlMH/4BGgkfFxRjWa
Nzy8xCFKj6FspGowaDELMAkGA1UEBhMCVVMxEzARBgNVBAgTCkNhbGlmb3JuaWEx
EzARBgNVBAcTCk1lbmxvIFBhcmsxDTALBgNVBAoTBHBrZzUxDDAKBgNVBAMTA3Rh
NDESMBAGCSqGSIb3DQEJARYDdGE0ggEiMAwGA1UdEwEB/wQCMAAwOwYDVR0fBDQw
MjAwoC6gLIYqaHR0cDovL2xvY2FsaG9zdDoxMjAwMS9maWxlLzAvZXhhbXBsZV9m
aWxlMA0GCSqGSIb3DQEBCwUAA4GBAG1ArcF5ZfwlgPdS1W8WPLJ3+DXitdQ8SfEc
AtdaYarCx71TSpZYjj4U0ziJQ3DwXHPhwDZeEHP0k8PeDGFJvi3QHje0A0mppDdC
d2qXFUUvfbLdnbKYVgpwFIOsb+EelzGeCjDKfV+HMEEFY0s4y/DAzU2m0hE0MLr0
inRzcO5F
-----END CERTIFICATE-----
