Certificate:
    Data:
        Version: 3 (0x2)
        Serial Number: 19 (0x13)
    Signature Algorithm: sha256WithRSAEncryption
        Issuer: C=US, ST=California, L=Santa Clara, O=pkg5, CN=ch1_ta3/emailAddress=ch1_ta3
        Validity
            Not Before: Jan  1 01:01:01 2009 GMT
            Not After : Jan  2 01:01:01 2009 GMT
        Subject: C=US, ST=California, L=Santa Clara, O=pkg5, CN=cs3_ch1_ta3/emailAddress=cs3_ch1_ta3
        Subject Public Key Info:
            Public Key Algorithm: rsaEncryption
                Public-Key: (1024 bit)
                Modulus:
                    00:d1:d9:34:e2:9d:df:85:4d:b6:19:ba:0b:be:c9:
                    1e:d9:b8:9f:94:e0:6c:ef:5c:ff:fc:95:45:73:02:
                    4d:b8:9b:60:20:18:8d:0a:34:6a:f0:f7:33:3c:83:
                    26:fc:f2:20:55:5f:7b:11:d1:06:43:55:16:00:3d:
                    40:76:8e:b6:a8:39:1c:6b:4f:77:a2:54:b5:10:39:
                    d0:a0:3c:4c:7e:ab:67:da:75:5c:e0:e6:b9:44:03:
                    ee:a3:a0:33:36:c1:cb:ba:f3:76:9f:5a:a4:27:aa:
                    bb:aa:a2:65:27:30:af:c9:e2:26:89:b8:1d:7f:66:
                    fe:d8:6d:aa:d3:8b:a3:ea:7f
                Exponent: 65537 (0x10001)
        X509v3 extensions:
            X509v3 Basic Constraints: critical
                CA:FALSE
            X509v3 Key Usage: critical
                Digital Signature
    Signature Algorithm: sha256WithRSAEncryption
         25:dd:de:63:c6:dc:16:4c:e0:af:4b:ae:4c:51:c8:79:89:48:
         4a:cd:52:67:bd:c3:32:48:df:c4:0c:db:9b:c5:7b:ca:c2:d8:
         d6:c0:1c:74:c8:4b:87:1c:76:49:06:75:c6:9a:8b:3c:eb:31:
         e2:ac:87:67:33:c0:1c:ff:b8:21:fa:2a:90:e1:a4:45:b4:fe:
         b9:d6:10:7c:4b:fd:e3:47:69:ca:ea:66:e5:38:c0:f9:72:b1:
         fa:ee:58:ef:51:33:75:20:81:27:e0:5f:f2:15:e3:7d:96:c5:
         89:73:dd:14:c6:a6:ca:31:39:69:d5:40:30:89:71:be:b2:42:
         dd:61:2c:0a:b9:50:e3:e3:c7:3c:ec:97:de:88:78:1b:ff:99:
         6e:a3:2c:d6:f9:cf:e3:17:ab:c5:f8:10:b6:44:ba:d0:8d:48:
         72:e8:c5:64:89:4b:9f:36:36:50:26:20:c8:2b:30:b0:da:8f:
         ee:91:d4:16:77:68:7f:42:04:f8:dc:fd:17:39:c9:aa:15:b3:
         19:fd:7a:fb:18:e2:a5:fd:6b:75:fa:e5:d2:1d:2b:45:4d:5d:
         ef:fa:ca:0a:44:b9:5c:99:ec:60:c5:e3:89:c7:b3:82:1c:75:
         42:72:41:9c:e5:a0:2d:d7:6a:d6:01:f2:a5:5a:41:55:c6:88:
         2a:79:c1:76
-----BEGIN CERTIFICATE-----
MIIDATCCAemgAwIBAgIBEzANBgkqhkiG9w0BAQsFADBxMQswCQYDVQQGEwJVUzET
MBEGA1UECAwKQ2FsaWZvcm5pYTEUMBIGA1UEBwwLU2FudGEgQ2xhcmExDTALBgNV
BAoMBHBrZzUxEDAOBgNVBAMMB2NoMV90YTMxFjAUBgkqhkiG9w0BCQEWB2NoMV90
YTMwHhcNMDkwMTAxMDEwMTAxWhcNMDkwMTAyMDEwMTAxWjB5MQswCQYDVQQGEwJV
UzETMBEGA1UECAwKQ2FsaWZvcm5pYTEUMBIGA1UEBwwLU2FudGEgQ2xhcmExDTAL
BgNVBAoMBHBrZzUxFDASBgNVBAMMC2NzM19jaDFfdGEzMRowGAYJKoZIhvcNAQkB
FgtjczNfY2gxX3RhMzCBnzANBgkqhkiG9w0BAQEFAAOBjQAwgYkCgYEA0dk04p3f
hU22GboLvske2biflOBs71z//JVFcwJNuJtgIBiNCjRq8PczPIMm/PIgVV97EdEG
Q1UWAD1Ado62qDkca093olS1EDnQoDxMfqtn2nVc4Oa5RAPuo6AzNsHLuvN2n1qk
J6q7qqJlJzCvyeImibgdf2b+2G2q04uj6n8CAwEAAaMgMB4wDAYDVR0TAQH/BAIw
ADAOBgNVHQ8BAf8EBAMCB4AwDQYJKoZIhvcNAQELBQADggEBACXd3mPG3BZM4K9L
rkxRyHmJSErNUme9wzJI38QM25vFe8rC2NbAHHTIS4ccdkkGdcaaizzrMeKsh2cz
wBz/uCH6KpDhpEW0/rnWEHxL/eNHacrqZuU4wPlysfruWO9RM3UggSfgX/IV432W
xYlz3RTGpsoxOWnVQDCJcb6yQt1hLAq5UOPjxzzsl96IeBv/mW6jLNb5z+MXq8X4
ELZEutCNSHLoxWSJS582NlAmIMgrMLDaj+6R1BZ3aH9CBPjc/Rc5yaoVsxn9evsY
4qX9a3X65dIdK0VNXe/6ygpEuVyZ7GDF44nHs4IcdUJyQZzloC3XatYB8qVaQVXG
iCp5wXY=
-----END CERTIFICATE-----
