Certificate:
    Data:
        Version: 3 (0x2)
        Serial Number: 15 (0xf)
        Signature Algorithm: sha256WithRSAEncryption
        Issuer: C=US, ST=California, L=Menlo Park, O=pkg5, CN=pubCA1_ta3/emailAddress=pubCA1_ta3
        Validity
            Not Before: Jan  1 01:01:01 2009 GMT
            Not After : Jan  2 01:01:01 2009 GMT
        Subject: C=US, ST=California, L=Menlo Park, O=pkg5, CN=cs3_p1_ta3/emailAddress=cs3_p1_ta3
        Subject Public Key Info:
            Public Key Algorithm: rsaEncryption
            RSA Public Key: (1024 bit)
                Modulus (1024 bit):
                    00:cd:90:51:4d:d8:59:5e:67:1d:1b:3d:b6:b7:1c:
                    ff:05:97:c5:12:37:91:68:81:11:2b:85:ce:55:b8:
                    7a:99:72:c3:53:4a:4e:b6:82:01:7a:44:d1:b4:ea:
                    12:e0:1f:6a:36:5c:c1:f9:56:a4:cb:a2:ff:4a:d8:
                    cc:fb:c1:19:3a:0c:e8:c0:3a:ac:f5:d2:32:1c:4e:
                    2d:16:60:df:84:ae:3e:7b:b5:c3:5c:ac:da:5a:b9:
                    bc:61:25:c1:ec:d7:df:f9:34:c0:5f:f4:45:56:a1:
                    a1:f3:43:e1:ac:61:24:c7:ee:ba:89:6f:fa:36:b3:
                    7d:3a:b1:be:fa:b2:3f:53:15
                Exponent: 65537 (0x10001)
        X509v3 extensions:
            X509v3 Basic Constraints: critical
                CA:FALSE
            X509v3 Key Usage: critical
                Digital Signature
    Signature Algorithm: sha256WithRSAEncryption
        49:8f:d8:83:5e:c9:fa:54:40:51:5f:01:ee:23:32:9a:88:c6:
        c2:57:49:42:61:38:2c:62:86:05:bc:7a:2f:85:5a:e9:d5:73:
        8e:1d:3f:07:34:bf:69:41:a1:9b:7a:77:50:9f:b0:4a:c7:af:
        bd:c8:e6:bd:9e:ad:85:85:98:12:e9:ce:0c:e3:3d:55:61:6b:
        e7:e2:36:79:d4:78:0f:da:ea:b8:7e:18:33:80:48:1f:b8:25:
        f1:30:d5:a1:59:86:29:5c:dd:a3:74:27:b4:fa:90:06:43:bb:
        01:a1:72:af:7c:fc:e8:00:fa:6c:ed:7d:55:77:54:13:67:94:
        6a:31
-----BEGIN CERTIFICATE-----
MIICgjCCAeugAwIBAgIBDzANBgkqhkiG9w0BAQsFADB2MQswCQYDVQQGEwJVUzET
MBEGA1UECBMKQ2FsaWZvcm5pYTETMBEGA1UEBxMKTWVubG8gUGFyazENMAsGA1UE
ChMEcGtnNTETMBEGA1UEAxQKcHViQ0ExX3RhMzEZMBcGCSqGSIb3DQEJARYKcHVi
Q0ExX3RhMzAeFw0wOTAxMDEwMTAxMDFaFw0wOTAxMDIwMTAxMDFaMHYxCzAJBgNV
BAYTAlVTMRMwEQYDVQQIEwpDYWxpZm9ybmlhMRMwEQYDVQQHEwpNZW5sbyBQYXJr
MQ0wCwYDVQQKEwRwa2c1MRMwEQYDVQQDFApjczNfcDFfdGEzMRkwFwYJKoZIhvcN
AQkBFgpjczNfcDFfdGEzMIGfMA0GCSqGSIb3DQEBAQUAA4GNADCBiQKBgQDNkFFN
2FleZx0bPba3HP8Fl8USN5FogRErhc5VuHqZcsNTSk62ggF6RNG06hLgH2o2XMH5
VqTLov9K2Mz7wRk6DOjAOqz10jIcTi0WYN+Erj57tcNcrNpaubxhJcHs19/5NMBf
9EVWoaHzQ+GsYSTH7rqJb/o2s306sb76sj9TFQIDAQABoyAwHjAMBgNVHRMBAf8E
AjAAMA4GA1UdDwEB/wQEAwIHgDANBgkqhkiG9w0BAQsFAAOBgQBJj9iDXsn6VEBR
XwHuIzKaiMbCV0lCYTgsYoYFvHovhVrp1XOOHT8HNL9pQaGbendQn7BKx6+9yOa9
nq2FhZgS6c4M4z1VYWvn4jZ51HgP2uq4fhgzgEgfuCXxMNWhWYYpXN2jdCe0+pAG
Q7sBoXKvfPzoAPps7X1Vd1QTZ5RqMQ==
-----END CERTIFICATE-----
