Certificate:
    Data:
        Version: 3 (0x2)
        Serial Number: 37 (0x25)
        Signature Algorithm: sha256WithRSAEncryption
        Issuer: C=US, ST=California, L=Menlo Park, O=pkg5, CN=ch1_ta4/emailAddress=ch1_ta4
        Validity
            Not Before: Apr 11 22:37:50 2011 GMT
            Not After : Jan  5 22:37:50 2014 GMT
        Subject: C=US, ST=California, L=Menlo Park, O=pkg5, CN=cs3_ch1_ta4/emailAddress=cs3_ch1_ta4
        Subject Public Key Info:
            Public Key Algorithm: rsaEncryption
            RSA Public Key: (1024 bit)
                Modulus (1024 bit):
                    00:c3:0c:75:ca:f7:a7:94:08:4a:72:f4:27:88:98:
                    9f:d7:cc:7b:41:e4:54:86:11:d1:c2:d8:a1:ce:68:
                    b0:8f:6a:6e:78:bf:f9:08:c9:a3:44:99:27:24:da:
                    c2:76:e8:59:76:be:b2:04:46:1c:f4:1a:77:76:73:
                    cb:dd:53:b6:9f:c7:5e:04:0a:35:43:e1:5d:5d:62:
                    9b:73:13:06:d3:96:8f:64:4e:34:0d:bf:31:33:3c:
                    05:24:26:d7:71:a6:83:65:1f:cf:01:25:c1:87:49:
                    35:b9:12:a1:9c:af:4c:4f:da:26:59:e4:13:ee:c1:
                    72:52:1a:f5:49:84:92:18:3b
                Exponent: 65537 (0x10001)
        X509v3 extensions:
            X509v3 Subject Key Identifier: 
                90:5E:20:89:14:A6:9B:2F:BD:21:FA:EC:07:E1:37:24:59:70:10:C1
            X509v3 Authority Key Identifier: 
                keyid:2A:94:C1:FF:E0:11:A0:91:F1:71:46:35:9A:37:3C:BC:C4:21:4A:8F
                DirName:/C=US/ST=California/L=Menlo Park/O=pkg5/CN=ta4/emailAddress=ta4
                serial:22

            X509v3 Basic Constraints: critical
                CA:FALSE
            X509v3 CRL Distribution Points: 
                URI:foo://bar/baz

    Signature Algorithm: sha256WithRSAEncryption
        95:ab:fa:7f:38:e3:de:4d:db:7f:a4:ea:49:f6:99:0c:57:76:
        36:df:e3:68:50:0d:b7:af:78:ea:e4:07:ad:63:75:15:48:34:
        ca:81:6a:0b:64:6d:c5:ca:9b:3b:a2:fd:dd:19:90:8f:d4:4d:
        35:a0:a2:18:84:bf:89:0d:22:cc:03:67:57:15:f7:70:16:2b:
        f7:14:82:3e:a9:74:50:e5:22:11:13:5b:69:d1:d5:87:c2:44:
        a6:b8:9c:73:d6:51:ec:20:89:1a:11:44:07:8f:e7:6d:df:a8:
        0f:5e:71:36:9c:7b:0b:e4:2b:5a:94:77:06:c6:fb:f7:e5:dc:
        77:a3
-----BEGIN CERTIFICATE-----
MIIDRDCCAq2gAwIBAgIBJTANBgkqhkiG9w0BAQsFADBwMQswCQYDVQQGEwJVUzET
MBEGA1UECBMKQ2FsaWZvcm5pYTETMBEGA1UEBxMKTWVubG8gUGFyazENMAsGA1UE
ChMEcGtnNTEQMA4GA1UEAxQHY2gxX3RhNDEWMBQGCSqGSIb3DQEJARYHY2gxX3Rh
NDAeFw0xMTA0MTEyMjM3NTBaFw0xNDAxMDUyMjM3NTBaMHgxCzAJBgNVBAYTAlVT
MRMwEQYDVQQIEwpDYWxpZm9ybmlhMRMwEQYDVQQHEwpNZW5sbyBQYXJrMQ0wCwYD
VQQKEwRwa2c1MRQwEgYDVQQDFAtjczNfY2gxX3RhNDEaMBgGCSqGSIb3DQEJARYL
Y3MzX2NoMV90YTQwgZ8wDQYJKoZIhvcNAQEBBQADgY0AMIGJAoGBAMMMdcr3p5QI
SnL0J4iYn9fMe0HkVIYR0cLYoc5osI9qbni/+QjJo0SZJyTawnboWXa+sgRGHPQa
d3Zzy91Ttp/HXgQKNUPhXV1im3MTBtOWj2RONA2/MTM8BSQm13Gmg2UfzwElwYdJ
NbkSoZyvTE/aJlnkE+7BclIa9UmEkhg7AgMBAAGjgeUwgeIwHQYDVR0OBBYEFJBe
IIkUppsvvSH67AfhNyRZcBDBMIGSBgNVHSMEgYowgYeAFCqUwf/gEaCR8XFGNZo3
PLzEIUqPoWykajBoMQswCQYDVQQGEwJVUzETMBEGA1UECBMKQ2FsaWZvcm5pYTET
MBEGA1UEBxMKTWVubG8gUGFyazENMAsGA1UEChMEcGtnNTEMMAoGA1UEAxMDdGE0
MRIwEAYJKoZIhvcNAQkBFgN0YTSCASIwDAYDVR0TAQH/BAIwADAeBgNVHR8EFzAV
MBOgEaAPhg1mb286Ly9iYXIvYmF6MA0GCSqGSIb3DQEBCwUAA4GBAJWr+n84495N
23+k6kn2mQxXdjbf42hQDbeveOrkB61jdRVINMqBagtkbcXKmzui/d0ZkI/UTTWg
ohiEv4kNIswDZ1cV93AWK/cUgj6pdFDlIhETW2nR1YfCRKa4nHPWUewgiRoRRAeP
523fqA9ecTacewvkK1qUdwbG+/fl3Hej
-----END CERTIFICATE-----
