Certificate:
    Data:
        Version: 3 (0x2)
        Serial Number: 19 (0x13)
        Signature Algorithm: sha256WithRSAEncryption
        Issuer: C=US, ST=California, L=Menlo Park, O=pkg5, CN=ch1_ta3/emailAddress=ch1_ta3
        Validity
            Not Before: Jan  1 01:01:01 2009 GMT
            Not After : Jan  2 01:01:01 2009 GMT
        Subject: C=US, ST=California, L=Menlo Park, O=pkg5, CN=cs3_ch1_ta3/emailAddress=cs3_ch1_ta3
        Subject Public Key Info:
            Public Key Algorithm: rsaEncryption
            RSA Public Key: (1024 bit)
                Modulus (1024 bit):
                    00:b7:60:7b:08:47:0a:05:c1:6c:80:9a:84:e2:de:
                    c6:11:65:df:a6:c7:30:bb:37:e9:ae:9e:37:9d:f9:
                    f3:3a:18:38:ee:be:e0:fb:6b:84:fb:93:2c:5b:1e:
                    9f:7a:78:da:26:28:c7:fb:6e:9f:2e:8f:f9:5a:1c:
                    e8:0b:e0:f1:5c:45:f6:a0:0e:58:01:4e:86:20:bd:
                    ff:7d:0c:41:4b:b2:50:5c:78:89:3c:4a:83:cf:59:
                    9f:e4:17:27:de:ea:aa:ff:c8:19:f5:b7:c3:67:bd:
                    5e:78:79:8e:46:33:1a:ef:36:40:f8:f2:7e:bc:ca:
                    54:85:57:56:e5:e7:b8:52:4d
                Exponent: 65537 (0x10001)
        X509v3 extensions:
            X509v3 Basic Constraints: critical
                CA:FALSE
            X509v3 Key Usage: critical
                Digital Signature
    Signature Algorithm: sha256WithRSAEncryption
        27:40:ae:0c:a2:ad:5d:28:30:53:fe:e4:35:31:02:e4:1a:ef:
        6d:ec:95:1e:3e:a0:15:15:32:e8:88:46:68:45:a7:60:9f:93:
        79:ab:ef:78:f6:2c:23:ef:a1:f4:71:b3:9a:f1:c6:4d:ac:34:
        a1:24:d8:4e:38:36:3c:bb:90:30:9b:e4:b3:8e:55:e0:06:c4:
        5a:c4:f1:23:90:fd:b3:ef:40:dd:4d:4c:2b:55:50:11:64:6b:
        64:3f:e3:67:3c:6c:c1:da:55:6c:7d:8d:87:18:40:6a:cb:13:
        17:3b:75:35:09:71:0b:e9:c4:7e:b1:a1:db:80:78:93:b3:5b:
        d0:4e
-----BEGIN CERTIFICATE-----
MIICfjCCAeegAwIBAgIBEzANBgkqhkiG9w0BAQsFADBwMQswCQYDVQQGEwJVUzET
MBEGA1UECBMKQ2FsaWZvcm5pYTETMBEGA1UEBxMKTWVubG8gUGFyazENMAsGA1UE
ChMEcGtnNTEQMA4GA1UEAxQHY2gxX3RhMzEWMBQGCSqGSIb3DQEJARYHY2gxX3Rh
MzAeFw0wOTAxMDEwMTAxMDFaFw0wOTAxMDIwMTAxMDFaMHgxCzAJBgNVBAYTAlVT
MRMwEQYDVQQIEwpDYWxpZm9ybmlhMRMwEQYDVQQHEwpNZW5sbyBQYXJrMQ0wCwYD
VQQKEwRwa2c1MRQwEgYDVQQDFAtjczNfY2gxX3RhMzEaMBgGCSqGSIb3DQEJARYL
Y3MzX2NoMV90YTMwgZ8wDQYJKoZIhvcNAQEBBQADgY0AMIGJAoGBALdgewhHCgXB
bICahOLexhFl36bHMLs36a6eN5358zoYOO6+4PtrhPuTLFsen3p42iYox/tuny6P
+Voc6Avg8VxF9qAOWAFOhiC9/30MQUuyUFx4iTxKg89Zn+QXJ97qqv/IGfW3w2e9
Xnh5jkYzGu82QPjyfrzKVIVXVuXnuFJNAgMBAAGjIDAeMAwGA1UdEwEB/wQCMAAw
DgYDVR0PAQH/BAQDAgeAMA0GCSqGSIb3DQEBCwUAA4GBACdArgyirV0oMFP+5DUx
AuQa723slR4+oBUVMuiIRmhFp2Cfk3mr73j2LCPvofRxs5rxxk2sNKEk2E44Njy7
kDCb5LOOVeAGxFrE8SOQ/bPvQN1NTCtVUBFka2Q/42c8bMHaVWx9jYcYQGrLExc7
dTUJcQvpxH6xoduAeJOzW9BO
-----END CERTIFICATE-----
