Certificate:
    Data:
        Version: 3 (0x2)
        Serial Number: 19 (0x13)
        Signature Algorithm: sha256WithRSAEncryption
        Issuer: C=US, ST=California, L=Menlo Park, O=pkg5, CN=ch1_ta3/emailAddress=ch1_ta3
        Validity
            Not Before: Jan  1 01:01:01 2009 GMT
            Not After : Jan  2 01:01:01 2009 GMT
        Subject: C=US, ST=California, L=Menlo Park, O=pkg5, CN=cs3_ch1_ta3/emailAddress=cs3_ch1_ta3
        Subject Public Key Info:
            Public Key Algorithm: rsaEncryption
            RSA Public Key: (1024 bit)
                Modulus (1024 bit):
                    00:bb:c7:fd:cb:1f:d5:2b:00:7f:dc:00:fe:45:5c:
                    7d:27:a3:8b:18:da:3f:d2:36:0c:57:2b:c4:48:be:
                    97:01:f1:71:ce:b9:80:e6:0f:d2:3b:36:2d:25:57:
                    41:1e:e7:7b:2e:5c:d2:ac:17:fc:ae:45:11:7f:bc:
                    d0:32:a0:e3:09:01:29:27:7a:dd:d2:fc:13:9a:ea:
                    d8:d1:6c:be:73:b3:05:a8:fc:39:05:f7:cd:b0:f9:
                    f2:b8:a4:5c:f9:c3:23:2b:05:4e:fe:da:22:42:80:
                    70:36:66:b9:f4:6a:00:ae:eb:90:60:ee:e8:fc:40:
                    6f:3c:38:b5:41:5b:bd:3a:ed
                Exponent: 65537 (0x10001)
        X509v3 extensions:
            X509v3 Basic Constraints: critical
                CA:FALSE
            X509v3 Key Usage: critical
                Digital Signature
    Signature Algorithm: sha256WithRSAEncryption
        0f:9a:2f:85:f1:58:fd:7f:5b:bf:af:dd:ea:c2:fb:6e:8f:ca:
        8f:0b:26:91:01:66:20:df:5c:39:e8:97:c3:7c:fa:c4:8f:13:
        d6:06:7e:6e:51:49:2b:8a:e7:03:b5:6d:68:2a:18:88:a6:05:
        07:c2:9c:28:5b:43:60:32:4e:3e:7d:a0:6e:3f:43:b4:c9:a9:
        77:7e:bb:01:68:04:96:18:9e:48:c5:0c:d1:f4:3d:3b:69:ed:
        57:29:3d:aa:d1:64:5f:f0:07:a7:74:72:11:d8:0b:62:69:c4:
        7d:ca:0c:5d:07:0d:b0:06:62:bc:53:32:e9:5f:a5:5b:28:11:
        bc:bc
-----BEGIN CERTIFICATE-----
MIICfjCCAeegAwIBAgIBEzANBgkqhkiG9w0BAQsFADBwMQswCQYDVQQGEwJVUzET
MBEGA1UECBMKQ2FsaWZvcm5pYTETMBEGA1UEBxMKTWVubG8gUGFyazENMAsGA1UE
ChMEcGtnNTEQMA4GA1UEAxQHY2gxX3RhMzEWMBQGCSqGSIb3DQEJARYHY2gxX3Rh
MzAeFw0wOTAxMDEwMTAxMDFaFw0wOTAxMDIwMTAxMDFaMHgxCzAJBgNVBAYTAlVT
MRMwEQYDVQQIEwpDYWxpZm9ybmlhMRMwEQYDVQQHEwpNZW5sbyBQYXJrMQ0wCwYD
VQQKEwRwa2c1MRQwEgYDVQQDFAtjczNfY2gxX3RhMzEaMBgGCSqGSIb3DQEJARYL
Y3MzX2NoMV90YTMwgZ8wDQYJKoZIhvcNAQEBBQADgY0AMIGJAoGBALvH/csf1SsA
f9wA/kVcfSejixjaP9I2DFcrxEi+lwHxcc65gOYP0js2LSVXQR7ney5c0qwX/K5F
EX+80DKg4wkBKSd63dL8E5rq2NFsvnOzBaj8OQX3zbD58rikXPnDIysFTv7aIkKA
cDZmufRqAK7rkGDu6PxAbzw4tUFbvTrtAgMBAAGjIDAeMAwGA1UdEwEB/wQCMAAw
DgYDVR0PAQH/BAQDAgeAMA0GCSqGSIb3DQEBCwUAA4GBAA+aL4XxWP1/W7+v3erC
+26Pyo8LJpEBZiDfXDnol8N8+sSPE9YGfm5RSSuK5wO1bWgqGIimBQfCnChbQ2Ay
Tj59oG4/Q7TJqXd+uwFoBJYYnkjFDNH0PTtp7VcpParRZF/wB6d0chHYC2JpxH3K
DF0HDbAGYrxTMulfpVsoEby8
-----END CERTIFICATE-----
