Certificate:
    Data:
        Version: 3 (0x2)
        Serial Number: 19 (0x13)
    Signature Algorithm: sha256WithRSAEncryption
        Issuer: C=US, ST=California, L=Santa Clara, O=pkg5, CN=ch1_ta3/emailAddress=ch1_ta3
        Validity
            Not Before: Jan  1 01:01:01 2009 GMT
            Not After : Jan  2 01:01:01 2009 GMT
        Subject: C=US, ST=California, L=Santa Clara, O=pkg5, CN=cs3_ch1_ta3/emailAddress=cs3_ch1_ta3
        Subject Public Key Info:
            Public Key Algorithm: rsaEncryption
                Public-Key: (2048 bit)
                Modulus:
                    00:d4:00:b3:6a:45:a4:25:33:b2:10:e2:6b:6f:80:
                    20:53:5f:ea:01:2a:06:ad:1e:73:69:cd:5b:23:01:
                    ec:d3:01:77:fc:75:c8:fd:c0:57:55:e5:b0:33:91:
                    48:2e:39:29:c3:eb:84:be:03:9a:c2:ad:82:1b:98:
                    72:0a:27:8f:77:30:cf:de:91:94:eb:56:0a:b1:8e:
                    f2:76:13:e9:23:7f:ca:81:3a:18:35:c9:30:99:f2:
                    09:26:c7:df:43:d8:b8:e4:ee:24:bb:87:ed:ba:0f:
                    4c:7d:db:6e:54:f5:ea:9f:43:b7:d7:55:f6:5c:f3:
                    1e:22:38:75:bd:ce:82:10:82:b7:9c:4d:bf:ea:72:
                    61:e2:ff:13:68:28:a9:c8:a5:00:9f:bf:ae:0f:ac:
                    6e:7d:2c:87:8a:2b:87:6c:78:3e:3f:05:bb:5a:91:
                    9e:e4:95:be:56:ac:a0:ed:43:67:3a:86:c2:2d:a2:
                    93:04:a2:93:0d:0a:a3:e4:be:55:b4:6a:05:b8:43:
                    0a:4e:75:87:b7:76:c2:2c:7c:5d:dd:ef:91:c1:d5:
                    d4:e1:89:94:39:d2:ef:e7:b8:d1:81:ea:80:11:48:
                    fa:ba:06:e4:35:bf:a9:7a:f8:54:68:89:9f:34:d1:
                    40:d2:68:b8:b9:d2:ac:c8:01:2f:98:19:60:47:64:
                    18:43
                Exponent: 65537 (0x10001)
        X509v3 extensions:
            X509v3 Basic Constraints: critical
                CA:FALSE
            X509v3 Key Usage: critical
                Digital Signature
    Signature Algorithm: sha256WithRSAEncryption
         30:5b:60:de:b3:1e:10:a9:8b:ca:cd:2d:97:2f:2d:e0:f1:1d:
         ee:d1:df:a3:f5:0a:20:ab:d9:4d:96:56:dc:65:e9:f5:85:cf:
         3a:26:87:77:d5:5f:ff:38:79:cd:aa:a6:cf:80:3f:d3:c3:5e:
         09:ef:e4:4f:a3:33:3c:e0:c4:28:87:5a:7d:33:77:d9:59:62:
         ec:3c:fd:98:83:fb:f7:3c:08:bc:4d:9d:3f:70:fe:83:a3:7b:
         47:a0:c1:37:a2:0d:78:3e:47:bf:d0:48:9a:42:0d:86:c5:67:
         38:37:6f:5c:29:cb:49:45:7a:6b:74:1e:b4:ec:c5:6b:20:2d:
         ac:14:5a:ec:b6:55:5c:71:f6:26:64:75:33:bc:0f:0f:17:9f:
         b8:10:4b:0b:22:6d:5c:7e:b9:b6:f2:44:11:0f:de:6c:d7:f7:
         91:a3:a8:cc:64:a1:cd:af:77:aa:ce:ff:18:cc:a5:54:11:a2:
         a7:f0:6e:5e:b7:9d:4f:af:bd:bd:5a:ab:fa:b8:c0:07:92:76:
         af:c9:d8:4a:9e:90:d3:62:7a:72:54:a9:7e:53:db:d0:02:b9:
         c9:87:47:1c:7f:e6:c9:25:f3:3f:00:5d:af:84:24:03:02:14:
         b9:2c:84:aa:b7:d1:1b:cf:3e:f1:57:40:62:c1:74:44:e9:1a:
         20:ac:2b:4c
-----BEGIN CERTIFICATE-----
MIIDhTCCAm2gAwIBAgIBEzANBgkqhkiG9w0BAQsFADBxMQswCQYDVQQGEwJVUzET
MBEGA1UECAwKQ2FsaWZvcm5pYTEUMBIGA1UEBwwLU2FudGEgQ2xhcmExDTALBgNV
BAoMBHBrZzUxEDAOBgNVBAMMB2NoMV90YTMxFjAUBgkqhkiG9w0BCQEWB2NoMV90
YTMwHhcNMDkwMTAxMDEwMTAxWhcNMDkwMTAyMDEwMTAxWjB5MQswCQYDVQQGEwJV
UzETMBEGA1UECAwKQ2FsaWZvcm5pYTEUMBIGA1UEBwwLU2FudGEgQ2xhcmExDTAL
BgNVBAoMBHBrZzUxFDASBgNVBAMMC2NzM19jaDFfdGEzMRowGAYJKoZIhvcNAQkB
FgtjczNfY2gxX3RhMzCCASIwDQYJKoZIhvcNAQEBBQADggEPADCCAQoCggEBANQA
s2pFpCUzshDia2+AIFNf6gEqBq0ec2nNWyMB7NMBd/x1yP3AV1XlsDORSC45KcPr
hL4DmsKtghuYcgonj3cwz96RlOtWCrGO8nYT6SN/yoE6GDXJMJnyCSbH30PYuOTu
JLuH7boPTH3bblT16p9Dt9dV9lzzHiI4db3OghCCt5xNv+pyYeL/E2goqcilAJ+/
rg+sbn0sh4orh2x4Pj8Fu1qRnuSVvlasoO1DZzqGwi2ikwSikw0Ko+S+VbRqBbhD
Ck51h7d2wix8Xd3vkcHV1OGJlDnS7+e40YHqgBFI+roG5DW/qXr4VGiJnzTRQNJo
uLnSrMgBL5gZYEdkGEMCAwEAAaMgMB4wDAYDVR0TAQH/BAIwADAOBgNVHQ8BAf8E
BAMCB4AwDQYJKoZIhvcNAQELBQADggEBADBbYN6zHhCpi8rNLZcvLeDxHe7R36P1
CiCr2U2WVtxl6fWFzzomh3fVX/84ec2qps+AP9PDXgnv5E+jMzzgxCiHWn0zd9lZ
Yuw8/ZiD+/c8CLxNnT9w/oOje0egwTeiDXg+R7/QSJpCDYbFZzg3b1wpy0lFemt0
HrTsxWsgLawUWuy2VVxx9iZkdTO8Dw8Xn7gQSwsibVx+ubbyRBEP3mzX95GjqMxk
oc2vd6rO/xjMpVQRoqfwbl63nU+vvb1aq/q4wAeSdq/J2EqekNNienJUqX5T29AC
ucmHRxx/5skl8z8AXa+EJAMCFLkshKq30RvPPvFXQGLBdETpGiCsK0w=
-----END CERTIFICATE-----
