Certificate:
    Data:
        Version: 3 (0x2)
        Serial Number: 8 (0x8)
        Signature Algorithm: sha256WithRSAEncryption
        Issuer: C=US, ST=California, L=Menlo Park, O=pkg5, CN=ch2_pubCA1/emailAddress=ch2_pubCA1
        Validity
            Not Before: Aug  4 20:59:24 2010 GMT
            Not After : Apr 30 20:59:24 2013 GMT
        Subject: C=US, ST=California, L=Menlo Park, O=pkg5, CN=cs3_pubCA1/emailAddress=cs3_pubCA1
        Subject Public Key Info:
            Public Key Algorithm: rsaEncryption
            RSA Public Key: (1024 bit)
                Modulus (1024 bit):
                    00:ae:1e:e7:bd:54:fe:74:88:e0:34:0d:32:b2:1b:
                    ea:3e:63:fd:7b:1b:13:cc:84:29:e1:f8:7d:c4:9c:
                    65:aa:3a:2b:fd:c9:7c:03:57:03:b2:12:75:b9:c9:
                    5e:02:a4:8e:6d:c7:54:c1:cd:e1:30:28:5f:a8:64:
                    c9:c2:02:e2:3b:af:5e:b3:ec:2c:1c:5c:48:50:07:
                    87:e4:19:80:ef:b4:78:6f:f2:6f:dd:64:61:97:ce:
                    a7:29:0a:07:3c:6f:2e:44:fe:38:70:5b:c6:44:bb:
                    cf:f5:3f:b3:20:3b:3b:81:fa:77:25:ab:1f:4f:f6:
                    db:28:fd:7f:ba:2f:57:18:47
                Exponent: 65537 (0x10001)
        X509v3 extensions:
            X509v3 Basic Constraints: critical
                CA:FALSE
            X509v3 CRL Distribution Points: 
                URI:http://localhost:12001/file/0/ch1_pubCA1_crl.pem

    Signature Algorithm: sha256WithRSAEncryption
        22:d6:f3:a1:9f:65:9a:2d:d1:3f:50:ea:ba:52:99:1e:1f:95:
        38:e4:e0:cb:7e:fc:7f:5a:82:75:a4:fa:23:64:7b:4f:63:b1:
        b5:30:34:38:8e:d1:54:13:a6:1e:7b:3b:f0:3e:94:54:1e:a4:
        5c:19:3c:38:18:d7:ee:b0:31:ea:ac:d1:b2:18:4b:a7:19:93:
        45:8f:a2:b6:cf:0b:39:73:b6:80:2e:3d:48:de:18:af:98:4e:
        cc:15:a2:a4:98:a0:d1:03:36:05:b1:e7:81:94:3b:cd:da:b2:
        fc:2b:ff:9f:e5:fe:9c:b8:2b:5c:1a:75:00:58:54:a3:f1:4e:
        cf:53
-----BEGIN CERTIFICATE-----
MIICtTCCAh6gAwIBAgIBCDANBgkqhkiG9w0BAQsFADB2MQswCQYDVQQGEwJVUzET
MBEGA1UECBMKQ2FsaWZvcm5pYTETMBEGA1UEBxMKTWVubG8gUGFyazENMAsGA1UE
ChMEcGtnNTETMBEGA1UEAxQKY2gyX3B1YkNBMTEZMBcGCSqGSIb3DQEJARYKY2gy
X3B1YkNBMTAeFw0xMDA4MDQyMDU5MjRaFw0xMzA0MzAyMDU5MjRaMHYxCzAJBgNV
BAYTAlVTMRMwEQYDVQQIEwpDYWxpZm9ybmlhMRMwEQYDVQQHEwpNZW5sbyBQYXJr
MQ0wCwYDVQQKEwRwa2c1MRMwEQYDVQQDFApjczNfcHViQ0ExMRkwFwYJKoZIhvcN
AQkBFgpjczNfcHViQ0ExMIGfMA0GCSqGSIb3DQEBAQUAA4GNADCBiQKBgQCuHue9
VP50iOA0DTKyG+o+Y/17GxPMhCnh+H3EnGWqOiv9yXwDVwOyEnW5yV4CpI5tx1TB
zeEwKF+oZMnCAuI7r16z7CwcXEhQB4fkGYDvtHhv8m/dZGGXzqcpCgc8by5E/jhw
W8ZEu8/1P7MgOzuB+nclqx9P9tso/X+6L1cYRwIDAQABo1MwUTAMBgNVHRMBAf8E
AjAAMEEGA1UdHwQ6MDgwNqA0oDKGMGh0dHA6Ly9sb2NhbGhvc3Q6MTIwMDEvZmls
ZS8wL2NoMV9wdWJDQTFfY3JsLnBlbTANBgkqhkiG9w0BAQsFAAOBgQAi1vOhn2Wa
LdE/UOq6UpkeH5U45ODLfvx/WoJ1pPojZHtPY7G1MDQ4jtFUE6YeezvwPpRUHqRc
GTw4GNfusDHqrNGyGEunGZNFj6K2zws5c7aALj1I3hivmE7MFaKkmKDRAzYFseeB
lDvN2rL8K/+f5f6cuCtcGnUAWFSj8U7PUw==
-----END CERTIFICATE-----
