Certificate:
    Data:
        Version: 3 (0x2)
        Serial Number: 37 (0x25)
        Signature Algorithm: sha256WithRSAEncryption
        Issuer: C=US, ST=California, L=Santa Clara, O=pkg5, CN=ch1_ta4/emailAddress=ch1_ta4
        Validity
            Not Before: Mar 18 08:51:43 2026 GMT
            Not After : Dec 12 08:51:43 2028 GMT
        Subject: C=US, ST=California, L=Santa Clara, O=pkg5, CN=cs3_ch1_ta4/emailAddress=cs3_ch1_ta4
        Subject Public Key Info:
            Public Key Algorithm: rsaEncryption
                Public-Key: (2048 bit)
                Modulus:
                    00:b6:7b:39:b0:4f:ef:6e:52:0b:c0:5a:9f:6e:39:
                    95:9f:b3:0b:35:65:56:9b:b7:ba:16:35:8d:94:11:
                    7d:67:e7:7d:df:9d:39:2d:aa:87:be:35:1d:95:7d:
                    f8:d1:ac:98:a4:71:a0:a5:8d:81:10:3c:8a:ed:ae:
                    70:8f:6d:16:af:17:a2:19:f3:31:35:95:6c:4c:60:
                    b6:c3:94:3e:31:b8:7e:48:7d:5d:f0:f5:d0:89:c1:
                    19:9a:dd:f3:27:de:b6:c7:a9:24:cb:fc:78:00:31:
                    03:a5:6a:32:3b:99:7b:54:d2:1e:48:ea:02:ba:0c:
                    41:e6:fc:86:d8:61:bd:c4:4a:71:d0:3c:03:a2:2f:
                    c1:75:b1:2a:9c:46:b6:8a:8d:bb:64:65:97:02:4c:
                    16:28:7c:a2:61:66:b7:aa:13:1c:82:4a:74:ef:88:
                    86:d4:9e:7c:ee:e9:e2:99:88:27:03:b6:35:cd:bf:
                    54:84:08:73:61:eb:64:19:b9:27:ac:8d:47:b6:00:
                    4b:ac:15:a1:c9:91:86:e7:42:1b:31:cf:e4:e0:c1:
                    6a:33:af:4a:50:e3:a9:22:b9:92:a3:8a:18:92:b5:
                    3c:e4:46:67:66:fd:8c:ac:16:ac:42:a6:4c:ae:a4:
                    45:5c:bc:ed:2b:e2:75:38:e9:37:69:62:41:8a:be:
                    e9:75
                Exponent: 65537 (0x10001)
        X509v3 extensions:
            X509v3 Subject Key Identifier: 
                42:13:94:D4:B1:5D:9E:F6:D5:8A:04:43:B9:B3:15:4F:B1:81:C7:F1
            X509v3 Authority Key Identifier: 
                keyid:85:4B:6A:83:21:30:D9:83:25:BA:5C:5A:91:81:AE:95:B1:27:64:46
                DirName:/C=US/ST=California/L=Santa Clara/O=pkg5/CN=ta4/emailAddress=ta4
                serial:22
            X509v3 Basic Constraints: critical
                CA:FALSE
            X509v3 CRL Distribution Points: 
                Full Name:
                  URI:foo://bar/baz
    Signature Algorithm: sha256WithRSAEncryption
    Signature Value:
        9e:d3:da:1b:25:48:06:47:50:af:dc:e1:de:75:0b:15:d3:ef:
        9b:88:45:0d:ba:00:73:69:b2:2f:f0:9e:0f:f8:0e:b9:07:4b:
        be:ba:45:30:03:8a:bf:77:92:ba:fd:1b:10:a5:d8:83:31:f6:
        cb:21:60:37:4d:88:71:8c:6d:77:71:bd:2e:6d:77:07:fe:75:
        a1:e9:c1:c0:34:d9:42:76:fd:4b:73:bc:4b:fa:98:cb:52:cf:
        07:19:4f:95:27:b9:09:d9:3d:ae:82:7e:b8:81:e7:8a:25:7a:
        fc:1f:8a:90:5b:c7:ad:31:c1:bb:11:5b:f4:3f:45:06:d2:90:
        92:3a:e5:7d:66:b2:c2:3f:8c:64:23:c5:f3:6d:52:e6:a2:22:
        48:02:0b:98:e3:c5:c4:fe:7b:e9:fb:7a:cf:39:0b:91:a1:3e:
        57:c5:bc:ba:7b:d4:1f:97:5e:b5:ce:2d:b0:12:b2:64:df:0b:
        72:d0:33:44:a5:1b:c6:b9:45:21:9d:86:9e:53:58:6d:26:6c:
        31:7f:91:f6:12:d6:38:ab:b5:c1:66:fa:44:ad:f1:fb:cb:c3:
        b7:e8:ad:ee:62:ef:5c:81:0a:12:da:01:9e:d7:42:05:c0:73:
        96:90:82:34:d9:af:9f:7d:ea:4c:80:82:f2:7a:19:32:95:b9:
        91:1e:2f:41
-----BEGIN CERTIFICATE-----
MIIETDCCAzSgAwIBAgIBJTANBgkqhkiG9w0BAQsFADBxMQswCQYDVQQGEwJVUzET
MBEGA1UECAwKQ2FsaWZvcm5pYTEUMBIGA1UEBwwLU2FudGEgQ2xhcmExDTALBgNV
BAoMBHBrZzUxEDAOBgNVBAMMB2NoMV90YTQxFjAUBgkqhkiG9w0BCQEWB2NoMV90
YTQwHhcNMjYwMzE4MDg1MTQzWhcNMjgxMjEyMDg1MTQzWjB5MQswCQYDVQQGEwJV
UzETMBEGA1UECAwKQ2FsaWZvcm5pYTEUMBIGA1UEBwwLU2FudGEgQ2xhcmExDTAL
BgNVBAoMBHBrZzUxFDASBgNVBAMMC2NzM19jaDFfdGE0MRowGAYJKoZIhvcNAQkB
FgtjczNfY2gxX3RhNDCCASIwDQYJKoZIhvcNAQEBBQADggEPADCCAQoCggEBALZ7
ObBP725SC8Ban245lZ+zCzVlVpu3uhY1jZQRfWfnfd+dOS2qh741HZV9+NGsmKRx
oKWNgRA8iu2ucI9tFq8XohnzMTWVbExgtsOUPjG4fkh9XfD10InBGZrd8yfetsep
JMv8eAAxA6VqMjuZe1TSHkjqAroMQeb8hthhvcRKcdA8A6IvwXWxKpxGtoqNu2Rl
lwJMFih8omFmt6oTHIJKdO+IhtSefO7p4pmIJwO2Nc2/VIQIc2HrZBm5J6yNR7YA
S6wVocmRhudCGzHP5ODBajOvSlDjqSK5kqOKGJK1PORGZ2b9jKwWrEKmTK6kRVy8
7SvidTjpN2liQYq+6XUCAwEAAaOB5jCB4zAdBgNVHQ4EFgQUQhOU1LFdnvbVigRD
ubMVT7GBx/EwgZMGA1UdIwSBizCBiIAUhUtqgyEw2YMlulxakYGulbEnZEahbaRr
MGkxCzAJBgNVBAYTAlVTMRMwEQYDVQQIDApDYWxpZm9ybmlhMRQwEgYDVQQHDAtT
YW50YSBDbGFyYTENMAsGA1UECgwEcGtnNTEMMAoGA1UEAwwDdGE0MRIwEAYJKoZI
hvcNAQkBFgN0YTSCASIwDAYDVR0TAQH/BAIwADAeBgNVHR8EFzAVMBOgEaAPhg1m
b286Ly9iYXIvYmF6MA0GCSqGSIb3DQEBCwUAA4IBAQCe09obJUgGR1Cv3OHedQsV
0++biEUNugBzabIv8J4P+A65B0u+ukUwA4q/d5K6/RsQpdiDMfbLIWA3TYhxjG13
cb0ubXcH/nWh6cHANNlCdv1Lc7xL+pjLUs8HGU+VJ7kJ2T2ugn64geeKJXr8H4qQ
W8etMcG7EVv0P0UG0pCSOuV9ZrLCP4xkI8XzbVLmoiJIAguY48XE/nvp+3rPOQuR
oT5Xxby6e9Qfl161zi2wErJk3wty0DNEpRvGuUUhnYaeU1htJmwxf5H2EtY4q7XB
ZvpErfH7y8O36K3uYu9cgQoS2gGe10IFwHOWkII02a+ffepMgILyehkylbmRHi9B
-----END CERTIFICATE-----
