Certificate:
    Data:
        Version: 3 (0x2)
        Serial Number: 19 (0x13)
    Signature Algorithm: sha256WithRSAEncryption
        Issuer: C=US, ST=California, L=Santa Clara, O=pkg5, CN=ch1_ta3/emailAddress=ch1_ta3
        Validity
            Not Before: Jan  1 01:01:01 2009 GMT
            Not After : Jan  2 01:01:01 2009 GMT
        Subject: C=US, ST=California, L=Santa Clara, O=pkg5, CN=cs3_ch1_ta3/emailAddress=cs3_ch1_ta3
        Subject Public Key Info:
            Public Key Algorithm: rsaEncryption
                Public-Key: (1024 bit)
                Modulus:
                    00:f0:f2:0a:b1:3f:8a:9f:b1:8e:5b:f4:64:be:fa:
                    d0:dc:63:bc:25:73:b7:e2:cb:d9:eb:fd:12:5f:fc:
                    9b:49:bc:85:bc:92:15:1b:d1:ff:4e:09:8b:93:b1:
                    b8:91:32:f7:46:11:6a:14:a1:93:86:0f:fe:64:f1:
                    46:3f:5b:75:da:ae:e9:02:0c:8e:2a:01:7b:ab:34:
                    92:a5:dc:b4:87:56:bc:a4:93:3b:12:96:62:9b:6f:
                    54:6f:a2:39:48:b3:a4:72:0d:f9:0e:06:c5:a5:98:
                    78:8f:6d:eb:5f:f2:8d:0a:ea:24:7c:73:6f:f9:ef:
                    6d:c3:7d:1b:ea:08:af:3e:9b
                Exponent: 65537 (0x10001)
        X509v3 extensions:
            X509v3 Basic Constraints: critical
                CA:FALSE
            X509v3 Key Usage: critical
                Digital Signature
    Signature Algorithm: sha256WithRSAEncryption
         62:2f:f9:01:41:77:49:14:eb:96:1c:45:e1:05:d8:9f:fa:fb:
         2a:92:89:68:9f:6f:75:11:fd:7c:ba:5c:ab:df:62:15:fa:d5:
         e5:70:53:46:a6:71:93:04:9b:fe:17:27:6e:23:68:c7:47:ec:
         c4:14:6b:dc:1b:8c:d6:fc:1b:5b:56:dd:3a:2d:fc:89:48:2c:
         08:00:dc:94:38:71:be:21:4e:8f:9b:6a:e7:37:b1:10:05:7e:
         b9:09:96:7e:e9:87:c5:37:4f:ff:8c:b4:7a:1f:77:dc:55:2e:
         62:91:d3:0e:46:5c:1c:d2:40:23:e7:23:16:38:51:bd:a7:2f:
         fa:f1:33:a6:fb:f5:e5:d7:fa:4a:9b:1d:45:32:0a:ff:20:1a:
         65:77:2a:53:9e:49:9b:b3:d8:8e:02:d0:d6:d9:7e:67:83:ef:
         ef:34:59:d5:f3:79:40:70:45:ed:2f:ce:5e:3d:3e:ac:66:76:
         74:d4:34:34:87:de:c0:a9:20:4b:f5:47:bc:5a:bb:e6:13:a5:
         36:28:05:0d:4e:fd:05:32:24:75:61:31:75:7e:76:7e:df:41:
         8c:30:87:98:37:80:3e:ff:03:75:a7:db:c2:dd:cd:15:09:0d:
         46:e7:28:58:4e:30:dd:18:5f:db:1d:58:47:5c:0b:d0:da:20:
         a1:3b:f3:f9
-----BEGIN CERTIFICATE-----
MIIDATCCAemgAwIBAgIBEzANBgkqhkiG9w0BAQsFADBxMQswCQYDVQQGEwJVUzET
MBEGA1UECAwKQ2FsaWZvcm5pYTEUMBIGA1UEBwwLU2FudGEgQ2xhcmExDTALBgNV
BAoMBHBrZzUxEDAOBgNVBAMMB2NoMV90YTMxFjAUBgkqhkiG9w0BCQEWB2NoMV90
YTMwHhcNMDkwMTAxMDEwMTAxWhcNMDkwMTAyMDEwMTAxWjB5MQswCQYDVQQGEwJV
UzETMBEGA1UECAwKQ2FsaWZvcm5pYTEUMBIGA1UEBwwLU2FudGEgQ2xhcmExDTAL
BgNVBAoMBHBrZzUxFDASBgNVBAMMC2NzM19jaDFfdGEzMRowGAYJKoZIhvcNAQkB
FgtjczNfY2gxX3RhMzCBnzANBgkqhkiG9w0BAQEFAAOBjQAwgYkCgYEA8PIKsT+K
n7GOW/RkvvrQ3GO8JXO34svZ6/0SX/ybSbyFvJIVG9H/TgmLk7G4kTL3RhFqFKGT
hg/+ZPFGP1t12q7pAgyOKgF7qzSSpdy0h1a8pJM7EpZim29Ub6I5SLOkcg35DgbF
pZh4j23rX/KNCuokfHNv+e9tw30b6givPpsCAwEAAaMgMB4wDAYDVR0TAQH/BAIw
ADAOBgNVHQ8BAf8EBAMCB4AwDQYJKoZIhvcNAQELBQADggEBAGIv+QFBd0kU65Yc
ReEF2J/6+yqSiWifb3UR/Xy6XKvfYhX61eVwU0amcZMEm/4XJ24jaMdH7MQUa9wb
jNb8G1tW3Tot/IlILAgA3JQ4cb4hTo+bauc3sRAFfrkJln7ph8U3T/+MtHofd9xV
LmKR0w5GXBzSQCPnIxY4Ub2nL/rxM6b79eXX+kqbHUUyCv8gGmV3KlOeSZuz2I4C
0NbZfmeD7+80WdXzeUBwRe0vzl49PqxmdnTUNDSH3sCpIEv1R7xau+YTpTYoBQ1O
/QUyJHVhMXV+dn7fQYwwh5g3gD7/A3Wn28LdzRUJDUbnKFhOMN0YX9sdWEdcC9Da
IKE78/k=
-----END CERTIFICATE-----
