Certificate:
    Data:
        Version: 3 (0x2)
        Serial Number: 26 (0x1a)
        Signature Algorithm: sha256WithRSAEncryption
        Issuer: C=US, ST=California, L=Menlo Park, O=pkg5, CN=pubCA1_ta4/emailAddress=pubCA1_ta4
        Validity
            Not Before: Aug  4 20:59:29 2010 GMT
            Not After : Apr 30 20:59:29 2013 GMT
        Subject: C=US, ST=California, L=Menlo Park, O=pkg5, CN=cs3_ta4/emailAddress=cs3_ta4
        Subject Public Key Info:
            Public Key Algorithm: rsaEncryption
            RSA Public Key: (1024 bit)
                Modulus (1024 bit):
                    00:b2:66:56:2e:29:80:41:b1:f4:0f:03:7d:94:35:
                    7d:67:5f:a6:df:49:c8:47:d8:53:03:0b:97:bb:01:
                    fb:ba:86:6e:5b:f1:f6:b2:50:fd:c6:4a:8f:16:0d:
                    4c:6b:95:72:55:a1:26:c1:db:8a:f1:16:e5:06:45:
                    72:78:5c:54:fa:4b:3e:b2:e9:68:a9:68:4f:c8:19:
                    8d:40:c1:07:3b:82:b5:ea:60:7c:8f:94:9f:27:81:
                    79:1e:03:f1:ac:90:42:6b:6f:87:1e:ea:b9:a8:c5:
                    b1:a4:2a:ff:8c:1c:37:aa:7d:eb:7c:70:2a:5f:e6:
                    56:60:84:46:e5:a2:3b:11:79
                Exponent: 65537 (0x10001)
        X509v3 extensions:
            X509v3 Subject Key Identifier: 
                98:85:12:48:CD:F8:29:DD:17:72:03:5C:40:02:E6:50:F6:24:E7:2D
            X509v3 Authority Key Identifier: 
                keyid:EE:8D:78:53:11:FE:07:CB:C8:55:4B:EF:A6:2F:E1:83:72:BB:BA:21
                DirName:/C=US/ST=California/L=Menlo Park/O=pkg5/CN=ta4/emailAddress=ta4
                serial:17

            X509v3 Basic Constraints: critical
                CA:FALSE
            X509v3 CRL Distribution Points: 
                URI:foo://bar/baz

    Signature Algorithm: sha256WithRSAEncryption
        49:ac:6c:a5:ab:c6:c7:ad:f3:93:47:d4:74:7f:4a:d3:46:b0:
        71:6f:6e:42:e2:7f:f6:ed:db:38:ed:29:09:e1:e0:a0:a7:4c:
        ec:17:56:a8:71:71:20:2a:da:f0:19:4d:e2:13:3c:6e:db:6a:
        16:3a:46:63:15:7b:3c:a2:70:f1:6c:14:35:5b:51:80:1c:7e:
        2c:93:23:ac:31:46:ea:7a:cf:8a:80:b9:45:95:67:ea:b7:c1:
        cf:b7:0d:99:7b:72:37:29:4d:b3:a0:31:94:e4:55:79:9d:f2:
        fa:18:c3:f5:fe:77:93:91:17:f1:ce:b7:ae:39:00:b1:5b:98:
        ab:81
-----BEGIN CERTIFICATE-----
MIIDQjCCAqugAwIBAgIBGjANBgkqhkiG9w0BAQsFADB2MQswCQYDVQQGEwJVUzET
MBEGA1UECBMKQ2FsaWZvcm5pYTETMBEGA1UEBxMKTWVubG8gUGFyazENMAsGA1UE
ChMEcGtnNTETMBEGA1UEAxQKcHViQ0ExX3RhNDEZMBcGCSqGSIb3DQEJARYKcHVi
Q0ExX3RhNDAeFw0xMDA4MDQyMDU5MjlaFw0xMzA0MzAyMDU5MjlaMHAxCzAJBgNV
BAYTAlVTMRMwEQYDVQQIEwpDYWxpZm9ybmlhMRMwEQYDVQQHEwpNZW5sbyBQYXJr
MQ0wCwYDVQQKEwRwa2c1MRAwDgYDVQQDFAdjczNfdGE0MRYwFAYJKoZIhvcNAQkB
FgdjczNfdGE0MIGfMA0GCSqGSIb3DQEBAQUAA4GNADCBiQKBgQCyZlYuKYBBsfQP
A32UNX1nX6bfSchH2FMDC5e7Afu6hm5b8fayUP3GSo8WDUxrlXJVoSbB24rxFuUG
RXJ4XFT6Sz6y6WipaE/IGY1AwQc7grXqYHyPlJ8ngXkeA/GskEJrb4ce6rmoxbGk
Kv+MHDeqfet8cCpf5lZghEblojsReQIDAQABo4HlMIHiMB0GA1UdDgQWBBSYhRJI
zfgp3RdyA1xAAuZQ9iTnLTCBkgYDVR0jBIGKMIGHgBTujXhTEf4Hy8hVS++mL+GD
cru6IaFspGowaDELMAkGA1UEBhMCVVMxEzARBgNVBAgTCkNhbGlmb3JuaWExEzAR
BgNVBAcTCk1lbmxvIFBhcmsxDTALBgNVBAoTBHBrZzUxDDAKBgNVBAMTA3RhNDES
MBAGCSqGSIb3DQEJARYDdGE0ggEXMAwGA1UdEwEB/wQCMAAwHgYDVR0fBBcwFTAT
oBGgD4YNZm9vOi8vYmFyL2JhejANBgkqhkiG9w0BAQsFAAOBgQBJrGylq8bHrfOT
R9R0f0rTRrBxb25C4n/27ds47SkJ4eCgp0zsF1aocXEgKtrwGU3iEzxu22oWOkZj
FXs8onDxbBQ1W1GAHH4skyOsMUbqes+KgLlFlWfqt8HPtw2Ze3I3KU2zoDGU5FV5
nfL6GMP1/neTkRfxzreuOQCxW5irgQ==
-----END CERTIFICATE-----
