Certificate:
    Data:
        Version: 3 (0x2)
        Serial Number: 37 (0x25)
        Signature Algorithm: sha256WithRSAEncryption
        Issuer: C=US, ST=California, L=Menlo Park, O=pkg5, CN=ch1_ta4/emailAddress=ch1_ta4
        Validity
            Not Before: Mar 21 00:49:33 2011 GMT
            Not After : Dec 15 00:49:33 2013 GMT
        Subject: C=US, ST=California, L=Menlo Park, O=pkg5, CN=cs3_ch1_ta4/emailAddress=cs3_ch1_ta4
        Subject Public Key Info:
            Public Key Algorithm: rsaEncryption
            RSA Public Key: (1024 bit)
                Modulus (1024 bit):
                    00:aa:7f:01:31:5c:b9:d2:b5:8d:5c:1c:7f:e9:66:
                    f3:6b:2f:68:cb:3c:8a:4b:28:5e:e6:fb:45:1a:75:
                    d9:0e:cb:a3:41:19:05:05:dd:98:1d:51:f9:78:37:
                    2a:7f:fa:26:06:27:38:6d:8d:85:5a:b1:8d:08:6a:
                    e2:ac:43:2f:44:f7:02:93:c9:89:c9:83:09:d1:04:
                    06:0a:2d:c7:28:fa:77:c9:24:7a:6a:44:ac:c6:dd:
                    a2:a0:78:42:0d:d4:c0:5f:a1:b5:b6:e0:5a:f0:5f:
                    54:83:fe:5d:26:a2:93:3d:94:f8:eb:8b:1c:11:45:
                    e8:e7:08:77:f4:ec:cd:94:d1
                Exponent: 65537 (0x10001)
        X509v3 extensions:
            X509v3 Subject Key Identifier: 
                54:C5:1A:1B:47:F4:1C:20:E1:32:B5:40:10:AB:8B:D6:40:28:99:08
            X509v3 Authority Key Identifier: 
                keyid:AB:0B:EF:CE:AA:F0:43:97:3A:CD:58:D0:D9:C2:F9:C4:EB:8D:7C:FF
                DirName:/C=US/ST=California/L=Menlo Park/O=pkg5/CN=ta4/emailAddress=ta4
                serial:22

            X509v3 Basic Constraints: critical
                CA:FALSE
            X509v3 CRL Distribution Points: 
                URI:foo://bar/baz

    Signature Algorithm: sha256WithRSAEncryption
        19:a0:c3:d1:c4:07:ec:73:8c:57:b0:5a:f9:29:b2:d0:89:62:
        25:9a:f0:95:fc:dc:99:6d:d6:2d:d0:22:3f:64:14:af:c8:1f:
        60:09:3e:ca:7b:2a:9a:32:71:bc:0c:85:24:81:15:14:b0:2a:
        97:93:ee:e3:c8:6e:c6:5d:69:84:f2:27:49:45:06:18:8b:82:
        b8:ca:ad:6a:48:c2:4f:5a:1a:93:6d:f0:56:ca:60:9c:42:f6:
        6e:9a:c8:a9:5b:ca:7f:c3:1c:96:9a:3a:60:2d:64:7a:29:1e:
        59:c0:bc:63:ff:aa:1f:06:74:ce:26:81:cd:67:b6:b2:79:3d:
        30:c0
-----BEGIN CERTIFICATE-----
MIIDRDCCAq2gAwIBAgIBJTANBgkqhkiG9w0BAQsFADBwMQswCQYDVQQGEwJVUzET
MBEGA1UECBMKQ2FsaWZvcm5pYTETMBEGA1UEBxMKTWVubG8gUGFyazENMAsGA1UE
ChMEcGtnNTEQMA4GA1UEAxQHY2gxX3RhNDEWMBQGCSqGSIb3DQEJARYHY2gxX3Rh
NDAeFw0xMTAzMjEwMDQ5MzNaFw0xMzEyMTUwMDQ5MzNaMHgxCzAJBgNVBAYTAlVT
MRMwEQYDVQQIEwpDYWxpZm9ybmlhMRMwEQYDVQQHEwpNZW5sbyBQYXJrMQ0wCwYD
VQQKEwRwa2c1MRQwEgYDVQQDFAtjczNfY2gxX3RhNDEaMBgGCSqGSIb3DQEJARYL
Y3MzX2NoMV90YTQwgZ8wDQYJKoZIhvcNAQEBBQADgY0AMIGJAoGBAKp/ATFcudK1
jVwcf+lm82svaMs8iksoXub7RRp12Q7Lo0EZBQXdmB1R+Xg3Kn/6JgYnOG2NhVqx
jQhq4qxDL0T3ApPJicmDCdEEBgotxyj6d8kkempErMbdoqB4Qg3UwF+htbbgWvBf
VIP+XSaikz2U+OuLHBFF6OcId/TszZTRAgMBAAGjgeUwgeIwHQYDVR0OBBYEFFTF
GhtH9Bwg4TK1QBCri9ZAKJkIMIGSBgNVHSMEgYowgYeAFKsL786q8EOXOs1Y0NnC
+cTrjXz/oWykajBoMQswCQYDVQQGEwJVUzETMBEGA1UECBMKQ2FsaWZvcm5pYTET
MBEGA1UEBxMKTWVubG8gUGFyazENMAsGA1UEChMEcGtnNTEMMAoGA1UEAxMDdGE0
MRIwEAYJKoZIhvcNAQkBFgN0YTSCASIwDAYDVR0TAQH/BAIwADAeBgNVHR8EFzAV
MBOgEaAPhg1mb286Ly9iYXIvYmF6MA0GCSqGSIb3DQEBCwUAA4GBABmgw9HEB+xz
jFewWvkpstCJYiWa8JX83Jlt1i3QIj9kFK/IH2AJPsp7KpoycbwMhSSBFRSwKpeT
7uPIbsZdaYTyJ0lFBhiLgrjKrWpIwk9aGpNt8FbKYJxC9m6ayKlbyn/DHJaaOmAt
ZHopHlnAvGP/qh8GdM4mgc1ntrJ5PTDA
-----END CERTIFICATE-----
