Certificate:
    Data:
        Version: 3 (0x2)
        Serial Number: 19 (0x13)
    Signature Algorithm: sha256WithRSAEncryption
        Issuer: C=US, ST=California, L=Santa Clara, O=pkg5, CN=ch1_ta3/emailAddress=ch1_ta3
        Validity
            Not Before: Jan  1 01:01:01 2009 GMT
            Not After : Jan  2 01:01:01 2009 GMT
        Subject: C=US, ST=California, L=Santa Clara, O=pkg5, CN=cs3_ch1_ta3/emailAddress=cs3_ch1_ta3
        Subject Public Key Info:
            Public Key Algorithm: rsaEncryption
                Public-Key: (1024 bit)
                Modulus:
                    00:d3:01:be:68:e6:07:6b:d4:f1:10:9e:99:93:cb:
                    79:4d:15:d1:39:fb:b2:de:74:10:57:84:c3:ab:3e:
                    25:cc:f4:7e:66:1e:f2:fa:f2:32:b4:c5:6c:80:e7:
                    31:80:1a:96:79:96:83:b5:44:58:f1:2a:9b:3b:c0:
                    0d:42:00:27:49:bf:6e:0a:d6:8b:b4:20:5c:a7:3d:
                    11:74:25:95:08:45:bb:c5:ca:07:42:a3:e8:19:36:
                    e1:62:42:53:bc:2f:1f:a8:10:31:ee:40:7d:ec:b5:
                    54:04:c4:63:e8:43:12:09:7d:1e:99:60:f6:db:ec:
                    65:d3:13:bb:36:be:e2:d8:ed
                Exponent: 65537 (0x10001)
        X509v3 extensions:
            X509v3 Basic Constraints: critical
                CA:FALSE
            X509v3 Key Usage: critical
                Digital Signature
    Signature Algorithm: sha256WithRSAEncryption
         5f:64:85:36:62:d2:01:78:45:6d:63:d5:c8:d8:01:cb:39:f7:
         0f:75:61:87:9c:d0:2b:9d:3f:0f:56:4d:8c:7d:06:69:eb:60:
         3a:ca:ed:91:39:ba:e8:8b:a9:42:58:33:32:e3:08:ac:a9:ca:
         76:ef:37:39:74:46:2d:ea:54:e0:0d:e5:62:18:48:5e:e6:8b:
         6c:6c:25:0c:8d:61:98:f6:7a:ae:b6:73:cb:8a:2d:27:a5:c7:
         cf:5e:36:a5:2f:10:74:41:b0:93:6d:21:e2:52:c2:d5:88:6e:
         ff:91:04:eb:92:8b:62:3a:81:a8:88:6c:10:67:4e:a2:6a:2c:
         17:ec
-----BEGIN CERTIFICATE-----
MIICgDCCAemgAwIBAgIBEzANBgkqhkiG9w0BAQsFADBxMQswCQYDVQQGEwJVUzET
MBEGA1UECAwKQ2FsaWZvcm5pYTEUMBIGA1UEBwwLU2FudGEgQ2xhcmExDTALBgNV
BAoMBHBrZzUxEDAOBgNVBAMMB2NoMV90YTMxFjAUBgkqhkiG9w0BCQEWB2NoMV90
YTMwHhcNMDkwMTAxMDEwMTAxWhcNMDkwMTAyMDEwMTAxWjB5MQswCQYDVQQGEwJV
UzETMBEGA1UECAwKQ2FsaWZvcm5pYTEUMBIGA1UEBwwLU2FudGEgQ2xhcmExDTAL
BgNVBAoMBHBrZzUxFDASBgNVBAMMC2NzM19jaDFfdGEzMRowGAYJKoZIhvcNAQkB
FgtjczNfY2gxX3RhMzCBnzANBgkqhkiG9w0BAQEFAAOBjQAwgYkCgYEA0wG+aOYH
a9TxEJ6Zk8t5TRXROfuy3nQQV4TDqz4lzPR+Zh7y+vIytMVsgOcxgBqWeZaDtURY
8SqbO8ANQgAnSb9uCtaLtCBcpz0RdCWVCEW7xcoHQqPoGTbhYkJTvC8fqBAx7kB9
7LVUBMRj6EMSCX0emWD22+xl0xO7Nr7i2O0CAwEAAaMgMB4wDAYDVR0TAQH/BAIw
ADAOBgNVHQ8BAf8EBAMCB4AwDQYJKoZIhvcNAQELBQADgYEAX2SFNmLSAXhFbWPV
yNgByzn3D3Vhh5zQK50/D1ZNjH0GaetgOsrtkTm66IupQlgzMuMIrKnKdu83OXRG
LepU4A3lYhhIXuaLbGwlDI1hmPZ6rrZzy4otJ6XHz142pS8QdEGwk20h4lLC1Yhu
/5EE65KLYjqBqIhsEGdOomosF+w=
-----END CERTIFICATE-----
