Certificate:
    Data:
        Version: 3 (0x2)
        Serial Number: 20 (0x14)
    Signature Algorithm: sha256WithRSAEncryption
        Issuer: C=US, ST=California, L=Santa Clara, O=pkg5, CN=ch1_ta3/emailAddress=ch1_ta3
        Validity
            Not Before: Jan  1 01:01:01 2035 GMT
            Not After : Jan  2 01:01:01 2035 GMT
        Subject: C=US, ST=California, L=Santa Clara, O=pkg5, CN=cs4_ch1_ta3/emailAddress=cs4_ch1_ta3
        Subject Public Key Info:
            Public Key Algorithm: rsaEncryption
                Public-Key: (1024 bit)
                Modulus:
                    00:b2:f3:a7:0e:97:6a:a5:9e:d5:86:00:a6:e0:df:
                    86:fc:82:2f:42:0e:03:28:a5:88:78:9d:e9:06:ab:
                    11:c2:7b:80:e3:00:f7:97:d0:32:d1:9a:a1:7b:3b:
                    08:af:f8:28:26:e8:e7:3b:95:4d:7e:65:79:ba:88:
                    a0:b6:f0:05:08:bb:8d:9d:63:cf:fc:d7:88:1d:0f:
                    37:f4:0b:d0:3b:4f:0c:11:ff:cb:13:84:b2:76:dd:
                    9f:cb:8b:23:90:cc:37:83:bf:23:f7:52:07:44:93:
                    44:6e:36:0e:a6:bc:74:ed:a8:c2:0c:58:0a:77:8a:
                    3d:89:74:4b:3c:d4:08:a5:53
                Exponent: 65537 (0x10001)
        X509v3 extensions:
            X509v3 Basic Constraints: critical
                CA:FALSE
            X509v3 Key Usage: critical
                Digital Signature
    Signature Algorithm: sha256WithRSAEncryption
         69:db:4b:35:1c:a2:84:f7:aa:db:70:d7:e9:39:35:5d:1d:11:
         40:f7:25:eb:62:fb:6d:a3:56:ae:0a:50:ba:d0:2b:e6:f1:ea:
         e6:cc:ea:c6:1f:04:e9:de:2f:49:f9:12:38:8d:55:64:6e:8a:
         6f:f2:8e:d6:ab:5d:49:0f:18:d5:5c:06:f7:f8:9d:a9:13:9f:
         d1:14:b9:34:8d:5e:ac:92:e0:94:88:ca:03:50:8f:66:17:f6:
         f5:af:94:d3:f1:78:dc:03:f7:c3:fa:4b:aa:e9:22:c9:97:5d:
         22:0a:81:b9:ef:a5:36:8c:da:3b:8c:9b:bb:32:d5:3e:5d:98:
         62:77:e2:6d:a9:3b:be:67:86:f7:62:98:1d:15:0d:8a:5c:70:
         93:98:8e:25:a3:ba:57:1d:99:c0:46:f6:70:ba:ba:80:b7:c9:
         42:e6:e7:9b:05:97:83:78:77:a9:c7:0d:4f:86:b6:75:f7:f1:
         70:19:10:97:04:3a:4c:21:5c:8f:c5:49:87:ae:89:79:23:d0:
         8e:48:2e:69:87:7f:3c:c1:3d:b2:22:9f:a8:59:4f:b3:c2:85:
         ef:3d:d4:8e:a8:31:d4:38:df:97:d7:1c:14:1e:ca:cc:02:cf:
         13:a1:47:ec:9e:29:74:79:64:0f:d7:a3:38:f3:db:e5:bb:ec:
         69:9c:bb:36
-----BEGIN CERTIFICATE-----
MIIDATCCAemgAwIBAgIBFDANBgkqhkiG9w0BAQsFADBxMQswCQYDVQQGEwJVUzET
MBEGA1UECAwKQ2FsaWZvcm5pYTEUMBIGA1UEBwwLU2FudGEgQ2xhcmExDTALBgNV
BAoMBHBrZzUxEDAOBgNVBAMMB2NoMV90YTMxFjAUBgkqhkiG9w0BCQEWB2NoMV90
YTMwHhcNMzUwMTAxMDEwMTAxWhcNMzUwMTAyMDEwMTAxWjB5MQswCQYDVQQGEwJV
UzETMBEGA1UECAwKQ2FsaWZvcm5pYTEUMBIGA1UEBwwLU2FudGEgQ2xhcmExDTAL
BgNVBAoMBHBrZzUxFDASBgNVBAMMC2NzNF9jaDFfdGEzMRowGAYJKoZIhvcNAQkB
FgtjczRfY2gxX3RhMzCBnzANBgkqhkiG9w0BAQEFAAOBjQAwgYkCgYEAsvOnDpdq
pZ7VhgCm4N+G/IIvQg4DKKWIeJ3pBqsRwnuA4wD3l9Ay0ZqhezsIr/goJujnO5VN
fmV5uoigtvAFCLuNnWPP/NeIHQ839AvQO08MEf/LE4Sydt2fy4sjkMw3g78j91IH
RJNEbjYOprx07ajCDFgKd4o9iXRLPNQIpVMCAwEAAaMgMB4wDAYDVR0TAQH/BAIw
ADAOBgNVHQ8BAf8EBAMCB4AwDQYJKoZIhvcNAQELBQADggEBAGnbSzUcooT3qttw
1+k5NV0dEUD3Jeti+22jVq4KULrQK+bx6ubM6sYfBOneL0n5EjiNVWRuim/yjtar
XUkPGNVcBvf4nakTn9EUuTSNXqyS4JSIygNQj2YX9vWvlNPxeNwD98P6S6rpIsmX
XSIKgbnvpTaM2juMm7sy1T5dmGJ34m2pO75nhvdimB0VDYpccJOYjiWjulcdmcBG
9nC6uoC3yULm55sFl4N4d6nHDU+GtnX38XAZEJcEOkwhXI/FSYeuiXkj0I5ILmmH
fzzBPbIin6hZT7PChe891I6oMdQ435fXHBQeyswCzxOhR+yeKXR5ZA/Xozjz2+W7
7GmcuzY=
-----END CERTIFICATE-----
