Certificate:
    Data:
        Version: 3 (0x2)
        Serial Number: 16 (0x10)
        Signature Algorithm: sha256WithRSAEncryption
        Issuer: C=US, ST=California, L=Menlo Park, O=pkg5, CN=pubCA1_ta3/emailAddress=pubCA1_ta3
        Validity
            Not Before: Jan  1 01:01:01 2035 GMT
            Not After : Jan  2 01:01:01 2035 GMT
        Subject: C=US, ST=California, L=Menlo Park, O=pkg5, CN=cs4_p1_ta3/emailAddress=cs4_p1_ta3
        Subject Public Key Info:
            Public Key Algorithm: rsaEncryption
            RSA Public Key: (1024 bit)
                Modulus (1024 bit):
                    00:a5:72:6c:c4:dc:df:15:f5:b0:2f:fb:d2:e2:d9:
                    f2:2c:5e:0a:c5:04:34:99:0f:06:13:9a:e8:86:2d:
                    44:2f:57:67:81:a1:93:0e:cd:b5:4b:ca:1a:4b:31:
                    c6:a7:73:b3:70:66:21:03:6a:cd:a5:bf:4a:6d:96:
                    d8:50:9e:95:d7:42:84:86:80:f1:15:3f:5c:85:8f:
                    dd:ee:13:61:c9:2c:71:c1:c1:cb:e8:e9:4d:eb:ce:
                    d9:57:98:2d:93:81:0e:fb:6d:00:31:9d:db:6f:c2:
                    aa:b1:36:65:0d:8d:82:7b:e7:df:7c:03:76:f9:b8:
                    6c:6e:7e:13:5d:85:ac:c0:89
                Exponent: 65537 (0x10001)
        X509v3 extensions:
            X509v3 Basic Constraints: critical
                CA:FALSE
            X509v3 Key Usage: 
                Digital Signature
    Signature Algorithm: sha256WithRSAEncryption
        5f:7c:e0:ae:58:97:b0:36:1e:a7:28:61:9c:0d:2e:cb:34:22:
        b3:18:7d:d9:0d:2e:2e:0e:0c:79:1f:5e:14:37:c3:cf:7a:41:
        60:76:a5:0e:ea:c9:eb:f3:5c:7f:0f:39:2e:dc:b8:58:9b:d9:
        f6:37:f9:53:22:a1:07:57:f9:4e:e3:0e:5b:31:15:7e:88:8d:
        78:48:18:d5:f9:3a:dd:0b:4a:41:5b:c1:e0:32:8b:3a:ef:ad:
        36:c8:26:e8:25:52:f7:94:19:99:6e:ff:ec:ac:f3:34:6e:f4:
        ef:73:e9:6f:2c:8e:c3:96:09:b5:25:68:f9:ce:5c:40:07:47:
        36:8a
-----BEGIN CERTIFICATE-----
MIICfzCCAeigAwIBAgIBEDANBgkqhkiG9w0BAQsFADB2MQswCQYDVQQGEwJVUzET
MBEGA1UECBMKQ2FsaWZvcm5pYTETMBEGA1UEBxMKTWVubG8gUGFyazENMAsGA1UE
ChMEcGtnNTETMBEGA1UEAxQKcHViQ0ExX3RhMzEZMBcGCSqGSIb3DQEJARYKcHVi
Q0ExX3RhMzAeFw0zNTAxMDEwMTAxMDFaFw0zNTAxMDIwMTAxMDFaMHYxCzAJBgNV
BAYTAlVTMRMwEQYDVQQIEwpDYWxpZm9ybmlhMRMwEQYDVQQHEwpNZW5sbyBQYXJr
MQ0wCwYDVQQKEwRwa2c1MRMwEQYDVQQDFApjczRfcDFfdGEzMRkwFwYJKoZIhvcN
AQkBFgpjczRfcDFfdGEzMIGfMA0GCSqGSIb3DQEBAQUAA4GNADCBiQKBgQClcmzE
3N8V9bAv+9Li2fIsXgrFBDSZDwYTmuiGLUQvV2eBoZMOzbVLyhpLMcanc7NwZiED
as2lv0ptlthQnpXXQoSGgPEVP1yFj93uE2HJLHHBwcvo6U3rztlXmC2TgQ77bQAx
ndtvwqqxNmUNjYJ75998A3b5uGxufhNdhazAiQIDAQABox0wGzAMBgNVHRMBAf8E
AjAAMAsGA1UdDwQEAwIHgDANBgkqhkiG9w0BAQsFAAOBgQBffOCuWJewNh6nKGGc
DS7LNCKzGH3ZDS4uDgx5H14UN8PPekFgdqUO6snr81x/Dzku3LhYm9n2N/lTIqEH
V/lO4w5bMRV+iI14SBjV+TrdC0pBW8HgMos67602yCboJVL3lBmZbv/srPM0bvTv
c+lvLI7Dlgm1JWj5zlxAB0c2ig==
-----END CERTIFICATE-----
