Certificate:
    Data:
        Version: 3 (0x2)
        Serial Number: 20 (0x14)
    Signature Algorithm: sha256WithRSAEncryption
        Issuer: C=US, ST=California, L=Santa Clara, O=pkg5, CN=ch1_ta3/emailAddress=ch1_ta3
        Validity
            Not Before: Jan  1 01:01:01 2035 GMT
            Not After : Jan  2 01:01:01 2035 GMT
        Subject: C=US, ST=California, L=Santa Clara, O=pkg5, CN=cs4_ch1_ta3/emailAddress=cs4_ch1_ta3
        Subject Public Key Info:
            Public Key Algorithm: rsaEncryption
                Public-Key: (1024 bit)
                Modulus:
                    00:c7:40:3b:89:95:ee:7e:c9:29:df:0f:5b:f2:64:
                    50:91:b4:5e:d2:72:db:b3:3a:df:3d:ec:19:ed:74:
                    21:48:7c:f5:ef:0b:c7:6e:81:20:64:22:e5:67:69:
                    66:a8:2c:e0:b5:13:78:a2:5c:cb:ed:86:b1:d3:e2:
                    54:3e:bd:34:1b:51:72:c7:ad:7e:7a:e0:e0:5c:a5:
                    93:1a:d7:77:23:a2:8c:1c:fd:e6:07:25:a7:75:0a:
                    31:cd:21:65:38:b1:80:bc:b4:53:39:5f:b6:8c:5e:
                    dc:16:af:5b:9d:48:20:1f:ee:ff:16:f8:19:aa:08:
                    ee:23:8d:35:db:90:c5:bc:c1
                Exponent: 65537 (0x10001)
        X509v3 extensions:
            X509v3 Basic Constraints: critical
                CA:FALSE
            X509v3 Key Usage: critical
                Digital Signature
    Signature Algorithm: sha256WithRSAEncryption
         5a:02:80:b0:1d:49:e4:6b:76:82:2b:2e:09:db:e6:c0:60:a8:
         ba:73:50:47:03:0a:5e:97:6b:4a:8a:07:df:27:ea:4e:82:1d:
         5f:e6:9a:be:eb:4d:1d:1e:88:2f:e7:da:12:1e:55:34:2d:61:
         ad:4c:e8:de:0a:1f:68:46:67:a1:96:2c:7a:46:a4:9a:a5:82:
         97:8a:a0:f9:79:7f:84:ad:1e:25:b7:aa:55:fc:19:00:e6:ca:
         42:07:57:ea:26:31:54:15:7b:3d:13:fb:e3:f5:f0:55:27:1c:
         6d:fe:d8:56:3a:af:8c:be:03:cc:c4:11:5b:27:97:7a:44:7c:
         26:2e:dc:f5:79:3f:2a:52:dd:f1:3a:eb:26:57:1c:e2:c5:a8:
         8f:aa:0b:67:08:fd:bd:f0:a3:ad:b0:aa:22:be:c3:86:20:3d:
         13:61:9e:0e:9c:4d:42:21:62:cc:96:b8:75:1b:89:9f:e4:a3:
         35:bf:2d:de:1e:ea:62:93:6d:bd:8b:3a:3a:18:9c:68:3d:15:
         4e:69:23:f4:50:da:d1:8b:67:31:20:8e:27:a1:7c:e9:ee:d3:
         6c:56:34:db:4d:04:5b:32:2d:d8:ef:5a:cc:8c:93:d1:70:95:
         30:44:58:dd:96:12:16:a6:05:0f:7f:5b:7d:04:c7:e2:7b:37:
         df:4a:02:37
-----BEGIN CERTIFICATE-----
MIIDATCCAemgAwIBAgIBFDANBgkqhkiG9w0BAQsFADBxMQswCQYDVQQGEwJVUzET
MBEGA1UECAwKQ2FsaWZvcm5pYTEUMBIGA1UEBwwLU2FudGEgQ2xhcmExDTALBgNV
BAoMBHBrZzUxEDAOBgNVBAMMB2NoMV90YTMxFjAUBgkqhkiG9w0BCQEWB2NoMV90
YTMwHhcNMzUwMTAxMDEwMTAxWhcNMzUwMTAyMDEwMTAxWjB5MQswCQYDVQQGEwJV
UzETMBEGA1UECAwKQ2FsaWZvcm5pYTEUMBIGA1UEBwwLU2FudGEgQ2xhcmExDTAL
BgNVBAoMBHBrZzUxFDASBgNVBAMMC2NzNF9jaDFfdGEzMRowGAYJKoZIhvcNAQkB
FgtjczRfY2gxX3RhMzCBnzANBgkqhkiG9w0BAQEFAAOBjQAwgYkCgYEAx0A7iZXu
fskp3w9b8mRQkbRe0nLbszrfPewZ7XQhSHz17wvHboEgZCLlZ2lmqCzgtRN4olzL
7Yax0+JUPr00G1Fyx61+euDgXKWTGtd3I6KMHP3mByWndQoxzSFlOLGAvLRTOV+2
jF7cFq9bnUggH+7/FvgZqgjuI40125DFvMECAwEAAaMgMB4wDAYDVR0TAQH/BAIw
ADAOBgNVHQ8BAf8EBAMCB4AwDQYJKoZIhvcNAQELBQADggEBAFoCgLAdSeRrdoIr
Lgnb5sBgqLpzUEcDCl6Xa0qKB98n6k6CHV/mmr7rTR0eiC/n2hIeVTQtYa1M6N4K
H2hGZ6GWLHpGpJqlgpeKoPl5f4StHiW3qlX8GQDmykIHV+omMVQVez0T++P18FUn
HG3+2FY6r4y+A8zEEVsnl3pEfCYu3PV5PypS3fE66yZXHOLFqI+qC2cI/b3wo62w
qiK+w4YgPRNhng6cTUIhYsyWuHUbiZ/kozW/Ld4e6mKTbb2LOjoYnGg9FU5pI/RQ
2tGLZzEgjiehfOnu02xWNNtNBFsyLdjvWsyMk9FwlTBEWN2WEhamBQ9/W30Ex+J7
N99KAjc=
-----END CERTIFICATE-----
