Certificate:
    Data:
        Version: 3 (0x2)
        Serial Number: 20 (0x14)
        Signature Algorithm: sha256WithRSAEncryption
        Issuer: C=US, ST=California, L=Menlo Park, O=pkg5, CN=ch1_ta3/emailAddress=ch1_ta3
        Validity
            Not Before: Jan  1 01:01:01 2035 GMT
            Not After : Jan  2 01:01:01 2035 GMT
        Subject: C=US, ST=California, L=Menlo Park, O=pkg5, CN=cs4_ch1_ta3/emailAddress=cs4_ch1_ta3
        Subject Public Key Info:
            Public Key Algorithm: rsaEncryption
            RSA Public Key: (1024 bit)
                Modulus (1024 bit):
                    00:e2:a3:68:41:2d:e9:bf:94:11:27:37:94:63:8c:
                    27:88:88:90:7c:76:b7:61:8a:e4:00:39:5d:b3:7a:
                    27:a4:1b:25:7a:d6:4c:79:f2:82:c5:8d:93:0a:21:
                    5c:f5:37:fc:c3:c5:86:0c:02:37:8d:0f:ed:80:ad:
                    8f:3b:1d:9d:9b:99:03:52:99:7d:c0:9e:e7:7a:4e:
                    81:e9:fe:06:9e:94:78:38:29:97:a6:02:8a:35:ee:
                    bc:d9:99:3c:c0:93:11:53:71:35:57:fd:2d:ea:b0:
                    a6:43:d8:04:d8:ef:55:61:fe:b6:33:23:aa:c5:fb:
                    43:61:ff:ac:02:90:b9:a3:7d
                Exponent: 65537 (0x10001)
        X509v3 extensions:
            X509v3 Basic Constraints: critical
                CA:FALSE
            X509v3 Key Usage: critical
                Digital Signature
    Signature Algorithm: sha256WithRSAEncryption
        2c:43:e8:be:8b:6f:45:f2:ae:4a:ce:f8:dc:5f:bb:0f:86:db:
        5b:a7:81:30:2e:92:a8:15:3a:4a:97:cf:48:48:c6:d4:d6:ce:
        4c:7f:b0:fe:74:36:9b:7c:0c:27:9c:af:4e:51:1a:7e:aa:52:
        5e:f8:06:10:6f:38:d1:47:8b:dd:08:53:e8:66:e5:34:84:d1:
        5b:6c:9d:ff:38:c1:af:17:3a:c9:bd:91:c7:f1:f0:b1:35:38:
        36:5b:45:44:12:9c:a4:36:d7:4a:2a:34:3a:c2:20:ec:a3:99:
        e1:e8:b4:e5:1c:38:16:30:e7:cf:4d:92:0d:9b:9f:71:5e:9f:
        31:1e
-----BEGIN CERTIFICATE-----
MIICfjCCAeegAwIBAgIBFDANBgkqhkiG9w0BAQsFADBwMQswCQYDVQQGEwJVUzET
MBEGA1UECBMKQ2FsaWZvcm5pYTETMBEGA1UEBxMKTWVubG8gUGFyazENMAsGA1UE
ChMEcGtnNTEQMA4GA1UEAxQHY2gxX3RhMzEWMBQGCSqGSIb3DQEJARYHY2gxX3Rh
MzAeFw0zNTAxMDEwMTAxMDFaFw0zNTAxMDIwMTAxMDFaMHgxCzAJBgNVBAYTAlVT
MRMwEQYDVQQIEwpDYWxpZm9ybmlhMRMwEQYDVQQHEwpNZW5sbyBQYXJrMQ0wCwYD
VQQKEwRwa2c1MRQwEgYDVQQDFAtjczRfY2gxX3RhMzEaMBgGCSqGSIb3DQEJARYL
Y3M0X2NoMV90YTMwgZ8wDQYJKoZIhvcNAQEBBQADgY0AMIGJAoGBAOKjaEEt6b+U
ESc3lGOMJ4iIkHx2t2GK5AA5XbN6J6QbJXrWTHnygsWNkwohXPU3/MPFhgwCN40P
7YCtjzsdnZuZA1KZfcCe53pOgen+Bp6UeDgpl6YCijXuvNmZPMCTEVNxNVf9Leqw
pkPYBNjvVWH+tjMjqsX7Q2H/rAKQuaN9AgMBAAGjIDAeMAwGA1UdEwEB/wQCMAAw
DgYDVR0PAQH/BAQDAgeAMA0GCSqGSIb3DQEBCwUAA4GBACxD6L6Lb0XyrkrO+Nxf
uw+G21ungTAukqgVOkqXz0hIxtTWzkx/sP50Npt8DCecr05RGn6qUl74BhBvONFH
i90IU+hm5TSE0Vtsnf84wa8XOsm9kcfx8LE1ODZbRUQSnKQ210oqNDrCIOyjmeHo
tOUcOBYw589Nkg2bn3FenzEe
-----END CERTIFICATE-----
