Certificate:
    Data:
        Version: 3 (0x2)
        Serial Number: 10 (0xa)
        Signature Algorithm: sha256WithRSAEncryption
        Issuer: C=US, ST=California, L=Menlo Park, O=pkg5, CN=ch2.2_pubCA1/emailAddress=ch2.2_pubCA1
        Validity
            Not Before: Jan 28 02:54:12 2011 GMT
            Not After : Oct 24 02:54:12 2013 GMT
        Subject: C=US, ST=California, L=Menlo Park, O=pkg5, CN=cs4_pubCA1/emailAddress=cs4_pubCA1
        Subject Public Key Info:
            Public Key Algorithm: rsaEncryption
            RSA Public Key: (1024 bit)
                Modulus (1024 bit):
                    00:df:f2:c5:0d:12:9b:77:c9:0f:03:07:db:91:4e:
                    6a:94:fd:50:fc:2b:78:ab:ad:40:eb:8d:d4:fa:42:
                    99:5e:68:4a:1c:a7:ca:82:da:4b:22:b1:81:20:b7:
                    df:e4:c6:df:3f:95:5a:fd:03:8e:47:fc:85:43:d4:
                    b1:53:d1:cd:6b:eb:82:47:f6:21:35:71:fe:da:c1:
                    2b:50:d7:61:ef:7e:60:d7:61:3e:64:3f:33:ab:0e:
                    88:0f:41:3d:15:9e:f5:f1:4f:c3:90:d3:6e:16:32:
                    5f:33:52:5c:2d:8a:43:dd:23:c5:4a:e7:85:42:29:
                    03:ee:10:cd:a5:e1:02:73:63
                Exponent: 65537 (0x10001)
        X509v3 extensions:
            X509v3 Basic Constraints: critical
                CA:FALSE
            X509v3 Key Usage: critical
                Digital Signature
    Signature Algorithm: sha256WithRSAEncryption
        96:2d:e6:30:36:53:f7:af:a6:40:75:9f:d6:55:7a:8d:71:31:
        54:f8:61:6c:8e:45:fd:86:5f:1f:88:7c:df:d3:af:5c:1e:da:
        2d:40:c3:00:b4:a8:05:2d:c2:7c:6e:a7:45:45:26:e9:1f:25:
        25:9d:b6:2b:1f:7d:ba:79:63:7e:e8:73:2d:49:0e:a5:a3:02:
        7b:d3:9a:ab:df:55:5e:4d:aa:8e:ae:10:0d:de:50:bd:0e:47:
        d1:60:ff:4c:87:b7:f4:49:ee:68:3f:f4:a1:dd:b6:72:73:43:
        fc:3e:b8:4a:f3:7c:6c:95:b3:cb:ba:78:aa:35:5c:b0:48:3e:
        0d:90
-----BEGIN CERTIFICATE-----
MIIChjCCAe+gAwIBAgIBCjANBgkqhkiG9w0BAQsFADB6MQswCQYDVQQGEwJVUzET
MBEGA1UECBMKQ2FsaWZvcm5pYTETMBEGA1UEBxMKTWVubG8gUGFyazENMAsGA1UE
ChMEcGtnNTEVMBMGA1UEAxQMY2gyLjJfcHViQ0ExMRswGQYJKoZIhvcNAQkBFgxj
aDIuMl9wdWJDQTEwHhcNMTEwMTI4MDI1NDEyWhcNMTMxMDI0MDI1NDEyWjB2MQsw
CQYDVQQGEwJVUzETMBEGA1UECBMKQ2FsaWZvcm5pYTETMBEGA1UEBxMKTWVubG8g
UGFyazENMAsGA1UEChMEcGtnNTETMBEGA1UEAxQKY3M0X3B1YkNBMTEZMBcGCSqG
SIb3DQEJARYKY3M0X3B1YkNBMTCBnzANBgkqhkiG9w0BAQEFAAOBjQAwgYkCgYEA
3/LFDRKbd8kPAwfbkU5qlP1Q/Ct4q61A643U+kKZXmhKHKfKgtpLIrGBILff5Mbf
P5Va/QOOR/yFQ9SxU9HNa+uCR/YhNXH+2sErUNdh735g12E+ZD8zqw6ID0E9FZ71
8U/DkNNuFjJfM1JcLYpD3SPFSueFQikD7hDNpeECc2MCAwEAAaMgMB4wDAYDVR0T
AQH/BAIwADAOBgNVHQ8BAf8EBAMCB4AwDQYJKoZIhvcNAQELBQADgYEAli3mMDZT
96+mQHWf1lV6jXExVPhhbI5F/YZfH4h839OvXB7aLUDDALSoBS3CfG6nRUUm6R8l
JZ22Kx99unljfuhzLUkOpaMCe9Oaq99VXk2qjq4QDd5QvQ5H0WD/TIe39EnuaD/0
od22cnND/D64SvN8bJWzy7p4qjVcsEg+DZA=
-----END CERTIFICATE-----
