Certificate:
    Data:
        Version: 3 (0x2)
        Serial Number: 10 (0xa)
        Signature Algorithm: sha256WithRSAEncryption
        Issuer: C=US, ST=California, L=Menlo Park, O=pkg5, CN=ch2.2_pubCA1/emailAddress=ch2.2_pubCA1
        Validity
            Not Before: Aug  4 20:59:25 2010 GMT
            Not After : Apr 30 20:59:25 2013 GMT
        Subject: C=US, ST=California, L=Menlo Park, O=pkg5, CN=cs4_pubCA1/emailAddress=cs4_pubCA1
        Subject Public Key Info:
            Public Key Algorithm: rsaEncryption
            RSA Public Key: (1024 bit)
                Modulus (1024 bit):
                    00:b7:e6:67:c1:7f:08:9e:27:00:00:ce:8e:e4:5b:
                    f5:65:d0:f2:4e:ac:d4:07:b8:21:a2:5a:9b:bd:e3:
                    48:24:ff:f1:ec:05:49:c2:34:5a:ca:f5:9b:91:2b:
                    3c:6a:31:ea:3b:25:53:c9:09:3b:2b:24:32:8b:8c:
                    4c:30:95:78:e9:7c:f0:d7:bc:f8:4e:24:8b:c5:dd:
                    b4:50:5a:a8:68:78:15:ee:52:73:6e:5a:9a:f9:dd:
                    7c:39:90:f1:ef:bf:e5:a5:18:dc:d4:d8:a1:8f:2e:
                    6a:9c:17:dc:20:93:59:e6:c4:3d:bb:f2:a8:0e:ea:
                    1a:be:a9:54:7f:a2:7b:48:73
                Exponent: 65537 (0x10001)
        X509v3 extensions:
            X509v3 Basic Constraints: critical
                CA:FALSE
            X509v3 Key Usage: 
                Digital Signature
    Signature Algorithm: sha256WithRSAEncryption
        6a:34:f8:4a:4b:80:50:1e:e8:bd:17:75:d4:c5:e5:30:b7:63:
        2f:18:18:e8:24:38:ec:a3:e9:a9:39:f0:2c:4c:83:22:b6:ed:
        38:9e:08:d4:3e:3d:b6:5e:2f:2d:cd:84:43:60:92:f0:1e:6c:
        06:6a:86:f3:d9:bb:c7:1c:77:aa:21:b0:0d:34:c6:86:b2:7c:
        cc:66:12:89:16:eb:39:a6:2f:2b:4b:0e:95:87:4f:28:e3:62:
        73:c2:99:68:26:ee:5f:e4:64:99:d1:a7:b7:25:66:a8:19:f3:
        36:c5:b8:1e:7e:ed:10:af:6e:38:a9:9a:03:55:3f:2f:4e:2a:
        af:9a
-----BEGIN CERTIFICATE-----
MIICgzCCAeygAwIBAgIBCjANBgkqhkiG9w0BAQsFADB6MQswCQYDVQQGEwJVUzET
MBEGA1UECBMKQ2FsaWZvcm5pYTETMBEGA1UEBxMKTWVubG8gUGFyazENMAsGA1UE
ChMEcGtnNTEVMBMGA1UEAxQMY2gyLjJfcHViQ0ExMRswGQYJKoZIhvcNAQkBFgxj
aDIuMl9wdWJDQTEwHhcNMTAwODA0MjA1OTI1WhcNMTMwNDMwMjA1OTI1WjB2MQsw
CQYDVQQGEwJVUzETMBEGA1UECBMKQ2FsaWZvcm5pYTETMBEGA1UEBxMKTWVubG8g
UGFyazENMAsGA1UEChMEcGtnNTETMBEGA1UEAxQKY3M0X3B1YkNBMTEZMBcGCSqG
SIb3DQEJARYKY3M0X3B1YkNBMTCBnzANBgkqhkiG9w0BAQEFAAOBjQAwgYkCgYEA
t+ZnwX8InicAAM6O5Fv1ZdDyTqzUB7gholqbveNIJP/x7AVJwjRayvWbkSs8ajHq
OyVTyQk7KyQyi4xMMJV46Xzw17z4TiSLxd20UFqoaHgV7lJzblqa+d18OZDx77/l
pRjc1Nihjy5qnBfcIJNZ5sQ9u/KoDuoavqlUf6J7SHMCAwEAAaMdMBswDAYDVR0T
AQH/BAIwADALBgNVHQ8EBAMCB4AwDQYJKoZIhvcNAQELBQADgYEAajT4SkuAUB7o
vRd11MXlMLdjLxgY6CQ47KPpqTnwLEyDIrbtOJ4I1D49tl4vLc2EQ2CS8B5sBmqG
89m7xxx3qiGwDTTGhrJ8zGYSiRbrOaYvK0sOlYdPKONic8KZaCbuX+RkmdGntyVm
qBnzNsW4Hn7tEK9uOKmaA1U/L04qr5o=
-----END CERTIFICATE-----
