Certificate:
    Data:
        Version: 3 (0x2)
        Serial Number: 20 (0x14)
    Signature Algorithm: sha256WithRSAEncryption
        Issuer: C=US, ST=California, L=Santa Clara, O=pkg5, CN=ch1_ta3/emailAddress=ch1_ta3
        Validity
            Not Before: Jan  1 01:01:01 2035 GMT
            Not After : Jan  2 01:01:01 2035 GMT
        Subject: C=US, ST=California, L=Santa Clara, O=pkg5, CN=cs4_ch1_ta3/emailAddress=cs4_ch1_ta3
        Subject Public Key Info:
            Public Key Algorithm: rsaEncryption
                Public-Key: (1024 bit)
                Modulus:
                    00:ba:ca:53:f7:98:11:ed:79:77:f6:ea:be:96:91:
                    a3:77:6e:ae:64:b6:b8:34:ed:b0:bc:60:e9:2b:bd:
                    26:6c:fc:68:f2:e1:b6:aa:34:f7:ae:cc:1d:80:b6:
                    19:b9:fd:c1:d4:26:03:d5:35:bf:39:7b:61:84:11:
                    13:71:ed:a8:44:e6:75:41:ae:28:5b:60:f6:94:2f:
                    ab:3e:1f:d2:90:72:e7:30:aa:48:ce:b9:b3:55:64:
                    f2:47:59:0f:69:8e:44:0a:c4:5b:bd:2a:3e:43:60:
                    da:8e:64:fd:21:85:7b:db:ff:41:20:dd:28:2c:2d:
                    24:e6:a9:1a:e5:a9:97:a5:13
                Exponent: 65537 (0x10001)
        X509v3 extensions:
            X509v3 Basic Constraints: critical
                CA:FALSE
            X509v3 Key Usage: critical
                Digital Signature
    Signature Algorithm: sha256WithRSAEncryption
         8c:03:fd:a4:62:f9:94:98:58:91:21:53:bd:54:c4:21:9f:36:
         13:3d:e4:43:bc:8a:c8:bf:9a:eb:8d:29:ce:68:4a:f6:a8:35:
         02:36:f9:9b:3e:58:88:74:26:e5:65:5b:15:2d:cd:3f:e8:9a:
         a4:29:10:09:00:f3:7d:4d:60:73:4a:f6:5b:9d:11:ec:92:9f:
         ef:27:a1:f8:e9:ff:d7:58:94:9d:4b:23:bd:d6:fb:e6:82:24:
         a0:ab:2c:1e:d3:92:74:0e:3e:e5:e9:a0:21:8e:0e:95:fd:d5:
         0f:23:0f:c8:37:18:a5:03:3c:23:1f:5b:af:bf:8f:e6:af:b0:
         38:b2:30:bc:fe:f8:ab:c9:01:b4:2b:4c:c0:09:ac:de:b6:ad:
         d1:1a:4b:98:cf:85:66:3d:c6:97:f6:85:61:86:f2:61:55:29:
         26:da:81:92:79:a1:37:c4:39:40:8b:b7:2a:41:a4:4b:f0:2e:
         fc:98:58:66:69:75:76:26:49:d0:66:90:cc:cf:27:72:02:1e:
         92:dd:a4:a3:91:58:d7:88:a1:d6:9e:9b:bd:6f:4a:d7:40:a9:
         62:6a:c0:31:0c:26:a3:6a:65:0a:07:23:73:44:f3:21:5e:93:
         f9:80:59:0a:b9:e2:0b:85:df:b1:9b:4d:f1:31:a5:2b:9a:aa:
         7a:5b:a3:58
-----BEGIN CERTIFICATE-----
MIIDATCCAemgAwIBAgIBFDANBgkqhkiG9w0BAQsFADBxMQswCQYDVQQGEwJVUzET
MBEGA1UECAwKQ2FsaWZvcm5pYTEUMBIGA1UEBwwLU2FudGEgQ2xhcmExDTALBgNV
BAoMBHBrZzUxEDAOBgNVBAMMB2NoMV90YTMxFjAUBgkqhkiG9w0BCQEWB2NoMV90
YTMwHhcNMzUwMTAxMDEwMTAxWhcNMzUwMTAyMDEwMTAxWjB5MQswCQYDVQQGEwJV
UzETMBEGA1UECAwKQ2FsaWZvcm5pYTEUMBIGA1UEBwwLU2FudGEgQ2xhcmExDTAL
BgNVBAoMBHBrZzUxFDASBgNVBAMMC2NzNF9jaDFfdGEzMRowGAYJKoZIhvcNAQkB
FgtjczRfY2gxX3RhMzCBnzANBgkqhkiG9w0BAQEFAAOBjQAwgYkCgYEAuspT95gR
7Xl39uq+lpGjd26uZLa4NO2wvGDpK70mbPxo8uG2qjT3rswdgLYZuf3B1CYD1TW/
OXthhBETce2oROZ1Qa4oW2D2lC+rPh/SkHLnMKpIzrmzVWTyR1kPaY5ECsRbvSo+
Q2DajmT9IYV72/9BIN0oLC0k5qka5amXpRMCAwEAAaMgMB4wDAYDVR0TAQH/BAIw
ADAOBgNVHQ8BAf8EBAMCB4AwDQYJKoZIhvcNAQELBQADggEBAIwD/aRi+ZSYWJEh
U71UxCGfNhM95EO8isi/muuNKc5oSvaoNQI2+Zs+WIh0JuVlWxUtzT/omqQpEAkA
831NYHNK9ludEeySn+8nofjp/9dYlJ1LI73W++aCJKCrLB7TknQOPuXpoCGODpX9
1Q8jD8g3GKUDPCMfW6+/j+avsDiyMLz++KvJAbQrTMAJrN62rdEaS5jPhWY9xpf2
hWGG8mFVKSbagZJ5oTfEOUCLtypBpEvwLvyYWGZpdXYmSdBmkMzPJ3ICHpLdpKOR
WNeIodaem71vStdAqWJqwDEMJqNqZQoHI3NE8yFek/mAWQq54guF37GbTfExpSua
qnpbo1g=
-----END CERTIFICATE-----
