Certificate:
    Data:
        Version: 3 (0x2)
        Serial Number: 20 (0x14)
    Signature Algorithm: sha256WithRSAEncryption
        Issuer: C=US, ST=California, L=Santa Clara, O=pkg5, CN=ch1_ta3/emailAddress=ch1_ta3
        Validity
            Not Before: Jan  1 01:01:01 2035 GMT
            Not After : Jan  2 01:01:01 2035 GMT
        Subject: C=US, ST=California, L=Santa Clara, O=pkg5, CN=cs4_ch1_ta3/emailAddress=cs4_ch1_ta3
        Subject Public Key Info:
            Public Key Algorithm: rsaEncryption
                Public-Key: (2048 bit)
                Modulus:
                    00:b6:14:2c:20:42:de:6a:8f:a4:fe:4d:fe:80:47:
                    eb:af:2a:88:0c:ce:58:8c:40:44:a9:fe:01:71:8f:
                    c7:74:89:49:d2:be:70:ab:b2:35:f5:05:47:b7:c2:
                    09:95:63:e4:dd:64:96:14:5b:b5:ab:5f:66:7e:3c:
                    8b:0f:89:9d:2b:42:b5:ff:91:3b:74:24:fc:03:90:
                    ab:20:df:ac:12:62:b6:ca:e7:ea:4c:d4:d1:d0:48:
                    67:3e:2f:42:a7:bd:cc:ca:ee:a3:b9:3a:66:0e:ae:
                    1a:1b:8a:e6:01:37:ca:dc:65:22:06:25:d1:25:47:
                    e8:0f:36:47:5e:c7:88:75:00:4b:40:a7:57:e8:79:
                    a4:ac:fa:dd:2e:7a:0e:e0:2e:02:d9:74:51:34:f6:
                    3c:a1:ae:3c:97:5f:92:a5:7e:40:75:9e:db:06:08:
                    0a:83:40:63:45:b5:85:95:2c:14:cd:2e:00:23:37:
                    b7:8a:27:57:95:67:5b:6d:87:58:98:1d:f7:96:a2:
                    0d:71:d3:4e:15:b3:a6:e3:e5:01:5a:ac:61:ae:bd:
                    f7:96:a6:28:c1:d5:b5:5a:fb:66:cd:10:67:63:bb:
                    e1:e2:d7:8c:0b:85:3b:74:50:11:72:cc:f8:9e:c2:
                    a4:fa:9f:3a:4a:a2:e4:df:ce:31:ab:34:d3:8d:5e:
                    0e:81
                Exponent: 65537 (0x10001)
        X509v3 extensions:
            X509v3 Basic Constraints: critical
                CA:FALSE
            X509v3 Key Usage: critical
                Digital Signature
    Signature Algorithm: sha256WithRSAEncryption
         46:6e:43:ef:e0:7b:c4:c9:dc:05:9e:00:ac:7a:53:3f:bd:7a:
         ad:91:5f:8d:c2:1e:06:24:37:ea:5a:41:1d:f9:bc:8a:b4:11:
         f2:74:34:cf:bd:9b:d2:88:44:90:14:ff:15:ad:60:cf:4f:42:
         2e:b3:bb:16:8b:ec:54:e3:c9:96:33:a4:b0:f3:5f:1b:38:98:
         1a:71:c6:d7:39:72:ab:09:31:69:f3:7c:f3:bf:59:81:62:21:
         bf:02:75:31:c1:d5:9e:4c:5d:7f:94:ad:30:84:5b:79:c7:ec:
         24:67:97:be:d7:02:80:48:76:95:ed:8f:37:c7:b3:5b:5e:46:
         76:ac:6e:47:b2:0a:00:a4:c6:fc:d7:d4:46:27:5d:18:9c:ed:
         c6:4d:d2:d2:c5:1f:58:ef:f3:4b:23:d4:41:43:4d:5b:90:f8:
         7c:ab:de:7b:70:43:5b:f8:6e:7f:24:fe:fd:c8:66:87:5c:60:
         d9:5d:92:20:f4:4d:be:9c:2c:04:e0:2c:d4:37:80:f4:e5:01:
         cb:4b:da:e7:fc:a0:10:c6:6f:da:8c:d5:74:df:a7:e1:d9:b5:
         f2:2d:db:cf:5c:e7:a7:d3:d0:4e:30:ef:84:2c:38:45:f5:3c:
         32:be:7e:e6:52:bb:6c:5c:d0:24:70:34:d3:14:b9:ce:e6:b3:
         30:d5:ec:8b
-----BEGIN CERTIFICATE-----
MIIDhTCCAm2gAwIBAgIBFDANBgkqhkiG9w0BAQsFADBxMQswCQYDVQQGEwJVUzET
MBEGA1UECAwKQ2FsaWZvcm5pYTEUMBIGA1UEBwwLU2FudGEgQ2xhcmExDTALBgNV
BAoMBHBrZzUxEDAOBgNVBAMMB2NoMV90YTMxFjAUBgkqhkiG9w0BCQEWB2NoMV90
YTMwHhcNMzUwMTAxMDEwMTAxWhcNMzUwMTAyMDEwMTAxWjB5MQswCQYDVQQGEwJV
UzETMBEGA1UECAwKQ2FsaWZvcm5pYTEUMBIGA1UEBwwLU2FudGEgQ2xhcmExDTAL
BgNVBAoMBHBrZzUxFDASBgNVBAMMC2NzNF9jaDFfdGEzMRowGAYJKoZIhvcNAQkB
FgtjczRfY2gxX3RhMzCCASIwDQYJKoZIhvcNAQEBBQADggEPADCCAQoCggEBALYU
LCBC3mqPpP5N/oBH668qiAzOWIxARKn+AXGPx3SJSdK+cKuyNfUFR7fCCZVj5N1k
lhRbtatfZn48iw+JnStCtf+RO3Qk/AOQqyDfrBJitsrn6kzU0dBIZz4vQqe9zMru
o7k6Zg6uGhuK5gE3ytxlIgYl0SVH6A82R17HiHUAS0CnV+h5pKz63S56DuAuAtl0
UTT2PKGuPJdfkqV+QHWe2wYICoNAY0W1hZUsFM0uACM3t4onV5VnW22HWJgd95ai
DXHTThWzpuPlAVqsYa6995amKMHVtVr7Zs0QZ2O74eLXjAuFO3RQEXLM+J7CpPqf
Okqi5N/OMas0041eDoECAwEAAaMgMB4wDAYDVR0TAQH/BAIwADAOBgNVHQ8BAf8E
BAMCB4AwDQYJKoZIhvcNAQELBQADggEBAEZuQ+/ge8TJ3AWeAKx6Uz+9eq2RX43C
HgYkN+paQR35vIq0EfJ0NM+9m9KIRJAU/xWtYM9PQi6zuxaL7FTjyZYzpLDzXxs4
mBpxxtc5cqsJMWnzfPO/WYFiIb8CdTHB1Z5MXX+UrTCEW3nH7CRnl77XAoBIdpXt
jzfHs1teRnasbkeyCgCkxvzX1EYnXRic7cZN0tLFH1jv80sj1EFDTVuQ+Hyr3ntw
Q1v4bn8k/v3IZodcYNldkiD0Tb6cLATgLNQ3gPTlActL2uf8oBDGb9qM1XTfp+HZ
tfIt289c56fT0E4w74QsOEX1PDK+fuZSu2xc0CRwNNMUuc7mszDV7Is=
-----END CERTIFICATE-----
