Certificate:
    Data:
        Version: 3 (0x2)
        Serial Number: 20 (0x14)
        Signature Algorithm: sha256WithRSAEncryption
        Issuer: C=US, ST=California, L=Menlo Park, O=pkg5, CN=ch1_ta3/emailAddress=ch1_ta3
        Validity
            Not Before: Jan  1 01:01:01 2035 GMT
            Not After : Jan  2 01:01:01 2035 GMT
        Subject: C=US, ST=California, L=Menlo Park, O=pkg5, CN=cs4_ch1_ta3/emailAddress=cs4_ch1_ta3
        Subject Public Key Info:
            Public Key Algorithm: rsaEncryption
            RSA Public Key: (1024 bit)
                Modulus (1024 bit):
                    00:d7:42:45:a6:d0:f4:a9:54:6d:c8:4d:42:e8:05:
                    a4:33:25:f1:b7:eb:20:df:33:26:6e:ca:30:63:57:
                    df:d3:a9:02:b0:29:f3:cb:7b:64:77:34:7e:1d:c7:
                    a8:2c:ca:73:23:22:43:71:6c:33:9e:89:0e:89:ce:
                    6d:db:2b:f3:5a:af:e3:dc:f3:1c:48:64:60:5d:57:
                    e6:17:6b:e6:61:4b:cb:e0:a9:e3:1c:aa:f6:70:34:
                    b4:8b:d8:19:e6:26:06:60:24:82:c6:d8:5d:87:de:
                    99:2b:0d:78:db:92:f2:c2:24:65:8b:f8:07:b6:fe:
                    17:8d:bb:4f:c7:c0:ae:24:c9
                Exponent: 65537 (0x10001)
        X509v3 extensions:
            X509v3 Basic Constraints: critical
                CA:FALSE
            X509v3 Key Usage: critical
                Digital Signature
    Signature Algorithm: sha256WithRSAEncryption
        b9:09:ff:d1:80:e1:9e:05:e8:27:40:d0:d3:76:d7:b6:72:cd:
        4a:e4:d8:b7:e2:14:90:3a:74:61:b3:c8:3c:7c:bd:2e:9c:9d:
        62:0d:cd:9b:e9:36:ba:aa:87:f7:c7:e4:3a:6c:5d:d9:99:d5:
        33:a0:5a:3f:fd:5e:06:62:11:ad:ca:33:9d:0a:59:8a:a9:0e:
        6e:4a:d8:6f:da:ff:96:89:e3:8a:3b:5e:a6:b4:8c:93:ff:70:
        4d:d2:32:f8:44:c0:ff:84:65:b0:1f:59:4a:2c:10:d7:5e:a6:
        ed:5b:a8:e2:eb:42:e0:0d:7b:f5:43:ca:1a:9a:cd:df:e6:f8:
        4d:d5
-----BEGIN CERTIFICATE-----
MIICfjCCAeegAwIBAgIBFDANBgkqhkiG9w0BAQsFADBwMQswCQYDVQQGEwJVUzET
MBEGA1UECBMKQ2FsaWZvcm5pYTETMBEGA1UEBxMKTWVubG8gUGFyazENMAsGA1UE
ChMEcGtnNTEQMA4GA1UEAxQHY2gxX3RhMzEWMBQGCSqGSIb3DQEJARYHY2gxX3Rh
MzAeFw0zNTAxMDEwMTAxMDFaFw0zNTAxMDIwMTAxMDFaMHgxCzAJBgNVBAYTAlVT
MRMwEQYDVQQIEwpDYWxpZm9ybmlhMRMwEQYDVQQHEwpNZW5sbyBQYXJrMQ0wCwYD
VQQKEwRwa2c1MRQwEgYDVQQDFAtjczRfY2gxX3RhMzEaMBgGCSqGSIb3DQEJARYL
Y3M0X2NoMV90YTMwgZ8wDQYJKoZIhvcNAQEBBQADgY0AMIGJAoGBANdCRabQ9KlU
bchNQugFpDMl8bfrIN8zJm7KMGNX39OpArAp88t7ZHc0fh3HqCzKcyMiQ3FsM56J
DonObdsr81qv49zzHEhkYF1X5hdr5mFLy+Cp4xyq9nA0tIvYGeYmBmAkgsbYXYfe
mSsNeNuS8sIkZYv4B7b+F427T8fAriTJAgMBAAGjIDAeMAwGA1UdEwEB/wQCMAAw
DgYDVR0PAQH/BAQDAgeAMA0GCSqGSIb3DQEBCwUAA4GBALkJ/9GA4Z4F6CdA0NN2
17ZyzUrk2LfiFJA6dGGzyDx8vS6cnWINzZvpNrqqh/fH5DpsXdmZ1TOgWj/9XgZi
Ea3KM50KWYqpDm5K2G/a/5aJ44o7Xqa0jJP/cE3SMvhEwP+EZbAfWUosENdepu1b
qOLrQuANe/VDyhqazd/m+E3V
-----END CERTIFICATE-----
