Certificate:
    Data:
        Version: 3 (0x2)
        Serial Number: 20 (0x14)
    Signature Algorithm: sha256WithRSAEncryption
        Issuer: C=US, ST=California, L=Santa Clara, O=pkg5, CN=ch1_ta3/emailAddress=ch1_ta3
        Validity
            Not Before: Jan  1 01:01:01 2035 GMT
            Not After : Jan  2 01:01:01 2035 GMT
        Subject: C=US, ST=California, L=Santa Clara, O=pkg5, CN=cs4_ch1_ta3/emailAddress=cs4_ch1_ta3
        Subject Public Key Info:
            Public Key Algorithm: rsaEncryption
                Public-Key: (1024 bit)
                Modulus:
                    00:af:fc:e0:e3:83:fd:9f:ee:dc:30:08:85:84:50:
                    19:ed:c0:ec:2d:41:a5:b9:a3:40:3b:a5:75:42:a8:
                    ef:e8:bd:a8:7f:b7:53:13:8f:84:02:be:86:63:ea:
                    8d:87:76:66:e4:ab:2c:ae:08:73:25:39:c6:70:e8:
                    87:e5:4d:da:47:3a:cf:14:18:39:f3:c5:d8:3b:2f:
                    41:64:8c:ed:8b:6a:db:0f:b4:cd:f1:aa:78:51:d5:
                    be:e8:a8:7b:be:8f:3a:e6:95:27:bf:32:3e:37:eb:
                    94:07:fc:83:bc:61:6e:fc:e4:70:60:a7:eb:47:32:
                    17:fe:4f:60:77:84:da:3d:27
                Exponent: 65537 (0x10001)
        X509v3 extensions:
            X509v3 Basic Constraints: critical
                CA:FALSE
            X509v3 Key Usage: critical
                Digital Signature
    Signature Algorithm: sha256WithRSAEncryption
         28:ae:4b:81:fc:7b:18:34:1e:35:19:79:5b:a0:b0:a0:7f:81:
         8e:f0:f3:56:0d:5f:c9:a7:2b:13:ff:0c:12:f6:3c:f7:70:8f:
         9a:55:a3:0b:a9:4f:5c:7b:b8:22:63:ae:bd:6e:6c:33:35:ba:
         b1:3e:b8:60:67:73:bf:5a:ea:70:ec:98:60:bd:37:93:93:64:
         e2:2b:e1:17:52:ca:7a:a5:bb:94:a4:ab:84:de:c0:64:1c:e3:
         b6:13:0a:bb:79:24:38:6e:5d:64:5d:f0:22:2f:c9:01:2c:30:
         c9:45:d8:6f:1c:41:c6:82:70:46:1c:61:d6:0a:90:0e:bf:87:
         37:35:a3:f5:8b:b6:1c:e3:0b:24:a1:18:a5:fd:37:ca:46:3c:
         a8:83:05:c2:f8:aa:96:4c:80:5d:b7:b3:4a:95:84:33:4a:e4:
         bf:89:b0:3b:74:b1:57:db:4a:a1:de:3d:fd:b5:cb:cb:d4:45:
         0a:4a:9f:d8:9a:87:48:f1:6c:d2:c6:16:f2:a4:98:10:c8:a5:
         d5:bb:13:f5:4c:cf:ab:be:0c:2f:11:37:8d:8d:14:c0:37:30:
         74:30:cd:27:0c:e2:96:cc:d4:05:fa:d8:b7:a7:46:e2:17:7a:
         7e:09:d5:e2:63:85:fe:44:27:30:fd:ad:e6:21:43:fa:07:e9:
         11:56:9b:22
-----BEGIN CERTIFICATE-----
MIIDATCCAemgAwIBAgIBFDANBgkqhkiG9w0BAQsFADBxMQswCQYDVQQGEwJVUzET
MBEGA1UECAwKQ2FsaWZvcm5pYTEUMBIGA1UEBwwLU2FudGEgQ2xhcmExDTALBgNV
BAoMBHBrZzUxEDAOBgNVBAMMB2NoMV90YTMxFjAUBgkqhkiG9w0BCQEWB2NoMV90
YTMwHhcNMzUwMTAxMDEwMTAxWhcNMzUwMTAyMDEwMTAxWjB5MQswCQYDVQQGEwJV
UzETMBEGA1UECAwKQ2FsaWZvcm5pYTEUMBIGA1UEBwwLU2FudGEgQ2xhcmExDTAL
BgNVBAoMBHBrZzUxFDASBgNVBAMMC2NzNF9jaDFfdGEzMRowGAYJKoZIhvcNAQkB
FgtjczRfY2gxX3RhMzCBnzANBgkqhkiG9w0BAQEFAAOBjQAwgYkCgYEAr/zg44P9
n+7cMAiFhFAZ7cDsLUGluaNAO6V1Qqjv6L2of7dTE4+EAr6GY+qNh3Zm5Kssrghz
JTnGcOiH5U3aRzrPFBg588XYOy9BZIzti2rbD7TN8ap4UdW+6Kh7vo865pUnvzI+
N+uUB/yDvGFu/ORwYKfrRzIX/k9gd4TaPScCAwEAAaMgMB4wDAYDVR0TAQH/BAIw
ADAOBgNVHQ8BAf8EBAMCB4AwDQYJKoZIhvcNAQELBQADggEBACiuS4H8exg0HjUZ
eVugsKB/gY7w81YNX8mnKxP/DBL2PPdwj5pVowupT1x7uCJjrr1ubDM1urE+uGBn
c79a6nDsmGC9N5OTZOIr4RdSynqlu5Skq4TewGQc47YTCrt5JDhuXWRd8CIvyQEs
MMlF2G8cQcaCcEYcYdYKkA6/hzc1o/WLthzjCyShGKX9N8pGPKiDBcL4qpZMgF23
s0qVhDNK5L+JsDt0sVfbSqHePf21y8vURQpKn9iah0jxbNLGFvKkmBDIpdW7E/VM
z6u+DC8RN42NFMA3MHQwzScM4pbM1AX62LenRuIXen4J1eJjhf5EJzD9reYhQ/oH
6RFWmyI=
-----END CERTIFICATE-----
