Certificate:
    Data:
        Version: 3 (0x2)
        Serial Number: 21 (0x15)
    Signature Algorithm: sha256WithRSAEncryption
        Issuer: C=US, ST=California, L=Santa Clara, O=pkg5, CN=ch1_ta3/emailAddress=ch1_ta3
        Validity
            Not Before: Sep 22 05:33:24 2021 GMT
            Not After : Jun 18 05:33:24 2024 GMT
        Subject: C=US, ST=California, L=Santa Clara, O=pkg5, CN=cs5_ch1_ta3/emailAddress=cs5_ch1_ta3
        Subject Public Key Info:
            Public Key Algorithm: rsaEncryption
                Public-Key: (1024 bit)
                Modulus:
                    00:f0:c7:cd:f7:a1:6a:2f:97:0b:e6:5d:cd:2d:0c:
                    f8:f5:0d:fc:ab:9c:bd:cf:37:da:4a:a9:d5:93:90:
                    d6:9d:d1:b3:28:61:fc:47:14:f6:0e:8c:88:d1:be:
                    c9:aa:79:8f:21:76:0c:43:b1:90:03:0e:60:78:2a:
                    fa:c4:32:dd:67:eb:7e:0b:64:2b:c7:5b:4c:f6:88:
                    46:13:ce:4d:53:35:db:4b:3f:d9:0c:e5:68:d8:1e:
                    8b:09:4b:c9:c2:02:93:1c:e5:32:70:f6:07:c1:1b:
                    32:7b:88:43:11:da:08:4e:2d:07:9f:06:2e:3b:8f:
                    b8:c0:e6:af:4c:9c:89:c8:45
                Exponent: 65537 (0x10001)
        X509v3 extensions:
            X509v3 Basic Constraints: critical
                CA:FALSE
            X509v3 Key Usage: critical
                Digital Signature, Key Encipherment, Data Encipherment, Key Agreement, Encipher Only
    Signature Algorithm: sha256WithRSAEncryption
         1f:1a:97:83:b8:6f:cc:22:20:d9:57:52:e1:44:5a:20:49:ea:
         f4:e9:6b:be:22:2f:8d:9c:38:64:4f:4a:cd:ff:ab:c2:1b:cc:
         40:88:59:54:5a:29:ad:23:8b:df:b3:f9:28:d0:f7:09:2c:66:
         84:44:65:76:2f:97:96:e8:ff:00:e0:6f:f5:4a:e7:87:32:ff:
         a8:23:46:9e:06:13:84:98:fe:fb:88:24:0a:cb:52:22:14:d9:
         cd:18:42:2c:6c:55:d2:18:86:67:8c:d6:70:27:ff:1f:82:1e:
         c4:f9:96:f1:24:ea:b7:07:43:e3:b2:1f:00:47:45:1d:cd:29:
         56:03:e4:db:b1:dc:f3:a3:dc:c8:41:0d:b5:24:4c:16:00:b3:
         4c:b2:7f:32:72:82:24:39:d1:0c:06:95:04:3b:5b:a7:73:2e:
         73:98:d1:7d:bb:f6:b7:f8:c4:55:92:d1:63:d0:33:e3:60:e0:
         cb:fa:b1:0f:85:2b:97:dc:9c:fd:d5:16:72:c7:f3:47:46:7f:
         22:ba:e5:55:45:33:2e:72:20:23:e4:79:ed:ba:af:bc:38:00:
         f0:6b:05:53:f8:21:91:1c:05:f0:4d:ed:bb:ac:6a:b5:ad:9a:
         12:ca:29:f7:28:ac:08:b8:18:07:31:71:be:07:1a:b9:ed:7c:
         0f:40:b5:0b
-----BEGIN CERTIFICATE-----
MIIDATCCAemgAwIBAgIBFTANBgkqhkiG9w0BAQsFADBxMQswCQYDVQQGEwJVUzET
MBEGA1UECAwKQ2FsaWZvcm5pYTEUMBIGA1UEBwwLU2FudGEgQ2xhcmExDTALBgNV
BAoMBHBrZzUxEDAOBgNVBAMMB2NoMV90YTMxFjAUBgkqhkiG9w0BCQEWB2NoMV90
YTMwHhcNMjEwOTIyMDUzMzI0WhcNMjQwNjE4MDUzMzI0WjB5MQswCQYDVQQGEwJV
UzETMBEGA1UECAwKQ2FsaWZvcm5pYTEUMBIGA1UEBwwLU2FudGEgQ2xhcmExDTAL
BgNVBAoMBHBrZzUxFDASBgNVBAMMC2NzNV9jaDFfdGEzMRowGAYJKoZIhvcNAQkB
FgtjczVfY2gxX3RhMzCBnzANBgkqhkiG9w0BAQEFAAOBjQAwgYkCgYEA8MfN96Fq
L5cL5l3NLQz49Q38q5y9zzfaSqnVk5DWndGzKGH8RxT2DoyI0b7JqnmPIXYMQ7GQ
Aw5geCr6xDLdZ+t+C2Qrx1tM9ohGE85NUzXbSz/ZDOVo2B6LCUvJwgKTHOUycPYH
wRsye4hDEdoITi0HnwYuO4+4wOavTJyJyEUCAwEAAaMgMB4wDAYDVR0TAQH/BAIw
ADAOBgNVHQ8BAf8EBAMCALkwDQYJKoZIhvcNAQELBQADggEBAB8al4O4b8wiINlX
UuFEWiBJ6vTpa74iL42cOGRPSs3/q8IbzECIWVRaKa0ji9+z+SjQ9wksZoREZXYv
l5bo/wDgb/VK54cy/6gjRp4GE4SY/vuIJArLUiIU2c0YQixsVdIYhmeM1nAn/x+C
HsT5lvEk6rcHQ+OyHwBHRR3NKVYD5Nux3POj3MhBDbUkTBYAs0yyfzJygiQ50QwG
lQQ7W6dzLnOY0X279rf4xFWS0WPQM+Ng4Mv6sQ+FK5fcnP3VFnLH80dGfyK65VVF
My5yICPkee26r7w4APBrBVP4IZEcBfBN7busarWtmhLKKfcorAi4GAcxcb4HGrnt
fA9AtQs=
-----END CERTIFICATE-----
