Certificate:
    Data:
        Version: 3 (0x2)
        Serial Number: 21 (0x15)
    Signature Algorithm: sha256WithRSAEncryption
        Issuer: C=US, ST=California, L=Santa Clara, O=pkg5, CN=ch1_ta3/emailAddress=ch1_ta3
        Validity
            Not Before: Jul 19 11:35:47 2023 GMT
            Not After : Apr 14 11:35:47 2026 GMT
        Subject: C=US, ST=California, L=Santa Clara, O=pkg5, CN=cs5_ch1_ta3/emailAddress=cs5_ch1_ta3
        Subject Public Key Info:
            Public Key Algorithm: rsaEncryption
                Public-Key: (2048 bit)
                Modulus:
                    00:b8:21:14:d1:6a:b7:72:7c:74:1a:23:b6:ca:85:
                    fe:cf:83:57:2d:97:a2:b5:3c:b7:89:5f:a0:29:ff:
                    19:9e:6d:74:11:07:93:df:c7:a6:9b:3f:f2:89:9a:
                    19:07:7e:6f:f5:15:7d:a0:b9:04:67:5f:48:da:a2:
                    8d:ef:dc:90:3f:28:34:c8:4f:3e:fd:0e:8c:98:d2:
                    ed:17:b0:4b:e1:d2:64:68:10:a6:9e:6b:8f:4f:02:
                    cf:8e:79:9e:b2:c3:94:c4:30:ea:01:2c:ae:fb:cb:
                    4f:92:f5:58:9b:4d:cd:ae:70:b9:f8:ab:f6:d7:cb:
                    0a:ff:e1:99:23:49:56:50:65:06:b3:65:c5:e8:cb:
                    71:85:10:63:dc:77:05:b4:34:59:7c:da:f6:a7:fc:
                    88:9c:8f:99:90:5c:35:71:ed:a0:94:10:34:3d:93:
                    49:e1:52:b8:0c:32:0b:32:42:cc:76:95:5b:f1:ab:
                    32:23:71:cf:03:67:d5:18:c9:1f:82:f3:b8:78:39:
                    08:a0:4c:f5:b9:60:75:da:71:b9:59:89:1d:1e:bf:
                    81:b6:98:2f:f7:13:30:aa:a6:21:3a:59:ad:86:ce:
                    0f:a9:e7:0f:0c:7a:9c:15:ea:0b:ba:9d:1b:07:09:
                    ec:2d:27:2c:95:9d:ba:3f:46:49:53:17:d6:2a:e9:
                    bd:1d
                Exponent: 65537 (0x10001)
        X509v3 extensions:
            X509v3 Basic Constraints: critical
                CA:FALSE
            X509v3 Key Usage: critical
                Digital Signature, Key Encipherment, Data Encipherment, Key Agreement, Encipher Only
    Signature Algorithm: sha256WithRSAEncryption
         9b:65:19:31:80:66:1c:69:bb:bc:51:d0:7d:b1:80:83:49:16:
         06:76:43:4a:1b:cd:98:92:33:c7:d7:b2:70:63:f2:49:ac:bc:
         8f:1d:e2:26:bd:a5:62:85:64:70:a5:ef:14:1a:4b:62:ad:4a:
         cc:33:c8:29:d8:24:65:6a:31:f0:b5:db:db:36:32:64:f4:b0:
         d8:fb:f6:3b:37:d9:81:e1:68:4c:04:c2:e9:ff:a3:79:75:5c:
         76:34:12:c8:d6:e5:d4:fc:09:3c:bb:be:bc:c4:26:2f:5a:7c:
         7f:0a:30:20:6c:73:e3:bf:30:87:eb:06:3d:ed:d8:14:3b:a3:
         1a:e0:b7:1d:f8:ce:a0:ec:c1:30:63:54:41:7a:b5:87:c5:df:
         70:89:55:0c:52:b2:b4:e0:1c:04:30:66:34:c9:97:6f:90:67:
         ce:1e:23:dd:8d:41:d7:33:7c:89:84:5b:0b:d5:92:e8:b5:ea:
         59:61:6a:78:18:9b:c1:17:1f:56:ae:38:24:d4:db:90:8f:8c:
         b4:a1:66:87:27:17:0e:98:d4:74:78:36:8a:c4:e5:a8:7e:4c:
         4f:2d:a0:c8:0f:38:d8:4c:5d:ce:3d:1a:67:06:78:24:3f:dd:
         2d:7a:7d:aa:ad:8e:c4:ec:58:8e:ae:b1:a8:9d:f3:bd:55:af:
         39:43:53:b4
-----BEGIN CERTIFICATE-----
MIIDhTCCAm2gAwIBAgIBFTANBgkqhkiG9w0BAQsFADBxMQswCQYDVQQGEwJVUzET
MBEGA1UECAwKQ2FsaWZvcm5pYTEUMBIGA1UEBwwLU2FudGEgQ2xhcmExDTALBgNV
BAoMBHBrZzUxEDAOBgNVBAMMB2NoMV90YTMxFjAUBgkqhkiG9w0BCQEWB2NoMV90
YTMwHhcNMjMwNzE5MTEzNTQ3WhcNMjYwNDE0MTEzNTQ3WjB5MQswCQYDVQQGEwJV
UzETMBEGA1UECAwKQ2FsaWZvcm5pYTEUMBIGA1UEBwwLU2FudGEgQ2xhcmExDTAL
BgNVBAoMBHBrZzUxFDASBgNVBAMMC2NzNV9jaDFfdGEzMRowGAYJKoZIhvcNAQkB
FgtjczVfY2gxX3RhMzCCASIwDQYJKoZIhvcNAQEBBQADggEPADCCAQoCggEBALgh
FNFqt3J8dBojtsqF/s+DVy2XorU8t4lfoCn/GZ5tdBEHk9/Hpps/8omaGQd+b/UV
faC5BGdfSNqije/ckD8oNMhPPv0OjJjS7RewS+HSZGgQpp5rj08Cz455nrLDlMQw
6gEsrvvLT5L1WJtNza5wufir9tfLCv/hmSNJVlBlBrNlxejLcYUQY9x3BbQ0WXza
9qf8iJyPmZBcNXHtoJQQND2TSeFSuAwyCzJCzHaVW/GrMiNxzwNn1RjJH4LzuHg5
CKBM9blgddpxuVmJHR6/gbaYL/cTMKqmITpZrYbOD6nnDwx6nBXqC7qdGwcJ7C0n
LJWduj9GSVMX1irpvR0CAwEAAaMgMB4wDAYDVR0TAQH/BAIwADAOBgNVHQ8BAf8E
BAMCALkwDQYJKoZIhvcNAQELBQADggEBAJtlGTGAZhxpu7xR0H2xgINJFgZ2Q0ob
zZiSM8fXsnBj8kmsvI8d4ia9pWKFZHCl7xQaS2KtSswzyCnYJGVqMfC129s2MmT0
sNj79js32YHhaEwEwun/o3l1XHY0EsjW5dT8CTy7vrzEJi9afH8KMCBsc+O/MIfr
Bj3t2BQ7oxrgtx34zqDswTBjVEF6tYfF33CJVQxSsrTgHAQwZjTJl2+QZ84eI92N
QdczfImEWwvVkui16llhangYm8EXH1auOCTU25CPjLShZocnFw6Y1HR4NorE5ah+
TE8toMgPONhMXc49GmcGeCQ/3S16faqtjsTsWI6usaid871VrzlDU7Q=
-----END CERTIFICATE-----
