Certificate:
    Data:
        Version: 3 (0x2)
        Serial Number: 21 (0x15)
        Signature Algorithm: sha256WithRSAEncryption
        Issuer: C=US, ST=California, L=Santa Clara, O=pkg5, CN=ch1_ta3/emailAddress=ch1_ta3
        Validity
            Not Before: Mar 18 08:51:35 2026 GMT
            Not After : Dec 12 08:51:35 2028 GMT
        Subject: C=US, ST=California, L=Santa Clara, O=pkg5, CN=cs5_ch1_ta3/emailAddress=cs5_ch1_ta3
        Subject Public Key Info:
            Public Key Algorithm: rsaEncryption
                Public-Key: (2048 bit)
                Modulus:
                    00:dc:2f:46:55:36:dd:80:28:c2:6e:44:70:71:d3:
                    c9:b4:a7:00:0f:6b:92:3d:7a:39:a2:4f:97:1e:ad:
                    fd:08:56:0d:18:28:cc:6d:e0:4b:9f:0f:72:ff:ac:
                    b8:11:fc:c0:44:62:05:b2:2d:4c:97:fe:d8:e7:01:
                    d7:e1:19:ba:78:63:fc:b4:34:0c:1c:31:e1:f5:94:
                    cb:15:3c:c4:1a:c4:af:ac:07:41:49:39:34:77:9a:
                    28:8e:7c:99:91:85:cd:50:82:bd:6e:be:f8:ca:01:
                    df:83:8f:c8:41:32:c3:93:d9:0c:31:d6:01:13:ac:
                    7c:68:76:b5:5f:7f:06:7e:32:47:9d:b7:55:3b:8f:
                    01:f2:6a:cb:b4:3c:39:b1:89:7c:68:94:2c:85:04:
                    fe:7d:74:18:1a:20:6b:17:16:7d:49:05:ff:24:e8:
                    de:8e:ea:f5:02:e4:9a:37:70:0f:00:b3:c9:22:b6:
                    b3:5f:98:a7:09:39:d3:05:9c:e9:0a:ee:f8:32:7c:
                    69:9b:0e:f1:4a:32:aa:c7:3f:8f:f8:23:fb:3b:d6:
                    3c:1c:ce:40:b1:48:4d:a9:97:f9:81:f9:2b:8b:f8:
                    0a:fe:5b:6f:e7:8a:28:19:23:05:d1:ce:90:23:2b:
                    df:50:5b:36:b8:1a:fd:91:a5:c5:43:1f:50:0c:37:
                    f2:ed
                Exponent: 65537 (0x10001)
        X509v3 extensions:
            X509v3 Basic Constraints: critical
                CA:FALSE
            X509v3 Key Usage: critical
                Digital Signature, Key Encipherment, Data Encipherment, Key Agreement, Encipher Only
            X509v3 Subject Key Identifier: 
                7B:D6:CE:D9:4F:D0:B5:AE:28:65:1E:47:5C:4F:2F:D1:78:88:1F:36
            X509v3 Authority Key Identifier: 
                D9:5E:2F:ED:23:64:CE:9F:A3:C2:6F:7D:FD:22:C9:21:6D:C3:CE:2F
    Signature Algorithm: sha256WithRSAEncryption
    Signature Value:
        87:5f:59:86:da:6a:ca:2d:a4:af:67:5f:70:cb:08:52:94:09:
        02:92:4c:aa:a6:a3:c8:ca:cf:78:88:2b:d7:64:97:e1:a6:2a:
        92:00:7c:e4:d4:50:87:a4:46:be:6b:bb:6a:0b:5e:60:3c:25:
        d0:4e:5c:62:7a:99:b5:d9:0d:2e:ae:7a:97:a5:55:29:5e:d7:
        0d:25:8e:a0:db:cf:ad:cb:d1:43:a0:a1:2f:c8:bd:da:af:cb:
        84:b3:ae:a7:96:ad:ce:b6:8f:d4:c1:65:58:77:dc:a2:a4:92:
        10:c8:21:a2:53:3d:09:1e:68:df:5c:68:1a:e5:0f:f0:1e:01:
        3d:a9:72:28:8b:18:b9:9c:86:a5:91:a9:3c:cf:f6:ad:2c:d7:
        09:ac:79:2c:7e:75:13:f4:ff:49:a2:f9:e6:10:02:12:2c:aa:
        c2:29:f4:97:84:69:15:9d:c1:38:7c:ab:be:6f:7f:9c:1b:ce:
        30:99:e7:aa:8d:2a:e7:6a:00:70:0d:4b:2b:f0:f0:e1:4c:c1:
        0f:b3:92:b6:43:18:6d:85:5c:ca:be:d4:8e:e1:58:f2:2a:99:
        03:fb:a3:2b:b6:e7:80:c6:c5:bc:26:03:ca:45:17:09:4e:d7:
        17:fa:a1:d0:f5:99:a8:2d:cb:5e:e6:37:7e:8e:22:69:c1:c9:
        47:b7:8b:e3
-----BEGIN CERTIFICATE-----
MIIDxTCCAq2gAwIBAgIBFTANBgkqhkiG9w0BAQsFADBxMQswCQYDVQQGEwJVUzET
MBEGA1UECAwKQ2FsaWZvcm5pYTEUMBIGA1UEBwwLU2FudGEgQ2xhcmExDTALBgNV
BAoMBHBrZzUxEDAOBgNVBAMMB2NoMV90YTMxFjAUBgkqhkiG9w0BCQEWB2NoMV90
YTMwHhcNMjYwMzE4MDg1MTM1WhcNMjgxMjEyMDg1MTM1WjB5MQswCQYDVQQGEwJV
UzETMBEGA1UECAwKQ2FsaWZvcm5pYTEUMBIGA1UEBwwLU2FudGEgQ2xhcmExDTAL
BgNVBAoMBHBrZzUxFDASBgNVBAMMC2NzNV9jaDFfdGEzMRowGAYJKoZIhvcNAQkB
FgtjczVfY2gxX3RhMzCCASIwDQYJKoZIhvcNAQEBBQADggEPADCCAQoCggEBANwv
RlU23YAowm5EcHHTybSnAA9rkj16OaJPlx6t/QhWDRgozG3gS58Pcv+suBH8wERi
BbItTJf+2OcB1+EZunhj/LQ0DBwx4fWUyxU8xBrEr6wHQUk5NHeaKI58mZGFzVCC
vW6++MoB34OPyEEyw5PZDDHWAROsfGh2tV9/Bn4yR523VTuPAfJqy7Q8ObGJfGiU
LIUE/n10GBogaxcWfUkF/yTo3o7q9QLkmjdwDwCzySK2s1+Ypwk50wWc6Qru+DJ8
aZsO8Uoyqsc/j/gj+zvWPBzOQLFITamX+YH5K4v4Cv5bb+eKKBkjBdHOkCMr31Bb
Nrga/ZGlxUMfUAw38u0CAwEAAaNgMF4wDAYDVR0TAQH/BAIwADAOBgNVHQ8BAf8E
BAMCALkwHQYDVR0OBBYEFHvWztlP0LWuKGUeR1xPL9F4iB82MB8GA1UdIwQYMBaA
FNleL+0jZM6fo8Jvff0iySFtw84vMA0GCSqGSIb3DQEBCwUAA4IBAQCHX1mG2mrK
LaSvZ19wywhSlAkCkkyqpqPIys94iCvXZJfhpiqSAHzk1FCHpEa+a7tqC15gPCXQ
Tlxiepm12Q0urnqXpVUpXtcNJY6g28+ty9FDoKEvyL3ar8uEs66nlq3Oto/UwWVY
d9yipJIQyCGiUz0JHmjfXGga5Q/wHgE9qXIoixi5nIalkak8z/atLNcJrHksfnUT
9P9JovnmEAISLKrCKfSXhGkVncE4fKu+b3+cG84wmeeqjSrnagBwDUsr8PDhTMEP
s5K2QxhthVzKvtSO4VjyKpkD+6MrtueAxsW8JgPKRRcJTtcX+qHQ9ZmoLcte5jd+
jiJpwclHt4vj
-----END CERTIFICATE-----
