Certificate:
    Data:
        Version: 3 (0x2)
        Serial Number: 21 (0x15)
    Signature Algorithm: sha256WithRSAEncryption
        Issuer: C=US, ST=California, L=Santa Clara, O=pkg5, CN=ch1_ta3/emailAddress=ch1_ta3
        Validity
            Not Before: Dec 13 00:13:36 2013 GMT
            Not After : Sep  8 00:13:36 2016 GMT
        Subject: C=US, ST=California, L=Santa Clara, O=pkg5, CN=cs5_ch1_ta3/emailAddress=cs5_ch1_ta3
        Subject Public Key Info:
            Public Key Algorithm: rsaEncryption
                Public-Key: (1024 bit)
                Modulus:
                    00:ea:23:95:11:2c:b5:2d:49:c5:10:77:74:82:98:
                    da:5f:58:1f:2b:40:6e:1b:2e:d8:4f:30:07:6b:a2:
                    ae:9f:f7:ed:8d:2d:b4:b3:68:48:ec:60:72:a2:fb:
                    8b:7e:62:11:90:79:96:f9:ee:82:78:3f:09:22:2b:
                    03:45:af:9e:ca:7e:3c:80:4f:ad:59:77:85:c5:e7:
                    6b:4a:0b:a2:6b:4b:c5:e7:f9:38:81:64:05:ea:cd:
                    76:9c:bf:eb:51:aa:29:6c:c1:3e:98:c6:ac:49:a2:
                    ac:32:60:78:d8:ff:c6:79:f8:a5:a6:78:61:24:9a:
                    27:26:2e:06:3a:19:8e:54:d1
                Exponent: 65537 (0x10001)
        X509v3 extensions:
            X509v3 Basic Constraints: critical
                CA:FALSE
            X509v3 Key Usage: 
                Encipher Only
    Signature Algorithm: sha256WithRSAEncryption
         80:7c:f9:bc:bd:15:b1:9d:75:d1:82:b5:42:79:d3:5e:2c:e3:
         c4:73:ed:3b:3c:8a:83:9c:51:e9:1f:93:75:1f:81:01:11:f9:
         fd:a8:56:0f:cf:d3:a9:38:26:e3:f0:78:79:75:ef:97:7b:01:
         0b:b7:37:65:6c:93:76:07:ec:fa:f5:1e:2d:6a:3b:6d:15:fc:
         41:6f:fb:17:52:be:cc:a8:95:da:be:3b:6d:d8:5d:42:10:aa:
         20:9e:8e:c5:33:ed:7b:8a:f1:e5:e3:45:21:05:2e:77:3b:c9:
         66:46:25:37:e4:5c:b0:f5:29:0a:be:0d:bc:c8:e9:d8:fc:31:
         22:e3
-----BEGIN CERTIFICATE-----
MIICfTCCAeagAwIBAgIBFTANBgkqhkiG9w0BAQsFADBxMQswCQYDVQQGEwJVUzET
MBEGA1UECAwKQ2FsaWZvcm5pYTEUMBIGA1UEBwwLU2FudGEgQ2xhcmExDTALBgNV
BAoMBHBrZzUxEDAOBgNVBAMMB2NoMV90YTMxFjAUBgkqhkiG9w0BCQEWB2NoMV90
YTMwHhcNMTMxMjEzMDAxMzM2WhcNMTYwOTA4MDAxMzM2WjB5MQswCQYDVQQGEwJV
UzETMBEGA1UECAwKQ2FsaWZvcm5pYTEUMBIGA1UEBwwLU2FudGEgQ2xhcmExDTAL
BgNVBAoMBHBrZzUxFDASBgNVBAMMC2NzNV9jaDFfdGEzMRowGAYJKoZIhvcNAQkB
FgtjczVfY2gxX3RhMzCBnzANBgkqhkiG9w0BAQEFAAOBjQAwgYkCgYEA6iOVESy1
LUnFEHd0gpjaX1gfK0BuGy7YTzAHa6Kun/ftjS20s2hI7GByovuLfmIRkHmW+e6C
eD8JIisDRa+eyn48gE+tWXeFxedrSguia0vF5/k4gWQF6s12nL/rUaopbME+mMas
SaKsMmB42P/GefilpnhhJJonJi4GOhmOVNECAwEAAaMdMBswDAYDVR0TAQH/BAIw
ADALBgNVHQ8EBAMCAAEwDQYJKoZIhvcNAQELBQADgYEAgHz5vL0VsZ110YK1QnnT
XizjxHPtOzyKg5xR6R+TdR+BARH5/ahWD8/TqTgm4/B4eXXvl3sBC7c3ZWyTdgfs
+vUeLWo7bRX8QW/7F1K+zKiV2r47bdhdQhCqIJ6OxTPte4rx5eNFIQUudzvJZkYl
N+RcsPUpCr4NvMjp2PwxIuM=
-----END CERTIFICATE-----
