Certificate:
    Data:
        Version: 3 (0x2)
        Serial Number: 21 (0x15)
    Signature Algorithm: sha256WithRSAEncryption
        Issuer: C=US, ST=California, L=Santa Clara, O=pkg5, CN=ch1_ta3/emailAddress=ch1_ta3
        Validity
            Not Before: Jan 22 15:33:10 2019 GMT
            Not After : Oct 18 15:33:10 2021 GMT
        Subject: C=US, ST=California, L=Santa Clara, O=pkg5, CN=cs5_ch1_ta3/emailAddress=cs5_ch1_ta3
        Subject Public Key Info:
            Public Key Algorithm: rsaEncryption
                Public-Key: (1024 bit)
                Modulus:
                    00:c4:e8:69:0f:55:1c:38:0d:51:0d:01:f4:1d:f3:
                    b5:4c:2f:02:ea:e6:a5:ae:c6:05:c4:fe:fa:49:f7:
                    48:82:35:3d:42:22:8d:67:01:c2:17:06:4f:84:2d:
                    7e:18:60:8c:00:49:f7:cb:d5:b6:82:cf:3b:ce:a9:
                    38:a4:e0:8b:86:52:91:07:c3:39:85:22:8d:41:e0:
                    00:17:7a:1a:68:58:5a:d1:6b:c2:d1:7a:d9:23:2d:
                    7c:72:e3:c7:87:45:bc:ea:4a:20:d5:ca:e6:31:1a:
                    2a:00:92:e1:51:b8:5c:24:1f:f2:23:b4:b5:cd:c5:
                    62:a0:8e:6e:43:cd:42:79:99
                Exponent: 65537 (0x10001)
        X509v3 extensions:
            X509v3 Basic Constraints: critical
                CA:FALSE
            X509v3 Key Usage: critical
                Digital Signature, Key Encipherment, Data Encipherment, Key Agreement, Encipher Only
    Signature Algorithm: sha256WithRSAEncryption
         65:0b:d4:c7:ff:9d:13:d6:8e:ed:c3:fc:3d:9f:13:55:b0:37:
         fe:4e:bf:ae:2e:7c:0f:82:82:e6:be:ee:1f:be:ad:2a:de:c1:
         16:cf:34:09:f2:bd:94:09:a6:05:13:88:a9:3d:4c:c1:00:09:
         3c:82:8b:c2:99:9e:fa:34:7e:2e:21:53:e8:90:91:31:7b:d5:
         1c:2a:eb:35:bf:41:6a:dc:50:af:b7:6f:4c:c2:a3:54:c7:2a:
         4a:e9:68:97:38:fd:29:3e:3c:30:f5:1d:29:4f:ec:44:de:ab:
         5d:19:20:64:2c:a5:f9:83:25:b2:b8:21:13:9f:bd:52:cd:3c:
         68:4d:a0:43:9f:09:8a:e9:a4:5a:81:1b:a4:1a:ec:40:29:f0:
         21:d9:f3:47:fd:c2:46:17:01:b6:cc:be:9d:ee:dc:ae:fc:61:
         db:43:c0:83:56:1d:14:5e:d8:3a:de:62:8f:3d:d2:24:8e:06:
         4d:a4:00:55:bf:c2:2b:97:64:6c:7d:7d:f9:26:86:db:02:41:
         92:3a:d4:70:01:00:08:21:5f:18:e8:e4:b2:6d:dd:c3:cd:0b:
         dc:9b:46:d5:38:68:0f:18:4a:a9:d7:db:46:b1:9b:d2:63:53:
         96:ae:91:9f:3a:b5:7d:f8:36:bd:68:0e:72:b6:27:54:d9:47:
         ca:0d:5c:28
-----BEGIN CERTIFICATE-----
MIIDATCCAemgAwIBAgIBFTANBgkqhkiG9w0BAQsFADBxMQswCQYDVQQGEwJVUzET
MBEGA1UECAwKQ2FsaWZvcm5pYTEUMBIGA1UEBwwLU2FudGEgQ2xhcmExDTALBgNV
BAoMBHBrZzUxEDAOBgNVBAMMB2NoMV90YTMxFjAUBgkqhkiG9w0BCQEWB2NoMV90
YTMwHhcNMTkwMTIyMTUzMzEwWhcNMjExMDE4MTUzMzEwWjB5MQswCQYDVQQGEwJV
UzETMBEGA1UECAwKQ2FsaWZvcm5pYTEUMBIGA1UEBwwLU2FudGEgQ2xhcmExDTAL
BgNVBAoMBHBrZzUxFDASBgNVBAMMC2NzNV9jaDFfdGEzMRowGAYJKoZIhvcNAQkB
FgtjczVfY2gxX3RhMzCBnzANBgkqhkiG9w0BAQEFAAOBjQAwgYkCgYEAxOhpD1Uc
OA1RDQH0HfO1TC8C6ualrsYFxP76SfdIgjU9QiKNZwHCFwZPhC1+GGCMAEn3y9W2
gs87zqk4pOCLhlKRB8M5hSKNQeAAF3oaaFha0WvC0XrZIy18cuPHh0W86kog1crm
MRoqAJLhUbhcJB/yI7S1zcVioI5uQ81CeZkCAwEAAaMgMB4wDAYDVR0TAQH/BAIw
ADAOBgNVHQ8BAf8EBAMCALkwDQYJKoZIhvcNAQELBQADggEBAGUL1Mf/nRPWju3D
/D2fE1WwN/5Ov64ufA+Cgua+7h++rSrewRbPNAnyvZQJpgUTiKk9TMEACTyCi8KZ
nvo0fi4hU+iQkTF71Rwq6zW/QWrcUK+3b0zCo1THKkrpaJc4/Sk+PDD1HSlP7ETe
q10ZIGQspfmDJbK4IROfvVLNPGhNoEOfCYrppFqBG6Qa7EAp8CHZ80f9wkYXAbbM
vp3u3K78YdtDwINWHRRe2DreYo890iSOBk2kAFW/wiuXZGx9ffkmhtsCQZI61HAB
AAghXxjo5LJt3cPNC9ybRtU4aA8YSqnX20axm9JjU5aukZ86tX34Nr1oDnK2J1TZ
R8oNXCg=
-----END CERTIFICATE-----
