Certificate:
    Data:
        Version: 3 (0x2)
        Serial Number: 21 (0x15)
    Signature Algorithm: sha256WithRSAEncryption
        Issuer: C=US, ST=California, L=Santa Clara, O=pkg5, CN=ch1_ta3/emailAddress=ch1_ta3
        Validity
            Not Before: Mar 18 23:38:20 2016 GMT
            Not After : Dec 13 23:38:20 2018 GMT
        Subject: C=US, ST=California, L=Santa Clara, O=pkg5, CN=cs5_ch1_ta3/emailAddress=cs5_ch1_ta3
        Subject Public Key Info:
            Public Key Algorithm: rsaEncryption
                Public-Key: (1024 bit)
                Modulus:
                    00:b6:7f:e2:17:8e:24:fc:da:a5:a9:00:4f:96:4b:
                    b0:19:c7:e7:0d:3e:b6:f8:3c:db:f6:6c:57:f6:44:
                    ed:6e:74:b5:02:0f:7b:91:84:0c:ce:9d:7d:65:86:
                    fb:16:26:a3:40:f1:be:ca:47:c2:4a:d2:e5:ba:fa:
                    f2:50:66:c3:8a:42:49:29:c6:63:93:3f:70:cd:cf:
                    88:14:fb:6b:53:e4:45:b0:07:a6:f7:d1:db:da:07:
                    11:44:a6:f1:98:d8:7f:ec:7b:6e:e6:6a:1b:23:63:
                    b5:27:b0:2f:22:ec:f4:10:63:52:21:88:2c:ae:2e:
                    12:2f:aa:e0:5b:ad:04:12:e7
                Exponent: 65537 (0x10001)
        X509v3 extensions:
            X509v3 Basic Constraints: critical
                CA:FALSE
            X509v3 Key Usage: critical
                Digital Signature, Key Encipherment, Data Encipherment, Key Agreement, Encipher Only
    Signature Algorithm: sha256WithRSAEncryption
         1f:d8:2e:2c:d8:95:4c:0a:a5:2b:6d:a6:86:ca:d7:56:96:89:
         5c:e3:47:0d:25:3a:8b:46:9d:fa:7d:05:d8:cb:1d:03:b2:1d:
         87:48:ad:42:57:06:02:cd:ad:e5:21:7b:5c:55:16:61:90:92:
         c8:8c:74:aa:03:26:4a:f6:1b:26:65:9c:a3:7a:8d:70:8a:d5:
         c3:6f:0f:6d:29:96:da:47:85:44:27:76:bf:17:e1:4e:65:7a:
         2c:7d:09:1d:df:67:89:02:6d:98:1d:65:5c:a3:2d:34:fd:c9:
         7b:78:fc:2f:77:a1:ff:b8:85:bd:67:48:58:8b:d4:6f:f8:ed:
         f7:c5:14:2e:9e:4c:d0:e9:e1:f5:ab:16:ea:73:55:dc:50:13:
         10:36:03:23:1d:52:10:e7:84:95:81:db:44:b0:e7:74:6f:92:
         12:ea:1f:df:92:ac:cd:d6:7f:b3:18:55:d0:5c:3f:ac:a3:4d:
         00:b3:0d:77:63:5b:00:02:5b:11:96:db:6f:c0:2d:33:7d:f1:
         ad:aa:93:6f:4f:54:3e:6d:54:68:b0:08:df:bd:df:86:8b:b2:
         97:19:7d:f8:13:a0:f9:ce:1d:28:5d:da:22:f3:96:07:de:b0:
         f8:f3:fe:f4:17:81:b8:56:10:35:29:03:c8:91:0b:54:ff:5f:
         44:82:1a:b4
-----BEGIN CERTIFICATE-----
MIIDATCCAemgAwIBAgIBFTANBgkqhkiG9w0BAQsFADBxMQswCQYDVQQGEwJVUzET
MBEGA1UECAwKQ2FsaWZvcm5pYTEUMBIGA1UEBwwLU2FudGEgQ2xhcmExDTALBgNV
BAoMBHBrZzUxEDAOBgNVBAMMB2NoMV90YTMxFjAUBgkqhkiG9w0BCQEWB2NoMV90
YTMwHhcNMTYwMzE4MjMzODIwWhcNMTgxMjEzMjMzODIwWjB5MQswCQYDVQQGEwJV
UzETMBEGA1UECAwKQ2FsaWZvcm5pYTEUMBIGA1UEBwwLU2FudGEgQ2xhcmExDTAL
BgNVBAoMBHBrZzUxFDASBgNVBAMMC2NzNV9jaDFfdGEzMRowGAYJKoZIhvcNAQkB
FgtjczVfY2gxX3RhMzCBnzANBgkqhkiG9w0BAQEFAAOBjQAwgYkCgYEAtn/iF44k
/NqlqQBPlkuwGcfnDT62+Dzb9mxX9kTtbnS1Ag97kYQMzp19ZYb7FiajQPG+ykfC
StLluvryUGbDikJJKcZjkz9wzc+IFPtrU+RFsAem99Hb2gcRRKbxmNh/7Htu5mob
I2O1J7AvIuz0EGNSIYgsri4SL6rgW60EEucCAwEAAaMgMB4wDAYDVR0TAQH/BAIw
ADAOBgNVHQ8BAf8EBAMCALkwDQYJKoZIhvcNAQELBQADggEBAB/YLizYlUwKpStt
pobK11aWiVzjRw0lOotGnfp9BdjLHQOyHYdIrUJXBgLNreUhe1xVFmGQksiMdKoD
Jkr2GyZlnKN6jXCK1cNvD20pltpHhUQndr8X4U5leix9CR3fZ4kCbZgdZVyjLTT9
yXt4/C93of+4hb1nSFiL1G/47ffFFC6eTNDp4fWrFupzVdxQExA2AyMdUhDnhJWB
20Sw53RvkhLqH9+SrM3Wf7MYVdBcP6yjTQCzDXdjWwACWxGW22/ALTN98a2qk29P
VD5tVGiwCN+934aLspcZffgToPnOHShd2iLzlgfesPjz/vQXgbhWEDUpA8iRC1T/
X0SCGrQ=
-----END CERTIFICATE-----
