Certificate:
    Data:
        Version: 3 (0x2)
        Serial Number: 21 (0x15)
        Signature Algorithm: sha256WithRSAEncryption
        Issuer: C=US, ST=California, L=Menlo Park, O=pkg5, CN=ch1_ta3/emailAddress=ch1_ta3
        Validity
            Not Before: Mar 21 00:49:28 2011 GMT
            Not After : Dec 15 00:49:28 2013 GMT
        Subject: C=US, ST=California, L=Menlo Park, O=pkg5, CN=cs5_ch1_ta3/emailAddress=cs5_ch1_ta3
        Subject Public Key Info:
            Public Key Algorithm: rsaEncryption
            RSA Public Key: (1024 bit)
                Modulus (1024 bit):
                    00:bc:38:5a:89:55:f2:97:d1:61:2a:da:f0:93:31:
                    58:82:70:d0:fd:23:09:38:82:02:d4:f7:cb:a6:27:
                    c0:cf:76:6e:67:03:78:f5:6c:92:77:b6:8a:f4:a8:
                    36:6e:de:e3:7c:bd:0d:09:c9:7c:92:3a:be:c9:b1:
                    2b:18:2a:8c:39:6b:b1:18:a7:34:dc:95:8d:cd:4d:
                    66:78:56:38:56:2c:a2:9f:5e:4d:14:c3:aa:f8:7f:
                    20:98:1a:53:4b:f5:20:42:f5:b4:30:d7:62:ea:6d:
                    54:e4:71:55:0c:1c:1c:41:54:7a:2a:48:b1:d0:8e:
                    a6:82:7c:2b:81:cb:a5:b3:53
                Exponent: 65537 (0x10001)
        X509v3 extensions:
            X509v3 Basic Constraints: critical
                CA:FALSE
            X509v3 Key Usage: 
                Encipher Only
    Signature Algorithm: sha256WithRSAEncryption
        3b:c7:de:1c:36:d2:6d:85:e3:8e:2d:4c:fa:74:f7:2a:75:0b:
        1b:b4:79:2f:26:0a:3e:7f:b0:44:12:67:e8:89:f1:6e:ca:2d:
        e6:18:21:27:cb:e2:7f:61:63:ba:f5:0b:91:40:98:22:cd:51:
        16:54:c1:00:a9:89:39:79:20:a4:6b:e5:59:ed:9e:ef:c0:2f:
        e0:3c:2c:8b:ed:fb:1c:2a:8d:87:5b:b7:49:14:bb:b1:5a:36:
        13:9d:b4:2a:99:1f:b5:02:9b:07:70:62:aa:c0:92:98:6b:f7:
        4a:73:c5:17:a4:5e:b0:09:b2:61:6a:af:62:64:d5:b9:a6:ac:
        09:34
-----BEGIN CERTIFICATE-----
MIICezCCAeSgAwIBAgIBFTANBgkqhkiG9w0BAQsFADBwMQswCQYDVQQGEwJVUzET
MBEGA1UECBMKQ2FsaWZvcm5pYTETMBEGA1UEBxMKTWVubG8gUGFyazENMAsGA1UE
ChMEcGtnNTEQMA4GA1UEAxQHY2gxX3RhMzEWMBQGCSqGSIb3DQEJARYHY2gxX3Rh
MzAeFw0xMTAzMjEwMDQ5MjhaFw0xMzEyMTUwMDQ5MjhaMHgxCzAJBgNVBAYTAlVT
MRMwEQYDVQQIEwpDYWxpZm9ybmlhMRMwEQYDVQQHEwpNZW5sbyBQYXJrMQ0wCwYD
VQQKEwRwa2c1MRQwEgYDVQQDFAtjczVfY2gxX3RhMzEaMBgGCSqGSIb3DQEJARYL
Y3M1X2NoMV90YTMwgZ8wDQYJKoZIhvcNAQEBBQADgY0AMIGJAoGBALw4WolV8pfR
YSra8JMxWIJw0P0jCTiCAtT3y6YnwM92bmcDePVskne2ivSoNm7e43y9DQnJfJI6
vsmxKxgqjDlrsRinNNyVjc1NZnhWOFYsop9eTRTDqvh/IJgaU0v1IEL1tDDXYupt
VORxVQwcHEFUeipIsdCOpoJ8K4HLpbNTAgMBAAGjHTAbMAwGA1UdEwEB/wQCMAAw
CwYDVR0PBAQDAgABMA0GCSqGSIb3DQEBCwUAA4GBADvH3hw20m2F444tTPp09yp1
Cxu0eS8mCj5/sEQSZ+iJ8W7KLeYYISfL4n9hY7r1C5FAmCLNURZUwQCpiTl5IKRr
5Vntnu/AL+A8LIvt+xwqjYdbt0kUu7FaNhOdtCqZH7UCmwdwYqrAkphr90pzxRek
XrAJsmFqr2Jk1bmmrAk0
-----END CERTIFICATE-----
