Certificate:
    Data:
        Version: 3 (0x2)
        Serial Number: 17 (0x11)
        Signature Algorithm: sha256WithRSAEncryption
        Issuer: C=US, ST=California, L=Menlo Park, O=pkg5, CN=pubCA1_ta3/emailAddress=pubCA1_ta3
        Validity
            Not Before: Jan 28 02:54:19 2011 GMT
            Not After : Oct 24 02:54:19 2013 GMT
        Subject: C=US, ST=California, L=Menlo Park, O=pkg5, CN=cs5_p1_ta3/emailAddress=cs5_p1_ta3
        Subject Public Key Info:
            Public Key Algorithm: rsaEncryption
            RSA Public Key: (1024 bit)
                Modulus (1024 bit):
                    00:f6:3f:57:e4:be:9d:29:77:e5:df:08:72:be:67:
                    5c:c6:37:e7:ad:62:33:22:74:bb:f2:82:f6:1d:f1:
                    42:ec:56:c2:6e:d0:bc:f3:e6:a6:91:a1:db:4c:b8:
                    27:c9:38:3d:c9:d3:e0:78:d0:51:23:22:b2:3f:6f:
                    4b:1e:14:53:3e:fb:5a:58:f6:fa:f9:cf:ca:ef:89:
                    34:cd:51:c1:ee:89:32:c4:c1:30:fc:63:51:13:4d:
                    b4:55:fd:a5:6c:fd:ea:3c:f7:ea:8c:7d:3e:fb:0d:
                    0e:f7:70:c7:73:ce:01:98:77:fe:db:1f:1c:32:e3:
                    59:ae:26:b1:1d:eb:3c:83:51
                Exponent: 65537 (0x10001)
        X509v3 extensions:
            X509v3 Basic Constraints: critical
                CA:FALSE
            X509v3 Key Usage: 
                Encipher Only
    Signature Algorithm: sha256WithRSAEncryption
        c9:8a:74:1f:0a:fe:1b:e0:19:64:5f:27:2b:1b:e3:d9:45:a0:
        19:64:00:d8:12:f5:35:e5:65:70:4d:f2:b3:f2:b6:89:81:12:
        84:56:f7:11:00:ac:79:f8:9f:c6:4e:77:71:3a:f0:da:50:6b:
        f3:ce:cc:44:38:77:00:c2:d7:33:6f:f4:72:34:33:28:4f:d2:
        fa:aa:2e:8d:e0:37:2b:ac:ab:b5:9b:ad:63:d8:7a:79:07:c2:
        3b:f4:1b:9a:b6:93:1f:31:26:6e:3f:38:a3:9c:c9:19:e4:6e:
        17:6d:49:af:f8:c5:55:cf:24:c8:ee:57:ce:81:e3:75:e1:c3:
        27:cf
-----BEGIN CERTIFICATE-----
MIICfzCCAeigAwIBAgIBETANBgkqhkiG9w0BAQsFADB2MQswCQYDVQQGEwJVUzET
MBEGA1UECBMKQ2FsaWZvcm5pYTETMBEGA1UEBxMKTWVubG8gUGFyazENMAsGA1UE
ChMEcGtnNTETMBEGA1UEAxQKcHViQ0ExX3RhMzEZMBcGCSqGSIb3DQEJARYKcHVi
Q0ExX3RhMzAeFw0xMTAxMjgwMjU0MTlaFw0xMzEwMjQwMjU0MTlaMHYxCzAJBgNV
BAYTAlVTMRMwEQYDVQQIEwpDYWxpZm9ybmlhMRMwEQYDVQQHEwpNZW5sbyBQYXJr
MQ0wCwYDVQQKEwRwa2c1MRMwEQYDVQQDFApjczVfcDFfdGEzMRkwFwYJKoZIhvcN
AQkBFgpjczVfcDFfdGEzMIGfMA0GCSqGSIb3DQEBAQUAA4GNADCBiQKBgQD2P1fk
vp0pd+XfCHK+Z1zGN+etYjMidLvygvYd8ULsVsJu0Lzz5qaRodtMuCfJOD3J0+B4
0FEjIrI/b0seFFM++1pY9vr5z8rviTTNUcHuiTLEwTD8Y1ETTbRV/aVs/eo89+qM
fT77DQ73cMdzzgGYd/7bHxwy41muJrEd6zyDUQIDAQABox0wGzAMBgNVHRMBAf8E
AjAAMAsGA1UdDwQEAwIAATANBgkqhkiG9w0BAQsFAAOBgQDJinQfCv4b4BlkXycr
G+PZRaAZZADYEvU15WVwTfKz8raJgRKEVvcRAKx5+J/GTndxOvDaUGvzzsxEOHcA
wtczb/RyNDMoT9L6qi6N4DcrrKu1m61j2Hp5B8I79BuatpMfMSZuPzijnMkZ5G4X
bUmv+MVVzyTI7lfOgeN14cMnzw==
-----END CERTIFICATE-----
