Certificate:
    Data:
        Version: 3 (0x2)
        Serial Number: 22 (0x16)
    Signature Algorithm: sha256WithRSAEncryption
        Issuer: C=US, ST=California, L=Santa Clara, O=pkg5, CN=ch1_ta3/emailAddress=ch1_ta3
        Validity
            Not Before: Dec 13 00:13:36 2013 GMT
            Not After : Sep  8 00:13:36 2016 GMT
        Subject: C=US, ST=California, L=Santa Clara, O=pkg5, CN=cs6_ch1_ta3/emailAddress=cs6_ch1_ta3
        Subject Public Key Info:
            Public Key Algorithm: rsaEncryption
                Public-Key: (1024 bit)
                Modulus:
                    00:a5:2e:d6:bd:fc:2f:5b:4c:b8:91:90:8e:f6:3f:
                    bb:55:28:8d:4f:9d:47:70:ed:3e:a1:bd:70:42:47:
                    b0:41:09:7b:87:4f:eb:1a:45:9f:09:6d:0a:8c:53:
                    73:a3:3d:fb:3f:dc:67:f4:03:d3:7c:51:15:f3:ab:
                    6c:2c:39:d0:a7:4e:c2:3f:5c:d2:d8:87:f1:03:3b:
                    eb:75:9e:9e:66:d5:3d:d5:e5:6d:32:92:ad:05:b8:
                    c2:3b:48:e5:72:b4:9d:c9:b7:42:4f:d7:b4:a5:8c:
                    a4:88:76:df:11:3e:b1:5c:a2:bd:7d:56:f8:c8:76:
                    00:c4:88:64:0f:36:7e:cb:23
                Exponent: 65537 (0x10001)
        X509v3 extensions:
            X509v3 Basic Constraints: critical
                CA:FALSE
            X509v3 Key Usage: critical
                Encipher Only
    Signature Algorithm: sha256WithRSAEncryption
         48:51:71:0e:8c:c2:42:98:91:34:dc:a9:8a:92:98:18:ce:30:
         fd:61:11:66:9a:87:7a:7b:a6:dd:09:7f:36:9c:7d:d8:19:b6:
         ab:5d:6a:22:b3:4a:00:45:66:1f:ed:d5:1f:b4:cc:c7:a5:07:
         5f:6f:35:2c:bc:52:1a:c9:c0:96:56:fd:82:33:50:7b:2e:43:
         79:2c:cb:e4:e9:22:55:0a:09:96:05:f7:96:e1:22:95:3a:8e:
         66:b1:21:aa:88:f1:21:4a:20:ae:08:b1:27:7e:f6:6b:be:55:
         68:0b:d0:d6:77:30:78:92:75:38:d2:ab:31:79:8e:5d:71:a3:
         b3:2b
-----BEGIN CERTIFICATE-----
MIICgDCCAemgAwIBAgIBFjANBgkqhkiG9w0BAQsFADBxMQswCQYDVQQGEwJVUzET
MBEGA1UECAwKQ2FsaWZvcm5pYTEUMBIGA1UEBwwLU2FudGEgQ2xhcmExDTALBgNV
BAoMBHBrZzUxEDAOBgNVBAMMB2NoMV90YTMxFjAUBgkqhkiG9w0BCQEWB2NoMV90
YTMwHhcNMTMxMjEzMDAxMzM2WhcNMTYwOTA4MDAxMzM2WjB5MQswCQYDVQQGEwJV
UzETMBEGA1UECAwKQ2FsaWZvcm5pYTEUMBIGA1UEBwwLU2FudGEgQ2xhcmExDTAL
BgNVBAoMBHBrZzUxFDASBgNVBAMMC2NzNl9jaDFfdGEzMRowGAYJKoZIhvcNAQkB
FgtjczZfY2gxX3RhMzCBnzANBgkqhkiG9w0BAQEFAAOBjQAwgYkCgYEApS7Wvfwv
W0y4kZCO9j+7VSiNT51HcO0+ob1wQkewQQl7h0/rGkWfCW0KjFNzoz37P9xn9APT
fFEV86tsLDnQp07CP1zS2IfxAzvrdZ6eZtU91eVtMpKtBbjCO0jlcrSdybdCT9e0
pYykiHbfET6xXKK9fVb4yHYAxIhkDzZ+yyMCAwEAAaMgMB4wDAYDVR0TAQH/BAIw
ADAOBgNVHQ8BAf8EBAMCAAEwDQYJKoZIhvcNAQELBQADgYEASFFxDozCQpiRNNyp
ipKYGM4w/WERZpqHenum3Ql/Npx92Bm2q11qIrNKAEVmH+3VH7TMx6UHX281LLxS
GsnAllb9gjNQey5DeSzL5OkiVQoJlgX3luEilTqOZrEhqojxIUogrgixJ372a75V
aAvQ1ncweJJ1ONKrMXmOXXGjsys=
-----END CERTIFICATE-----
