Certificate:
    Data:
        Version: 3 (0x2)
        Serial Number: 18 (0x12)
        Signature Algorithm: sha256WithRSAEncryption
        Issuer: C=US, ST=California, L=Menlo Park, O=pkg5, CN=pubCA1_ta3/emailAddress=pubCA1_ta3
        Validity
            Not Before: Jan 28 02:54:19 2011 GMT
            Not After : Oct 24 02:54:19 2013 GMT
        Subject: C=US, ST=California, L=Menlo Park, O=pkg5, CN=cs6_p1_ta3/emailAddress=cs6_p1_ta3
        Subject Public Key Info:
            Public Key Algorithm: rsaEncryption
            RSA Public Key: (1024 bit)
                Modulus (1024 bit):
                    00:c5:6c:6d:f1:28:4b:56:5d:cf:eb:08:28:a6:85:
                    c9:c4:1a:e6:f9:ca:41:a3:80:c6:52:63:78:43:23:
                    f9:9c:c2:4a:75:d1:fd:c4:d2:1d:da:c7:e1:d6:a7:
                    5e:16:ad:58:c2:55:db:a1:59:06:58:0f:04:1d:ef:
                    68:22:1c:ec:c3:5c:8e:f9:ab:18:5f:63:fc:72:d8:
                    30:4d:c3:ac:b5:88:d9:be:32:fd:fb:04:e8:7e:86:
                    89:96:f7:a9:aa:09:62:f6:db:42:5d:91:90:82:4a:
                    75:ea:7a:a2:3a:13:05:74:c9:c7:75:71:ad:61:3e:
                    a1:a3:40:63:04:44:9a:a7:e1
                Exponent: 65537 (0x10001)
        X509v3 extensions:
            X509v3 Basic Constraints: critical
                CA:FALSE
            X509v3 Key Usage: critical
                Encipher Only
    Signature Algorithm: sha256WithRSAEncryption
        ac:fb:c4:5d:a4:05:8c:fa:cf:99:69:0b:25:aa:5f:75:74:0d:
        b0:96:10:14:71:6c:97:ba:2b:e6:f6:19:80:da:9d:25:89:2f:
        19:04:ec:c8:2b:da:2a:bc:5a:67:4f:55:fb:f4:e7:c1:de:7e:
        d3:d7:5c:03:34:00:f2:25:5d:55:75:b4:bc:5f:88:13:a0:ff:
        8d:6b:ae:78:6f:4e:b8:75:f6:8b:7e:5f:85:ac:1c:2a:62:b9:
        38:72:84:f3:43:50:23:40:79:c8:7b:5c:6d:2a:97:be:76:a8:
        98:73:e4:c2:51:d2:46:1b:37:c3:32:72:a2:83:56:7e:73:46:
        1e:cd
-----BEGIN CERTIFICATE-----
MIICgjCCAeugAwIBAgIBEjANBgkqhkiG9w0BAQsFADB2MQswCQYDVQQGEwJVUzET
MBEGA1UECBMKQ2FsaWZvcm5pYTETMBEGA1UEBxMKTWVubG8gUGFyazENMAsGA1UE
ChMEcGtnNTETMBEGA1UEAxQKcHViQ0ExX3RhMzEZMBcGCSqGSIb3DQEJARYKcHVi
Q0ExX3RhMzAeFw0xMTAxMjgwMjU0MTlaFw0xMzEwMjQwMjU0MTlaMHYxCzAJBgNV
BAYTAlVTMRMwEQYDVQQIEwpDYWxpZm9ybmlhMRMwEQYDVQQHEwpNZW5sbyBQYXJr
MQ0wCwYDVQQKEwRwa2c1MRMwEQYDVQQDFApjczZfcDFfdGEzMRkwFwYJKoZIhvcN
AQkBFgpjczZfcDFfdGEzMIGfMA0GCSqGSIb3DQEBAQUAA4GNADCBiQKBgQDFbG3x
KEtWXc/rCCimhcnEGub5ykGjgMZSY3hDI/mcwkp10f3E0h3ax+HWp14WrVjCVduh
WQZYDwQd72giHOzDXI75qxhfY/xy2DBNw6y1iNm+Mv37BOh+homW96mqCWL220Jd
kZCCSnXqeqI6EwV0ycd1ca1hPqGjQGMERJqn4QIDAQABoyAwHjAMBgNVHRMBAf8E
AjAAMA4GA1UdDwEB/wQEAwIAATANBgkqhkiG9w0BAQsFAAOBgQCs+8RdpAWM+s+Z
aQslql91dA2wlhAUcWyXuivm9hmA2p0liS8ZBOzIK9oqvFpnT1X79OfB3n7T11wD
NADyJV1VdbS8X4gToP+Na654b064dfaLfl+FrBwqYrk4coTzQ1AjQHnIe1xtKpe+
dqiYc+TCUdJGGzfDMnKig1Z+c0YezQ==
-----END CERTIFICATE-----
