Certificate:
    Data:
        Version: 3 (0x2)
        Serial Number: 22 (0x16)
        Signature Algorithm: sha256WithRSAEncryption
        Issuer: C=US, ST=California, L=Menlo Park, O=pkg5, CN=ch1_ta3/emailAddress=ch1_ta3
        Validity
            Not Before: Mar 21 00:49:28 2011 GMT
            Not After : Dec 15 00:49:28 2013 GMT
        Subject: C=US, ST=California, L=Menlo Park, O=pkg5, CN=cs6_ch1_ta3/emailAddress=cs6_ch1_ta3
        Subject Public Key Info:
            Public Key Algorithm: rsaEncryption
            RSA Public Key: (1024 bit)
                Modulus (1024 bit):
                    00:af:e7:4a:85:57:4a:4a:33:36:44:2a:8c:34:c1:
                    49:47:13:f6:c7:2e:b3:e5:92:c0:be:b6:74:ba:61:
                    1b:90:cf:09:1e:2f:d4:3a:d1:fa:1d:76:63:5d:2d:
                    8f:0d:78:c5:93:a1:bf:ec:51:99:7f:90:57:2d:9e:
                    41:46:fc:6a:e1:03:63:41:78:d7:84:cf:5e:d4:dd:
                    37:11:1e:cc:37:05:b7:19:ce:9a:5e:eb:75:8b:19:
                    95:1f:94:d3:d2:b2:ff:88:26:c5:6f:33:59:ad:7b:
                    70:8e:c9:95:dd:cc:31:f0:a7:69:d0:97:e0:cb:7b:
                    42:f1:ea:e5:ed:0d:b7:b3:db
                Exponent: 65537 (0x10001)
        X509v3 extensions:
            X509v3 Basic Constraints: critical
                CA:FALSE
            X509v3 Key Usage: critical
                Encipher Only
    Signature Algorithm: sha256WithRSAEncryption
        7d:42:18:30:29:c0:f1:62:57:00:97:dd:b3:b6:87:f5:af:5e:
        c6:32:71:5e:06:6b:e2:04:04:89:f2:3d:cc:e2:07:92:8a:90:
        be:47:58:6e:dc:9a:c6:f0:85:88:a0:a9:38:58:ee:32:65:a8:
        e8:71:c3:9a:1f:f4:d2:b1:f6:01:46:46:cb:69:1a:9a:c1:7c:
        d0:ca:93:fd:e0:60:22:db:d6:82:03:2e:d7:f8:23:0d:e1:a3:
        4e:5b:6e:61:b2:41:b0:96:78:d8:ae:5e:be:6a:7a:28:b6:83:
        0d:f2:a8:dc:92:89:6c:55:ae:25:98:8a:0d:0c:1f:9d:72:85:
        3c:2d
-----BEGIN CERTIFICATE-----
MIICfjCCAeegAwIBAgIBFjANBgkqhkiG9w0BAQsFADBwMQswCQYDVQQGEwJVUzET
MBEGA1UECBMKQ2FsaWZvcm5pYTETMBEGA1UEBxMKTWVubG8gUGFyazENMAsGA1UE
ChMEcGtnNTEQMA4GA1UEAxQHY2gxX3RhMzEWMBQGCSqGSIb3DQEJARYHY2gxX3Rh
MzAeFw0xMTAzMjEwMDQ5MjhaFw0xMzEyMTUwMDQ5MjhaMHgxCzAJBgNVBAYTAlVT
MRMwEQYDVQQIEwpDYWxpZm9ybmlhMRMwEQYDVQQHEwpNZW5sbyBQYXJrMQ0wCwYD
VQQKEwRwa2c1MRQwEgYDVQQDFAtjczZfY2gxX3RhMzEaMBgGCSqGSIb3DQEJARYL
Y3M2X2NoMV90YTMwgZ8wDQYJKoZIhvcNAQEBBQADgY0AMIGJAoGBAK/nSoVXSkoz
NkQqjDTBSUcT9scus+WSwL62dLphG5DPCR4v1DrR+h12Y10tjw14xZOhv+xRmX+Q
Vy2eQUb8auEDY0F414TPXtTdNxEezDcFtxnOml7rdYsZlR+U09Ky/4gmxW8zWa17
cI7Jld3MMfCnadCX4Mt7QvHq5e0Nt7PbAgMBAAGjIDAeMAwGA1UdEwEB/wQCMAAw
DgYDVR0PAQH/BAQDAgABMA0GCSqGSIb3DQEBCwUAA4GBAH1CGDApwPFiVwCX3bO2
h/WvXsYycV4Ga+IEBInyPcziB5KKkL5HWG7cmsbwhYigqThY7jJlqOhxw5of9NKx
9gFGRstpGprBfNDKk/3gYCLb1oIDLtf4Iw3ho05bbmGyQbCWeNiuXr5qeii2gw3y
qNySiWxVriWYig0MH51yhTwt
-----END CERTIFICATE-----
