Certificate:
    Data:
        Version: 3 (0x2)
        Serial Number: 19 (0x13)
        Signature Algorithm: sha256WithRSAEncryption
        Issuer: C=US, ST=California, L=Menlo Park, O=pkg5, CN=pubCA1_ta3/emailAddress=pubCA1_ta3
        Validity
            Not Before: Jan 28 02:54:19 2011 GMT
            Not After : Oct 24 02:54:19 2013 GMT
        Subject: C=US, ST=California, L=Menlo Park, O=pkg5, CN=cs7_p1_ta3/emailAddress=cs7_p1_ta3
        Subject Public Key Info:
            Public Key Algorithm: rsaEncryption
            RSA Public Key: (1024 bit)
                Modulus (1024 bit):
                    00:ba:54:8d:a5:e9:70:76:e3:0b:e5:b9:8f:21:1f:
                    ef:1e:24:1b:fe:d5:67:95:ba:23:6b:f6:55:69:92:
                    09:5a:a2:2b:09:72:e7:e5:a7:fb:04:59:cf:27:3f:
                    8a:b8:28:39:d9:02:24:eb:7a:44:73:6c:29:74:8f:
                    5a:a4:ff:c4:e1:40:5e:77:8f:24:8c:4e:d8:e0:31:
                    cf:e6:83:e4:4d:5c:77:29:ae:21:58:84:9f:43:d2:
                    8e:cb:d4:75:79:96:59:78:00:de:0f:05:25:b0:bf:
                    81:35:15:27:ac:58:28:09:7a:49:49:17:49:f1:f8:
                    b9:b7:a1:7f:66:2b:b3:25:7b
                Exponent: 65537 (0x10001)
        X509v3 extensions:
            X509v3 Basic Constraints: critical
                CA:FALSE
    Signature Algorithm: sha256WithRSAEncryption
        9f:fc:6d:b4:57:4b:9e:63:53:a8:23:d0:d1:e7:cc:87:bc:37:
        c6:a7:b0:00:ab:f2:a0:c5:e8:07:56:7a:3d:e3:ff:0e:56:ce:
        40:78:09:2e:56:6b:9f:13:99:da:50:c8:90:43:6a:e2:88:b7:
        7d:7d:25:ef:8f:ca:f7:e4:89:f1:07:15:b4:db:48:82:c7:40:
        5f:58:fe:07:8d:4e:f1:30:eb:99:97:fe:58:67:04:52:34:88:
        d5:37:c2:fb:a8:07:c3:47:88:5e:11:0b:aa:f0:18:bb:a0:a1:
        9c:3e:90:b4:44:b9:e5:28:74:6e:9b:ba:e5:40:63:d2:11:aa:
        9c:bb
-----BEGIN CERTIFICATE-----
MIICcjCCAdugAwIBAgIBEzANBgkqhkiG9w0BAQsFADB2MQswCQYDVQQGEwJVUzET
MBEGA1UECBMKQ2FsaWZvcm5pYTETMBEGA1UEBxMKTWVubG8gUGFyazENMAsGA1UE
ChMEcGtnNTETMBEGA1UEAxQKcHViQ0ExX3RhMzEZMBcGCSqGSIb3DQEJARYKcHVi
Q0ExX3RhMzAeFw0xMTAxMjgwMjU0MTlaFw0xMzEwMjQwMjU0MTlaMHYxCzAJBgNV
BAYTAlVTMRMwEQYDVQQIEwpDYWxpZm9ybmlhMRMwEQYDVQQHEwpNZW5sbyBQYXJr
MQ0wCwYDVQQKEwRwa2c1MRMwEQYDVQQDFApjczdfcDFfdGEzMRkwFwYJKoZIhvcN
AQkBFgpjczdfcDFfdGEzMIGfMA0GCSqGSIb3DQEBAQUAA4GNADCBiQKBgQC6VI2l
6XB24wvluY8hH+8eJBv+1WeVuiNr9lVpkglaoisJcuflp/sEWc8nP4q4KDnZAiTr
ekRzbCl0j1qk/8ThQF53jySMTtjgMc/mg+RNXHcpriFYhJ9D0o7L1HV5lll4AN4P
BSWwv4E1FSesWCgJeklJF0nx+Lm3oX9mK7MlewIDAQABoxAwDjAMBgNVHRMBAf8E
AjAAMA0GCSqGSIb3DQEBCwUAA4GBAJ/8bbRXS55jU6gj0NHnzIe8N8ansACr8qDF
6AdWej3j/w5WzkB4CS5Wa58TmdpQyJBDauKIt319Je+PyvfkifEHFbTbSILHQF9Y
/geNTvEw65mX/lhnBFI0iNU3wvuoB8NHiF4RC6rwGLugoZw+kLREueUodG6buuVA
Y9IRqpy7
-----END CERTIFICATE-----
