Certificate:
    Data:
        Version: 3 (0x2)
        Serial Number: 22 (0x16)
    Signature Algorithm: sha256WithRSAEncryption
        Issuer: C=US, ST=California, L=Santa Clara, O=pkg5, CN=ch1_ta3/emailAddress=ch1_ta3
        Validity
            Not Before: Mar 18 23:38:20 2016 GMT
            Not After : Dec 13 23:38:20 2018 GMT
        Subject: C=US, ST=California, L=Santa Clara, O=pkg5, CN=cs7_ch1_ta3/emailAddress=cs7_ch1_ta3
        Subject Public Key Info:
            Public Key Algorithm: rsaEncryption
                Public-Key: (1024 bit)
                Modulus:
                    00:c2:86:28:1e:de:35:f1:c8:e7:05:bd:5c:1c:6c:
                    c3:61:90:cc:ab:ba:b9:2c:2d:b9:db:cb:7d:4d:44:
                    e4:e7:e9:82:71:79:23:10:83:32:39:34:cb:1f:a4:
                    cf:1c:16:2c:a1:36:a4:6b:7f:37:1a:18:4c:26:39:
                    50:cc:12:c9:c5:65:58:be:42:cc:e2:8c:c2:d8:ec:
                    65:cd:96:31:82:52:de:c4:f7:da:b0:aa:51:86:60:
                    1a:13:a2:96:10:c5:84:64:12:f2:61:25:6f:2a:90:
                    d0:9c:1b:9b:4f:11:f1:f9:e0:6d:28:0e:44:9d:e5:
                    1b:7a:f7:45:19:8e:46:e7:2f
                Exponent: 65537 (0x10001)
        X509v3 extensions:
            X509v3 Basic Constraints: critical
                CA:FALSE
    Signature Algorithm: sha256WithRSAEncryption
         4a:03:e8:97:a9:7b:9c:a6:5b:43:63:25:59:d8:4a:ba:f8:69:
         9f:5e:8e:b2:9d:78:cf:10:c3:dc:a6:b6:d4:0a:5d:29:a5:8a:
         ae:f9:a4:47:15:71:ef:60:ba:6f:e1:89:73:d1:6e:84:2b:09:
         e5:b4:c6:49:2d:51:e2:a2:bf:58:ce:ac:a0:f9:3a:1f:ab:d3:
         29:03:f2:44:b6:97:59:7c:d3:3f:bc:a6:ed:d9:fb:2c:4e:37:
         d3:94:52:76:70:51:e0:af:1b:a5:0f:b9:90:94:02:20:c1:3e:
         9d:57:82:27:27:77:61:99:e2:dc:ce:a9:2b:3e:a3:db:04:11:
         31:e1:35:9e:b6:e0:52:96:cd:ff:26:a2:2d:39:b0:ef:b4:a2:
         f3:aa:e4:a2:3c:85:b4:62:0d:61:97:17:8e:d2:52:01:31:f6:
         5c:44:e1:66:bb:06:18:e5:ed:67:73:96:f8:8e:45:aa:39:06:
         e5:c1:7b:0e:d9:2e:5b:5a:60:be:3e:82:5e:b6:9b:19:25:90:
         6f:d1:86:89:7f:55:d5:c9:8b:62:5b:d0:60:32:49:fa:b6:56:
         24:84:eb:b0:a8:87:37:25:81:35:14:19:42:fb:01:44:3c:87:
         b3:d9:84:35:93:9b:b9:dd:d2:18:d0:a2:e3:d6:5d:0a:e2:52:
         d7:72:27:2b
-----BEGIN CERTIFICATE-----
MIIC8TCCAdmgAwIBAgIBFjANBgkqhkiG9w0BAQsFADBxMQswCQYDVQQGEwJVUzET
MBEGA1UECAwKQ2FsaWZvcm5pYTEUMBIGA1UEBwwLU2FudGEgQ2xhcmExDTALBgNV
BAoMBHBrZzUxEDAOBgNVBAMMB2NoMV90YTMxFjAUBgkqhkiG9w0BCQEWB2NoMV90
YTMwHhcNMTYwMzE4MjMzODIwWhcNMTgxMjEzMjMzODIwWjB5MQswCQYDVQQGEwJV
UzETMBEGA1UECAwKQ2FsaWZvcm5pYTEUMBIGA1UEBwwLU2FudGEgQ2xhcmExDTAL
BgNVBAoMBHBrZzUxFDASBgNVBAMMC2NzN19jaDFfdGEzMRowGAYJKoZIhvcNAQkB
FgtjczdfY2gxX3RhMzCBnzANBgkqhkiG9w0BAQEFAAOBjQAwgYkCgYEAwoYoHt41
8cjnBb1cHGzDYZDMq7q5LC2528t9TUTk5+mCcXkjEIMyOTTLH6TPHBYsoTaka383
GhhMJjlQzBLJxWVYvkLM4ozC2OxlzZYxglLexPfasKpRhmAaE6KWEMWEZBLyYSVv
KpDQnBubTxHx+eBtKA5EneUbevdFGY5G5y8CAwEAAaMQMA4wDAYDVR0TAQH/BAIw
ADANBgkqhkiG9w0BAQsFAAOCAQEASgPol6l7nKZbQ2MlWdhKuvhpn16Osp14zxDD
3Ka21ApdKaWKrvmkRxVx72C6b+GJc9FuhCsJ5bTGSS1R4qK/WM6soPk6H6vTKQPy
RLaXWXzTP7ym7dn7LE4305RSdnBR4K8bpQ+5kJQCIME+nVeCJyd3YZni3M6pKz6j
2wQRMeE1nrbgUpbN/yaiLTmw77Si86rkojyFtGINYZcXjtJSATH2XEThZrsGGOXt
Z3OW+I5FqjkG5cF7DtkuW1pgvj6CXrabGSWQb9GGiX9V1cmLYlvQYDJJ+rZWJITr
sKiHNyWBNRQZQvsBRDyHs9mENZObud3SGNCi49ZdCuJS13InKw==
-----END CERTIFICATE-----
