Certificate:
    Data:
        Version: 3 (0x2)
        Serial Number: 23 (0x17)
        Signature Algorithm: sha256WithRSAEncryption
        Issuer: C=US, ST=California, L=Menlo Park, O=pkg5, CN=ch1_ta3/emailAddress=ch1_ta3
        Validity
            Not Before: Mar 21 00:49:28 2011 GMT
            Not After : Dec 15 00:49:28 2013 GMT
        Subject: C=US, ST=California, L=Menlo Park, O=pkg5, CN=cs7_ch1_ta3/emailAddress=cs7_ch1_ta3
        Subject Public Key Info:
            Public Key Algorithm: rsaEncryption
            RSA Public Key: (1024 bit)
                Modulus (1024 bit):
                    00:bb:2d:57:4a:c4:d9:24:b6:78:a5:dc:9d:7b:b9:
                    68:c6:63:fc:d4:8a:90:b8:24:50:8d:b9:34:5b:c0:
                    ec:16:bf:c9:30:e0:80:70:7a:6c:9e:55:48:95:13:
                    16:20:5b:a1:7b:10:de:e8:12:65:21:c5:bf:b9:36:
                    35:76:4f:79:66:49:82:76:69:a1:22:8e:d1:4c:d9:
                    21:e6:50:b8:31:f1:66:54:20:cc:98:a9:22:bd:53:
                    d2:af:f6:f0:09:ca:1b:a9:85:a5:61:51:66:1d:54:
                    58:12:6f:35:5b:ac:4c:7a:8b:4f:63:38:49:e5:d8:
                    02:88:46:75:73:f2:40:fe:c9
                Exponent: 65537 (0x10001)
        X509v3 extensions:
            X509v3 Basic Constraints: critical
                CA:FALSE
    Signature Algorithm: sha256WithRSAEncryption
        6f:28:9e:58:6f:5f:79:47:4e:4c:cc:16:0b:d7:7b:f7:47:bd:
        3c:2c:0a:5c:7b:9f:18:15:ae:5f:77:85:7e:9b:a5:0b:67:86:
        6f:b6:1b:a1:18:c8:c2:1d:e9:5d:1b:af:31:0f:59:18:95:4a:
        1b:0c:59:1d:99:3a:63:53:95:b5:f2:8f:3d:52:5d:9c:9d:e0:
        25:0e:1b:b6:38:e8:d6:8b:a6:f0:43:c9:c3:9f:f1:6f:6a:de:
        4d:24:aa:06:44:8a:c5:ab:8f:d4:53:64:30:44:e2:23:2c:ae:
        80:b0:ca:f2:56:7d:bd:23:62:fa:70:25:eb:0c:79:20:98:f9:
        54:25
-----BEGIN CERTIFICATE-----
MIICbjCCAdegAwIBAgIBFzANBgkqhkiG9w0BAQsFADBwMQswCQYDVQQGEwJVUzET
MBEGA1UECBMKQ2FsaWZvcm5pYTETMBEGA1UEBxMKTWVubG8gUGFyazENMAsGA1UE
ChMEcGtnNTEQMA4GA1UEAxQHY2gxX3RhMzEWMBQGCSqGSIb3DQEJARYHY2gxX3Rh
MzAeFw0xMTAzMjEwMDQ5MjhaFw0xMzEyMTUwMDQ5MjhaMHgxCzAJBgNVBAYTAlVT
MRMwEQYDVQQIEwpDYWxpZm9ybmlhMRMwEQYDVQQHEwpNZW5sbyBQYXJrMQ0wCwYD
VQQKEwRwa2c1MRQwEgYDVQQDFAtjczdfY2gxX3RhMzEaMBgGCSqGSIb3DQEJARYL
Y3M3X2NoMV90YTMwgZ8wDQYJKoZIhvcNAQEBBQADgY0AMIGJAoGBALstV0rE2SS2
eKXcnXu5aMZj/NSKkLgkUI25NFvA7Ba/yTDggHB6bJ5VSJUTFiBboXsQ3ugSZSHF
v7k2NXZPeWZJgnZpoSKO0UzZIeZQuDHxZlQgzJipIr1T0q/28AnKG6mFpWFRZh1U
WBJvNVusTHqLT2M4SeXYAohGdXPyQP7JAgMBAAGjEDAOMAwGA1UdEwEB/wQCMAAw
DQYJKoZIhvcNAQELBQADgYEAbyieWG9feUdOTMwWC9d790e9PCwKXHufGBWuX3eF
fpulC2eGb7YboRjIwh3pXRuvMQ9ZGJVKGwxZHZk6Y1OVtfKPPVJdnJ3gJQ4btjjo
1oum8EPJw5/xb2reTSSqBkSKxauP1FNkMETiIyyugLDK8lZ9vSNi+nAl6wx5IJj5
VCU=
-----END CERTIFICATE-----
