Certificate:
    Data:
        Version: 3 (0x2)
        Serial Number: 23 (0x17)
    Signature Algorithm: sha256WithRSAEncryption
        Issuer: C=US, ST=California, L=Santa Clara, O=pkg5, CN=ch1_ta3/emailAddress=ch1_ta3
        Validity
            Not Before: Jan 22 01:57:57 2016 GMT
            Not After : Oct 18 01:57:57 2018 GMT
        Subject: C=US, ST=California, L=Santa Clara, O=pkg5, CN=cs7_ch1_ta3/emailAddress=cs7_ch1_ta3
        Subject Public Key Info:
            Public Key Algorithm: rsaEncryption
                Public-Key: (1024 bit)
                Modulus:
                    00:a4:2c:ba:05:57:f3:8d:56:fb:58:aa:9e:dd:4e:
                    3c:72:1e:5f:33:19:d9:d0:13:f8:af:41:df:83:4e:
                    80:16:2c:c5:16:04:57:67:6e:ac:10:b9:b4:43:5c:
                    b1:bd:42:87:f3:bc:35:6d:91:33:34:25:81:23:6e:
                    ec:20:af:4d:46:5e:2c:b1:89:c2:8f:32:f6:5b:83:
                    ed:3d:51:13:bc:59:3b:ec:0d:62:54:77:79:f5:c9:
                    f5:8f:ac:b4:0e:2c:9d:20:00:b8:1f:de:c1:cc:fd:
                    32:8b:44:fc:8d:44:1e:07:e7:16:a5:ea:a7:17:5b:
                    7d:36:08:5a:15:41:52:12:69
                Exponent: 65537 (0x10001)
        X509v3 extensions:
            X509v3 Basic Constraints: critical
                CA:FALSE
    Signature Algorithm: sha256WithRSAEncryption
         8f:1e:a9:f9:4c:cc:3f:50:51:7d:4e:98:d9:93:7a:96:21:64:
         16:4a:39:7b:d8:40:af:94:86:85:ab:ce:d7:56:46:ac:a3:03:
         19:f5:cf:9b:c5:6e:4c:f1:4f:b4:82:8a:ae:d4:32:b9:a7:73:
         79:b9:de:70:f7:fb:e0:72:45:fe:50:27:f9:80:3c:ed:0a:6a:
         18:5c:35:ea:a3:b3:fe:f4:84:a1:8a:53:36:d2:08:d3:f5:b3:
         a8:14:b3:77:da:10:c0:d8:e5:d6:3e:fe:6e:64:12:28:1d:f9:
         f5:2c:44:4a:a7:1d:e0:c9:c6:54:c9:15:30:c6:cb:2e:a6:9f:
         aa:37:7b:07:c1:4e:27:ec:ab:92:3a:9c:51:26:4e:5f:ce:29:
         23:a8:aa:b8:6c:e8:1a:93:17:ba:46:32:8d:63:54:98:1d:7f:
         b9:b2:1a:40:f9:63:47:e2:da:08:00:33:ec:9b:07:9a:4e:1f:
         c8:ef:ba:e1:dd:8a:65:67:ef:d4:b5:a6:3c:5a:5f:b3:1e:72:
         d5:65:19:ed:bf:66:99:5e:40:b4:8b:9c:16:83:b0:bd:0f:f6:
         7e:6e:24:62:bb:54:23:3b:a8:19:6f:0b:1b:ef:f7:d1:14:a0:
         79:79:12:3d:4e:2f:84:31:3d:69:7d:bb:d2:76:e5:b7:df:71:
         26:8a:72:13
-----BEGIN CERTIFICATE-----
MIIC8TCCAdmgAwIBAgIBFzANBgkqhkiG9w0BAQsFADBxMQswCQYDVQQGEwJVUzET
MBEGA1UECAwKQ2FsaWZvcm5pYTEUMBIGA1UEBwwLU2FudGEgQ2xhcmExDTALBgNV
BAoMBHBrZzUxEDAOBgNVBAMMB2NoMV90YTMxFjAUBgkqhkiG9w0BCQEWB2NoMV90
YTMwHhcNMTYwMTIyMDE1NzU3WhcNMTgxMDE4MDE1NzU3WjB5MQswCQYDVQQGEwJV
UzETMBEGA1UECAwKQ2FsaWZvcm5pYTEUMBIGA1UEBwwLU2FudGEgQ2xhcmExDTAL
BgNVBAoMBHBrZzUxFDASBgNVBAMMC2NzN19jaDFfdGEzMRowGAYJKoZIhvcNAQkB
FgtjczdfY2gxX3RhMzCBnzANBgkqhkiG9w0BAQEFAAOBjQAwgYkCgYEApCy6BVfz
jVb7WKqe3U48ch5fMxnZ0BP4r0Hfg06AFizFFgRXZ26sELm0Q1yxvUKH87w1bZEz
NCWBI27sIK9NRl4ssYnCjzL2W4PtPVETvFk77A1iVHd59cn1j6y0DiydIAC4H97B
zP0yi0T8jUQeB+cWpeqnF1t9NghaFUFSEmkCAwEAAaMQMA4wDAYDVR0TAQH/BAIw
ADANBgkqhkiG9w0BAQsFAAOCAQEAjx6p+UzMP1BRfU6Y2ZN6liFkFko5e9hAr5SG
havO11ZGrKMDGfXPm8VuTPFPtIKKrtQyuadzebnecPf74HJF/lAn+YA87QpqGFw1
6qOz/vSEoYpTNtII0/WzqBSzd9oQwNjl1j7+bmQSKB359SxESqcd4MnGVMkVMMbL
Lqafqjd7B8FOJ+yrkjqcUSZOX84pI6iquGzoGpMXukYyjWNUmB1/ubIaQPljR+La
CAAz7JsHmk4fyO+64d2KZWfv1LWmPFpfsx5y1WUZ7b9mmV5AtIucFoOwvQ/2fm4k
YrtUIzuoGW8LG+/30RSgeXkSPU4vhDE9aX270nblt99xJopyEw==
-----END CERTIFICATE-----
