Certificate:
    Data:
        Version: 3 (0x2)
        Serial Number: 23 (0x17)
    Signature Algorithm: sha256WithRSAEncryption
        Issuer: C=US, ST=California, L=Santa Clara, O=pkg5, CN=ch1_ta3/emailAddress=ch1_ta3
        Validity
            Not Before: Sep 22 05:33:24 2021 GMT
            Not After : Jun 18 05:33:24 2024 GMT
        Subject: C=US, ST=California, L=Santa Clara, O=pkg5, CN=cs8_ch1_ta3/emailAddress=cs8_ch1_ta3
        Subject Public Key Info:
            Public Key Algorithm: rsaEncryption
                Public-Key: (1024 bit)
                Modulus:
                    00:d6:3a:d9:65:09:5f:ac:1f:fa:0a:c7:2f:0d:b2:
                    49:d9:76:e9:05:8f:13:bc:20:14:c7:85:74:ff:4d:
                    39:22:44:65:73:55:75:64:81:5b:d9:9a:6a:29:59:
                    8d:06:4e:20:db:99:81:23:10:11:1a:4e:02:7e:b0:
                    3a:46:b7:df:da:b9:38:aa:d3:96:ef:a8:88:ba:c3:
                    42:f2:38:17:87:f4:6e:0c:9d:eb:8d:d2:a6:bd:a4:
                    13:e2:4d:4c:f1:d5:cf:d4:bc:d2:7c:6c:04:0b:8a:
                    c0:dd:00:b5:b5:a2:40:41:a5:16:8c:7f:da:45:e5:
                    d5:88:ff:f7:44:b2:f8:98:db
                Exponent: 65537 (0x10001)
        X509v3 extensions:
            X509v3 Basic Constraints: critical
                CA:TRUE
            X509v3 Key Usage: critical
                Digital Signature
    Signature Algorithm: sha256WithRSAEncryption
         5a:b3:ae:52:7d:2d:fa:a0:66:0d:4d:40:99:6f:b6:20:8b:fe:
         7e:7f:30:9c:f4:4d:86:6b:8d:dc:84:10:a5:9e:ed:ee:62:a4:
         11:9c:cd:a4:85:a1:f4:29:cf:77:e4:3b:11:80:d6:8f:42:c5:
         c6:c7:a4:9b:f2:89:01:bd:02:07:75:04:a4:29:4f:c5:6c:f3:
         55:2b:b4:7d:5e:53:e0:14:24:a3:12:06:1a:15:cf:89:60:91:
         bc:73:e4:15:ef:d3:57:eb:f5:ec:d3:a7:db:b5:66:db:45:32:
         aa:f6:4c:35:be:55:db:cb:a3:15:42:85:b0:3c:69:7b:78:68:
         4f:38:d6:8e:06:2f:0b:59:d6:e2:15:3d:33:20:ce:a3:7c:a9:
         6f:93:7d:0a:90:cd:c8:09:78:0b:98:f5:98:00:67:68:27:c7:
         c3:39:e6:9c:f7:53:9b:92:75:98:71:81:42:88:c5:df:6f:db:
         80:06:16:f6:9a:c5:d8:bb:8a:0d:16:b5:0e:5a:dd:d5:79:7a:
         16:45:d1:e6:89:70:dd:9f:50:ec:f2:2b:3f:e4:b2:e3:f8:0b:
         12:99:89:6f:be:8d:3d:7e:82:db:56:f6:72:5b:9e:91:7b:3f:
         00:a7:4a:93:47:05:a4:f2:92:2c:57:03:4d:68:0f:9a:fc:ca:
         76:7d:53:35
-----BEGIN CERTIFICATE-----
MIIDBDCCAeygAwIBAgIBFzANBgkqhkiG9w0BAQsFADBxMQswCQYDVQQGEwJVUzET
MBEGA1UECAwKQ2FsaWZvcm5pYTEUMBIGA1UEBwwLU2FudGEgQ2xhcmExDTALBgNV
BAoMBHBrZzUxEDAOBgNVBAMMB2NoMV90YTMxFjAUBgkqhkiG9w0BCQEWB2NoMV90
YTMwHhcNMjEwOTIyMDUzMzI0WhcNMjQwNjE4MDUzMzI0WjB5MQswCQYDVQQGEwJV
UzETMBEGA1UECAwKQ2FsaWZvcm5pYTEUMBIGA1UEBwwLU2FudGEgQ2xhcmExDTAL
BgNVBAoMBHBrZzUxFDASBgNVBAMMC2NzOF9jaDFfdGEzMRowGAYJKoZIhvcNAQkB
FgtjczhfY2gxX3RhMzCBnzANBgkqhkiG9w0BAQEFAAOBjQAwgYkCgYEA1jrZZQlf
rB/6CscvDbJJ2XbpBY8TvCAUx4V0/005IkRlc1V1ZIFb2ZpqKVmNBk4g25mBIxAR
Gk4CfrA6Rrff2rk4qtOW76iIusNC8jgXh/RuDJ3rjdKmvaQT4k1M8dXP1LzSfGwE
C4rA3QC1taJAQaUWjH/aReXViP/3RLL4mNsCAwEAAaMjMCEwDwYDVR0TAQH/BAUw
AwEB/zAOBgNVHQ8BAf8EBAMCB4AwDQYJKoZIhvcNAQELBQADggEBAFqzrlJ9Lfqg
Zg1NQJlvtiCL/n5/MJz0TYZrjdyEEKWe7e5ipBGczaSFofQpz3fkOxGA1o9CxcbH
pJvyiQG9Agd1BKQpT8Vs81UrtH1eU+AUJKMSBhoVz4lgkbxz5BXv01fr9ezTp9u1
ZttFMqr2TDW+VdvLoxVChbA8aXt4aE841o4GLwtZ1uIVPTMgzqN8qW+TfQqQzcgJ
eAuY9ZgAZ2gnx8M55pz3U5uSdZhxgUKIxd9v24AGFvaaxdi7ig0WtQ5a3dV5ehZF
0eaJcN2fUOzyKz/ksuP4CxKZiW++jT1+gttW9nJbnpF7PwCnSpNHBaTykixXA01o
D5r8ynZ9UzU=
-----END CERTIFICATE-----
