Certificate:
    Data:
        Version: 3 (0x2)
        Serial Number: 23 (0x17)
    Signature Algorithm: sha256WithRSAEncryption
        Issuer: C=US, ST=California, L=Santa Clara, O=pkg5, CN=ch1_ta3/emailAddress=ch1_ta3
        Validity
            Not Before: Mar 18 23:38:21 2016 GMT
            Not After : Dec 13 23:38:21 2018 GMT
        Subject: C=US, ST=California, L=Santa Clara, O=pkg5, CN=cs8_ch1_ta3/emailAddress=cs8_ch1_ta3
        Subject Public Key Info:
            Public Key Algorithm: rsaEncryption
                Public-Key: (1024 bit)
                Modulus:
                    00:e0:80:3a:cd:70:0c:42:ab:17:7a:dc:77:42:c3:
                    81:06:be:ad:0f:cc:d2:a0:aa:87:d6:73:bc:dc:6d:
                    4a:3b:c0:a0:e2:9c:f7:8e:98:74:e5:f2:a0:46:d8:
                    4a:b4:8b:8c:7e:b6:c7:d5:1d:5b:09:7a:55:2a:74:
                    c3:92:0f:2e:cc:22:60:29:23:99:10:16:0c:3e:49:
                    35:30:7d:37:79:86:c1:1c:4f:cb:ea:58:6f:1b:c4:
                    3e:56:7a:de:93:42:35:25:a0:dc:00:91:6a:d7:d3:
                    f3:94:4e:e3:60:0b:8a:ff:74:88:8e:4f:2e:38:df:
                    80:b9:63:8d:a8:d9:ae:d9:3d
                Exponent: 65537 (0x10001)
        X509v3 extensions:
            X509v3 Basic Constraints: critical
                CA:TRUE
            X509v3 Key Usage: critical
                Digital Signature
    Signature Algorithm: sha256WithRSAEncryption
         07:cd:5c:01:b9:35:d0:91:62:aa:65:76:ef:e5:80:09:9b:12:
         ed:e2:41:08:6e:b6:c9:b0:bd:c6:32:08:15:62:33:89:d8:fe:
         a8:ff:62:99:e4:6d:37:e2:3e:5d:06:63:66:39:3d:5d:ef:9d:
         b0:45:be:62:e3:4a:ba:9a:4a:4c:a3:9b:06:f9:8b:60:3e:8f:
         9d:27:4e:fe:5c:ea:1d:cb:d0:5a:0e:52:98:20:95:b9:f5:95:
         28:6f:87:bf:e6:76:17:6c:5a:89:17:b4:db:07:d5:62:ee:ca:
         32:f9:10:ed:64:fc:dd:1b:ee:ab:fe:56:3c:1e:23:1d:bd:46:
         fc:f0:62:f5:45:8f:34:53:23:03:9c:52:78:b2:ae:87:cf:ef:
         e0:7e:59:ee:d6:c3:29:35:da:92:c7:c0:1b:7d:52:38:e4:22:
         01:38:ec:b0:c6:fd:fa:00:dd:d1:40:71:8c:47:68:2e:5c:58:
         26:e1:ea:24:aa:57:25:88:a8:2e:b8:22:0a:cb:dd:f0:bb:45:
         35:f3:3b:be:ff:dc:85:c6:a8:d7:fd:51:21:d5:fa:9c:ee:d9:
         e4:cf:2a:8d:d7:ec:91:17:32:f2:13:e3:74:40:b5:e5:ba:b6:
         9a:d0:36:01:3c:dc:b9:67:2a:8f:cf:bc:b0:0d:b6:a4:c7:9a:
         1a:7d:78:c1
-----BEGIN CERTIFICATE-----
MIIDBDCCAeygAwIBAgIBFzANBgkqhkiG9w0BAQsFADBxMQswCQYDVQQGEwJVUzET
MBEGA1UECAwKQ2FsaWZvcm5pYTEUMBIGA1UEBwwLU2FudGEgQ2xhcmExDTALBgNV
BAoMBHBrZzUxEDAOBgNVBAMMB2NoMV90YTMxFjAUBgkqhkiG9w0BCQEWB2NoMV90
YTMwHhcNMTYwMzE4MjMzODIxWhcNMTgxMjEzMjMzODIxWjB5MQswCQYDVQQGEwJV
UzETMBEGA1UECAwKQ2FsaWZvcm5pYTEUMBIGA1UEBwwLU2FudGEgQ2xhcmExDTAL
BgNVBAoMBHBrZzUxFDASBgNVBAMMC2NzOF9jaDFfdGEzMRowGAYJKoZIhvcNAQkB
FgtjczhfY2gxX3RhMzCBnzANBgkqhkiG9w0BAQEFAAOBjQAwgYkCgYEA4IA6zXAM
QqsXetx3QsOBBr6tD8zSoKqH1nO83G1KO8Cg4pz3jph05fKgRthKtIuMfrbH1R1b
CXpVKnTDkg8uzCJgKSOZEBYMPkk1MH03eYbBHE/L6lhvG8Q+Vnrek0I1JaDcAJFq
19PzlE7jYAuK/3SIjk8uON+AuWONqNmu2T0CAwEAAaMjMCEwDwYDVR0TAQH/BAUw
AwEB/zAOBgNVHQ8BAf8EBAMCB4AwDQYJKoZIhvcNAQELBQADggEBAAfNXAG5NdCR
Yqpldu/lgAmbEu3iQQhutsmwvcYyCBViM4nY/qj/YpnkbTfiPl0GY2Y5PV3vnbBF
vmLjSrqaSkyjmwb5i2A+j50nTv5c6h3L0FoOUpgglbn1lShvh7/mdhdsWokXtNsH
1WLuyjL5EO1k/N0b7qv+VjweIx29RvzwYvVFjzRTIwOcUniyrofP7+B+We7Wwyk1
2pLHwBt9UjjkIgE47LDG/foA3dFAcYxHaC5cWCbh6iSqVyWIqC64IgrL3fC7RTXz
O77/3IXGqNf9USHV+pzu2eTPKo3X7JEXMvIT43RAteW6tprQNgE83LlnKo/PvLAN
tqTHmhp9eME=
-----END CERTIFICATE-----
