Certificate:
    Data:
        Version: 3 (0x2)
        Serial Number: 20 (0x14)
        Signature Algorithm: sha256WithRSAEncryption
        Issuer: C=US, ST=California, L=Menlo Park, O=pkg5, CN=pubCA1_ta3/emailAddress=pubCA1_ta3
        Validity
            Not Before: Jan 28 02:54:20 2011 GMT
            Not After : Oct 24 02:54:20 2013 GMT
        Subject: C=US, ST=California, L=Menlo Park, O=pkg5, CN=cs8_p1_ta3/emailAddress=cs8_p1_ta3
        Subject Public Key Info:
            Public Key Algorithm: rsaEncryption
            RSA Public Key: (1024 bit)
                Modulus (1024 bit):
                    00:ad:72:4f:d0:b8:2b:c4:74:c7:91:71:75:5e:89:
                    88:2f:d8:bd:af:cd:40:a0:7b:48:87:a4:dc:63:96:
                    05:79:4c:ba:d7:80:ec:bf:7f:37:9e:6f:62:4c:d6:
                    e9:10:f0:46:1b:5c:23:f7:57:a1:1f:63:77:b5:4e:
                    05:fd:17:7e:4a:a6:6d:ed:46:39:c7:e0:45:7b:b7:
                    6f:39:27:64:57:35:4a:d8:01:37:c6:8e:5b:af:28:
                    d7:a9:6c:94:23:4b:93:e1:e5:ab:db:7a:0d:b0:2b:
                    1d:e8:99:f5:2e:89:e9:f6:37:aa:a8:09:fb:e2:0a:
                    32:59:0b:ec:1b:4e:e5:ad:43
                Exponent: 65537 (0x10001)
        X509v3 extensions:
            X509v3 Basic Constraints: critical
                CA:TRUE
            X509v3 Key Usage: critical
                Digital Signature
    Signature Algorithm: sha256WithRSAEncryption
        65:b5:1a:f3:d3:d8:24:ba:ef:c8:38:30:6f:df:d5:06:2d:a3:
        f0:26:48:7f:77:28:a6:3b:48:40:36:bf:16:50:92:aa:12:33:
        e9:70:59:be:7a:72:66:b8:64:5e:d8:22:c7:c8:29:a5:e3:00:
        31:11:91:e6:b5:1c:00:6e:76:be:07:e2:35:62:88:c9:d9:f5:
        f0:08:bf:2d:b5:e1:db:31:55:86:ee:0b:ee:cd:2f:6b:e0:82:
        15:42:46:d1:1a:92:b3:f1:7e:4b:1e:65:9e:7c:a3:95:aa:48:
        7f:23:c8:12:b2:dd:23:57:14:87:94:b5:62:be:bf:ba:44:6e:
        23:af
-----BEGIN CERTIFICATE-----
MIIChTCCAe6gAwIBAgIBFDANBgkqhkiG9w0BAQsFADB2MQswCQYDVQQGEwJVUzET
MBEGA1UECBMKQ2FsaWZvcm5pYTETMBEGA1UEBxMKTWVubG8gUGFyazENMAsGA1UE
ChMEcGtnNTETMBEGA1UEAxQKcHViQ0ExX3RhMzEZMBcGCSqGSIb3DQEJARYKcHVi
Q0ExX3RhMzAeFw0xMTAxMjgwMjU0MjBaFw0xMzEwMjQwMjU0MjBaMHYxCzAJBgNV
BAYTAlVTMRMwEQYDVQQIEwpDYWxpZm9ybmlhMRMwEQYDVQQHEwpNZW5sbyBQYXJr
MQ0wCwYDVQQKEwRwa2c1MRMwEQYDVQQDFApjczhfcDFfdGEzMRkwFwYJKoZIhvcN
AQkBFgpjczhfcDFfdGEzMIGfMA0GCSqGSIb3DQEBAQUAA4GNADCBiQKBgQCtck/Q
uCvEdMeRcXVeiYgv2L2vzUCge0iHpNxjlgV5TLrXgOy/fzeeb2JM1ukQ8EYbXCP3
V6EfY3e1TgX9F35Kpm3tRjnH4EV7t285J2RXNUrYATfGjluvKNepbJQjS5Ph5avb
eg2wKx3omfUuien2N6qoCfviCjJZC+wbTuWtQwIDAQABoyMwITAPBgNVHRMBAf8E
BTADAQH/MA4GA1UdDwEB/wQEAwIHgDANBgkqhkiG9w0BAQsFAAOBgQBltRrz09gk
uu/IODBv39UGLaPwJkh/dyimO0hANr8WUJKqEjPpcFm+enJmuGRe2CLHyCml4wAx
EZHmtRwAbna+B+I1YojJ2fXwCL8tteHbMVWG7gvuzS9r4IIVQkbRGpKz8X5LHmWe
fKOVqkh/I8gSst0jVxSHlLVivr+6RG4jrw==
-----END CERTIFICATE-----
