Certificate:
    Data:
        Version: 3 (0x2)
        Serial Number: 24 (0x18)
        Signature Algorithm: sha256WithRSAEncryption
        Issuer: C=US, ST=California, L=Menlo Park, O=pkg5, CN=ch1_ta3/emailAddress=ch1_ta3
        Validity
            Not Before: Mar 21 00:49:29 2011 GMT
            Not After : Dec 15 00:49:29 2013 GMT
        Subject: C=US, ST=California, L=Menlo Park, O=pkg5, CN=cs8_ch1_ta3/emailAddress=cs8_ch1_ta3
        Subject Public Key Info:
            Public Key Algorithm: rsaEncryption
            RSA Public Key: (1024 bit)
                Modulus (1024 bit):
                    00:d8:42:22:89:49:49:9b:1f:c3:68:43:93:5b:e7:
                    be:cd:d6:0d:24:cb:d8:6a:bd:64:c3:8f:31:6f:4f:
                    38:c4:ca:39:4e:16:35:32:88:bb:03:f0:04:06:aa:
                    e4:e1:11:24:db:b1:e2:d1:1b:3a:45:49:da:0f:36:
                    b6:79:85:4a:42:e4:01:83:75:4d:1e:81:69:30:f0:
                    64:20:19:63:c0:d4:5d:50:76:bb:a8:e4:56:b7:bb:
                    e0:54:64:f9:73:c7:eb:84:a6:da:4a:58:16:00:a8:
                    cb:e5:c5:b0:1f:ad:eb:fc:2c:08:93:ee:2e:a3:26:
                    13:3c:a6:46:64:a5:df:f6:57
                Exponent: 65537 (0x10001)
        X509v3 extensions:
            X509v3 Basic Constraints: critical
                CA:TRUE
            X509v3 Key Usage: critical
                Digital Signature
    Signature Algorithm: sha256WithRSAEncryption
        30:5f:8a:7d:24:03:2b:2a:c1:cf:07:27:e0:f6:d4:1e:fe:8a:
        cf:57:06:6b:60:70:41:b2:53:75:14:b9:f8:1c:b7:f0:02:44:
        4d:89:78:51:7d:3a:b9:b2:f9:54:76:67:ab:53:11:ac:b2:ac:
        75:5d:48:f7:55:c4:0a:e4:03:3d:ba:30:75:f1:a1:28:71:3e:
        9e:e5:35:84:70:54:a4:d7:f0:ca:5b:29:33:3e:6b:32:88:eb:
        49:9d:46:c7:12:75:96:ec:81:91:b8:5e:01:a6:c1:ec:05:a2:
        84:46:9b:39:60:7b:91:d1:9e:4f:c8:dd:00:15:f3:aa:1a:e4:
        32:85
-----BEGIN CERTIFICATE-----
MIICgTCCAeqgAwIBAgIBGDANBgkqhkiG9w0BAQsFADBwMQswCQYDVQQGEwJVUzET
MBEGA1UECBMKQ2FsaWZvcm5pYTETMBEGA1UEBxMKTWVubG8gUGFyazENMAsGA1UE
ChMEcGtnNTEQMA4GA1UEAxQHY2gxX3RhMzEWMBQGCSqGSIb3DQEJARYHY2gxX3Rh
MzAeFw0xMTAzMjEwMDQ5MjlaFw0xMzEyMTUwMDQ5MjlaMHgxCzAJBgNVBAYTAlVT
MRMwEQYDVQQIEwpDYWxpZm9ybmlhMRMwEQYDVQQHEwpNZW5sbyBQYXJrMQ0wCwYD
VQQKEwRwa2c1MRQwEgYDVQQDFAtjczhfY2gxX3RhMzEaMBgGCSqGSIb3DQEJARYL
Y3M4X2NoMV90YTMwgZ8wDQYJKoZIhvcNAQEBBQADgY0AMIGJAoGBANhCIolJSZsf
w2hDk1vnvs3WDSTL2Gq9ZMOPMW9POMTKOU4WNTKIuwPwBAaq5OERJNux4tEbOkVJ
2g82tnmFSkLkAYN1TR6BaTDwZCAZY8DUXVB2u6jkVre74FRk+XPH64Sm2kpYFgCo
y+XFsB+t6/wsCJPuLqMmEzymRmSl3/ZXAgMBAAGjIzAhMA8GA1UdEwEB/wQFMAMB
Af8wDgYDVR0PAQH/BAQDAgeAMA0GCSqGSIb3DQEBCwUAA4GBADBfin0kAysqwc8H
J+D21B7+is9XBmtgcEGyU3UUufgct/ACRE2JeFF9Ormy+VR2Z6tTEayyrHVdSPdV
xArkAz26MHXxoShxPp7lNYRwVKTX8MpbKTM+azKI60mdRscSdZbsgZG4XgGmwewF
ooRGmzlge5HRnk/I3QAV86oa5DKF
-----END CERTIFICATE-----
