Certificate:
    Data:
        Version: 3 (0x2)
        Serial Number: 23 (0x17)
    Signature Algorithm: sha256WithRSAEncryption
        Issuer: C=US, ST=California, L=Santa Clara, O=pkg5, CN=ch1_ta3/emailAddress=ch1_ta3
        Validity
            Not Before: Jan 22 15:33:10 2019 GMT
            Not After : Oct 18 15:33:10 2021 GMT
        Subject: C=US, ST=California, L=Santa Clara, O=pkg5, CN=cs8_ch1_ta3/emailAddress=cs8_ch1_ta3
        Subject Public Key Info:
            Public Key Algorithm: rsaEncryption
                Public-Key: (1024 bit)
                Modulus:
                    00:9d:a2:87:03:6b:3a:d3:87:b3:43:6c:18:fd:52:
                    7a:f2:16:92:96:8c:05:a4:37:af:5b:a4:7b:32:64:
                    4a:72:38:d5:31:15:d1:37:8c:69:84:70:c2:2d:bf:
                    27:44:94:7f:1d:fd:c5:a5:3d:7a:ef:36:77:66:a7:
                    de:5d:f6:be:6b:36:73:b7:4a:55:26:f3:74:04:01:
                    2d:d0:06:6c:14:52:7b:d4:51:e7:00:d1:c0:d2:24:
                    13:ae:bf:6a:34:3d:0d:38:17:a3:86:a4:05:e7:ae:
                    6a:20:d4:7a:3c:8b:06:89:0b:fe:25:7d:98:35:7a:
                    02:96:8f:08:c1:33:74:91:4b
                Exponent: 65537 (0x10001)
        X509v3 extensions:
            X509v3 Basic Constraints: critical
                CA:TRUE
            X509v3 Key Usage: critical
                Digital Signature
    Signature Algorithm: sha256WithRSAEncryption
         80:7b:51:66:8f:85:ae:52:ab:3e:87:e2:36:00:6f:9b:7c:93:
         c0:aa:85:9b:59:19:9d:2f:cc:69:0a:f1:52:0c:39:f3:37:5d:
         e9:c6:85:1b:9d:62:ed:37:92:7f:6e:94:b2:33:23:f6:05:b6:
         c9:75:2f:96:06:3a:c1:07:47:f1:a4:8a:19:b8:49:43:c3:ca:
         dc:75:2e:f4:f5:fa:b7:6d:6d:ce:3d:15:d5:d8:55:35:d0:f5:
         be:d9:03:f4:9e:a2:20:87:d2:77:b6:88:b1:18:d1:8b:1a:63:
         55:02:8c:f0:a4:60:a5:02:d4:9a:01:2c:63:33:74:68:41:7e:
         b3:bd:96:46:63:ef:80:1b:57:69:b6:3c:48:6a:d7:24:e5:70:
         76:6a:b3:85:21:6b:15:d9:de:da:af:cf:25:00:27:d5:2f:26:
         2f:29:84:b2:6d:5a:53:6b:30:4f:c8:53:5a:50:bc:bc:d3:69:
         f3:61:95:44:aa:54:41:38:90:f4:be:46:a1:e6:c8:9c:05:fa:
         79:0f:07:43:fe:d7:92:bb:93:96:35:49:8c:84:49:b6:47:b1:
         f3:d2:e8:d9:6d:6e:e0:5d:c0:de:73:6d:da:11:df:19:c4:60:
         f4:ff:5b:ef:75:2b:13:d5:a9:29:5a:07:0a:ea:a8:2b:ef:8b:
         17:b2:3e:1a
-----BEGIN CERTIFICATE-----
MIIDBDCCAeygAwIBAgIBFzANBgkqhkiG9w0BAQsFADBxMQswCQYDVQQGEwJVUzET
MBEGA1UECAwKQ2FsaWZvcm5pYTEUMBIGA1UEBwwLU2FudGEgQ2xhcmExDTALBgNV
BAoMBHBrZzUxEDAOBgNVBAMMB2NoMV90YTMxFjAUBgkqhkiG9w0BCQEWB2NoMV90
YTMwHhcNMTkwMTIyMTUzMzEwWhcNMjExMDE4MTUzMzEwWjB5MQswCQYDVQQGEwJV
UzETMBEGA1UECAwKQ2FsaWZvcm5pYTEUMBIGA1UEBwwLU2FudGEgQ2xhcmExDTAL
BgNVBAoMBHBrZzUxFDASBgNVBAMMC2NzOF9jaDFfdGEzMRowGAYJKoZIhvcNAQkB
FgtjczhfY2gxX3RhMzCBnzANBgkqhkiG9w0BAQEFAAOBjQAwgYkCgYEAnaKHA2s6
04ezQ2wY/VJ68haSlowFpDevW6R7MmRKcjjVMRXRN4xphHDCLb8nRJR/Hf3FpT16
7zZ3ZqfeXfa+azZzt0pVJvN0BAEt0AZsFFJ71FHnANHA0iQTrr9qND0NOBejhqQF
565qINR6PIsGiQv+JX2YNXoClo8IwTN0kUsCAwEAAaMjMCEwDwYDVR0TAQH/BAUw
AwEB/zAOBgNVHQ8BAf8EBAMCB4AwDQYJKoZIhvcNAQELBQADggEBAIB7UWaPha5S
qz6H4jYAb5t8k8CqhZtZGZ0vzGkK8VIMOfM3XenGhRudYu03kn9ulLIzI/YFtsl1
L5YGOsEHR/Gkihm4SUPDytx1LvT1+rdtbc49FdXYVTXQ9b7ZA/SeoiCH0ne2iLEY
0YsaY1UCjPCkYKUC1JoBLGMzdGhBfrO9lkZj74AbV2m2PEhq1yTlcHZqs4UhaxXZ
3tqvzyUAJ9UvJi8phLJtWlNrME/IU1pQvLzTafNhlUSqVEE4kPS+RqHmyJwF+nkP
B0P+15K7k5Y1SYyESbZHsfPS6NltbuBdwN5zbdoR3xnEYPT/W+91KxPVqSlaBwrq
qCvvixeyPho=
-----END CERTIFICATE-----
