Certificate:
    Data:
        Version: 3 (0x2)
        Serial Number: 24 (0x18)
    Signature Algorithm: sha256WithRSAEncryption
        Issuer: C=US, ST=California, L=Santa Clara, O=pkg5, CN=ch1_ta3/emailAddress=ch1_ta3
        Validity
            Not Before: Jan 22 01:57:57 2016 GMT
            Not After : Oct 18 01:57:57 2018 GMT
        Subject: C=US, ST=California, L=Santa Clara, O=pkg5, CN=cs8_ch1_ta3/emailAddress=cs8_ch1_ta3
        Subject Public Key Info:
            Public Key Algorithm: rsaEncryption
                Public-Key: (1024 bit)
                Modulus:
                    00:c8:36:97:3e:40:a3:c7:48:23:a7:27:60:95:6f:
                    3a:b2:07:41:59:ae:ce:31:b6:81:2e:06:e1:af:64:
                    9b:7d:d0:19:ac:bb:1c:51:0b:cf:26:0a:79:90:34:
                    b7:48:9e:2e:68:e1:54:c1:9c:ba:af:b3:bc:60:31:
                    a6:7d:a6:64:7c:fe:77:a9:47:5b:90:c6:22:79:99:
                    b3:a3:30:9c:fc:1e:f7:8a:c3:9f:b5:5b:da:0e:3a:
                    1b:62:e0:aa:7d:18:f7:f7:5b:2e:dc:5a:5b:1d:56:
                    95:91:29:fb:a3:45:72:e8:7d:cc:aa:84:9a:19:ec:
                    29:40:35:da:f2:17:71:8b:21
                Exponent: 65537 (0x10001)
        X509v3 extensions:
            X509v3 Basic Constraints: critical
                CA:TRUE
            X509v3 Key Usage: critical
                Digital Signature
    Signature Algorithm: sha256WithRSAEncryption
         6e:8a:d4:4e:0e:13:6e:6b:ff:83:8c:17:d3:24:59:f8:6e:dd:
         0b:ae:62:d0:08:c2:d9:5b:9f:9c:36:bb:a7:c8:44:f5:f5:18:
         80:e6:aa:cb:f2:23:89:56:56:d4:5b:f4:89:3f:ac:a6:6b:cb:
         6d:b7:80:6f:d5:4f:fb:9e:ff:37:3a:66:1a:bf:bc:e7:e6:ea:
         57:d1:63:85:38:33:f8:f1:05:be:76:40:2b:4b:de:d0:bf:d6:
         21:f0:1b:c1:ee:ba:e5:e8:98:92:82:85:4e:9a:c8:63:a7:e4:
         55:96:0a:70:8b:e0:8a:a5:b0:ed:59:f4:34:22:14:e0:e2:71:
         24:6b:6b:1d:d0:b8:ff:29:d6:d7:3f:11:68:05:a6:b2:fd:6f:
         d2:4d:68:74:23:ff:9d:72:54:c1:b2:30:18:66:77:85:af:5e:
         b1:28:cf:a5:b4:20:31:56:2e:85:c0:ba:7c:9e:04:d1:2c:44:
         ce:7b:21:1b:3b:51:cf:5e:3c:f3:0a:e5:7e:f0:72:3a:53:ac:
         e4:82:34:0d:66:d5:05:6f:48:f1:d3:13:f4:3f:eb:58:84:77:
         91:1c:83:27:5c:83:04:a0:20:5d:39:2a:5c:48:25:d2:47:82:
         8e:54:b3:df:b0:c3:47:46:6d:81:33:cb:55:7d:4e:7e:97:a1:
         1b:87:55:28
-----BEGIN CERTIFICATE-----
MIIDBDCCAeygAwIBAgIBGDANBgkqhkiG9w0BAQsFADBxMQswCQYDVQQGEwJVUzET
MBEGA1UECAwKQ2FsaWZvcm5pYTEUMBIGA1UEBwwLU2FudGEgQ2xhcmExDTALBgNV
BAoMBHBrZzUxEDAOBgNVBAMMB2NoMV90YTMxFjAUBgkqhkiG9w0BCQEWB2NoMV90
YTMwHhcNMTYwMTIyMDE1NzU3WhcNMTgxMDE4MDE1NzU3WjB5MQswCQYDVQQGEwJV
UzETMBEGA1UECAwKQ2FsaWZvcm5pYTEUMBIGA1UEBwwLU2FudGEgQ2xhcmExDTAL
BgNVBAoMBHBrZzUxFDASBgNVBAMMC2NzOF9jaDFfdGEzMRowGAYJKoZIhvcNAQkB
FgtjczhfY2gxX3RhMzCBnzANBgkqhkiG9w0BAQEFAAOBjQAwgYkCgYEAyDaXPkCj
x0gjpydglW86sgdBWa7OMbaBLgbhr2SbfdAZrLscUQvPJgp5kDS3SJ4uaOFUwZy6
r7O8YDGmfaZkfP53qUdbkMYieZmzozCc/B73isOftVvaDjobYuCqfRj391su3Fpb
HVaVkSn7o0Vy6H3MqoSaGewpQDXa8hdxiyECAwEAAaMjMCEwDwYDVR0TAQH/BAUw
AwEB/zAOBgNVHQ8BAf8EBAMCB4AwDQYJKoZIhvcNAQELBQADggEBAG6K1E4OE25r
/4OMF9MkWfhu3QuuYtAIwtlbn5w2u6fIRPX1GIDmqsvyI4lWVtRb9Ik/rKZry223
gG/VT/ue/zc6Zhq/vOfm6lfRY4U4M/jxBb52QCtL3tC/1iHwG8HuuuXomJKChU6a
yGOn5FWWCnCL4IqlsO1Z9DQiFODicSRrax3QuP8p1tc/EWgFprL9b9JNaHQj/51y
VMGyMBhmd4WvXrEoz6W0IDFWLoXAunyeBNEsRM57IRs7Uc9ePPMK5X7wcjpTrOSC
NA1m1QVvSPHTE/Q/61iEd5EcgydcgwSgIF05KlxIJdJHgo5Us9+ww0dGbYEzy1V9
Tn6XoRuHVSg=
-----END CERTIFICATE-----
