Certificate:
    Data:
        Version: 3 (0x2)
        Serial Number: 23 (0x17)
    Signature Algorithm: sha256WithRSAEncryption
        Issuer: C=US, ST=California, L=Santa Clara, O=pkg5, CN=ch1_ta3/emailAddress=ch1_ta3
        Validity
            Not Before: Jul 19 11:35:47 2023 GMT
            Not After : Apr 14 11:35:47 2026 GMT
        Subject: C=US, ST=California, L=Santa Clara, O=pkg5, CN=cs8_ch1_ta3/emailAddress=cs8_ch1_ta3
        Subject Public Key Info:
            Public Key Algorithm: rsaEncryption
                Public-Key: (2048 bit)
                Modulus:
                    00:be:19:91:6b:96:58:36:76:d5:01:30:05:01:53:
                    9e:56:c0:d0:16:ee:ef:ae:ed:91:42:c3:d0:ad:d6:
                    45:38:9f:64:1b:9a:a1:7a:ab:ce:2d:50:72:30:5a:
                    1c:2c:c2:da:a6:52:1c:75:5a:e9:90:c4:ee:54:35:
                    44:00:65:05:c2:d3:6b:5d:e8:ce:18:32:cd:98:0a:
                    09:4e:f3:3f:9d:e9:01:ed:0e:b9:9e:ee:75:8e:d9:
                    ec:30:c8:79:49:f4:73:dd:0a:35:12:11:23:9e:ae:
                    6c:81:3e:87:a4:59:c2:33:28:de:c7:de:d3:48:cf:
                    c7:a7:16:34:fe:71:41:50:c5:59:e9:d5:ad:d7:87:
                    1f:71:b3:ed:4c:c8:dd:38:10:57:38:5e:ff:21:10:
                    af:3b:c7:d3:f3:54:37:a5:db:84:c6:56:cf:15:6f:
                    ab:5d:95:98:47:10:60:e9:27:02:56:fe:ef:93:07:
                    f0:c8:6a:21:e6:78:c6:9a:ae:2b:e1:bd:01:c4:86:
                    6b:bd:d7:55:cf:c9:bd:8b:5b:22:8e:69:2c:21:ac:
                    18:f3:9d:0d:af:02:8d:a1:22:77:47:b2:0f:91:72:
                    1b:ad:79:4f:5a:a7:ae:5d:19:72:de:72:00:f9:de:
                    5d:d4:70:78:9a:10:1f:ba:a2:56:9a:d5:dd:09:d4:
                    a6:83
                Exponent: 65537 (0x10001)
        X509v3 extensions:
            X509v3 Basic Constraints: critical
                CA:TRUE
            X509v3 Key Usage: critical
                Digital Signature
    Signature Algorithm: sha256WithRSAEncryption
         a1:69:25:fc:8b:ae:7b:4c:02:48:a1:06:2a:f8:5c:8d:6d:8b:
         45:13:37:63:e4:59:30:54:9b:12:69:b2:c6:ba:96:fb:f3:b1:
         dd:9a:28:f6:2a:9d:af:1b:e0:27:82:89:2c:79:23:ae:8f:c5:
         90:4c:47:15:3d:6b:a0:75:b8:f2:95:53:1a:b0:96:c6:ed:0a:
         e9:6f:dd:2e:f2:f0:21:a2:72:f1:54:03:3c:e4:63:0a:61:5c:
         51:69:30:72:5a:ef:53:da:b2:f5:9a:6d:06:e6:38:73:4e:aa:
         93:c1:cb:bf:a2:3f:dd:2f:bc:20:df:2b:e4:30:53:65:b1:42:
         b7:a3:50:13:85:9e:bb:d2:9c:c2:2c:18:1a:4a:7c:ec:dd:1a:
         86:64:83:4d:30:96:5a:48:d3:c7:da:d1:72:8c:a9:8c:9d:ad:
         be:cf:42:28:b1:7b:27:69:95:21:06:87:b6:5c:a3:e3:56:f1:
         2e:e1:6a:5a:07:41:13:57:c4:0d:25:c8:83:2c:03:ef:04:3f:
         c9:ad:c6:dd:0e:3d:90:b6:d0:8b:fe:03:90:f1:74:b1:ba:33:
         a3:c6:12:c3:a7:d1:68:63:a1:7f:ed:7a:d9:c0:f8:ff:e5:72:
         8f:8e:7d:ff:51:1a:07:5f:85:c8:ff:5b:1d:33:60:dc:d0:a8:
         01:31:b5:d1
-----BEGIN CERTIFICATE-----
MIIDiDCCAnCgAwIBAgIBFzANBgkqhkiG9w0BAQsFADBxMQswCQYDVQQGEwJVUzET
MBEGA1UECAwKQ2FsaWZvcm5pYTEUMBIGA1UEBwwLU2FudGEgQ2xhcmExDTALBgNV
BAoMBHBrZzUxEDAOBgNVBAMMB2NoMV90YTMxFjAUBgkqhkiG9w0BCQEWB2NoMV90
YTMwHhcNMjMwNzE5MTEzNTQ3WhcNMjYwNDE0MTEzNTQ3WjB5MQswCQYDVQQGEwJV
UzETMBEGA1UECAwKQ2FsaWZvcm5pYTEUMBIGA1UEBwwLU2FudGEgQ2xhcmExDTAL
BgNVBAoMBHBrZzUxFDASBgNVBAMMC2NzOF9jaDFfdGEzMRowGAYJKoZIhvcNAQkB
FgtjczhfY2gxX3RhMzCCASIwDQYJKoZIhvcNAQEBBQADggEPADCCAQoCggEBAL4Z
kWuWWDZ21QEwBQFTnlbA0Bbu767tkULD0K3WRTifZBuaoXqrzi1QcjBaHCzC2qZS
HHVa6ZDE7lQ1RABlBcLTa13ozhgyzZgKCU7zP53pAe0OuZ7udY7Z7DDIeUn0c90K
NRIRI56ubIE+h6RZwjMo3sfe00jPx6cWNP5xQVDFWenVrdeHH3Gz7UzI3TgQVzhe
/yEQrzvH0/NUN6XbhMZWzxVvq12VmEcQYOknAlb+75MH8MhqIeZ4xpquK+G9AcSG
a73XVc/JvYtbIo5pLCGsGPOdDa8CjaEid0eyD5FyG615T1qnrl0Zct5yAPneXdRw
eJoQH7qiVprV3QnUpoMCAwEAAaMjMCEwDwYDVR0TAQH/BAUwAwEB/zAOBgNVHQ8B
Af8EBAMCB4AwDQYJKoZIhvcNAQELBQADggEBAKFpJfyLrntMAkihBir4XI1ti0UT
N2PkWTBUmxJpssa6lvvzsd2aKPYqna8b4CeCiSx5I66PxZBMRxU9a6B1uPKVUxqw
lsbtCulv3S7y8CGicvFUAzzkYwphXFFpMHJa71PasvWabQbmOHNOqpPBy7+iP90v
vCDfK+QwU2WxQrejUBOFnrvSnMIsGBpKfOzdGoZkg00wllpI08fa0XKMqYydrb7P
QiixeydplSEGh7Zco+NW8S7haloHQRNXxA0lyIMsA+8EP8mtxt0OPZC20Iv+A5Dx
dLG6M6PGEsOn0WhjoX/tetnA+P/lco+Off9RGgdfhcj/Wx0zYNzQqAExtdE=
-----END CERTIFICATE-----
