Certificate:
    Data:
        Version: 3 (0x2)
        Serial Number: 25 (0x19)
        Signature Algorithm: sha256WithRSAEncryption
        Issuer: C=US, ST=California, L=Santa Clara, O=pkg5, CN=ch1_ta3/emailAddress=ch1_ta3
        Validity
            Not Before: Mar 18 08:51:38 2026 GMT
            Not After : Dec 12 08:51:38 2028 GMT
        Subject: C=US, ST=California, L=Santa Clara, O=pkg5, CN=cs9_ch1_ta3/emailAddress=cs9_ch1_ta3
        Subject Public Key Info:
            Public Key Algorithm: rsaEncryption
                Public-Key: (2048 bit)
                Modulus:
                    00:b7:cd:44:51:d0:5c:db:05:0d:22:61:44:da:73:
                    bf:66:bd:78:c9:6d:dd:54:e9:f0:aa:54:a9:de:bc:
                    3c:91:e6:43:03:f8:02:5b:dd:6f:2f:82:9d:6e:9a:
                    cf:38:82:98:b5:df:91:c5:85:c4:36:ac:92:29:03:
                    44:02:96:46:99:57:84:b7:85:90:e2:f2:3b:ca:2a:
                    23:20:7d:78:02:53:ca:69:9c:46:95:f3:15:a6:84:
                    99:1a:71:21:50:d2:dc:70:19:1d:8f:88:ed:bd:d5:
                    b0:78:8f:57:ed:1d:db:c8:76:2e:a3:6f:5d:46:c9:
                    5d:7b:19:e0:3b:ef:c9:45:52:59:fc:34:93:57:f9:
                    b7:04:28:45:fa:5b:31:6f:71:04:9e:3c:0c:fd:9c:
                    ac:38:c6:83:c2:55:31:5c:54:39:7a:da:f1:9d:f3:
                    13:7f:86:31:81:fa:32:4c:d2:ea:34:96:74:ea:37:
                    14:f6:2a:4b:0a:01:e2:70:67:bb:27:24:77:7c:52:
                    4f:69:dc:5c:22:88:8a:51:4b:13:2f:53:0c:fb:6c:
                    f9:3b:5c:ab:a6:0f:21:7b:6f:0d:ac:8a:d8:44:16:
                    4a:02:90:a6:96:41:a9:b9:6f:f7:3e:67:19:0b:fd:
                    d3:2e:8e:92:b8:f3:b0:42:47:17:8b:0e:92:d1:e9:
                    4c:2f
                Exponent: 65537 (0x10001)
        X509v3 extensions:
            X509v3 Basic Constraints: critical
                CA:FALSE
            X509v3 Key Usage: 
                Encipher Only
            X509v3 Subject Key Identifier: 
                20:A5:1E:13:23:69:74:43:D8:2D:FE:93:17:03:FD:83:DB:1B:58:25
            X509v3 Authority Key Identifier: 
                D9:5E:2F:ED:23:64:CE:9F:A3:C2:6F:7D:FD:22:C9:21:6D:C3:CE:2F
    Signature Algorithm: sha256WithRSAEncryption
    Signature Value:
        a1:98:60:07:9c:92:60:00:19:ae:d4:57:6e:fa:b1:1e:2d:84:
        fa:de:8e:53:85:1a:7b:6f:12:34:db:ba:26:cd:95:50:68:27:
        79:ed:2f:75:c7:48:d7:f6:ff:78:a5:7f:51:f7:28:c3:15:c9:
        1a:e9:05:1a:b9:57:6d:c3:6d:58:ac:3f:e8:d9:14:f4:96:e2:
        ba:4c:fc:f0:61:ab:a6:eb:e3:f6:66:2b:84:73:fa:d2:7d:a6:
        f4:a5:77:64:78:4f:f3:83:c2:e8:ac:3b:99:4e:32:c0:73:38:
        50:bf:9e:81:1d:e6:22:45:fc:3a:33:51:71:1c:f3:4b:e4:b7:
        8b:37:67:0c:f0:d4:b0:a3:bd:95:19:d7:95:c3:ef:fb:19:2d:
        71:4f:0f:9c:85:d0:a4:17:3e:60:17:f3:1a:82:b1:98:77:7d:
        3e:56:ca:9e:06:e6:73:b3:b4:de:b3:5a:ed:bd:23:72:26:a9:
        9c:61:39:67:4d:eb:0f:77:63:4c:59:dc:5f:d3:32:84:32:2e:
        61:86:61:41:9d:c6:49:33:69:31:96:af:db:ea:43:38:bb:20:
        09:1a:eb:0b:c1:81:77:91:a5:b4:22:60:1f:71:de:26:95:8b:
        ba:64:73:3c:6e:7a:10:ae:90:9c:c0:31:a7:0f:7a:46:54:45:
        5e:31:52:63
-----BEGIN CERTIFICATE-----
MIIDwjCCAqqgAwIBAgIBGTANBgkqhkiG9w0BAQsFADBxMQswCQYDVQQGEwJVUzET
MBEGA1UECAwKQ2FsaWZvcm5pYTEUMBIGA1UEBwwLU2FudGEgQ2xhcmExDTALBgNV
BAoMBHBrZzUxEDAOBgNVBAMMB2NoMV90YTMxFjAUBgkqhkiG9w0BCQEWB2NoMV90
YTMwHhcNMjYwMzE4MDg1MTM4WhcNMjgxMjEyMDg1MTM4WjB5MQswCQYDVQQGEwJV
UzETMBEGA1UECAwKQ2FsaWZvcm5pYTEUMBIGA1UEBwwLU2FudGEgQ2xhcmExDTAL
BgNVBAoMBHBrZzUxFDASBgNVBAMMC2NzOV9jaDFfdGEzMRowGAYJKoZIhvcNAQkB
FgtjczlfY2gxX3RhMzCCASIwDQYJKoZIhvcNAQEBBQADggEPADCCAQoCggEBALfN
RFHQXNsFDSJhRNpzv2a9eMlt3VTp8KpUqd68PJHmQwP4Alvdby+CnW6azziCmLXf
kcWFxDaskikDRAKWRplXhLeFkOLyO8oqIyB9eAJTymmcRpXzFaaEmRpxIVDS3HAZ
HY+I7b3VsHiPV+0d28h2LqNvXUbJXXsZ4DvvyUVSWfw0k1f5twQoRfpbMW9xBJ48
DP2crDjGg8JVMVxUOXra8Z3zE3+GMYH6MkzS6jSWdOo3FPYqSwoB4nBnuyckd3xS
T2ncXCKIilFLEy9TDPts+Ttcq6YPIXtvDayK2EQWSgKQppZBqblv9z5nGQv90y6O
krjzsEJHF4sOktHpTC8CAwEAAaNdMFswDAYDVR0TAQH/BAIwADALBgNVHQ8EBAMC
AAEwHQYDVR0OBBYEFCClHhMjaXRD2C3+kxcD/YPbG1glMB8GA1UdIwQYMBaAFNle
L+0jZM6fo8Jvff0iySFtw84vMA0GCSqGSIb3DQEBCwUAA4IBAQChmGAHnJJgABmu
1Fdu+rEeLYT63o5ThRp7bxI027omzZVQaCd57S91x0jX9v94pX9R9yjDFcka6QUa
uVdtw21YrD/o2RT0luK6TPzwYaum6+P2ZiuEc/rSfab0pXdkeE/zg8LorDuZTjLA
czhQv56BHeYiRfw6M1FxHPNL5LeLN2cM8NSwo72VGdeVw+/7GS1xTw+chdCkFz5g
F/MagrGYd30+VsqeBuZzs7Tes1rtvSNyJqmcYTlnTesPd2NMWdxf0zKEMi5hhmFB
ncZJM2kxlq/b6kM4uyAJGusLwYF3kaW0ImAfcd4mlYu6ZHM8bnoQrpCcwDGnD3pG
VEVeMVJj
-----END CERTIFICATE-----
