Certificate:
    Data:
        Version: 3 (0x2)
        Serial Number: 25 (0x19)
    Signature Algorithm: sha256WithRSAEncryption
        Issuer: C=US, ST=California, L=Santa Clara, O=pkg5, CN=ch1_ta3/emailAddress=ch1_ta3
        Validity
            Not Before: Jan 22 15:33:11 2019 GMT
            Not After : Oct 18 15:33:11 2021 GMT
        Subject: C=US, ST=California, L=Santa Clara, O=pkg5, CN=cs9_ch1_ta3/emailAddress=cs9_ch1_ta3
        Subject Public Key Info:
            Public Key Algorithm: rsaEncryption
                Public-Key: (1024 bit)
                Modulus:
                    00:bb:f8:18:91:f6:35:c7:ef:f0:79:f6:27:33:87:
                    17:dc:06:a6:5d:66:ec:02:85:08:79:61:d5:9c:85:
                    07:c4:63:cd:ff:c4:3e:62:88:56:37:d8:a3:c3:53:
                    2a:a2:d3:c7:da:60:a5:dd:53:5c:90:41:cc:89:d5:
                    ba:a0:8e:25:17:72:91:d4:54:be:2b:38:55:f5:19:
                    5e:a9:62:54:50:18:65:19:58:a2:0e:de:f5:e0:d8:
                    18:4d:a0:5a:ad:fa:48:c7:d4:4b:62:5e:fd:5f:0e:
                    77:d9:ec:f2:bd:54:b3:e0:2f:c1:b0:6b:c5:10:1e:
                    c3:f9:e1:21:a3:e7:9b:ac:c3
                Exponent: 65537 (0x10001)
        X509v3 extensions:
            X509v3 Basic Constraints: critical
                CA:FALSE
            X509v3 Key Usage: 
                Encipher Only
    Signature Algorithm: sha256WithRSAEncryption
         a2:02:12:75:44:e7:9e:2c:10:5e:e2:04:7a:9a:a1:91:6f:b0:
         10:60:9a:be:e3:c8:1f:14:46:f4:51:86:3b:4b:37:94:fb:ee:
         3d:cc:e7:af:f3:00:d8:4c:94:04:8b:d0:a8:35:24:55:34:0b:
         c0:1e:bf:20:ca:7c:06:54:a6:d1:cd:09:ab:37:c2:f5:90:d3:
         5a:64:54:46:78:54:3f:a1:8e:c6:77:32:3b:bd:95:6a:15:e7:
         e6:2b:08:58:11:94:ef:01:6e:cf:97:8e:12:d4:27:7f:b4:27:
         87:0c:bb:f1:47:54:15:2b:1d:44:97:3d:52:3b:6f:ea:d6:17:
         73:1f:b1:9d:c9:38:f0:4e:34:68:63:1f:4c:a1:42:97:2c:c5:
         04:65:dd:96:60:b6:4c:25:7e:93:0c:38:9d:fc:c8:a5:98:df:
         df:92:50:d1:2f:fc:cf:a9:39:10:4a:35:cd:cb:54:37:8d:35:
         70:88:5b:35:b7:7d:39:b3:32:9a:20:31:ba:12:d9:75:70:3c:
         2c:14:f5:a4:36:2e:e8:36:49:6c:bc:80:19:58:30:76:13:24:
         ba:86:93:c5:a0:3d:d7:c2:10:52:96:01:4f:7f:02:39:74:75:
         d4:96:61:be:c6:46:72:df:64:e7:18:4c:ac:72:59:f4:e5:9d:
         a3:71:10:45
-----BEGIN CERTIFICATE-----
MIIC/jCCAeagAwIBAgIBGTANBgkqhkiG9w0BAQsFADBxMQswCQYDVQQGEwJVUzET
MBEGA1UECAwKQ2FsaWZvcm5pYTEUMBIGA1UEBwwLU2FudGEgQ2xhcmExDTALBgNV
BAoMBHBrZzUxEDAOBgNVBAMMB2NoMV90YTMxFjAUBgkqhkiG9w0BCQEWB2NoMV90
YTMwHhcNMTkwMTIyMTUzMzExWhcNMjExMDE4MTUzMzExWjB5MQswCQYDVQQGEwJV
UzETMBEGA1UECAwKQ2FsaWZvcm5pYTEUMBIGA1UEBwwLU2FudGEgQ2xhcmExDTAL
BgNVBAoMBHBrZzUxFDASBgNVBAMMC2NzOV9jaDFfdGEzMRowGAYJKoZIhvcNAQkB
FgtjczlfY2gxX3RhMzCBnzANBgkqhkiG9w0BAQEFAAOBjQAwgYkCgYEAu/gYkfY1
x+/wefYnM4cX3AamXWbsAoUIeWHVnIUHxGPN/8Q+YohWN9ijw1MqotPH2mCl3VNc
kEHMidW6oI4lF3KR1FS+KzhV9RleqWJUUBhlGViiDt714NgYTaBarfpIx9RLYl79
Xw532ezyvVSz4C/BsGvFEB7D+eEho+ebrMMCAwEAAaMdMBswDAYDVR0TAQH/BAIw
ADALBgNVHQ8EBAMCAAEwDQYJKoZIhvcNAQELBQADggEBAKICEnVE554sEF7iBHqa
oZFvsBBgmr7jyB8URvRRhjtLN5T77j3M56/zANhMlASL0Kg1JFU0C8AevyDKfAZU
ptHNCas3wvWQ01pkVEZ4VD+hjsZ3Mju9lWoV5+YrCFgRlO8Bbs+XjhLUJ3+0J4cM
u/FHVBUrHUSXPVI7b+rWF3MfsZ3JOPBONGhjH0yhQpcsxQRl3ZZgtkwlfpMMOJ38
yKWY39+SUNEv/M+pORBKNc3LVDeNNXCIWzW3fTmzMpogMboS2XVwPCwU9aQ2Lug2
SWy8gBlYMHYTJLqGk8WgPdfCEFKWAU9/Ajl0ddSWYb7GRnLfZOcYTKxyWfTlnaNx
EEU=
-----END CERTIFICATE-----
