Certificate:
    Data:
        Version: 3 (0x2)
        Serial Number: 25 (0x19)
    Signature Algorithm: sha256WithRSAEncryption
        Issuer: C=US, ST=California, L=Santa Clara, O=pkg5, CN=ch1_ta3/emailAddress=ch1_ta3
        Validity
            Not Before: Mar 18 23:38:21 2016 GMT
            Not After : Dec 13 23:38:21 2018 GMT
        Subject: C=US, ST=California, L=Santa Clara, O=pkg5, CN=cs9_ch1_ta3/emailAddress=cs9_ch1_ta3
        Subject Public Key Info:
            Public Key Algorithm: rsaEncryption
                Public-Key: (1024 bit)
                Modulus:
                    00:df:d8:e6:21:a8:72:ad:2b:22:1c:7e:36:4a:15:
                    e1:98:32:68:30:e1:5e:09:5a:b3:be:30:6f:b0:32:
                    b4:e4:d6:46:a4:ef:a1:6e:1f:dd:b9:ba:78:ba:51:
                    e3:4c:22:a7:dd:07:11:f1:7d:8e:08:88:db:21:5a:
                    3e:de:e4:3b:c3:ba:d2:0a:01:da:40:9d:7f:12:1b:
                    a3:84:f7:6e:de:54:12:bf:e5:f0:3c:62:74:bc:00:
                    80:fa:ce:6f:64:48:9b:e2:3d:7b:a5:08:17:d3:f0:
                    ae:20:b2:29:5c:d1:05:b0:8f:b0:f9:9b:a8:58:67:
                    5c:70:3b:a3:ff:ca:5c:5c:b3
                Exponent: 65537 (0x10001)
        X509v3 extensions:
            X509v3 Basic Constraints: critical
                CA:FALSE
            X509v3 Key Usage: 
                Encipher Only
    Signature Algorithm: sha256WithRSAEncryption
         51:74:cb:10:5b:bb:a0:aa:a7:e7:72:93:ee:4a:ff:ea:2e:95:
         0c:a9:c9:ab:bf:54:45:6b:b0:2b:e5:67:72:ad:62:5f:e3:fa:
         74:57:b1:a2:35:32:47:fa:55:25:33:09:78:1a:90:b4:fb:60:
         d7:b3:c1:60:e1:d9:cc:5d:5d:8a:6f:f4:2b:d5:16:8b:71:54:
         43:a7:e0:0b:69:04:eb:09:d3:55:23:73:db:5a:5b:0d:57:73:
         5b:8a:8b:ef:ad:d0:69:be:33:70:ab:d7:d2:11:cf:05:3a:53:
         fd:2e:37:4d:b5:64:b4:53:cf:7a:f0:8a:13:20:b5:a5:63:fd:
         77:eb:cf:96:0c:a2:a4:b7:6a:3c:55:88:c1:ab:a1:d4:2a:5c:
         f9:c7:aa:62:e2:69:d8:49:28:4a:03:68:c4:91:73:b9:ee:2b:
         9e:9e:7e:cd:d8:32:3b:a1:4d:23:cc:5e:61:0d:8c:c2:64:e4:
         0b:48:e8:94:7b:5a:e8:38:b7:34:0e:35:b9:c4:0a:b1:d8:5b:
         70:92:2c:f9:f1:f0:c9:c2:97:15:c0:86:a9:80:38:82:1e:76:
         20:0c:5f:a6:cc:96:77:3a:0b:0b:d1:fa:09:ea:69:89:e1:3e:
         f3:88:7a:a6:25:0f:17:f9:fb:34:1a:6b:dc:39:93:2e:da:a7:
         fe:6e:d0:9f
-----BEGIN CERTIFICATE-----
MIIC/jCCAeagAwIBAgIBGTANBgkqhkiG9w0BAQsFADBxMQswCQYDVQQGEwJVUzET
MBEGA1UECAwKQ2FsaWZvcm5pYTEUMBIGA1UEBwwLU2FudGEgQ2xhcmExDTALBgNV
BAoMBHBrZzUxEDAOBgNVBAMMB2NoMV90YTMxFjAUBgkqhkiG9w0BCQEWB2NoMV90
YTMwHhcNMTYwMzE4MjMzODIxWhcNMTgxMjEzMjMzODIxWjB5MQswCQYDVQQGEwJV
UzETMBEGA1UECAwKQ2FsaWZvcm5pYTEUMBIGA1UEBwwLU2FudGEgQ2xhcmExDTAL
BgNVBAoMBHBrZzUxFDASBgNVBAMMC2NzOV9jaDFfdGEzMRowGAYJKoZIhvcNAQkB
FgtjczlfY2gxX3RhMzCBnzANBgkqhkiG9w0BAQEFAAOBjQAwgYkCgYEA39jmIahy
rSsiHH42ShXhmDJoMOFeCVqzvjBvsDK05NZGpO+hbh/dubp4ulHjTCKn3QcR8X2O
CIjbIVo+3uQ7w7rSCgHaQJ1/EhujhPdu3lQSv+XwPGJ0vACA+s5vZEib4j17pQgX
0/CuILIpXNEFsI+w+ZuoWGdccDuj/8pcXLMCAwEAAaMdMBswDAYDVR0TAQH/BAIw
ADALBgNVHQ8EBAMCAAEwDQYJKoZIhvcNAQELBQADggEBAFF0yxBbu6Cqp+dyk+5K
/+oulQypyau/VEVrsCvlZ3KtYl/j+nRXsaI1Mkf6VSUzCXgakLT7YNezwWDh2cxd
XYpv9CvVFotxVEOn4AtpBOsJ01Ujc9taWw1Xc1uKi++t0Gm+M3Cr19IRzwU6U/0u
N021ZLRTz3rwihMgtaVj/Xfrz5YMoqS3ajxViMGrodQqXPnHqmLiadhJKEoDaMSR
c7nuK56efs3YMjuhTSPMXmENjMJk5AtI6JR7Wug4tzQONbnECrHYW3CSLPnx8MnC
lxXAhqmAOIIediAMX6bMlnc6CwvR+gnqaYnhPvOIeqYlDxf5+zQaa9w5ky7ap/5u
0J8=
-----END CERTIFICATE-----
