Certificate:
    Data:
        Version: 3 (0x2)
        Serial Number: 15022593198164307457 (0xd07af8ebadc86e01)
    Signature Algorithm: sha256WithRSAEncryption
        Issuer: C=US, ST=California, L=Santa Clara, O=pkg5, OU=ta7, CN=localhost/emailAddress=ta7
        Validity
            Not Before: Jan 22 01:58:00 2016 GMT
            Not After : Oct 18 01:58:00 2018 GMT
        Subject: C=US, ST=California, L=Santa Clara, O=pkg5, OU=ta7, CN=localhost/emailAddress=ta7
        Subject Public Key Info:
            Public Key Algorithm: rsaEncryption
                Public-Key: (2048 bit)
                Modulus:
                    00:e9:41:c0:9f:fd:3f:30:dc:57:a9:89:49:77:14:
                    2b:1b:19:5b:2b:95:d6:61:cc:84:af:be:16:77:b2:
                    b4:2e:88:c4:9b:16:51:36:d7:29:e6:22:ac:42:c1:
                    19:6c:a3:21:10:1b:04:5a:40:6f:91:a6:9b:15:f3:
                    59:38:aa:47:26:18:41:13:40:20:e3:e0:0c:ee:f6:
                    af:ff:5e:da:fc:bc:14:27:60:11:bc:26:17:eb:cc:
                    77:43:54:79:51:9a:b0:26:85:fc:30:ab:a8:ce:d9:
                    46:3d:35:86:e3:20:dc:5e:1c:d2:00:27:4c:df:da:
                    9f:83:48:ca:df:66:ed:6d:ea:a6:91:a5:33:e1:b1:
                    f7:b8:e7:ac:57:aa:a5:76:f4:3b:0c:2f:42:57:7e:
                    8d:57:e5:c9:7d:b7:66:b5:67:c0:0e:99:3f:93:47:
                    e2:f8:fa:ef:25:76:56:82:2c:1e:f4:81:e4:5a:ed:
                    d6:78:b8:c5:8a:d8:5a:8d:e9:84:a6:c4:ca:db:2c:
                    02:5f:5f:ef:4c:8d:e8:41:c8:89:76:89:6a:25:a2:
                    ab:ad:87:23:83:8a:13:fb:2d:55:cd:a5:86:49:f8:
                    26:9a:28:0c:08:59:63:e6:44:da:f1:f2:3e:50:0c:
                    8c:ad:82:be:b5:ad:95:79:57:70:24:1e:5c:cd:72:
                    52:db
                Exponent: 65537 (0x10001)
        X509v3 extensions:
            X509v3 Subject Key Identifier: 
                BE:41:21:CE:2B:5E:57:01:C4:01:5A:A1:07:35:DC:50:6D:B6:A0:77
            X509v3 Authority Key Identifier: 
                keyid:BE:41:21:CE:2B:5E:57:01:C4:01:5A:A1:07:35:DC:50:6D:B6:A0:77

            X509v3 Basic Constraints: 
                CA:TRUE
    Signature Algorithm: sha256WithRSAEncryption
         43:86:ec:c4:1f:aa:e0:41:58:ff:1e:20:aa:96:f1:61:d0:85:
         c5:d4:8c:80:27:f9:f0:65:0b:bb:c2:ca:31:5d:6e:88:bc:4b:
         02:16:4c:6b:00:b7:f3:52:87:3d:bc:37:b8:3f:8b:d2:12:c1:
         d2:69:d4:5c:fe:ec:e5:41:90:27:20:c5:30:f9:30:8a:36:05:
         5c:e0:e9:f8:5a:c7:6d:90:b6:87:d4:ed:89:fb:5f:67:ac:b9:
         06:51:17:ad:e5:34:23:71:b3:d4:37:f4:fc:06:7b:7d:38:70:
         4b:99:9f:20:64:e5:3a:3f:7c:19:6e:bf:45:e3:28:f0:f4:2e:
         f6:ca:b0:7f:f4:29:31:58:3e:50:4b:0d:92:b3:8c:ea:c6:32:
         e0:01:03:73:41:a7:8d:57:93:bf:a1:e9:f3:3d:e1:80:42:b6:
         e9:0c:7b:33:45:dc:09:ff:5a:e2:07:66:9b:71:8f:1e:db:63:
         d4:00:93:d7:7d:fc:c4:e7:b2:a3:e6:a5:4f:e8:fe:1f:08:dd:
         66:b8:ac:23:53:b2:f6:1b:ff:b7:36:cd:3b:24:f6:37:fb:5b:
         b9:26:0f:28:84:c5:1e:cd:89:29:ca:f7:51:4a:d1:22:fd:64:
         da:a2:82:95:a5:10:06:d6:fc:4e:4f:e8:bc:8f:ae:e5:68:dc:
         1e:7e:d3:48
-----BEGIN CERTIFICATE-----
MIIDzTCCArWgAwIBAgIJANB6+OutyG4BMA0GCSqGSIb3DQEBCwUAMH0xCzAJBgNV
BAYTAlVTMRMwEQYDVQQIDApDYWxpZm9ybmlhMRQwEgYDVQQHDAtTYW50YSBDbGFy
YTENMAsGA1UECgwEcGtnNTEMMAoGA1UECwwDdGE3MRIwEAYDVQQDDAlsb2NhbGhv
c3QxEjAQBgkqhkiG9w0BCQEWA3RhNzAeFw0xNjAxMjIwMTU4MDBaFw0xODEwMTgw
MTU4MDBaMH0xCzAJBgNVBAYTAlVTMRMwEQYDVQQIDApDYWxpZm9ybmlhMRQwEgYD
VQQHDAtTYW50YSBDbGFyYTENMAsGA1UECgwEcGtnNTEMMAoGA1UECwwDdGE3MRIw
EAYDVQQDDAlsb2NhbGhvc3QxEjAQBgkqhkiG9w0BCQEWA3RhNzCCASIwDQYJKoZI
hvcNAQEBBQADggEPADCCAQoCggEBAOlBwJ/9PzDcV6mJSXcUKxsZWyuV1mHMhK++
FneytC6IxJsWUTbXKeYirELBGWyjIRAbBFpAb5GmmxXzWTiqRyYYQRNAIOPgDO72
r/9e2vy8FCdgEbwmF+vMd0NUeVGasCaF/DCrqM7ZRj01huMg3F4c0gAnTN/an4NI
yt9m7W3qppGlM+Gx97jnrFeqpXb0OwwvQld+jVflyX23ZrVnwA6ZP5NH4vj67yV2
VoIsHvSB5Frt1ni4xYrYWo3phKbEytssAl9f70yN6EHIiXaJaiWiq62HI4OKE/st
Vc2lhkn4JpooDAhZY+ZE2vHyPlAMjK2CvrWtlXlXcCQeXM1yUtsCAwEAAaNQME4w
HQYDVR0OBBYEFL5BIc4rXlcBxAFaoQc13FBttqB3MB8GA1UdIwQYMBaAFL5BIc4r
XlcBxAFaoQc13FBttqB3MAwGA1UdEwQFMAMBAf8wDQYJKoZIhvcNAQELBQADggEB
AEOG7MQfquBBWP8eIKqW8WHQhcXUjIAn+fBlC7vCyjFdboi8SwIWTGsAt/NShz28
N7g/i9ISwdJp1Fz+7OVBkCcgxTD5MIo2BVzg6fhax22QtofU7Yn7X2esuQZRF63l
NCNxs9Q39PwGe304cEuZnyBk5To/fBluv0XjKPD0LvbKsH/0KTFYPlBLDZKzjOrG
MuABA3NBp41Xk7+h6fM94YBCtukMezNF3An/WuIHZptxjx7bY9QAk9d9/MTnsqPm
pU/o/h8I3Wa4rCNTsvYb/7c2zTsk9jf7W7kmDyiExR7NiSnK91FK0SL9ZNqigpWl
EAbW/E5P6LyPruVo3B5+00g=
-----END CERTIFICATE-----
