Certificate:
    Data:
        Version: 3 (0x2)
        Serial Number:
            37:7e:22:64:42:84:e6:35:54:fd:c3:d6:bb:a9:8d:d0:d2:30:e9:f9
        Signature Algorithm: sha256WithRSAEncryption
        Issuer: C = US, ST = California, L = Santa Clara, O = pkg5, OU = ta7, CN = localhost, emailAddress = ta7
        Validity
            Not Before: Mar 18 08:51:47 2026 GMT
            Not After : Dec 12 08:51:47 2028 GMT
        Subject: C = US, ST = California, L = Santa Clara, O = pkg5, OU = ta7, CN = localhost, emailAddress = ta7
        Subject Public Key Info:
            Public Key Algorithm: rsaEncryption
                Public-Key: (2048 bit)
                Modulus:
                    00:da:28:ef:09:b9:9b:65:e5:cc:1b:0e:cb:60:34:
                    ea:4e:42:4f:8b:42:82:70:a5:89:a9:5b:d9:df:d8:
                    39:28:82:9c:a2:ad:d8:f7:70:d9:fc:19:ce:32:49:
                    d6:d9:ec:54:11:cd:32:aa:51:c4:63:ce:62:e0:65:
                    0d:84:2e:7c:7c:60:54:77:6d:54:77:b0:a9:67:b7:
                    2f:ec:e9:23:24:35:1b:46:d0:91:d3:a2:c6:a9:74:
                    ec:1a:6c:7a:36:f2:2f:b8:13:e3:8e:72:29:08:84:
                    6f:24:b2:87:08:9f:f6:f8:00:ba:5a:4e:b7:39:71:
                    2b:4e:92:26:14:72:1a:d9:7c:26:c2:38:49:ae:c0:
                    1e:9c:41:c0:38:f5:1f:53:5f:8d:e6:a7:50:28:f6:
                    56:c0:56:d9:f5:cc:7c:63:b3:a0:d6:8c:e0:92:6d:
                    4a:a6:bf:33:d5:ac:b9:a6:33:48:13:b3:b7:52:2a:
                    ea:9f:09:0e:e5:53:4d:75:d8:ad:bd:61:f8:f3:1b:
                    e9:1a:8a:44:3e:c6:a3:4b:a3:22:68:6f:f4:79:d0:
                    c7:6c:49:bd:a6:6e:0b:ab:65:9a:8c:13:06:13:76:
                    f9:da:a0:f5:2a:c4:50:5d:5d:15:78:84:e0:7b:0c:
                    cd:f3:d6:44:3a:99:c1:07:b4:20:82:1f:c3:8b:3a:
                    a8:8b
                Exponent: 65537 (0x10001)
        X509v3 extensions:
            X509v3 Subject Key Identifier: 
                EC:5A:81:02:74:9B:BB:1F:BA:5A:47:94:CF:B7:98:9F:0A:0C:54:4B
            X509v3 Authority Key Identifier: 
                EC:5A:81:02:74:9B:BB:1F:BA:5A:47:94:CF:B7:98:9F:0A:0C:54:4B
            X509v3 Basic Constraints: critical
                CA:TRUE
    Signature Algorithm: sha256WithRSAEncryption
    Signature Value:
        c9:f2:be:3f:39:a0:5f:46:56:d5:8b:d5:d9:30:82:f9:b8:68:
        cc:b5:d7:7f:32:a7:7c:0d:ec:20:cf:7e:7c:34:d3:75:b8:d9:
        46:2e:a0:29:2b:fd:4e:09:93:16:0d:c8:5e:2c:0a:b6:da:36:
        d2:c1:c8:28:df:67:d1:d8:cc:65:6e:df:9d:30:a0:a6:f8:24:
        5d:cc:bc:db:0e:0b:1f:a6:5b:c7:06:41:e9:50:fb:65:42:22:
        af:f2:c9:ea:f7:66:31:8d:bb:f8:9a:4f:12:24:75:dc:0c:cf:
        9b:6e:eb:39:96:65:07:4a:d1:cd:c6:f8:ee:92:50:0c:31:e7:
        10:92:2d:e9:30:d5:b4:ec:ba:c0:33:4e:0f:ee:49:cb:2b:fc:
        3b:62:a6:5e:15:3d:d9:b7:f0:38:e6:cf:09:93:11:cf:ef:35:
        aa:66:a3:97:27:61:cd:6f:fe:1a:74:45:ef:19:13:97:dd:4b:
        aa:01:8b:bf:39:82:7a:a4:51:11:57:3a:66:d6:9c:c4:19:68:
        22:4d:1c:6f:32:7c:71:cd:c1:66:3a:2e:90:c0:1d:20:f8:ab:
        f2:14:97:60:be:0c:e2:62:eb:2f:4d:68:63:b9:f9:6c:d4:ce:
        f8:5f:e7:d2:05:21:6f:96:10:cf:20:2a:b6:f4:a6:e9:54:3f:
        e0:b8:6d:e5
-----BEGIN CERTIFICATE-----
MIID2zCCAsOgAwIBAgIUN34iZEKE5jVU/cPWu6mN0NIw6fkwDQYJKoZIhvcNAQEL
BQAwfTELMAkGA1UEBhMCVVMxEzARBgNVBAgMCkNhbGlmb3JuaWExFDASBgNVBAcM
C1NhbnRhIENsYXJhMQ0wCwYDVQQKDARwa2c1MQwwCgYDVQQLDAN0YTcxEjAQBgNV
BAMMCWxvY2FsaG9zdDESMBAGCSqGSIb3DQEJARYDdGE3MB4XDTI2MDMxODA4NTE0
N1oXDTI4MTIxMjA4NTE0N1owfTELMAkGA1UEBhMCVVMxEzARBgNVBAgMCkNhbGlm
b3JuaWExFDASBgNVBAcMC1NhbnRhIENsYXJhMQ0wCwYDVQQKDARwa2c1MQwwCgYD
VQQLDAN0YTcxEjAQBgNVBAMMCWxvY2FsaG9zdDESMBAGCSqGSIb3DQEJARYDdGE3
MIIBIjANBgkqhkiG9w0BAQEFAAOCAQ8AMIIBCgKCAQEA2ijvCbmbZeXMGw7LYDTq
TkJPi0KCcKWJqVvZ39g5KIKcoq3Y93DZ/BnOMknW2exUEc0yqlHEY85i4GUNhC58
fGBUd21Ud7CpZ7cv7OkjJDUbRtCR06LGqXTsGmx6NvIvuBPjjnIpCIRvJLKHCJ/2
+AC6Wk63OXErTpImFHIa2XwmwjhJrsAenEHAOPUfU1+N5qdQKPZWwFbZ9cx8Y7Og
1ozgkm1Kpr8z1ay5pjNIE7O3UirqnwkO5VNNdditvWH48xvpGopEPsajS6MiaG/0
edDHbEm9pm4Lq2WajBMGE3b52qD1KsRQXV0VeITgewzN89ZEOpnBB7Qggh/Dizqo
iwIDAQABo1MwUTAdBgNVHQ4EFgQU7FqBAnSbux+6WkeUz7eYnwoMVEswHwYDVR0j
BBgwFoAU7FqBAnSbux+6WkeUz7eYnwoMVEswDwYDVR0TAQH/BAUwAwEB/zANBgkq
hkiG9w0BAQsFAAOCAQEAyfK+PzmgX0ZW1YvV2TCC+bhozLXXfzKnfA3sIM9+fDTT
dbjZRi6gKSv9TgmTFg3IXiwKtto20sHIKN9n0djMZW7fnTCgpvgkXcy82w4LH6Zb
xwZB6VD7ZUIir/LJ6vdmMY27+JpPEiR13AzPm27rOZZlB0rRzcb47pJQDDHnEJIt
6TDVtOy6wDNOD+5Jyyv8O2KmXhU92bfwOObPCZMRz+81qmajlydhzW/+GnRF7xkT
l91LqgGLvzmCeqRREVc6ZtacxBloIk0cbzJ8cc3BZjoukMAdIPir8hSXYL4M4mLr
L01oY7n5bNTO+F/n0gUhb5YQzyAqtvSm6VQ/4Lht5Q==
-----END CERTIFICATE-----
