Certificate:
    Data:
        Version: 3 (0x2)
        Serial Number:
            dc:b7:14:dc:53:58:e6:84
    Signature Algorithm: sha256WithRSAEncryption
        Issuer: C=US, ST=California, L=Santa Clara, O=pkg5, OU=ta7, CN=localhost/emailAddress=ta7
        Validity
            Not Before: Sep 22 05:33:36 2021 GMT
            Not After : Jun 18 05:33:36 2024 GMT
        Subject: C=US, ST=California, L=Santa Clara, O=pkg5, OU=ta7, CN=localhost/emailAddress=ta7
        Subject Public Key Info:
            Public Key Algorithm: rsaEncryption
                Public-Key: (2048 bit)
                Modulus:
                    00:d6:28:a0:2d:48:2f:70:52:f0:fc:a7:4e:c8:3a:
                    69:03:c5:cf:82:ba:5a:d3:75:9a:86:a9:1a:ee:4b:
                    f0:93:26:8a:25:b1:ab:70:dd:c9:f8:0c:94:e9:9c:
                    55:ec:8c:6c:96:d1:f3:de:8f:52:d3:7a:ca:8b:02:
                    cb:57:78:6f:a2:98:0d:f1:9d:eb:86:a6:57:ad:35:
                    fd:d8:c7:7a:e9:2e:a1:42:48:74:fc:73:a6:68:60:
                    f4:4d:18:6f:bf:b2:87:b8:cb:19:1d:8b:38:0a:a7:
                    6e:c4:0f:f3:e8:44:8a:a8:3c:d6:91:eb:0a:27:50:
                    20:a4:4b:bd:5c:42:5e:54:4c:81:65:7a:cf:29:a0:
                    cf:da:bf:b5:4e:4c:59:b6:fc:f9:b7:12:c8:50:9a:
                    9d:30:d7:84:a4:f2:85:c2:96:70:f3:09:33:1a:51:
                    c7:06:2d:da:e6:cf:55:6f:bf:b1:05:c5:78:7a:4b:
                    ca:cb:2f:07:f3:a1:40:58:2e:8c:1c:6e:8e:a0:2a:
                    3e:ec:bb:86:0c:b6:bf:25:6f:e9:27:6b:00:cf:23:
                    a3:fe:83:c6:e8:ce:96:18:ef:d0:28:f8:d0:0e:9d:
                    ff:a1:fb:8b:0b:3a:f9:74:42:d3:61:68:68:fa:ca:
                    98:23:b8:93:2e:6b:59:05:12:5a:f8:5c:74:ae:30:
                    f3:25
                Exponent: 65537 (0x10001)
        X509v3 extensions:
            X509v3 Subject Key Identifier: 
                2A:3B:86:19:92:48:AB:71:C8:0E:58:A9:25:31:C6:B4:C9:0E:4B:27
            X509v3 Authority Key Identifier: 
                keyid:2A:3B:86:19:92:48:AB:71:C8:0E:58:A9:25:31:C6:B4:C9:0E:4B:27

            X509v3 Basic Constraints: 
                CA:TRUE
    Signature Algorithm: sha256WithRSAEncryption
         1e:62:1c:d2:5e:8c:c3:e7:c4:81:8b:09:ab:08:54:e2:2d:5e:
         27:34:b0:a8:ca:fe:e2:4c:bb:8a:2c:f0:77:0d:8a:41:32:31:
         c6:5d:5c:72:86:aa:d9:74:f5:47:90:f5:11:75:80:f2:d0:be:
         e2:3f:55:ac:57:1c:e4:70:85:67:5c:10:40:55:32:43:d3:be:
         6c:c4:00:e9:f5:5c:88:f8:46:6a:d4:9a:d9:bf:c1:d3:f0:89:
         66:97:ac:cf:5f:c7:e0:0c:b5:c7:a6:10:fa:11:30:f6:92:82:
         01:60:07:93:10:a3:bb:eb:2c:94:c7:02:04:b2:99:fa:f6:53:
         37:5d:44:52:69:16:e2:c7:ea:db:19:84:31:90:49:c6:25:3a:
         61:72:90:8f:93:57:92:7b:36:c6:c7:7d:dd:11:7c:ed:31:d5:
         3e:b8:06:d8:b4:0c:dd:07:31:3f:97:17:c2:cb:d0:32:21:f0:
         3f:0f:0f:f5:c2:35:5a:40:42:86:04:b8:52:a9:9a:93:71:49:
         6d:99:54:b5:aa:1a:5c:5c:14:32:3e:f4:c7:b0:95:19:14:67:
         f3:d0:4e:51:63:1f:3c:28:d3:ad:c2:4f:50:a0:12:96:b1:a0:
         90:e6:dc:ff:42:1b:29:7e:81:ee:91:b7:25:cc:c1:7f:18:c8:
         2c:0f:e4:b7
-----BEGIN CERTIFICATE-----
MIIDzTCCArWgAwIBAgIJANy3FNxTWOaEMA0GCSqGSIb3DQEBCwUAMH0xCzAJBgNV
BAYTAlVTMRMwEQYDVQQIDApDYWxpZm9ybmlhMRQwEgYDVQQHDAtTYW50YSBDbGFy
YTENMAsGA1UECgwEcGtnNTEMMAoGA1UECwwDdGE3MRIwEAYDVQQDDAlsb2NhbGhv
c3QxEjAQBgkqhkiG9w0BCQEWA3RhNzAeFw0yMTA5MjIwNTMzMzZaFw0yNDA2MTgw
NTMzMzZaMH0xCzAJBgNVBAYTAlVTMRMwEQYDVQQIDApDYWxpZm9ybmlhMRQwEgYD
VQQHDAtTYW50YSBDbGFyYTENMAsGA1UECgwEcGtnNTEMMAoGA1UECwwDdGE3MRIw
EAYDVQQDDAlsb2NhbGhvc3QxEjAQBgkqhkiG9w0BCQEWA3RhNzCCASIwDQYJKoZI
hvcNAQEBBQADggEPADCCAQoCggEBANYooC1IL3BS8PynTsg6aQPFz4K6WtN1moap
Gu5L8JMmiiWxq3DdyfgMlOmcVeyMbJbR896PUtN6yosCy1d4b6KYDfGd64amV601
/djHeukuoUJIdPxzpmhg9E0Yb7+yh7jLGR2LOAqnbsQP8+hEiqg81pHrCidQIKRL
vVxCXlRMgWV6zymgz9q/tU5MWbb8+bcSyFCanTDXhKTyhcKWcPMJMxpRxwYt2ubP
VW+/sQXFeHpLyssvB/OhQFgujBxujqAqPuy7hgy2vyVv6SdrAM8jo/6DxujOlhjv
0Cj40A6d/6H7iws6+XRC02FoaPrKmCO4ky5rWQUSWvhcdK4w8yUCAwEAAaNQME4w
HQYDVR0OBBYEFCo7hhmSSKtxyA5YqSUxxrTJDksnMB8GA1UdIwQYMBaAFCo7hhmS
SKtxyA5YqSUxxrTJDksnMAwGA1UdEwQFMAMBAf8wDQYJKoZIhvcNAQELBQADggEB
AB5iHNJejMPnxIGLCasIVOItXic0sKjK/uJMu4os8HcNikEyMcZdXHKGqtl09UeQ
9RF1gPLQvuI/VaxXHORwhWdcEEBVMkPTvmzEAOn1XIj4RmrUmtm/wdPwiWaXrM9f
x+AMtcemEPoRMPaSggFgB5MQo7vrLJTHAgSymfr2UzddRFJpFuLH6tsZhDGQScYl
OmFykI+TV5J7NsbHfd0RfO0x1T64Bti0DN0HMT+XF8LL0DIh8D8PD/XCNVpAQoYE
uFKpmpNxSW2ZVLWqGlxcFDI+9MewlRkUZ/PQTlFjHzwo063CT1CgEpaxoJDm3P9C
Gyl+ge6RtyXMwX8YyCwP5Lc=
-----END CERTIFICATE-----
