Certificate:
    Data:
        Version: 3 (0x2)
        Serial Number:
            b9:47:2f:8e:00:b3:8f:04
    Signature Algorithm: sha256WithRSAEncryption
        Issuer: C=US, ST=California, L=Santa Clara, O=pkg5, CN=ta1/emailAddress=ta1
        Validity
            Not Before: Jul 19 11:35:43 2023 GMT
            Not After : Apr 14 11:35:43 2026 GMT
        Subject: C=US, ST=California, L=Santa Clara, O=pkg5, CN=ta1/emailAddress=ta1
        Subject Public Key Info:
            Public Key Algorithm: rsaEncryption
                Public-Key: (2048 bit)
                Modulus:
                    00:b4:75:fb:93:e5:19:ac:49:6b:8e:20:2c:37:b1:
                    f7:f7:fe:1c:d5:21:e5:c6:88:d7:07:a0:93:ec:59:
                    ec:06:17:49:5b:e3:94:5e:39:60:5c:74:a4:43:70:
                    e2:a0:16:75:0a:aa:e4:5f:8a:0c:9e:3c:71:4f:f0:
                    df:8d:06:b0:ee:37:b4:8b:88:92:9b:ee:39:b2:10:
                    5e:58:6a:7e:9a:1b:07:31:d3:47:7d:ad:0e:8c:98:
                    70:b5:39:4f:32:cc:b2:eb:27:c5:3a:cf:ce:5d:b2:
                    0c:8e:23:3a:fa:35:7b:69:40:cd:fb:20:2d:62:a9:
                    c9:d3:d9:28:d5:26:b8:36:6f:7e:2b:6b:89:f4:c9:
                    88:01:f4:fa:16:3b:ec:00:ca:e1:88:3d:26:c0:07:
                    b3:05:80:67:18:a8:cc:98:d9:ca:8c:bb:15:dc:42:
                    c7:b2:76:f9:14:ac:c3:4c:90:21:f0:1c:0e:6c:00:
                    f5:12:f3:60:1f:c4:2a:e1:b3:21:e6:51:a9:c1:b8:
                    15:bb:f8:b2:1e:4e:f4:e2:da:f1:95:12:7f:d1:7b:
                    0e:be:43:90:d8:28:d3:8c:cc:95:d5:66:d4:7c:d6:
                    82:19:8a:e1:e5:65:19:1d:78:2b:5d:63:91:b6:51:
                    24:61:35:d7:30:1b:76:c6:57:44:8b:85:08:b0:3a:
                    4c:27
                Exponent: 65537 (0x10001)
        X509v3 extensions:
            X509v3 Subject Key Identifier: 
                67:65:3B:12:B8:B9:83:4A:70:FB:3A:7B:22:80:08:39:18:AA:D5:40
            X509v3 Authority Key Identifier: 
                keyid:67:65:3B:12:B8:B9:83:4A:70:FB:3A:7B:22:80:08:39:18:AA:D5:40

            X509v3 Basic Constraints: 
                CA:TRUE
    Signature Algorithm: sha256WithRSAEncryption
         6c:4f:a6:00:1e:7d:74:f2:da:56:b4:08:e8:e5:ce:59:00:14:
         e5:1d:cc:05:8c:08:8b:8f:86:af:c9:f7:7d:b4:a9:57:3a:5c:
         4a:75:34:ec:de:f1:92:d6:3d:0b:55:b5:81:11:72:c0:ec:d5:
         dd:7a:f0:c4:7f:33:b5:dc:d8:37:00:bb:c4:d1:b9:e9:7a:c7:
         15:b1:cc:ab:bb:6a:31:3b:0a:e2:b0:3d:ca:a4:cf:65:00:6a:
         52:e4:61:f0:ca:da:80:11:1b:99:21:c1:eb:17:17:76:c5:71:
         26:2e:63:c6:43:49:11:c3:e2:88:a7:ec:46:54:e9:f5:ca:3e:
         15:0b:e7:ba:b6:1b:ff:d6:1f:f9:aa:ec:a5:a4:26:dd:06:5e:
         af:13:47:da:2e:cf:7a:74:63:23:16:88:b5:32:fb:a6:8e:8b:
         de:dd:d5:3b:e8:84:dd:ae:a1:b9:ce:76:84:1d:12:99:fe:0b:
         f3:fc:66:9d:2d:e1:1e:6b:1b:3e:77:98:b4:5b:a2:41:57:3d:
         2a:93:11:f2:d1:ad:5d:87:4a:cf:d0:d8:de:ed:13:17:7b:a7:
         6e:82:79:cd:fa:9d:58:6a:8a:21:f0:be:b8:c2:a3:24:63:61:
         25:44:e5:d7:4f:0f:3c:d6:67:09:e0:5d:cd:6d:a6:a1:dc:e3:
         54:35:5e:54
-----BEGIN CERTIFICATE-----
MIIDpTCCAo2gAwIBAgIJALlHL44As48EMA0GCSqGSIb3DQEBCwUAMGkxCzAJBgNV
BAYTAlVTMRMwEQYDVQQIDApDYWxpZm9ybmlhMRQwEgYDVQQHDAtTYW50YSBDbGFy
YTENMAsGA1UECgwEcGtnNTEMMAoGA1UEAwwDdGExMRIwEAYJKoZIhvcNAQkBFgN0
YTEwHhcNMjMwNzE5MTEzNTQzWhcNMjYwNDE0MTEzNTQzWjBpMQswCQYDVQQGEwJV
UzETMBEGA1UECAwKQ2FsaWZvcm5pYTEUMBIGA1UEBwwLU2FudGEgQ2xhcmExDTAL
BgNVBAoMBHBrZzUxDDAKBgNVBAMMA3RhMTESMBAGCSqGSIb3DQEJARYDdGExMIIB
IjANBgkqhkiG9w0BAQEFAAOCAQ8AMIIBCgKCAQEAtHX7k+UZrElrjiAsN7H39/4c
1SHlxojXB6CT7FnsBhdJW+OUXjlgXHSkQ3DioBZ1CqrkX4oMnjxxT/DfjQaw7je0
i4iSm+45shBeWGp+mhsHMdNHfa0OjJhwtTlPMsyy6yfFOs/OXbIMjiM6+jV7aUDN
+yAtYqnJ09ko1Sa4Nm9+K2uJ9MmIAfT6FjvsAMrhiD0mwAezBYBnGKjMmNnKjLsV
3ELHsnb5FKzDTJAh8BwObAD1EvNgH8Qq4bMh5lGpwbgVu/iyHk704trxlRJ/0XsO
vkOQ2CjTjMyV1WbUfNaCGYrh5WUZHXgrXWORtlEkYTXXMBt2xldEi4UIsDpMJwID
AQABo1AwTjAdBgNVHQ4EFgQUZ2U7Eri5g0pw+zp7IoAIORiq1UAwHwYDVR0jBBgw
FoAUZ2U7Eri5g0pw+zp7IoAIORiq1UAwDAYDVR0TBAUwAwEB/zANBgkqhkiG9w0B
AQsFAAOCAQEAbE+mAB59dPLaVrQI6OXOWQAU5R3MBYwIi4+Gr8n3fbSpVzpcSnU0
7N7xktY9C1W1gRFywOzV3XrwxH8ztdzYNwC7xNG56XrHFbHMq7tqMTsK4rA9yqTP
ZQBqUuRh8MragBEbmSHB6xcXdsVxJi5jxkNJEcPiiKfsRlTp9co+FQvnurYb/9Yf
+arspaQm3QZerxNH2i7PenRjIxaItTL7po6L3t3VO+iE3a6huc52hB0Smf4L8/xm
nS3hHmsbPneYtFuiQVc9KpMR8tGtXYdKz9DY3u0TF3unboJ5zfqdWGqKIfC+uMKj
JGNhJUTl108PPNZnCeBdzW2modzjVDVeVA==
-----END CERTIFICATE-----
