Certificate:
    Data:
        Version: 3 (0x2)
        Serial Number:
            c1:e4:f1:a8:14:c7:a7:58
        Signature Algorithm: sha256WithRSAEncryption
        Issuer: C=US, ST=California, L=Menlo Park, O=pkg5, CN=ta1/emailAddress=ta1
        Validity
            Not Before: Jan 28 02:54:10 2011 GMT
            Not After : Oct 24 02:54:10 2013 GMT
        Subject: C=US, ST=California, L=Menlo Park, O=pkg5, CN=ta1/emailAddress=ta1
        Subject Public Key Info:
            Public Key Algorithm: rsaEncryption
            RSA Public Key: (1024 bit)
                Modulus (1024 bit):
                    00:a4:e5:50:4f:dd:85:ff:70:fd:e9:82:c0:b4:44:
                    4e:3f:50:5e:32:57:52:9e:1d:ce:96:a4:36:38:5f:
                    2c:c0:41:27:a7:4d:f4:04:d8:05:71:b3:56:a4:09:
                    32:26:38:f8:17:a6:d7:e8:4c:f6:64:56:e0:fb:fa:
                    6b:41:44:9c:06:fe:f1:99:35:d5:bb:66:8c:12:f6:
                    ab:cd:90:02:df:94:97:5e:8c:94:89:8a:8f:2e:8b:
                    8a:3c:0a:85:2f:9a:25:34:ad:b4:82:e4:04:4d:a8:
                    8b:dc:b4:42:58:3d:c1:0f:85:28:d7:25:22:02:b8:
                    09:f2:23:2e:57:eb:dd:e3:31
                Exponent: 65537 (0x10001)
        X509v3 extensions:
            X509v3 Subject Key Identifier: 
                15:AB:A2:AB:34:BD:EB:C4:C9:AE:0D:82:51:00:DD:2D:B1:1D:1A:7B
            X509v3 Authority Key Identifier: 
                keyid:15:AB:A2:AB:34:BD:EB:C4:C9:AE:0D:82:51:00:DD:2D:B1:1D:1A:7B
                DirName:/C=US/ST=California/L=Menlo Park/O=pkg5/CN=ta1/emailAddress=ta1
                serial:C1:E4:F1:A8:14:C7:A7:58

            X509v3 Basic Constraints: 
                CA:TRUE
    Signature Algorithm: sha256WithRSAEncryption
        4c:dc:c9:ca:75:c0:d1:87:da:b1:43:63:b9:41:2c:d1:05:78:
        17:80:0a:63:8e:ea:a8:2a:8b:84:75:2a:ef:17:d1:5e:d9:78:
        c5:4f:fb:b1:cb:16:93:fe:1b:b1:4f:4c:f2:b8:80:60:1a:34:
        ff:d2:c3:99:6a:94:4a:00:4b:08:ea:b1:a6:1c:61:d1:8c:a3:
        05:08:34:24:c7:6d:4a:7a:af:b0:1b:62:55:38:0d:fb:5e:ce:
        4b:49:6f:c1:1b:0c:a6:7b:00:a8:e9:42:37:6b:1f:4c:4e:c6:
        52:9c:cd:f0:86:39:68:b8:a4:51:e6:9a:4a:70:ef:60:e7:51:
        7d:4a
-----BEGIN CERTIFICATE-----
MIIDHDCCAoWgAwIBAgIJAMHk8agUx6dYMA0GCSqGSIb3DQEBCwUAMGgxCzAJBgNV
BAYTAlVTMRMwEQYDVQQIEwpDYWxpZm9ybmlhMRMwEQYDVQQHEwpNZW5sbyBQYXJr
MQ0wCwYDVQQKEwRwa2c1MQwwCgYDVQQDEwN0YTExEjAQBgkqhkiG9w0BCQEWA3Rh
MTAeFw0xMTAxMjgwMjU0MTBaFw0xMzEwMjQwMjU0MTBaMGgxCzAJBgNVBAYTAlVT
MRMwEQYDVQQIEwpDYWxpZm9ybmlhMRMwEQYDVQQHEwpNZW5sbyBQYXJrMQ0wCwYD
VQQKEwRwa2c1MQwwCgYDVQQDEwN0YTExEjAQBgkqhkiG9w0BCQEWA3RhMTCBnzAN
BgkqhkiG9w0BAQEFAAOBjQAwgYkCgYEApOVQT92F/3D96YLAtEROP1BeMldSnh3O
lqQ2OF8swEEnp030BNgFcbNWpAkyJjj4F6bX6Ez2ZFbg+/prQUScBv7xmTXVu2aM
EvarzZAC35SXXoyUiYqPLouKPAqFL5olNK20guQETaiL3LRCWD3BD4Uo1yUiArgJ
8iMuV+vd4zECAwEAAaOBzTCByjAdBgNVHQ4EFgQUFauiqzS968TJrg2CUQDdLbEd
GnswgZoGA1UdIwSBkjCBj4AUFauiqzS968TJrg2CUQDdLbEdGnuhbKRqMGgxCzAJ
BgNVBAYTAlVTMRMwEQYDVQQIEwpDYWxpZm9ybmlhMRMwEQYDVQQHEwpNZW5sbyBQ
YXJrMQ0wCwYDVQQKEwRwa2c1MQwwCgYDVQQDEwN0YTExEjAQBgkqhkiG9w0BCQEW
A3RhMYIJAMHk8agUx6dYMAwGA1UdEwQFMAMBAf8wDQYJKoZIhvcNAQELBQADgYEA
TNzJynXA0YfasUNjuUEs0QV4F4AKY47qqCqLhHUq7xfRXtl4xU/7scsWk/4bsU9M
8riAYBo0/9LDmWqUSgBLCOqxphxh0YyjBQg0JMdtSnqvsBtiVTgN+17OS0lvwRsM
pnsAqOlCN2sfTE7GUpzN8IY5aLikUeaaSnDvYOdRfUo=
-----END CERTIFICATE-----
