Certificate:
    Data:
        Version: 3 (0x2)
        Serial Number:
            6b:aa:7f:7a:bd:26:f2:39:5d:67:7c:ea:87:ed:02:a7:90:45:cb:bc
        Signature Algorithm: sha256WithRSAEncryption
        Issuer: C = US, ST = California, L = Santa Clara, O = pkg5, CN = ta1, emailAddress = ta1
        Validity
            Not Before: Mar 18 08:51:26 2026 GMT
            Not After : Dec 12 08:51:26 2028 GMT
        Subject: C = US, ST = California, L = Santa Clara, O = pkg5, CN = ta1, emailAddress = ta1
        Subject Public Key Info:
            Public Key Algorithm: rsaEncryption
                Public-Key: (2048 bit)
                Modulus:
                    00:cc:60:bb:1f:67:1f:a4:13:7e:22:d5:d9:db:5f:
                    03:74:25:3a:4d:9c:50:f6:b1:66:1d:35:57:3d:17:
                    1b:0f:91:75:82:f9:86:84:0e:48:ec:e9:50:cc:f7:
                    0c:7a:9f:80:3f:f9:41:7b:78:9c:0f:82:8c:0b:5d:
                    69:e2:d3:7a:ba:53:80:7a:e7:0f:2b:66:57:91:a2:
                    27:21:7f:ac:7f:cc:38:42:e2:6e:8d:8c:31:fe:85:
                    af:93:48:30:31:49:59:c8:ed:b4:fc:bb:5f:9e:1b:
                    6b:fc:d6:13:55:63:56:a2:75:fc:c2:52:f5:27:42:
                    16:51:f3:fc:79:25:42:a9:af:95:2e:7f:b7:4b:25:
                    e6:c6:e6:42:52:6f:95:f3:cf:48:42:16:72:04:67:
                    27:82:e2:7b:ec:42:7d:f6:27:f7:d0:38:7c:6f:0a:
                    2d:c6:a1:35:b7:78:50:4c:75:43:2a:ae:df:af:8b:
                    5a:24:a5:10:24:09:03:1e:30:47:88:76:38:ed:4f:
                    83:93:d0:d5:0a:5c:57:27:5d:66:ef:7b:c8:73:0e:
                    4d:02:04:a4:04:f8:1a:2d:b1:35:16:5e:eb:1a:5a:
                    60:ba:be:60:dd:0d:ea:bb:ea:64:7f:f4:3c:a7:41:
                    10:42:1f:75:ad:1a:19:eb:51:a9:bf:c1:ea:0e:0f:
                    71:97
                Exponent: 65537 (0x10001)
        X509v3 extensions:
            X509v3 Subject Key Identifier: 
                ED:3C:77:CC:47:08:93:9A:61:D1:AA:28:9F:34:EB:11:67:36:30:18
            X509v3 Authority Key Identifier: 
                ED:3C:77:CC:47:08:93:9A:61:D1:AA:28:9F:34:EB:11:67:36:30:18
            X509v3 Basic Constraints: critical
                CA:TRUE
    Signature Algorithm: sha256WithRSAEncryption
    Signature Value:
        12:5d:28:22:ec:9d:52:34:17:50:e9:0c:9e:d9:44:06:27:3f:
        10:13:ca:62:0e:83:de:86:30:66:20:1a:ef:94:a3:73:57:80:
        49:4e:e0:48:b3:55:d3:e2:8c:eb:00:3f:e6:4d:74:10:84:d9:
        e7:f9:9b:24:2f:33:0b:9d:1a:9d:77:84:1b:57:35:8c:d5:de:
        f3:c1:07:b4:a7:b7:69:28:b8:b8:f2:78:50:f7:25:3a:d4:dc:
        3f:be:95:d9:bb:cd:e2:94:d2:69:45:65:b5:32:c6:e3:d6:61:
        d2:5a:81:a0:fc:3c:28:65:9f:4a:9d:9d:1a:14:fd:3d:c8:22:
        bc:84:c5:78:24:8d:33:d6:80:c8:6a:af:d9:06:8a:53:4c:a5:
        72:a3:24:2d:fa:4a:41:4a:4b:de:17:4a:c7:f6:10:2a:c3:46:
        31:bd:3d:e4:88:02:8b:a0:f0:ad:9b:51:28:29:a8:32:d1:f3:
        db:be:d7:d0:c6:67:3f:a1:e9:81:8a:c8:21:23:c8:b6:d7:00:
        92:b9:58:75:a6:95:e6:1d:b2:15:79:0d:0b:41:e0:62:28:86:
        e6:bd:a0:7b:7f:5a:e3:6e:dd:22:4d:31:0c:2a:13:59:cc:fd:
        15:b1:ab:2b:37:d6:c1:70:cc:ae:6d:c7:24:7c:de:18:c0:9e:
        d5:21:85:3a
-----BEGIN CERTIFICATE-----
MIIDszCCApugAwIBAgIUa6p/er0m8jldZ3zqh+0Cp5BFy7wwDQYJKoZIhvcNAQEL
BQAwaTELMAkGA1UEBhMCVVMxEzARBgNVBAgMCkNhbGlmb3JuaWExFDASBgNVBAcM
C1NhbnRhIENsYXJhMQ0wCwYDVQQKDARwa2c1MQwwCgYDVQQDDAN0YTExEjAQBgkq
hkiG9w0BCQEWA3RhMTAeFw0yNjAzMTgwODUxMjZaFw0yODEyMTIwODUxMjZaMGkx
CzAJBgNVBAYTAlVTMRMwEQYDVQQIDApDYWxpZm9ybmlhMRQwEgYDVQQHDAtTYW50
YSBDbGFyYTENMAsGA1UECgwEcGtnNTEMMAoGA1UEAwwDdGExMRIwEAYJKoZIhvcN
AQkBFgN0YTEwggEiMA0GCSqGSIb3DQEBAQUAA4IBDwAwggEKAoIBAQDMYLsfZx+k
E34i1dnbXwN0JTpNnFD2sWYdNVc9FxsPkXWC+YaEDkjs6VDM9wx6n4A/+UF7eJwP
gowLXWni03q6U4B65w8rZleRoichf6x/zDhC4m6NjDH+ha+TSDAxSVnI7bT8u1+e
G2v81hNVY1aidfzCUvUnQhZR8/x5JUKpr5Uuf7dLJebG5kJSb5Xzz0hCFnIEZyeC
4nvsQn32J/fQOHxvCi3GoTW3eFBMdUMqrt+vi1okpRAkCQMeMEeIdjjtT4OT0NUK
XFcnXWbve8hzDk0CBKQE+BotsTUWXusaWmC6vmDdDeq76mR/9DynQRBCH3WtGhnr
Uam/weoOD3GXAgMBAAGjUzBRMB0GA1UdDgQWBBTtPHfMRwiTmmHRqiifNOsRZzYw
GDAfBgNVHSMEGDAWgBTtPHfMRwiTmmHRqiifNOsRZzYwGDAPBgNVHRMBAf8EBTAD
AQH/MA0GCSqGSIb3DQEBCwUAA4IBAQASXSgi7J1SNBdQ6Qye2UQGJz8QE8piDoPe
hjBmIBrvlKNzV4BJTuBIs1XT4ozrAD/mTXQQhNnn+ZskLzMLnRqdd4QbVzWM1d7z
wQe0p7dpKLi48nhQ9yU61Nw/vpXZu83ilNJpRWW1Msbj1mHSWoGg/DwoZZ9KnZ0a
FP09yCK8hMV4JI0z1oDIaq/ZBopTTKVyoyQt+kpBSkveF0rH9hAqw0YxvT3kiAKL
oPCtm1EoKagy0fPbvtfQxmc/oemBisghI8i21wCSuVh1ppXmHbIVeQ0LQeBiKIbm
vaB7f1rjbt0iTTEMKhNZzP0VsasrN9bBcMyubcckfN4YwJ7VIYU6
-----END CERTIFICATE-----
