Certificate:
    Data:
        Version: 3 (0x2)
        Serial Number:
            cb:cf:1d:cd:f3:a6:cd:09
        Signature Algorithm: sha256WithRSAEncryption
        Issuer: C=US, ST=California, L=Menlo Park, O=pkg5, CN=ta1/emailAddress=ta1
        Validity
            Not Before: Aug  4 20:59:22 2010 GMT
            Not After : Apr 30 20:59:22 2013 GMT
        Subject: C=US, ST=California, L=Menlo Park, O=pkg5, CN=ta1/emailAddress=ta1
        Subject Public Key Info:
            Public Key Algorithm: rsaEncryption
            RSA Public Key: (1024 bit)
                Modulus (1024 bit):
                    00:a7:64:67:53:f2:9a:c9:ce:a9:4a:92:16:57:61:
                    c3:af:9d:0e:9f:61:82:ad:cf:7f:aa:59:f2:fa:06:
                    3d:a2:ad:4f:db:90:3e:48:3e:00:d4:eb:96:c2:19:
                    b3:e0:6a:f2:21:61:83:92:dd:86:50:ff:c6:3f:de:
                    22:9c:1c:74:cb:09:06:e7:78:c2:8c:f8:98:2e:b5:
                    e4:c2:f4:bf:b7:92:46:af:c7:d6:6c:59:07:d9:8c:
                    06:96:1b:ef:10:dc:3e:f8:8b:08:9d:bd:81:3c:0d:
                    a3:e9:55:5f:1b:04:39:b9:7f:f4:cf:d6:f9:a2:31:
                    3a:83:96:21:92:a7:13:c4:4d
                Exponent: 65537 (0x10001)
        X509v3 extensions:
            X509v3 Subject Key Identifier: 
                BB:C9:C7:62:4B:87:B7:6A:32:3F:A5:51:7B:C1:3A:8E:3F:06:5C:F7
            X509v3 Authority Key Identifier: 
                keyid:BB:C9:C7:62:4B:87:B7:6A:32:3F:A5:51:7B:C1:3A:8E:3F:06:5C:F7
                DirName:/C=US/ST=California/L=Menlo Park/O=pkg5/CN=ta1/emailAddress=ta1
                serial:CB:CF:1D:CD:F3:A6:CD:09

            X509v3 Basic Constraints: 
                CA:TRUE
    Signature Algorithm: sha256WithRSAEncryption
        07:cb:90:df:b3:18:22:61:79:1d:39:67:ee:3d:94:a8:7b:e1:
        64:52:41:4a:1f:6e:14:34:b9:27:aa:05:77:f9:38:0c:66:20:
        cf:92:0e:4e:94:bf:62:f1:2d:08:1c:ca:3e:77:5a:07:e9:35:
        bb:a7:ca:31:8a:44:10:a9:56:f4:96:81:84:52:2c:36:45:ea:
        72:46:6c:4a:ca:05:8c:79:d1:03:93:84:96:e4:fa:7b:5d:59:
        21:9f:87:4d:ab:f1:64:e0:92:14:59:c6:c4:d8:3c:33:64:58:
        98:96:83:f1:a6:26:fd:54:57:d7:f9:71:3c:83:d6:9b:ab:2a:
        34:2f
-----BEGIN CERTIFICATE-----
MIIDHDCCAoWgAwIBAgIJAMvPHc3zps0JMA0GCSqGSIb3DQEBCwUAMGgxCzAJBgNV
BAYTAlVTMRMwEQYDVQQIEwpDYWxpZm9ybmlhMRMwEQYDVQQHEwpNZW5sbyBQYXJr
MQ0wCwYDVQQKEwRwa2c1MQwwCgYDVQQDEwN0YTExEjAQBgkqhkiG9w0BCQEWA3Rh
MTAeFw0xMDA4MDQyMDU5MjJaFw0xMzA0MzAyMDU5MjJaMGgxCzAJBgNVBAYTAlVT
MRMwEQYDVQQIEwpDYWxpZm9ybmlhMRMwEQYDVQQHEwpNZW5sbyBQYXJrMQ0wCwYD
VQQKEwRwa2c1MQwwCgYDVQQDEwN0YTExEjAQBgkqhkiG9w0BCQEWA3RhMTCBnzAN
BgkqhkiG9w0BAQEFAAOBjQAwgYkCgYEAp2RnU/Kayc6pSpIWV2HDr50On2GCrc9/
qlny+gY9oq1P25A+SD4A1OuWwhmz4GryIWGDkt2GUP/GP94inBx0ywkG53jCjPiY
LrXkwvS/t5JGr8fWbFkH2YwGlhvvENw++IsInb2BPA2j6VVfGwQ5uX/0z9b5ojE6
g5YhkqcTxE0CAwEAAaOBzTCByjAdBgNVHQ4EFgQUu8nHYkuHt2oyP6VRe8E6jj8G
XPcwgZoGA1UdIwSBkjCBj4AUu8nHYkuHt2oyP6VRe8E6jj8GXPehbKRqMGgxCzAJ
BgNVBAYTAlVTMRMwEQYDVQQIEwpDYWxpZm9ybmlhMRMwEQYDVQQHEwpNZW5sbyBQ
YXJrMQ0wCwYDVQQKEwRwa2c1MQwwCgYDVQQDEwN0YTExEjAQBgkqhkiG9w0BCQEW
A3RhMYIJAMvPHc3zps0JMAwGA1UdEwQFMAMBAf8wDQYJKoZIhvcNAQELBQADgYEA
B8uQ37MYImF5HTln7j2UqHvhZFJBSh9uFDS5J6oFd/k4DGYgz5IOTpS/YvEtCBzK
PndaB+k1u6fKMYpEEKlW9JaBhFIsNkXqckZsSsoFjHnRA5OEluT6e11ZIZ+HTavx
ZOCSFFnGxNg8M2RYmJaD8aYm/VRX1/lxPIPWm6sqNC8=
-----END CERTIFICATE-----
