Certificate:
    Data:
        Version: 3 (0x2)
        Serial Number:
            de:88:28:ec:1b:64:08:9c
        Signature Algorithm: sha256WithRSAEncryption
        Issuer: C=US, ST=California, L=Menlo Park, O=pkg5, CN=ta1/emailAddress=ta1
        Validity
            Not Before: Mar 21 00:49:23 2011 GMT
            Not After : Dec 15 00:49:23 2013 GMT
        Subject: C=US, ST=California, L=Menlo Park, O=pkg5, CN=ta1/emailAddress=ta1
        Subject Public Key Info:
            Public Key Algorithm: rsaEncryption
            RSA Public Key: (1024 bit)
                Modulus (1024 bit):
                    00:d6:e9:55:f5:86:01:d5:2b:dd:52:6e:82:89:dc:
                    7a:23:a2:8b:32:28:af:09:2b:37:f4:98:d9:2d:3d:
                    b6:d3:58:6d:4d:f9:e5:af:40:aa:41:8e:ca:6a:11:
                    28:6e:bd:17:ee:17:5f:22:c3:15:99:65:3d:fc:b6:
                    16:bc:5a:fb:bd:a7:15:b0:ff:f6:5d:19:20:3c:f5:
                    78:54:19:75:cc:61:82:6f:bc:bb:1a:5f:c8:37:7a:
                    b0:c0:5e:30:27:a1:aa:b2:87:4d:10:57:fc:2d:d6:
                    17:6d:b0:39:bd:06:b5:0f:ce:d1:00:2f:85:35:ad:
                    c8:72:39:e5:2c:e4:06:2a:1b
                Exponent: 65537 (0x10001)
        X509v3 extensions:
            X509v3 Subject Key Identifier: 
                06:D0:C0:FB:C5:79:67:F9:F9:10:92:CA:81:5B:5F:92:D8:D8:9F:A6
            X509v3 Authority Key Identifier: 
                keyid:06:D0:C0:FB:C5:79:67:F9:F9:10:92:CA:81:5B:5F:92:D8:D8:9F:A6
                DirName:/C=US/ST=California/L=Menlo Park/O=pkg5/CN=ta1/emailAddress=ta1
                serial:DE:88:28:EC:1B:64:08:9C

            X509v3 Basic Constraints: 
                CA:TRUE
    Signature Algorithm: sha256WithRSAEncryption
        a5:e8:f1:e8:94:a3:87:7b:60:62:54:0b:7d:b6:02:16:6f:cf:
        05:10:1e:fc:99:36:f2:a7:22:40:41:9b:a5:c2:6a:c7:2d:87:
        6b:1d:4d:d6:9e:1c:15:20:5f:62:f2:51:b8:6a:f5:2b:75:b7:
        aa:21:aa:9c:e2:88:e0:74:ce:4e:84:a1:28:fb:24:c7:bb:6f:
        d5:e3:f6:36:57:fe:1e:ba:98:ab:82:51:fa:33:75:93:a5:bb:
        fb:8f:00:54:fd:e4:fd:00:f7:e2:84:ed:71:3e:e8:66:3a:82:
        f2:70:d6:ee:2b:d9:b9:07:50:6f:d6:86:04:5a:bf:64:07:bd:
        2f:70
-----BEGIN CERTIFICATE-----
MIIDHDCCAoWgAwIBAgIJAN6IKOwbZAicMA0GCSqGSIb3DQEBCwUAMGgxCzAJBgNV
BAYTAlVTMRMwEQYDVQQIEwpDYWxpZm9ybmlhMRMwEQYDVQQHEwpNZW5sbyBQYXJr
MQ0wCwYDVQQKEwRwa2c1MQwwCgYDVQQDEwN0YTExEjAQBgkqhkiG9w0BCQEWA3Rh
MTAeFw0xMTAzMjEwMDQ5MjNaFw0xMzEyMTUwMDQ5MjNaMGgxCzAJBgNVBAYTAlVT
MRMwEQYDVQQIEwpDYWxpZm9ybmlhMRMwEQYDVQQHEwpNZW5sbyBQYXJrMQ0wCwYD
VQQKEwRwa2c1MQwwCgYDVQQDEwN0YTExEjAQBgkqhkiG9w0BCQEWA3RhMTCBnzAN
BgkqhkiG9w0BAQEFAAOBjQAwgYkCgYEA1ulV9YYB1SvdUm6Cidx6I6KLMiivCSs3
9JjZLT2201htTfnlr0CqQY7KahEobr0X7hdfIsMVmWU9/LYWvFr7vacVsP/2XRkg
PPV4VBl1zGGCb7y7Gl/IN3qwwF4wJ6GqsodNEFf8LdYXbbA5vQa1D87RAC+FNa3I
cjnlLOQGKhsCAwEAAaOBzTCByjAdBgNVHQ4EFgQUBtDA+8V5Z/n5EJLKgVtfktjY
n6YwgZoGA1UdIwSBkjCBj4AUBtDA+8V5Z/n5EJLKgVtfktjYn6ahbKRqMGgxCzAJ
BgNVBAYTAlVTMRMwEQYDVQQIEwpDYWxpZm9ybmlhMRMwEQYDVQQHEwpNZW5sbyBQ
YXJrMQ0wCwYDVQQKEwRwa2c1MQwwCgYDVQQDEwN0YTExEjAQBgkqhkiG9w0BCQEW
A3RhMYIJAN6IKOwbZAicMAwGA1UdEwQFMAMBAf8wDQYJKoZIhvcNAQELBQADgYEA
pejx6JSjh3tgYlQLfbYCFm/PBRAe/Jk28qciQEGbpcJqxy2Hax1N1p4cFSBfYvJR
uGr1K3W3qiGqnOKI4HTOToShKPskx7tv1eP2Nlf+HrqYq4JR+jN1k6W7+48AVP3k
/QD34oTtcT7oZjqC8nDW7ivZuQdQb9aGBFq/ZAe9L3A=
-----END CERTIFICATE-----
