Certificate:
    Data:
        Version: 3 (0x2)
        Serial Number: 13325533720867278977 (0xb8edce5142c89081)
    Signature Algorithm: sha256WithRSAEncryption
        Issuer: C=US, ST=California, L=Santa Clara, O=pkg5, CN=ta1/emailAddress=ta1
        Validity
            Not Before: Jan 22 01:57:53 2016 GMT
            Not After : Oct 18 01:57:53 2018 GMT
        Subject: C=US, ST=California, L=Santa Clara, O=pkg5, CN=ta1/emailAddress=ta1
        Subject Public Key Info:
            Public Key Algorithm: rsaEncryption
                Public-Key: (2048 bit)
                Modulus:
                    00:9c:25:72:a7:1d:ce:9e:93:33:ea:76:60:be:ba:
                    03:c0:a6:7a:85:02:68:bf:9c:22:17:63:34:a4:b9:
                    08:5b:46:3d:88:11:f7:1b:43:d9:b7:48:bc:7d:66:
                    2a:e9:53:8a:da:8c:e4:6c:1e:a6:a2:cb:33:85:84:
                    72:a1:d4:ec:2c:1b:8a:fa:1f:8d:11:4b:41:e2:ed:
                    ea:42:ba:35:81:f8:0f:70:71:51:31:82:40:09:3f:
                    42:9e:da:34:6c:d1:c6:7c:ac:91:a7:b6:fa:b9:1a:
                    7c:25:1e:d2:61:68:02:41:90:ad:b1:01:fc:07:3e:
                    39:a3:c1:ed:2c:3a:35:00:99:ff:08:fd:4c:30:57:
                    71:83:6c:04:87:51:f0:e0:9c:e3:92:62:ec:1b:b4:
                    b8:c8:dc:8d:b2:1b:4c:a7:dd:43:5c:af:f2:62:0c:
                    fa:5a:28:f1:fd:89:95:74:27:29:55:b9:15:f8:c5:
                    cf:fe:b7:d4:98:e6:2d:ee:09:5e:31:a3:81:8b:04:
                    c9:c6:20:43:03:ca:b1:62:d1:ee:3b:ae:c2:47:9c:
                    2d:d0:95:45:b8:73:d6:3f:03:41:42:aa:d6:c9:e7:
                    7d:61:d8:0c:f2:db:26:cf:af:8b:71:74:35:5f:11:
                    a2:de:ab:68:75:a4:18:dd:6e:aa:c6:d6:b5:30:42:
                    e3:3b
                Exponent: 65537 (0x10001)
        X509v3 extensions:
            X509v3 Subject Key Identifier: 
                D6:A2:C9:8F:BE:AC:C1:F3:E7:8A:8D:01:1C:0A:7D:C1:EE:88:E5:A6
            X509v3 Authority Key Identifier: 
                keyid:D6:A2:C9:8F:BE:AC:C1:F3:E7:8A:8D:01:1C:0A:7D:C1:EE:88:E5:A6

            X509v3 Basic Constraints: 
                CA:TRUE
    Signature Algorithm: sha256WithRSAEncryption
         92:5c:43:32:53:8c:e5:b4:74:c6:c4:78:20:ec:74:8c:28:7d:
         b0:b1:e2:cd:cd:bc:f6:8c:e5:60:e2:0b:10:b5:be:15:fc:34:
         bf:f1:b9:8b:c8:16:22:02:05:a5:09:30:2f:c4:47:6b:d0:f0:
         d3:c4:39:3f:66:e5:1e:f2:8c:10:a7:0d:5c:94:64:1e:c1:69:
         25:16:9d:92:76:b0:ef:92:a2:db:64:56:cf:b1:fc:1a:89:cb:
         21:89:6d:6f:73:5c:d3:6a:06:c3:d5:ea:3b:80:8a:ac:a5:25:
         b7:59:fd:ca:63:a7:bf:96:50:dd:cd:f6:90:25:6c:b4:60:b3:
         23:37:ea:9c:95:e7:3a:c1:78:f8:c9:bf:59:57:e2:d5:35:41:
         d0:49:9a:56:e4:97:89:c5:eb:51:b3:bd:86:d0:3b:bc:fa:fe:
         b3:11:42:4d:39:3f:64:b7:60:87:dc:d0:e4:e8:7b:f1:39:39:
         b2:1d:c3:04:22:f3:54:d7:48:44:33:48:8d:38:89:30:f8:17:
         52:5c:15:5a:0d:ce:fe:bd:34:c2:b3:e2:0d:f5:f8:30:ee:f2:
         ad:01:fb:54:ef:84:50:c7:b8:f4:63:76:f7:6a:9a:5a:94:3f:
         29:a0:cf:bf:5f:10:d9:59:12:34:43:6c:cb:d6:b6:78:11:85:
         0c:c3:19:aa
-----BEGIN CERTIFICATE-----
MIIDpTCCAo2gAwIBAgIJALjtzlFCyJCBMA0GCSqGSIb3DQEBCwUAMGkxCzAJBgNV
BAYTAlVTMRMwEQYDVQQIDApDYWxpZm9ybmlhMRQwEgYDVQQHDAtTYW50YSBDbGFy
YTENMAsGA1UECgwEcGtnNTEMMAoGA1UEAwwDdGExMRIwEAYJKoZIhvcNAQkBFgN0
YTEwHhcNMTYwMTIyMDE1NzUzWhcNMTgxMDE4MDE1NzUzWjBpMQswCQYDVQQGEwJV
UzETMBEGA1UECAwKQ2FsaWZvcm5pYTEUMBIGA1UEBwwLU2FudGEgQ2xhcmExDTAL
BgNVBAoMBHBrZzUxDDAKBgNVBAMMA3RhMTESMBAGCSqGSIb3DQEJARYDdGExMIIB
IjANBgkqhkiG9w0BAQEFAAOCAQ8AMIIBCgKCAQEAnCVypx3OnpMz6nZgvroDwKZ6
hQJov5wiF2M0pLkIW0Y9iBH3G0PZt0i8fWYq6VOK2ozkbB6mosszhYRyodTsLBuK
+h+NEUtB4u3qQro1gfgPcHFRMYJACT9Cnto0bNHGfKyRp7b6uRp8JR7SYWgCQZCt
sQH8Bz45o8HtLDo1AJn/CP1MMFdxg2wEh1Hw4JzjkmLsG7S4yNyNshtMp91DXK/y
Ygz6Wijx/YmVdCcpVbkV+MXP/rfUmOYt7gleMaOBiwTJxiBDA8qxYtHuO67CR5wt
0JVFuHPWPwNBQqrWyed9YdgM8tsmz6+LcXQ1XxGi3qtodaQY3W6qxta1MELjOwID
AQABo1AwTjAdBgNVHQ4EFgQU1qLJj76swfPnio0BHAp9we6I5aYwHwYDVR0jBBgw
FoAU1qLJj76swfPnio0BHAp9we6I5aYwDAYDVR0TBAUwAwEB/zANBgkqhkiG9w0B
AQsFAAOCAQEAklxDMlOM5bR0xsR4IOx0jCh9sLHizc289ozlYOILELW+Ffw0v/G5
i8gWIgIFpQkwL8RHa9Dw08Q5P2blHvKMEKcNXJRkHsFpJRadknaw75Ki22RWz7H8
GonLIYltb3Nc02oGw9XqO4CKrKUlt1n9ymOnv5ZQ3c32kCVstGCzIzfqnJXnOsF4
+Mm/WVfi1TVB0EmaVuSXicXrUbO9htA7vPr+sxFCTTk/ZLdgh9zQ5Oh78Tk5sh3D
BCLzVNdIRDNIjTiJMPgXUlwVWg3O/r00wrPiDfX4MO7yrQH7VO+EUMe49GN292qa
WpQ/KaDPv18Q2VkSNENsy9a2eBGFDMMZqg==
-----END CERTIFICATE-----
