Certificate:
    Data:
        Version: 3 (0x2)
        Serial Number: 1 (0x1)
    Signature Algorithm: sha256WithRSAEncryption
        Issuer: C=US, ST=California, L=Santa Clara, O=pkg5, CN=ta1/emailAddress=ta1
        Validity
            Not Before: Dec 13 00:13:34 2013 GMT
            Not After : Sep  8 00:13:34 2016 GMT
        Subject: C=US, ST=California, L=Santa Clara, O=pkg5, CN=ch1_ta1/emailAddress=ch1_ta1
        Subject Public Key Info:
            Public Key Algorithm: rsaEncryption
                Public-Key: (1024 bit)
                Modulus:
                    00:da:3a:b2:74:16:5c:38:7c:93:3a:48:cb:9f:71:
                    7c:aa:b9:ff:d7:25:5f:cd:90:6c:e6:87:6d:ed:34:
                    0f:12:19:00:a8:36:fe:51:4b:b2:38:76:55:2a:d1:
                    ce:3b:a3:78:75:db:c8:ba:85:8b:ad:80:0e:84:ab:
                    1f:4b:80:90:20:56:49:7b:71:a0:16:f8:15:8a:cd:
                    70:ee:45:1f:53:34:3c:85:df:10:75:e2:b1:68:97:
                    c5:0d:66:7f:bf:e7:b3:d1:09:03:1b:50:14:dc:e3:
                    3e:a9:b6:6a:63:e6:0f:51:3e:06:59:50:43:da:10:
                    99:0d:79:a3:b4:76:89:a2:01
                Exponent: 65537 (0x10001)
        X509v3 extensions:
            X509v3 Subject Key Identifier: 
                36:46:2D:8A:1B:8B:CE:C1:1D:02:37:B9:EC:A5:FF:BA:73:AE:E5:48
            X509v3 Authority Key Identifier: 
                keyid:81:54:6B:06:08:DD:44:4F:08:81:21:7A:7C:D5:96:EA:53:2B:E3:0A
                DirName:/C=US/ST=California/L=Santa Clara/O=pkg5/CN=ta1/emailAddress=ta1
                serial:F6:A8:B6:5C:10:8D:04:4F

            X509v3 Basic Constraints: critical
                CA:TRUE, pathlen:4
            X509v3 Key Usage: critical
                Certificate Sign, CRL Sign
    Signature Algorithm: sha256WithRSAEncryption
         38:4a:69:9d:14:fa:51:b9:35:9c:c8:ae:e5:c0:e2:2e:4c:d4:
         57:ad:64:05:99:e4:94:b3:d3:97:e0:0e:bd:1c:b4:64:c8:2b:
         07:18:26:7f:99:ef:9c:48:e6:23:b3:96:37:92:54:85:8b:29:
         19:60:12:11:fc:d8:62:84:5c:75:73:76:9e:0f:f8:a7:95:79:
         c8:3c:75:f7:13:73:1f:be:fa:60:79:5c:6c:12:8d:ca:f9:58:
         4b:1f:ed:0a:52:4c:61:95:6f:9a:a7:57:0c:20:9a:19:73:dc:
         3d:42:aa:47:29:ac:92:a9:cc:4a:eb:85:6d:ab:cd:ed:2b:9a:
         e5:c1
-----BEGIN CERTIFICATE-----
MIIDNTCCAp6gAwIBAgIBATANBgkqhkiG9w0BAQsFADBpMQswCQYDVQQGEwJVUzET
MBEGA1UECAwKQ2FsaWZvcm5pYTEUMBIGA1UEBwwLU2FudGEgQ2xhcmExDTALBgNV
BAoMBHBrZzUxDDAKBgNVBAMMA3RhMTESMBAGCSqGSIb3DQEJARYDdGExMB4XDTEz
MTIxMzAwMTMzNFoXDTE2MDkwODAwMTMzNFowcTELMAkGA1UEBhMCVVMxEzARBgNV
BAgMCkNhbGlmb3JuaWExFDASBgNVBAcMC1NhbnRhIENsYXJhMQ0wCwYDVQQKDARw
a2c1MRAwDgYDVQQDDAdjaDFfdGExMRYwFAYJKoZIhvcNAQkBFgdjaDFfdGExMIGf
MA0GCSqGSIb3DQEBAQUAA4GNADCBiQKBgQDaOrJ0Flw4fJM6SMufcXyquf/XJV/N
kGzmh23tNA8SGQCoNv5RS7I4dlUq0c47o3h128i6hYutgA6Eqx9LgJAgVkl7caAW
+BWKzXDuRR9TNDyF3xB14rFol8UNZn+/57PRCQMbUBTc4z6ptmpj5g9RPgZZUEPa
EJkNeaO0domiAQIDAQABo4HkMIHhMB0GA1UdDgQWBBQ2Ri2KG4vOwR0CN7nspf+6
c67lSDCBmwYDVR0jBIGTMIGQgBSBVGsGCN1ETwiBIXp81ZbqUyvjCqFtpGswaTEL
MAkGA1UEBhMCVVMxEzARBgNVBAgMCkNhbGlmb3JuaWExFDASBgNVBAcMC1NhbnRh
IENsYXJhMQ0wCwYDVQQKDARwa2c1MQwwCgYDVQQDDAN0YTExEjAQBgkqhkiG9w0B
CQEWA3RhMYIJAPaotlwQjQRPMBIGA1UdEwEB/wQIMAYBAf8CAQQwDgYDVR0PAQH/
BAQDAgEGMA0GCSqGSIb3DQEBCwUAA4GBADhKaZ0U+lG5NZzIruXA4i5M1FetZAWZ
5JSz05fgDr0ctGTIKwcYJn+Z75xI5iOzljeSVIWLKRlgEhH82GKEXHVzdp4P+KeV
ecg8dfcTcx+++mB5XGwSjcr5WEsf7QpSTGGVb5qnVwwgmhlz3D1CqkcprJKpzErr
hW2rze0rmuXB
-----END CERTIFICATE-----
