Certificate:
    Data:
        Version: 3 (0x2)
        Serial Number: 1 (0x1)
    Signature Algorithm: sha256WithRSAEncryption
        Issuer: C=US, ST=California, L=Santa Clara, O=pkg5, CN=ta1/emailAddress=ta1
        Validity
            Not Before: Jul 19 11:35:43 2023 GMT
            Not After : Apr 14 11:35:43 2026 GMT
        Subject: C=US, ST=California, L=Santa Clara, O=pkg5, CN=ch1_ta1/emailAddress=ch1_ta1
        Subject Public Key Info:
            Public Key Algorithm: rsaEncryption
                Public-Key: (2048 bit)
                Modulus:
                    00:bc:82:78:dc:d8:74:0a:8e:07:37:f7:cb:36:a8:
                    be:05:91:22:fa:a9:0a:8d:f9:eb:f4:ec:03:88:b9:
                    d5:5f:bf:d8:82:9f:e0:37:3a:51:1c:d8:79:e4:f5:
                    87:e9:02:d3:2d:51:ce:75:b3:b0:33:38:f8:3b:7b:
                    d2:63:e1:18:59:17:e9:b1:57:41:34:2e:68:9f:6f:
                    6c:f5:97:6d:c9:c7:21:31:16:8a:8a:91:d1:b6:6d:
                    74:b5:1d:50:0e:24:03:d6:5f:74:46:2a:84:a3:d3:
                    a2:d7:ab:2e:03:d5:3b:bc:ac:92:5a:65:b7:bb:b7:
                    e1:de:d9:b8:74:6f:07:0e:e8:65:53:65:63:38:58:
                    aa:a5:9b:15:8e:5f:27:96:19:bc:a2:5c:6c:8e:dd:
                    fa:cb:31:d7:d3:5d:b3:ad:e4:a1:05:39:14:4f:d4:
                    e0:ea:e8:a6:a0:1f:9c:27:57:b6:05:3e:7c:22:17:
                    2b:57:f2:62:55:d0:f9:98:1e:cc:62:d5:0e:b2:dc:
                    7e:94:65:4a:ad:c6:1b:3f:dc:bd:aa:9e:3e:db:df:
                    ea:49:35:74:4f:98:78:25:c5:ee:2a:bf:8c:73:3f:
                    b3:fd:4c:2b:f4:b2:93:66:8f:83:03:e0:77:fb:06:
                    55:59:c4:49:b3:31:f3:db:7b:82:ba:32:96:2c:44:
                    19:df
                Exponent: 65537 (0x10001)
        X509v3 extensions:
            X509v3 Subject Key Identifier: 
                22:DC:BC:2D:BC:28:F0:6C:AA:CD:94:1C:6E:DE:D7:06:D1:7E:49:CD
            X509v3 Authority Key Identifier: 
                keyid:67:65:3B:12:B8:B9:83:4A:70:FB:3A:7B:22:80:08:39:18:AA:D5:40
                DirName:/C=US/ST=California/L=Santa Clara/O=pkg5/CN=ta1/emailAddress=ta1
                serial:B9:47:2F:8E:00:B3:8F:04

            X509v3 Basic Constraints: critical
                CA:TRUE, pathlen:4
            X509v3 Key Usage: critical
                Certificate Sign, CRL Sign
    Signature Algorithm: sha256WithRSAEncryption
         17:22:7b:8d:83:00:d4:c8:37:c9:d5:3f:13:9a:6e:7a:2d:1c:
         58:f1:ad:ae:74:5f:18:1e:19:a0:cf:00:a2:0d:4c:20:ca:6d:
         85:3a:cb:75:c0:3d:d2:28:2a:fb:49:38:19:c7:87:69:a6:dd:
         b0:fd:65:ca:44:29:d2:93:05:55:cd:18:72:fb:0b:8a:19:67:
         79:89:e1:a9:c9:37:99:e3:4a:c2:b8:8f:e4:4a:f1:d5:3e:f2:
         29:23:3e:1f:e5:82:b3:06:3c:cb:90:60:2d:57:aa:fa:66:92:
         9b:80:8a:2c:25:42:46:c7:b3:ce:0a:a8:ff:1e:00:cb:f7:0d:
         8f:d8:9e:52:97:73:bc:6e:01:a7:42:47:d2:76:a0:9f:a6:75:
         4b:a0:c4:86:58:ec:81:74:5b:02:5e:89:b3:43:64:a9:32:6c:
         c5:cd:a9:8b:6c:48:2c:31:04:be:f7:ee:b7:7f:7c:06:bc:7f:
         18:6d:7c:96:d4:a0:88:40:1a:5a:65:5e:a7:23:d2:d2:01:95:
         ea:a2:91:2f:27:96:e8:10:b6:be:51:8c:b2:37:65:7e:4d:02:
         49:98:48:c8:08:bb:8c:d0:4d:cb:49:97:9b:05:9d:8c:c6:18:
         fb:28:60:20:11:35:bb:88:55:49:a1:fd:82:0d:8c:d8:66:d9:
         7d:71:ba:42
-----BEGIN CERTIFICATE-----
MIIEOjCCAyKgAwIBAgIBATANBgkqhkiG9w0BAQsFADBpMQswCQYDVQQGEwJVUzET
MBEGA1UECAwKQ2FsaWZvcm5pYTEUMBIGA1UEBwwLU2FudGEgQ2xhcmExDTALBgNV
BAoMBHBrZzUxDDAKBgNVBAMMA3RhMTESMBAGCSqGSIb3DQEJARYDdGExMB4XDTIz
MDcxOTExMzU0M1oXDTI2MDQxNDExMzU0M1owcTELMAkGA1UEBhMCVVMxEzARBgNV
BAgMCkNhbGlmb3JuaWExFDASBgNVBAcMC1NhbnRhIENsYXJhMQ0wCwYDVQQKDARw
a2c1MRAwDgYDVQQDDAdjaDFfdGExMRYwFAYJKoZIhvcNAQkBFgdjaDFfdGExMIIB
IjANBgkqhkiG9w0BAQEFAAOCAQ8AMIIBCgKCAQEAvIJ43Nh0Co4HN/fLNqi+BZEi
+qkKjfnr9OwDiLnVX7/Ygp/gNzpRHNh55PWH6QLTLVHOdbOwMzj4O3vSY+EYWRfp
sVdBNC5on29s9ZdtycchMRaKipHRtm10tR1QDiQD1l90RiqEo9Oi16suA9U7vKyS
WmW3u7fh3tm4dG8HDuhlU2VjOFiqpZsVjl8nlhm8olxsjt36yzHX012zreShBTkU
T9Tg6uimoB+cJ1e2BT58IhcrV/JiVdD5mB7MYtUOstx+lGVKrcYbP9y9qp4+29/q
STV0T5h4JcXuKr+Mcz+z/Uwr9LKTZo+DA+B3+wZVWcRJszHz23uCujKWLEQZ3wID
AQABo4HkMIHhMB0GA1UdDgQWBBQi3LwtvCjwbKrNlBxu3tcG0X5JzTCBmwYDVR0j
BIGTMIGQgBRnZTsSuLmDSnD7OnsigAg5GKrVQKFtpGswaTELMAkGA1UEBhMCVVMx
EzARBgNVBAgMCkNhbGlmb3JuaWExFDASBgNVBAcMC1NhbnRhIENsYXJhMQ0wCwYD
VQQKDARwa2c1MQwwCgYDVQQDDAN0YTExEjAQBgkqhkiG9w0BCQEWA3RhMYIJALlH
L44As48EMBIGA1UdEwEB/wQIMAYBAf8CAQQwDgYDVR0PAQH/BAQDAgEGMA0GCSqG
SIb3DQEBCwUAA4IBAQAXInuNgwDUyDfJ1T8Tmm56LRxY8a2udF8YHhmgzwCiDUwg
ym2FOst1wD3SKCr7STgZx4dppt2w/WXKRCnSkwVVzRhy+wuKGWd5ieGpyTeZ40rC
uI/kSvHVPvIpIz4f5YKzBjzLkGAtV6r6ZpKbgIosJUJGx7POCqj/HgDL9w2P2J5S
l3O8bgGnQkfSdqCfpnVLoMSGWOyBdFsCXomzQ2SpMmzFzamLbEgsMQS+9+63f3wG
vH8YbXyW1KCIQBpaZV6nI9LSAZXqopEvJ5boELa+UYyyN2V+TQJJmEjICLuM0E3L
SZebBZ2Mxhj7KGAgETW7iFVJof2CDYzYZtl9cbpC
-----END CERTIFICATE-----
