Certificate:
    Data:
        Version: 3 (0x2)
        Serial Number: 1 (0x1)
    Signature Algorithm: sha256WithRSAEncryption
        Issuer: C=US, ST=California, L=Santa Clara, O=pkg5, CN=ta1/emailAddress=ta1
        Validity
            Not Before: Sep 22 05:33:13 2021 GMT
            Not After : Jun 18 05:33:13 2024 GMT
        Subject: C=US, ST=California, L=Santa Clara, O=pkg5, CN=ch1_ta1/emailAddress=ch1_ta1
        Subject Public Key Info:
            Public Key Algorithm: rsaEncryption
                Public-Key: (2048 bit)
                Modulus:
                    00:a2:db:e6:88:2e:fa:74:86:c0:b9:cc:c1:3b:93:
                    78:3e:39:52:59:22:8e:b3:41:0e:41:02:c6:6f:c9:
                    b5:b7:c9:f6:37:e1:c3:4e:8c:94:fe:0e:0e:e2:73:
                    d9:77:91:da:fd:54:0f:74:18:2f:5e:87:b5:00:78:
                    7d:77:33:a2:40:07:46:c8:d5:10:8b:f2:f9:20:09:
                    c8:35:69:30:c0:95:8c:9f:c3:e4:8c:13:39:b9:24:
                    5c:b7:89:e0:2f:b2:b4:da:04:3e:8d:3f:b0:7e:56:
                    20:00:1e:2a:7e:54:d5:f5:8a:03:c8:ae:00:8f:41:
                    3e:39:eb:e7:7d:ba:ec:9e:fe:58:a9:19:bb:65:7f:
                    6d:00:c3:fa:6f:f9:a7:f6:0c:ff:d3:76:dd:81:93:
                    ff:36:98:bd:c6:54:4b:45:6f:b6:1f:97:14:8c:f9:
                    24:52:d9:9f:c7:62:0d:13:b7:b0:27:22:3f:c8:38:
                    ec:d2:55:7d:de:b4:3f:29:9e:d1:c8:50:76:61:b0:
                    ce:e7:f3:9e:ad:41:06:68:ef:fd:74:46:68:69:f9:
                    c5:3a:e1:e9:89:ba:8a:ea:a3:f5:8a:b9:0c:84:0d:
                    5f:c1:c9:66:63:ef:02:9e:22:41:3a:4b:c3:44:3a:
                    32:90:a7:95:95:42:6e:97:07:9c:0b:e2:3f:fe:b7:
                    ce:4d
                Exponent: 65537 (0x10001)
        X509v3 extensions:
            X509v3 Subject Key Identifier: 
                20:D5:C8:E7:C6:D8:61:2A:CD:06:61:93:78:E6:5E:9A:7E:5D:BE:72
            X509v3 Authority Key Identifier: 
                keyid:4A:AA:B3:0B:B4:EA:CC:2F:3E:F1:56:9B:44:A3:B7:6C:9C:E6:D7:06
                DirName:/C=US/ST=California/L=Santa Clara/O=pkg5/CN=ta1/emailAddress=ta1
                serial:84:12:CF:AF:1F:09:D9:F6

            X509v3 Basic Constraints: critical
                CA:TRUE, pathlen:4
            X509v3 Key Usage: critical
                Certificate Sign, CRL Sign
    Signature Algorithm: sha256WithRSAEncryption
         3e:2f:63:55:63:21:5d:92:47:c2:6b:94:52:05:46:5f:87:73:
         10:5c:56:8d:9a:fc:51:8b:0a:b9:33:0d:4c:5f:0a:a9:16:d4:
         66:d5:6e:81:2b:2d:1c:da:82:a5:5b:30:59:a6:27:d7:fe:5b:
         c8:d5:a4:11:e0:c0:15:fd:f1:4e:f4:7f:da:43:a9:d3:b1:50:
         92:7a:7a:6a:f4:2c:e6:c0:ca:43:3d:28:a5:ff:81:e9:6f:36:
         4e:df:9c:52:14:57:47:8a:c0:91:1f:f7:8f:9a:67:d3:ac:5e:
         e5:0e:ad:25:ba:c4:80:86:be:24:58:c7:7e:5f:3f:61:c9:45:
         00:f4:88:bc:2f:4a:4d:c1:0b:f9:4e:bc:77:5d:93:15:4f:29:
         34:6f:c5:73:2a:55:03:82:10:21:7c:84:d8:e8:06:f5:10:ca:
         50:59:09:f7:c5:ba:c2:13:24:24:2a:2e:7f:9c:bd:8e:6f:87:
         fd:53:3e:b7:bf:7d:cf:fa:f0:77:ee:5f:55:ad:bd:09:88:2d:
         f8:3a:46:83:be:00:83:21:4c:87:8a:16:40:2f:be:e5:9a:cd:
         4b:d3:8c:3a:57:a6:0e:a7:0b:d7:f9:f5:b2:f9:e9:a9:d2:59:
         35:11:3f:aa:23:67:b4:ee:a8:bd:92:18:94:f9:9f:c3:5c:ef:
         70:b2:d8:7b
-----BEGIN CERTIFICATE-----
MIIEOjCCAyKgAwIBAgIBATANBgkqhkiG9w0BAQsFADBpMQswCQYDVQQGEwJVUzET
MBEGA1UECAwKQ2FsaWZvcm5pYTEUMBIGA1UEBwwLU2FudGEgQ2xhcmExDTALBgNV
BAoMBHBrZzUxDDAKBgNVBAMMA3RhMTESMBAGCSqGSIb3DQEJARYDdGExMB4XDTIx
MDkyMjA1MzMxM1oXDTI0MDYxODA1MzMxM1owcTELMAkGA1UEBhMCVVMxEzARBgNV
BAgMCkNhbGlmb3JuaWExFDASBgNVBAcMC1NhbnRhIENsYXJhMQ0wCwYDVQQKDARw
a2c1MRAwDgYDVQQDDAdjaDFfdGExMRYwFAYJKoZIhvcNAQkBFgdjaDFfdGExMIIB
IjANBgkqhkiG9w0BAQEFAAOCAQ8AMIIBCgKCAQEAotvmiC76dIbAuczBO5N4PjlS
WSKOs0EOQQLGb8m1t8n2N+HDToyU/g4O4nPZd5Ha/VQPdBgvXoe1AHh9dzOiQAdG
yNUQi/L5IAnINWkwwJWMn8PkjBM5uSRct4ngL7K02gQ+jT+wflYgAB4qflTV9YoD
yK4Aj0E+Oevnfbrsnv5YqRm7ZX9tAMP6b/mn9gz/03bdgZP/Npi9xlRLRW+2H5cU
jPkkUtmfx2INE7ewJyI/yDjs0lV93rQ/KZ7RyFB2YbDO5/OerUEGaO/9dEZoafnF
OuHpibqK6qP1irkMhA1fwclmY+8CniJBOkvDRDoykKeVlUJulwecC+I//rfOTQID
AQABo4HkMIHhMB0GA1UdDgQWBBQg1cjnxthhKs0GYZN45l6afl2+cjCBmwYDVR0j
BIGTMIGQgBRKqrMLtOrMLz7xVptEo7dsnObXBqFtpGswaTELMAkGA1UEBhMCVVMx
EzARBgNVBAgMCkNhbGlmb3JuaWExFDASBgNVBAcMC1NhbnRhIENsYXJhMQ0wCwYD
VQQKDARwa2c1MQwwCgYDVQQDDAN0YTExEjAQBgkqhkiG9w0BCQEWA3RhMYIJAIQS
z68fCdn2MBIGA1UdEwEB/wQIMAYBAf8CAQQwDgYDVR0PAQH/BAQDAgEGMA0GCSqG
SIb3DQEBCwUAA4IBAQA+L2NVYyFdkkfCa5RSBUZfh3MQXFaNmvxRiwq5Mw1MXwqp
FtRm1W6BKy0c2oKlWzBZpifX/lvI1aQR4MAV/fFO9H/aQ6nTsVCSenpq9CzmwMpD
PSil/4HpbzZO35xSFFdHisCRH/ePmmfTrF7lDq0lusSAhr4kWMd+Xz9hyUUA9Ii8
L0pNwQv5Trx3XZMVTyk0b8VzKlUDghAhfITY6Ab1EMpQWQn3xbrCEyQkKi5/nL2O
b4f9Uz63v33P+vB37l9Vrb0JiC34OkaDvgCDIUyHihZAL77lms1L04w6V6YOpwvX
+fWy+emp0lk1ET+qI2e07qi9khiU+Z/DXO9wsth7
-----END CERTIFICATE-----
