Certificate:
    Data:
        Version: 3 (0x2)
        Serial Number: 2 (0x2)
    Signature Algorithm: sha256WithRSAEncryption
        Issuer: C=US, ST=California, L=Santa Clara, O=pkg5, CN=ch1_ta1/emailAddress=ch1_ta1
        Validity
            Not Before: Jan 22 15:33:06 2019 GMT
            Not After : Oct 18 15:33:06 2021 GMT
        Subject: C=US, ST=California, L=Santa Clara, O=pkg5, CN=ch2_ta1/emailAddress=ch2_ta1
        Subject Public Key Info:
            Public Key Algorithm: rsaEncryption
                Public-Key: (2048 bit)
                Modulus:
                    00:af:ba:70:44:b8:94:13:92:55:48:cd:ad:e6:5e:
                    f6:99:f0:a3:33:ff:1e:5b:d1:cd:f5:90:d9:04:0d:
                    9f:e1:9b:fb:6e:84:f1:93:5f:69:69:44:9a:1a:ad:
                    33:f8:ca:5c:c3:f6:7a:79:99:8b:b8:bb:6f:0c:04:
                    d6:c1:f5:00:be:6e:d3:a0:70:35:4f:60:84:be:58:
                    c2:7c:d7:69:e6:af:e4:88:23:f5:00:3c:a5:56:dc:
                    df:bf:d9:46:9a:2e:0e:43:71:02:8d:58:18:f4:5b:
                    9c:d2:59:e4:64:5d:37:69:0b:56:de:e2:96:c5:aa:
                    1a:ae:5b:6d:2c:b0:7e:a3:5f:f2:2c:98:8d:e6:01:
                    87:ab:8b:67:e3:93:82:58:08:c3:0f:f2:85:fa:57:
                    42:55:e8:7a:16:09:8a:c5:7a:d1:9a:fe:12:79:2a:
                    07:58:ae:c9:d2:a2:e7:5e:a5:e7:3e:5c:12:b2:45:
                    8a:c5:09:5b:f2:5d:37:a3:59:ff:fb:e6:17:7c:c9:
                    f5:02:58:49:70:cf:44:8c:12:b5:7f:6b:3f:f1:ee:
                    8d:2b:11:c8:85:f3:21:2d:0d:76:6d:34:c0:27:75:
                    93:17:51:9c:e7:31:b2:ba:b3:f1:e7:2d:73:d9:f5:
                    5d:48:3d:09:ea:18:06:23:f7:c8:d7:22:10:1a:52:
                    7b:df
                Exponent: 65537 (0x10001)
        X509v3 extensions:
            X509v3 Subject Key Identifier: 
                86:E0:CB:E1:62:84:42:4B:34:40:40:0C:47:D7:0B:E3:1F:CB:37:D9
            X509v3 Authority Key Identifier: 
                keyid:9F:68:CE:D3:BE:58:61:D2:24:E5:73:16:40:D1:E8:A5:F7:64:14:BD
                DirName:/C=US/ST=California/L=Santa Clara/O=pkg5/CN=ta1/emailAddress=ta1
                serial:01

            X509v3 Basic Constraints: critical
                CA:TRUE, pathlen:3
            X509v3 Key Usage: critical
                Certificate Sign, CRL Sign
    Signature Algorithm: sha256WithRSAEncryption
         40:92:09:ba:62:3b:22:2f:ea:5e:48:45:98:fb:5a:01:c3:88:
         47:af:6c:e8:3b:0f:9d:e1:e8:62:0a:d1:a7:f4:44:38:11:dc:
         ee:c4:fd:56:3a:80:0f:42:3f:f5:21:b0:77:08:ff:26:a0:f8:
         27:2e:5b:98:b2:e7:45:8b:a6:9d:81:1a:8a:d7:17:57:97:8d:
         09:73:56:79:8a:89:60:1a:68:2c:5c:cf:78:71:1c:4e:05:8b:
         a9:95:a0:21:ff:14:ab:2b:4f:18:87:46:63:be:f1:06:8c:ae:
         39:50:07:ef:7a:f0:c4:59:d7:c2:49:84:48:1d:b0:40:57:8c:
         0b:78:05:9e:78:c8:8c:a6:da:15:16:c1:dc:1c:fb:de:d5:5a:
         99:8f:30:37:3a:d5:44:06:f8:e1:3d:0f:4c:33:12:26:40:48:
         0e:aa:ac:b5:b1:e9:d4:32:f7:18:3d:eb:68:4e:25:48:90:de:
         89:e0:2a:6e:0b:96:66:e2:b9:d1:5e:53:ca:a5:9d:8d:be:8f:
         a8:09:3c:d4:87:71:9e:05:81:d7:d5:f8:a1:fc:99:77:82:5f:
         5c:b3:35:25:68:d0:0f:e9:a5:6f:f7:47:6c:5d:8c:12:06:25:
         b7:78:79:57:6a:68:45:29:9a:4a:b0:c7:45:12:2e:fa:b4:7d:
         51:09:9c:1c
-----BEGIN CERTIFICATE-----
MIIEOjCCAyKgAwIBAgIBAjANBgkqhkiG9w0BAQsFADBxMQswCQYDVQQGEwJVUzET
MBEGA1UECAwKQ2FsaWZvcm5pYTEUMBIGA1UEBwwLU2FudGEgQ2xhcmExDTALBgNV
BAoMBHBrZzUxEDAOBgNVBAMMB2NoMV90YTExFjAUBgkqhkiG9w0BCQEWB2NoMV90
YTEwHhcNMTkwMTIyMTUzMzA2WhcNMjExMDE4MTUzMzA2WjBxMQswCQYDVQQGEwJV
UzETMBEGA1UECAwKQ2FsaWZvcm5pYTEUMBIGA1UEBwwLU2FudGEgQ2xhcmExDTAL
BgNVBAoMBHBrZzUxEDAOBgNVBAMMB2NoMl90YTExFjAUBgkqhkiG9w0BCQEWB2No
Ml90YTEwggEiMA0GCSqGSIb3DQEBAQUAA4IBDwAwggEKAoIBAQCvunBEuJQTklVI
za3mXvaZ8KMz/x5b0c31kNkEDZ/hm/tuhPGTX2lpRJoarTP4ylzD9np5mYu4u28M
BNbB9QC+btOgcDVPYIS+WMJ812nmr+SII/UAPKVW3N+/2UaaLg5DcQKNWBj0W5zS
WeRkXTdpC1be4pbFqhquW20ssH6jX/IsmI3mAYeri2fjk4JYCMMP8oX6V0JV6HoW
CYrFetGa/hJ5KgdYrsnSoudepec+XBKyRYrFCVvyXTejWf/75hd8yfUCWElwz0SM
ErV/az/x7o0rEciF8yEtDXZtNMAndZMXUZznMbK6s/HnLXPZ9V1IPQnqGAYj98jX
IhAaUnvfAgMBAAGjgdwwgdkwHQYDVR0OBBYEFIbgy+FihEJLNEBADEfXC+MfyzfZ
MIGTBgNVHSMEgYswgYiAFJ9oztO+WGHSJOVzFkDR6KX3ZBS9oW2kazBpMQswCQYD
VQQGEwJVUzETMBEGA1UECAwKQ2FsaWZvcm5pYTEUMBIGA1UEBwwLU2FudGEgQ2xh
cmExDTALBgNVBAoMBHBrZzUxDDAKBgNVBAMMA3RhMTESMBAGCSqGSIb3DQEJARYD
dGExggEBMBIGA1UdEwEB/wQIMAYBAf8CAQMwDgYDVR0PAQH/BAQDAgEGMA0GCSqG
SIb3DQEBCwUAA4IBAQBAkgm6YjsiL+peSEWY+1oBw4hHr2zoOw+d4ehiCtGn9EQ4
EdzuxP1WOoAPQj/1IbB3CP8moPgnLluYsudFi6adgRqK1xdXl40Jc1Z5iolgGmgs
XM94cRxOBYuplaAh/xSrK08Yh0ZjvvEGjK45UAfvevDEWdfCSYRIHbBAV4wLeAWe
eMiMptoVFsHcHPve1VqZjzA3OtVEBvjhPQ9MMxImQEgOqqy1senUMvcYPetoTiVI
kN6J4CpuC5Zm4rnRXlPKpZ2Nvo+oCTzUh3GeBYHX1fih/Jl3gl9cszUlaNAP6aVv
90dsXYwSBiW3eHlXamhFKZpKsMdFEi76tH1RCZwc
-----END CERTIFICATE-----
