Certificate:
    Data:
        Version: 3 (0x2)
        Serial Number: 2 (0x2)
    Signature Algorithm: sha256WithRSAEncryption
        Issuer: C=US, ST=California, L=Santa Clara, O=pkg5, CN=ch1_ta1/emailAddress=ch1_ta1
        Validity
            Not Before: Sep 22 05:33:14 2021 GMT
            Not After : Jun 18 05:33:14 2024 GMT
        Subject: C=US, ST=California, L=Santa Clara, O=pkg5, CN=ch2_ta1/emailAddress=ch2_ta1
        Subject Public Key Info:
            Public Key Algorithm: rsaEncryption
                Public-Key: (2048 bit)
                Modulus:
                    00:d9:20:6c:36:2f:a8:93:7c:20:7b:a8:04:53:0a:
                    cd:45:74:2a:8e:8f:2e:37:fb:2f:86:bc:60:88:40:
                    9a:39:fe:48:45:fb:2a:81:ff:dc:20:c5:fe:02:02:
                    f8:5e:1e:8c:fb:9c:db:17:32:b1:20:4f:a0:38:61:
                    29:9a:82:0c:aa:cf:b7:c1:45:26:18:4e:5b:05:dc:
                    60:5a:74:18:dc:8d:c8:45:e0:e5:a4:78:8e:ac:4a:
                    0f:c5:54:f7:27:b9:de:c7:dd:87:36:1f:6e:ed:8b:
                    71:fc:36:b7:0c:37:b3:79:68:8d:fe:3a:a1:ee:be:
                    56:34:58:0d:a6:52:47:86:ac:14:41:1c:e6:9d:15:
                    4c:31:ad:7f:eb:ce:79:87:60:8c:65:95:7a:85:d1:
                    0a:3c:15:b0:78:a3:94:97:e3:20:58:60:02:de:6c:
                    7b:14:d5:ba:e9:95:d3:99:77:9e:8b:ca:35:a3:7d:
                    99:fd:84:99:c8:9d:8d:e3:1b:45:d3:0a:0e:bd:4f:
                    99:e7:8a:e6:9f:a8:4f:47:38:c3:8a:48:0a:6d:ec:
                    b2:44:96:f9:3d:74:d7:17:5d:19:14:48:ae:2d:47:
                    14:f2:3a:eb:6d:27:65:56:45:8e:1c:37:ee:60:3e:
                    ab:f3:20:0a:12:d8:c6:ec:85:f8:4f:e5:69:82:f1:
                    00:a3
                Exponent: 65537 (0x10001)
        X509v3 extensions:
            X509v3 Subject Key Identifier: 
                A8:22:95:A8:52:3E:52:15:9C:C6:60:4D:D7:33:6D:54:64:57:7D:30
            X509v3 Authority Key Identifier: 
                keyid:20:D5:C8:E7:C6:D8:61:2A:CD:06:61:93:78:E6:5E:9A:7E:5D:BE:72
                DirName:/C=US/ST=California/L=Santa Clara/O=pkg5/CN=ta1/emailAddress=ta1
                serial:01

            X509v3 Basic Constraints: critical
                CA:TRUE, pathlen:3
            X509v3 Key Usage: critical
                Certificate Sign, CRL Sign
    Signature Algorithm: sha256WithRSAEncryption
         81:d0:0b:d2:63:56:cf:b3:c3:28:60:29:af:70:52:0e:97:cd:
         33:ee:5b:27:19:45:ee:67:43:a4:cf:84:c8:8d:b0:e5:14:76:
         b4:73:85:40:b8:1f:12:84:28:74:65:23:d8:2e:4e:c9:5e:b2:
         a4:cb:6d:89:35:9a:b1:47:3d:49:3a:c6:64:8b:a4:9e:6e:b6:
         21:44:57:63:c6:06:8c:59:f0:c7:f7:cc:e1:bd:0b:15:36:f3:
         f4:8a:ad:20:b3:9d:6d:6c:bf:6e:e7:bc:9e:18:fe:cf:09:07:
         32:e9:f6:d4:1e:6d:96:9f:e6:25:e2:aa:3a:be:e1:59:27:14:
         88:14:f2:41:08:50:79:3b:ac:e0:5a:43:f7:e7:94:da:08:d9:
         95:b1:eb:02:a0:19:f2:29:ca:5f:59:0d:59:67:9a:76:2b:4d:
         f3:50:03:80:e4:8f:b9:3f:3a:9c:70:c0:83:61:34:b7:43:3e:
         ce:55:01:46:d4:11:10:d4:4c:d4:47:d4:b7:81:4d:6f:c2:e7:
         78:a8:d8:da:ab:0d:5d:90:c5:38:54:dd:ca:ef:a0:d2:d4:df:
         15:36:92:29:61:4a:b4:ae:59:6a:8b:1e:31:48:10:6b:88:4d:
         6e:cd:50:14:12:0a:9b:0a:dc:f6:86:5d:cc:1e:5d:e0:0c:83:
         1a:a7:d5:53
-----BEGIN CERTIFICATE-----
MIIEOjCCAyKgAwIBAgIBAjANBgkqhkiG9w0BAQsFADBxMQswCQYDVQQGEwJVUzET
MBEGA1UECAwKQ2FsaWZvcm5pYTEUMBIGA1UEBwwLU2FudGEgQ2xhcmExDTALBgNV
BAoMBHBrZzUxEDAOBgNVBAMMB2NoMV90YTExFjAUBgkqhkiG9w0BCQEWB2NoMV90
YTEwHhcNMjEwOTIyMDUzMzE0WhcNMjQwNjE4MDUzMzE0WjBxMQswCQYDVQQGEwJV
UzETMBEGA1UECAwKQ2FsaWZvcm5pYTEUMBIGA1UEBwwLU2FudGEgQ2xhcmExDTAL
BgNVBAoMBHBrZzUxEDAOBgNVBAMMB2NoMl90YTExFjAUBgkqhkiG9w0BCQEWB2No
Ml90YTEwggEiMA0GCSqGSIb3DQEBAQUAA4IBDwAwggEKAoIBAQDZIGw2L6iTfCB7
qARTCs1FdCqOjy43+y+GvGCIQJo5/khF+yqB/9wgxf4CAvheHoz7nNsXMrEgT6A4
YSmaggyqz7fBRSYYTlsF3GBadBjcjchF4OWkeI6sSg/FVPcnud7H3Yc2H27ti3H8
NrcMN7N5aI3+OqHuvlY0WA2mUkeGrBRBHOadFUwxrX/rznmHYIxllXqF0Qo8FbB4
o5SX4yBYYALebHsU1brpldOZd56LyjWjfZn9hJnInY3jG0XTCg69T5nniuafqE9H
OMOKSApt7LJElvk9dNcXXRkUSK4tRxTyOuttJ2VWRY4cN+5gPqvzIAoS2MbshfhP
5WmC8QCjAgMBAAGjgdwwgdkwHQYDVR0OBBYEFKgilahSPlIVnMZgTdczbVRkV30w
MIGTBgNVHSMEgYswgYiAFCDVyOfG2GEqzQZhk3jmXpp+Xb5yoW2kazBpMQswCQYD
VQQGEwJVUzETMBEGA1UECAwKQ2FsaWZvcm5pYTEUMBIGA1UEBwwLU2FudGEgQ2xh
cmExDTALBgNVBAoMBHBrZzUxDDAKBgNVBAMMA3RhMTESMBAGCSqGSIb3DQEJARYD
dGExggEBMBIGA1UdEwEB/wQIMAYBAf8CAQMwDgYDVR0PAQH/BAQDAgEGMA0GCSqG
SIb3DQEBCwUAA4IBAQCB0AvSY1bPs8MoYCmvcFIOl80z7lsnGUXuZ0Okz4TIjbDl
FHa0c4VAuB8ShCh0ZSPYLk7JXrKky22JNZqxRz1JOsZki6SebrYhRFdjxgaMWfDH
98zhvQsVNvP0iq0gs51tbL9u57yeGP7PCQcy6fbUHm2Wn+Yl4qo6vuFZJxSIFPJB
CFB5O6zgWkP355TaCNmVsesCoBnyKcpfWQ1ZZ5p2K03zUAOA5I+5PzqccMCDYTS3
Qz7OVQFG1BEQ1EzUR9S3gU1vwud4qNjaqw1dkMU4VN3K76DS1N8VNpIpYUq0rllq
ix4xSBBriE1uzVAUEgqbCtz2hl3MHl3gDIMap9VT
-----END CERTIFICATE-----
