Certificate:
    Data:
        Version: 3 (0x2)
        Serial Number: 2 (0x2)
        Signature Algorithm: sha256WithRSAEncryption
        Issuer: C=US, ST=California, L=Menlo Park, O=pkg5, CN=ch1_ta1/emailAddress=ch1_ta1
        Validity
            Not Before: Mar 21 00:49:23 2011 GMT
            Not After : Dec 15 00:49:23 2013 GMT
        Subject: C=US, ST=California, L=Menlo Park, O=pkg5, CN=ch2_ta1/emailAddress=ch2_ta1
        Subject Public Key Info:
            Public Key Algorithm: rsaEncryption
            RSA Public Key: (1024 bit)
                Modulus (1024 bit):
                    00:b2:2e:64:17:3d:dd:32:ab:60:b1:07:9e:8d:da:
                    3c:50:91:b7:d2:c0:b2:bc:af:74:3b:c1:4e:6c:f3:
                    d0:98:91:32:34:fb:dd:48:04:3a:86:9f:e7:31:2e:
                    19:b3:49:59:0b:20:19:b1:bb:52:91:45:57:ba:36:
                    49:62:82:61:3b:8d:63:11:c8:a6:fa:9a:20:b8:34:
                    4e:0e:4d:31:73:6b:ea:5e:d9:2d:fb:b5:f9:04:7c:
                    f9:9d:b0:0d:4f:74:2b:35:b1:4d:63:5d:11:48:7e:
                    72:cd:f4:07:35:5f:e7:59:5e:16:e2:99:3a:b4:7f:
                    4a:cc:bc:86:53:bd:55:bc:57
                Exponent: 65537 (0x10001)
        X509v3 extensions:
            X509v3 Subject Key Identifier: 
                79:04:42:77:11:18:EC:24:43:48:52:11:99:DE:86:84:23:B1:50:77
            X509v3 Authority Key Identifier: 
                keyid:DE:23:2E:B1:97:E8:21:FB:05:0A:EB:ED:50:A7:96:15:27:BE:77:92
                DirName:/C=US/ST=California/L=Menlo Park/O=pkg5/CN=ta1/emailAddress=ta1
                serial:01

            X509v3 Basic Constraints: critical
                CA:TRUE, pathlen:3
            X509v3 Key Usage: critical
                Certificate Sign, CRL Sign
    Signature Algorithm: sha256WithRSAEncryption
        24:59:ab:c0:7d:fe:62:1b:1a:98:45:78:80:ef:a3:0e:6a:cd:
        f9:ed:8a:4f:9b:18:59:ad:2b:d5:3d:db:7d:3f:ab:c3:4a:c7:
        33:95:33:43:4b:16:44:50:1a:6e:38:ad:7b:8f:f9:06:f4:72:
        7b:15:75:59:0d:db:11:a7:86:b4:e9:de:28:c9:39:d0:d7:25:
        46:51:26:16:bd:15:70:d1:b2:87:e2:2c:48:aa:28:96:0a:f8:
        4e:d4:44:99:66:62:04:6d:8d:2c:0f:f0:08:8d:d2:5c:fa:4e:
        62:1a:25:f1:5c:ef:44:56:83:35:a7:e3:a9:ca:c0:18:90:18:
        54:42
-----BEGIN CERTIFICATE-----
MIIDMjCCApugAwIBAgIBAjANBgkqhkiG9w0BAQsFADBwMQswCQYDVQQGEwJVUzET
MBEGA1UECBMKQ2FsaWZvcm5pYTETMBEGA1UEBxMKTWVubG8gUGFyazENMAsGA1UE
ChMEcGtnNTEQMA4GA1UEAxQHY2gxX3RhMTEWMBQGCSqGSIb3DQEJARYHY2gxX3Rh
MTAeFw0xMTAzMjEwMDQ5MjNaFw0xMzEyMTUwMDQ5MjNaMHAxCzAJBgNVBAYTAlVT
MRMwEQYDVQQIEwpDYWxpZm9ybmlhMRMwEQYDVQQHEwpNZW5sbyBQYXJrMQ0wCwYD
VQQKEwRwa2c1MRAwDgYDVQQDFAdjaDJfdGExMRYwFAYJKoZIhvcNAQkBFgdjaDJf
dGExMIGfMA0GCSqGSIb3DQEBAQUAA4GNADCBiQKBgQCyLmQXPd0yq2CxB56N2jxQ
kbfSwLK8r3Q7wU5s89CYkTI0+91IBDqGn+cxLhmzSVkLIBmxu1KRRVe6NkligmE7
jWMRyKb6miC4NE4OTTFza+pe2S37tfkEfPmdsA1PdCs1sU1jXRFIfnLN9Ac1X+dZ
XhbimTq0f0rMvIZTvVW8VwIDAQABo4HbMIHYMB0GA1UdDgQWBBR5BEJ3ERjsJENI
UhGZ3oaEI7FQdzCBkgYDVR0jBIGKMIGHgBTeIy6xl+gh+wUK6+1Qp5YVJ753kqFs
pGowaDELMAkGA1UEBhMCVVMxEzARBgNVBAgTCkNhbGlmb3JuaWExEzARBgNVBAcT
Ck1lbmxvIFBhcmsxDTALBgNVBAoTBHBrZzUxDDAKBgNVBAMTA3RhMTESMBAGCSqG
SIb3DQEJARYDdGExggEBMBIGA1UdEwEB/wQIMAYBAf8CAQMwDgYDVR0PAQH/BAQD
AgEGMA0GCSqGSIb3DQEBCwUAA4GBACRZq8B9/mIbGphFeIDvow5qzfntik+bGFmt
K9U9230/q8NKxzOVM0NLFkRQGm44rXuP+Qb0cnsVdVkN2xGnhrTp3ijJOdDXJUZR
Jha9FXDRsofiLEiqKJYK+E7URJlmYgRtjSwP8AiN0lz6TmIaJfFc70RWgzWn46nK
wBiQGFRC
-----END CERTIFICATE-----
