Certificate:
    Data:
        Version: 3 (0x2)
        Serial Number: 3 (0x3)
    Signature Algorithm: sha256WithRSAEncryption
        Issuer: C=US, ST=California, L=Santa Clara, O=pkg5, CN=ch2_ta1/emailAddress=ch2_ta1
        Validity
            Not Before: Jan 22 15:33:06 2019 GMT
            Not After : Oct 18 15:33:06 2021 GMT
        Subject: C=US, ST=California, L=Santa Clara, O=pkg5, CN=ch3_ta1/emailAddress=ch3_ta1
        Subject Public Key Info:
            Public Key Algorithm: rsaEncryption
                Public-Key: (2048 bit)
                Modulus:
                    00:b6:0d:eb:ec:d2:27:53:22:3b:07:d5:5c:27:4a:
                    b6:89:43:a1:57:4b:9b:56:c6:70:58:b1:b6:ca:9b:
                    dc:2d:ec:7d:2e:15:48:d7:81:b4:19:36:76:95:39:
                    04:6b:20:ae:62:55:3d:88:fe:e4:c0:c8:3d:a1:66:
                    88:76:59:43:f7:3f:56:8a:73:8c:5f:23:84:de:33:
                    af:b8:e4:c1:75:63:8b:a4:a0:b7:b2:60:d8:16:3b:
                    5c:95:8c:57:31:aa:e8:ae:7e:a3:3f:6d:00:9a:a6:
                    6a:81:d1:27:f8:df:cb:8f:f8:ce:d6:6c:df:93:a9:
                    7f:82:30:d1:44:14:47:1d:4e:d2:49:41:0b:ed:3e:
                    9b:f9:b1:99:8b:5f:71:a6:2d:14:11:a8:5b:7f:07:
                    c4:7e:59:dc:59:b9:6f:c8:c2:10:c9:aa:b4:14:2e:
                    4d:38:20:99:fe:36:76:40:26:0d:e0:6f:42:d3:72:
                    98:ea:6b:ea:83:98:fa:ea:dc:2f:af:be:85:cc:17:
                    40:65:7a:b5:6b:ae:f1:c8:da:57:e0:f1:ee:fe:ce:
                    44:36:92:1a:2b:a1:9c:98:31:67:fd:a5:b8:8e:59:
                    64:a9:7c:e1:de:d2:13:27:7b:e9:da:b9:bd:89:81:
                    e1:1b:ed:64:68:03:02:78:0d:45:34:04:e6:d3:7b:
                    16:27
                Exponent: 65537 (0x10001)
        X509v3 extensions:
            X509v3 Subject Key Identifier: 
                F9:CE:F4:31:FC:D0:82:64:C6:A0:49:67:DE:27:37:68:55:00:6F:DB
            X509v3 Authority Key Identifier: 
                keyid:86:E0:CB:E1:62:84:42:4B:34:40:40:0C:47:D7:0B:E3:1F:CB:37:D9
                DirName:/C=US/ST=California/L=Santa Clara/O=pkg5/CN=ch1_ta1/emailAddress=ch1_ta1
                serial:02

            X509v3 Basic Constraints: critical
                CA:TRUE, pathlen:2
            X509v3 Key Usage: critical
                Certificate Sign, CRL Sign
    Signature Algorithm: sha256WithRSAEncryption
         a4:92:7f:a8:3f:86:7e:1d:22:84:83:b9:ca:7e:55:8b:d5:04:
         5f:08:73:21:f6:ba:25:59:1c:82:55:cd:87:62:53:d6:00:06:
         bb:f2:0b:ff:71:f0:1b:3a:cd:21:a7:c0:f7:92:0c:4a:f3:0a:
         21:0f:37:e1:6b:b0:76:6d:0b:fe:bf:91:44:4b:41:be:9e:13:
         33:1d:56:6d:bf:e0:97:74:3d:47:26:d8:24:87:cf:d9:bb:8d:
         d8:3e:a5:92:75:ec:a4:50:17:62:5a:85:60:56:ce:1d:32:7f:
         c4:e0:dc:62:ed:5b:40:39:f0:ec:9f:51:7c:17:c9:d8:26:eb:
         d9:fb:08:aa:cb:b3:11:7e:0e:e9:fa:e6:4f:7d:8e:7d:0b:b8:
         da:65:73:f4:f3:61:5b:0e:65:27:1b:7f:4e:4b:85:a6:e6:fa:
         41:44:0f:de:7f:de:92:db:0a:a7:4e:51:02:22:c3:db:43:ec:
         f8:80:4e:a2:39:41:90:dd:ec:46:25:9c:7e:bf:9e:ca:ea:d5:
         b7:a1:2a:1d:c2:77:64:7d:a6:d2:da:ce:ae:6b:80:50:44:71:
         29:26:31:af:50:5d:c5:f2:e2:7c:51:c7:50:24:a5:67:aa:fe:
         b5:c2:4a:5b:b6:d1:b9:98:04:0c:37:ec:af:4b:66:39:69:fd:
         cb:28:90:bc
-----BEGIN CERTIFICATE-----
MIIEQjCCAyqgAwIBAgIBAzANBgkqhkiG9w0BAQsFADBxMQswCQYDVQQGEwJVUzET
MBEGA1UECAwKQ2FsaWZvcm5pYTEUMBIGA1UEBwwLU2FudGEgQ2xhcmExDTALBgNV
BAoMBHBrZzUxEDAOBgNVBAMMB2NoMl90YTExFjAUBgkqhkiG9w0BCQEWB2NoMl90
YTEwHhcNMTkwMTIyMTUzMzA2WhcNMjExMDE4MTUzMzA2WjBxMQswCQYDVQQGEwJV
UzETMBEGA1UECAwKQ2FsaWZvcm5pYTEUMBIGA1UEBwwLU2FudGEgQ2xhcmExDTAL
BgNVBAoMBHBrZzUxEDAOBgNVBAMMB2NoM190YTExFjAUBgkqhkiG9w0BCQEWB2No
M190YTEwggEiMA0GCSqGSIb3DQEBAQUAA4IBDwAwggEKAoIBAQC2Devs0idTIjsH
1VwnSraJQ6FXS5tWxnBYsbbKm9wt7H0uFUjXgbQZNnaVOQRrIK5iVT2I/uTAyD2h
Zoh2WUP3P1aKc4xfI4TeM6+45MF1Y4ukoLeyYNgWO1yVjFcxquiufqM/bQCapmqB
0Sf438uP+M7WbN+TqX+CMNFEFEcdTtJJQQvtPpv5sZmLX3GmLRQRqFt/B8R+WdxZ
uW/IwhDJqrQULk04IJn+NnZAJg3gb0LTcpjqa+qDmPrq3C+vvoXMF0BlerVrrvHI
2lfg8e7+zkQ2khoroZyYMWf9pbiOWWSpfOHe0hMne+naub2JgeEb7WRoAwJ4DUU0
BObTexYnAgMBAAGjgeQwgeEwHQYDVR0OBBYEFPnO9DH80IJkxqBJZ94nN2hVAG/b
MIGbBgNVHSMEgZMwgZCAFIbgy+FihEJLNEBADEfXC+MfyzfZoXWkczBxMQswCQYD
VQQGEwJVUzETMBEGA1UECAwKQ2FsaWZvcm5pYTEUMBIGA1UEBwwLU2FudGEgQ2xh
cmExDTALBgNVBAoMBHBrZzUxEDAOBgNVBAMMB2NoMV90YTExFjAUBgkqhkiG9w0B
CQEWB2NoMV90YTGCAQIwEgYDVR0TAQH/BAgwBgEB/wIBAjAOBgNVHQ8BAf8EBAMC
AQYwDQYJKoZIhvcNAQELBQADggEBAKSSf6g/hn4dIoSDucp+VYvVBF8IcyH2uiVZ
HIJVzYdiU9YABrvyC/9x8Bs6zSGnwPeSDErzCiEPN+FrsHZtC/6/kURLQb6eEzMd
Vm2/4Jd0PUcm2CSHz9m7jdg+pZJ17KRQF2JahWBWzh0yf8Tg3GLtW0A58OyfUXwX
ydgm69n7CKrLsxF+Dun65k99jn0LuNplc/TzYVsOZScbf05Lhabm+kFED95/3pLb
CqdOUQIiw9tD7PiATqI5QZDd7EYlnH6/nsrq1behKh3Cd2R9ptLazq5rgFBEcSkm
Ma9QXcXy4nxRx1AkpWeq/rXCSlu20bmYBAw37K9LZjlp/csokLw=
-----END CERTIFICATE-----
