Certificate:
    Data:
        Version: 3 (0x2)
        Serial Number: 3 (0x3)
    Signature Algorithm: sha256WithRSAEncryption
        Issuer: C=US, ST=California, L=Santa Clara, O=pkg5, CN=ch2_ta1/emailAddress=ch2_ta1
        Validity
            Not Before: Sep 22 05:33:14 2021 GMT
            Not After : Jun 18 05:33:14 2024 GMT
        Subject: C=US, ST=California, L=Santa Clara, O=pkg5, CN=ch3_ta1/emailAddress=ch3_ta1
        Subject Public Key Info:
            Public Key Algorithm: rsaEncryption
                Public-Key: (2048 bit)
                Modulus:
                    00:c2:3b:45:f8:33:1e:02:a8:cd:f5:55:ea:2f:17:
                    ee:6b:c0:70:8c:1f:f4:42:ab:6d:ed:bc:48:c0:f7:
                    07:b7:92:28:d1:18:17:f9:0b:9a:f6:1f:82:6d:d7:
                    25:94:da:6b:11:c6:41:3f:ad:dc:bb:03:c6:51:09:
                    71:d2:69:12:35:83:31:da:56:32:b7:98:de:38:d6:
                    a6:80:f1:20:72:7c:31:51:1e:90:a5:8d:bf:d6:13:
                    e6:ca:cd:fd:fa:56:8c:b4:6e:9a:8d:74:bf:63:3d:
                    23:b6:5e:1d:89:79:51:51:31:29:f0:97:cc:1c:45:
                    16:9e:af:77:e8:1d:71:c2:31:ea:73:1b:cc:d1:41:
                    49:da:e4:1d:de:f1:d4:fe:bc:df:03:11:9f:f6:7e:
                    41:96:de:7c:db:7a:7b:a0:6c:00:e3:ad:27:68:b6:
                    75:07:10:ac:ed:4d:b7:a2:5a:b8:f9:ce:5a:49:d7:
                    df:a5:b6:0d:3b:cb:93:3e:a3:61:89:ba:0c:77:3c:
                    8e:3f:10:fb:e6:ce:11:db:53:e4:4f:0e:ba:42:97:
                    3d:da:a7:f6:19:0f:58:88:8e:de:2b:7c:1f:aa:88:
                    d9:22:fc:cd:88:70:cc:fd:8f:dc:7f:b3:19:55:ac:
                    e2:fa:f1:af:02:70:8f:61:87:c4:63:5b:dc:90:0a:
                    5e:1d
                Exponent: 65537 (0x10001)
        X509v3 extensions:
            X509v3 Subject Key Identifier: 
                E7:FD:5D:2E:2E:AC:82:18:8F:E8:B2:FA:23:60:7C:DE:53:04:F9:30
            X509v3 Authority Key Identifier: 
                keyid:A8:22:95:A8:52:3E:52:15:9C:C6:60:4D:D7:33:6D:54:64:57:7D:30
                DirName:/C=US/ST=California/L=Santa Clara/O=pkg5/CN=ch1_ta1/emailAddress=ch1_ta1
                serial:02

            X509v3 Basic Constraints: critical
                CA:TRUE, pathlen:2
            X509v3 Key Usage: critical
                Certificate Sign, CRL Sign
    Signature Algorithm: sha256WithRSAEncryption
         84:15:9f:ec:fd:be:17:ae:0c:fa:bc:a8:66:4e:91:37:6b:d4:
         39:ba:19:f3:e1:8e:36:d1:25:bc:51:50:8f:52:be:2c:e8:dc:
         13:3e:17:04:80:1c:ed:17:b3:1c:ba:bd:72:8e:d3:22:61:ea:
         67:c4:22:0a:ba:30:4a:ad:55:91:3b:49:53:99:cf:ce:27:6d:
         18:c1:9a:cf:31:9a:cf:8e:24:c7:9f:05:aa:4a:ee:dc:f6:44:
         d7:d2:74:35:2e:85:6a:c3:ff:2d:2a:ae:2b:a2:80:04:80:07:
         63:86:a8:89:a0:d8:84:79:94:3d:09:ff:6a:af:3d:23:de:85:
         68:ef:8b:85:3d:42:07:53:bc:ce:da:48:21:f8:66:1f:1f:e4:
         6f:62:f0:d6:b1:72:88:38:88:8d:68:c2:0a:f9:5a:0c:b4:d3:
         3a:09:69:cc:4d:ab:53:37:e7:21:9d:46:f8:7d:89:36:69:eb:
         e3:11:55:61:0e:ea:2a:35:76:b0:4b:7f:21:fa:a4:c5:9e:e0:
         a2:7d:d0:52:1c:19:86:7e:4f:06:27:63:8c:37:d1:98:c6:ea:
         9c:c1:32:06:8f:44:b1:be:ee:e3:5d:72:45:3a:52:45:c6:88:
         e8:7d:3f:02:45:4d:20:28:3b:9b:f9:43:10:4f:4f:b6:99:bf:
         60:80:28:38
-----BEGIN CERTIFICATE-----
MIIEQjCCAyqgAwIBAgIBAzANBgkqhkiG9w0BAQsFADBxMQswCQYDVQQGEwJVUzET
MBEGA1UECAwKQ2FsaWZvcm5pYTEUMBIGA1UEBwwLU2FudGEgQ2xhcmExDTALBgNV
BAoMBHBrZzUxEDAOBgNVBAMMB2NoMl90YTExFjAUBgkqhkiG9w0BCQEWB2NoMl90
YTEwHhcNMjEwOTIyMDUzMzE0WhcNMjQwNjE4MDUzMzE0WjBxMQswCQYDVQQGEwJV
UzETMBEGA1UECAwKQ2FsaWZvcm5pYTEUMBIGA1UEBwwLU2FudGEgQ2xhcmExDTAL
BgNVBAoMBHBrZzUxEDAOBgNVBAMMB2NoM190YTExFjAUBgkqhkiG9w0BCQEWB2No
M190YTEwggEiMA0GCSqGSIb3DQEBAQUAA4IBDwAwggEKAoIBAQDCO0X4Mx4CqM31
VeovF+5rwHCMH/RCq23tvEjA9we3kijRGBf5C5r2H4Jt1yWU2msRxkE/rdy7A8ZR
CXHSaRI1gzHaVjK3mN441qaA8SByfDFRHpCljb/WE+bKzf36Voy0bpqNdL9jPSO2
Xh2JeVFRMSnwl8wcRRaer3foHXHCMepzG8zRQUna5B3e8dT+vN8DEZ/2fkGW3nzb
enugbADjrSdotnUHEKztTbeiWrj5zlpJ19+ltg07y5M+o2GJugx3PI4/EPvmzhHb
U+RPDrpClz3ap/YZD1iIjt4rfB+qiNki/M2IcMz9j9x/sxlVrOL68a8CcI9hh8Rj
W9yQCl4dAgMBAAGjgeQwgeEwHQYDVR0OBBYEFOf9XS4urIIYj+iy+iNgfN5TBPkw
MIGbBgNVHSMEgZMwgZCAFKgilahSPlIVnMZgTdczbVRkV30woXWkczBxMQswCQYD
VQQGEwJVUzETMBEGA1UECAwKQ2FsaWZvcm5pYTEUMBIGA1UEBwwLU2FudGEgQ2xh
cmExDTALBgNVBAoMBHBrZzUxEDAOBgNVBAMMB2NoMV90YTExFjAUBgkqhkiG9w0B
CQEWB2NoMV90YTGCAQIwEgYDVR0TAQH/BAgwBgEB/wIBAjAOBgNVHQ8BAf8EBAMC
AQYwDQYJKoZIhvcNAQELBQADggEBAIQVn+z9vheuDPq8qGZOkTdr1Dm6GfPhjjbR
JbxRUI9Svizo3BM+FwSAHO0Xsxy6vXKO0yJh6mfEIgq6MEqtVZE7SVOZz84nbRjB
ms8xms+OJMefBapK7tz2RNfSdDUuhWrD/y0qriuigASAB2OGqImg2IR5lD0J/2qv
PSPehWjvi4U9QgdTvM7aSCH4Zh8f5G9i8Naxcog4iI1owgr5Wgy00zoJacxNq1M3
5yGdRvh9iTZp6+MRVWEO6io1drBLfyH6pMWe4KJ90FIcGYZ+TwYnY4w30ZjG6pzB
MgaPRLG+7uNdckU6UkXGiOh9PwJFTSAoO5v5QxBPT7aZv2CAKDg=
-----END CERTIFICATE-----
