Certificate:
    Data:
        Version: 3 (0x2)
        Serial Number: 3 (0x3)
        Signature Algorithm: sha256WithRSAEncryption
        Issuer: C=US, ST=California, L=Menlo Park, O=pkg5, CN=ch2_ta1/emailAddress=ch2_ta1
        Validity
            Not Before: Apr 11 22:37:39 2011 GMT
            Not After : Jan  5 22:37:39 2014 GMT
        Subject: C=US, ST=California, L=Menlo Park, O=pkg5, CN=ch3_ta1/emailAddress=ch3_ta1
        Subject Public Key Info:
            Public Key Algorithm: rsaEncryption
            RSA Public Key: (1024 bit)
                Modulus (1024 bit):
                    00:ec:46:7e:e1:35:25:1c:92:37:51:fb:99:13:70:
                    e7:89:d6:3e:3b:28:59:98:96:e2:81:87:3f:99:85:
                    5d:06:0a:d0:df:04:3e:fe:8a:00:f5:aa:91:93:a9:
                    48:5c:59:b9:cb:f2:94:dd:fe:71:11:af:9c:7e:71:
                    ce:96:21:cc:fd:27:e9:7e:82:2b:84:d5:73:3a:89:
                    c0:09:2b:aa:16:d6:5f:7a:ac:81:d1:9b:18:4d:85:
                    1e:33:2f:86:a8:c3:7a:2d:68:24:30:1d:7f:db:c5:
                    30:0c:bf:d9:72:04:98:9d:ff:2f:cf:94:e7:2e:88:
                    b2:47:fd:ee:c1:d2:e0:e9:39
                Exponent: 65537 (0x10001)
        X509v3 extensions:
            X509v3 Subject Key Identifier: 
                D0:F9:37:92:54:28:C0:40:AE:62:94:51:42:6A:7C:8E:37:5F:AC:A8
            X509v3 Authority Key Identifier: 
                keyid:C2:62:F6:27:E6:91:FB:98:5F:55:6E:11:EE:6E:E0:04:76:A0:E7:01
                DirName:/C=US/ST=California/L=Menlo Park/O=pkg5/CN=ch1_ta1/emailAddress=ch1_ta1
                serial:02

            X509v3 Basic Constraints: critical
                CA:TRUE, pathlen:2
            X509v3 Key Usage: critical
                Certificate Sign, CRL Sign
    Signature Algorithm: sha256WithRSAEncryption
        3e:60:a3:23:dc:e2:bc:b9:60:14:1b:e5:dd:af:bd:f2:8b:cb:
        f1:55:8a:03:e1:ee:82:f2:d2:7b:3d:0d:4a:56:f5:61:80:97:
        27:90:c0:05:e4:e9:18:e8:29:97:eb:aa:6b:d2:4a:0c:b8:c0:
        f3:cf:a5:4f:95:dd:46:03:96:eb:29:e4:bb:22:fe:5b:34:da:
        02:8c:36:12:b6:9c:3e:a4:e4:d7:33:a3:ac:d8:45:65:75:37:
        68:55:63:eb:d8:d1:6f:28:66:fc:ac:ad:15:08:67:41:41:32:
        3f:ed:60:fc:01:e1:b9:88:24:95:1e:9c:ee:69:3b:d2:91:f8:
        ef:81
-----BEGIN CERTIFICATE-----
MIIDOjCCAqOgAwIBAgIBAzANBgkqhkiG9w0BAQsFADBwMQswCQYDVQQGEwJVUzET
MBEGA1UECBMKQ2FsaWZvcm5pYTETMBEGA1UEBxMKTWVubG8gUGFyazENMAsGA1UE
ChMEcGtnNTEQMA4GA1UEAxQHY2gyX3RhMTEWMBQGCSqGSIb3DQEJARYHY2gyX3Rh
MTAeFw0xMTA0MTEyMjM3MzlaFw0xNDAxMDUyMjM3MzlaMHAxCzAJBgNVBAYTAlVT
MRMwEQYDVQQIEwpDYWxpZm9ybmlhMRMwEQYDVQQHEwpNZW5sbyBQYXJrMQ0wCwYD
VQQKEwRwa2c1MRAwDgYDVQQDFAdjaDNfdGExMRYwFAYJKoZIhvcNAQkBFgdjaDNf
dGExMIGfMA0GCSqGSIb3DQEBAQUAA4GNADCBiQKBgQDsRn7hNSUckjdR+5kTcOeJ
1j47KFmYluKBhz+ZhV0GCtDfBD7+igD1qpGTqUhcWbnL8pTd/nERr5x+cc6WIcz9
J+l+giuE1XM6icAJK6oW1l96rIHRmxhNhR4zL4aow3otaCQwHX/bxTAMv9lyBJid
/y/PlOcuiLJH/e7B0uDpOQIDAQABo4HjMIHgMB0GA1UdDgQWBBTQ+TeSVCjAQK5i
lFFCanyON1+sqDCBmgYDVR0jBIGSMIGPgBTCYvYn5pH7mF9VbhHubuAEdqDnAaF0
pHIwcDELMAkGA1UEBhMCVVMxEzARBgNVBAgTCkNhbGlmb3JuaWExEzARBgNVBAcT
Ck1lbmxvIFBhcmsxDTALBgNVBAoTBHBrZzUxEDAOBgNVBAMUB2NoMV90YTExFjAU
BgkqhkiG9w0BCQEWB2NoMV90YTGCAQIwEgYDVR0TAQH/BAgwBgEB/wIBAjAOBgNV
HQ8BAf8EBAMCAQYwDQYJKoZIhvcNAQELBQADgYEAPmCjI9zivLlgFBvl3a+98ovL
8VWKA+HugvLSez0NSlb1YYCXJ5DABeTpGOgpl+uqa9JKDLjA88+lT5XdRgOW6ynk
uyL+WzTaAow2EracPqTk1zOjrNhFZXU3aFVj69jRbyhm/KytFQhnQUEyP+1g/AHh
uYgklR6c7mk70pH474E=
-----END CERTIFICATE-----
