Certificate:
    Data:
        Version: 3 (0x2)
        Serial Number: 3 (0x3)
    Signature Algorithm: sha256WithRSAEncryption
        Issuer: C=US, ST=California, L=Santa Clara, O=pkg5, CN=ch2_ta1/emailAddress=ch2_ta1
        Validity
            Not Before: Jan 22 01:57:54 2016 GMT
            Not After : Oct 18 01:57:54 2018 GMT
        Subject: C=US, ST=California, L=Santa Clara, O=pkg5, CN=ch3_ta1/emailAddress=ch3_ta1
        Subject Public Key Info:
            Public Key Algorithm: rsaEncryption
                Public-Key: (2048 bit)
                Modulus:
                    00:b6:d0:0d:56:d4:83:c8:22:08:fd:38:bd:e2:34:
                    1e:1a:4e:8a:ca:b8:97:9b:69:75:be:78:1b:45:ae:
                    aa:60:19:86:eb:4b:9a:9f:4b:76:4b:0e:20:e3:bf:
                    31:89:b0:36:9e:b2:7f:70:17:50:d5:f3:5a:84:ee:
                    57:3d:86:83:6e:34:47:bf:9a:3a:cb:a3:f1:e9:00:
                    5a:82:cd:b9:61:63:ac:fa:dd:1a:23:9e:79:a0:13:
                    1c:5b:9c:20:8f:a4:73:09:0b:6e:40:82:e1:13:98:
                    8c:71:27:8b:4b:f9:20:a2:14:17:69:3c:ef:ba:68:
                    8e:4d:61:b8:f4:fd:92:fc:5c:10:9c:12:5f:91:63:
                    ae:57:a4:31:a2:67:46:60:c8:d9:10:ba:86:33:6f:
                    99:a7:14:3a:42:5d:b2:77:f5:e5:52:9e:e9:f6:f5:
                    01:ea:63:b1:71:97:cd:83:18:5c:07:40:44:b3:43:
                    c7:af:f7:ad:d7:61:0f:7c:c7:60:5e:df:d4:06:f5:
                    1d:ee:c1:19:0e:4b:13:e3:51:b6:b7:cc:3f:35:8f:
                    6c:99:56:42:eb:86:8a:42:fa:4a:5c:60:06:75:a4:
                    b1:6b:ea:eb:0c:eb:21:5d:2d:0f:0c:a0:fd:3e:67:
                    42:b4:a1:da:57:3c:a6:50:a4:df:0a:8e:ca:fc:10:
                    2c:bd
                Exponent: 65537 (0x10001)
        X509v3 extensions:
            X509v3 Subject Key Identifier: 
                EE:A0:C0:54:B5:84:89:28:80:79:49:CE:D0:A9:C6:8B:B9:8E:85:20
            X509v3 Authority Key Identifier: 
                keyid:36:30:72:96:D2:F9:D4:7A:AE:CF:C2:4B:3F:EE:52:AA:DF:9B:F3:12
                DirName:/C=US/ST=California/L=Santa Clara/O=pkg5/CN=ch1_ta1/emailAddress=ch1_ta1
                serial:02

            X509v3 Basic Constraints: critical
                CA:TRUE, pathlen:2
            X509v3 Key Usage: critical
                Certificate Sign, CRL Sign
    Signature Algorithm: sha256WithRSAEncryption
         a6:cf:99:19:6d:0e:6c:46:8b:9a:79:e7:12:d9:3b:13:6f:c9:
         98:05:09:5c:a4:14:42:de:2d:bf:cc:85:39:a7:ec:e3:fb:1c:
         73:76:0c:8f:ab:1a:e7:f3:4a:cb:44:8e:33:a0:3c:3d:6a:21:
         88:87:e2:52:d7:27:23:05:c9:f5:59:a8:b7:c3:e6:00:01:6c:
         85:98:cd:37:30:f9:f9:d7:6f:07:56:5d:f0:c6:a6:d7:aa:ec:
         a6:f4:40:97:aa:45:f3:3e:25:22:fa:fb:4a:04:42:3c:77:36:
         96:91:2d:49:8a:ba:07:cb:70:69:71:6d:4f:5e:9c:f0:1d:8f:
         ed:22:fd:5b:c6:c6:87:b0:e9:0c:20:51:17:09:a3:2f:fd:da:
         e9:84:5e:5e:d4:9a:39:b9:e4:75:e2:4f:8e:35:71:97:46:2d:
         3c:6e:30:dd:92:5a:86:29:b4:7a:27:aa:cf:1e:d2:31:6e:f7:
         d7:7f:f3:d6:17:e3:dd:4d:13:d3:d4:3e:d4:3a:ab:46:f7:68:
         e7:b9:9f:28:26:f2:ec:f4:f1:96:ea:09:d0:fe:ed:08:8c:52:
         98:ff:ad:47:0d:2f:c5:24:9b:58:17:5c:4e:a2:bb:11:29:84:
         03:91:d8:a6:31:a7:cf:b3:f7:3b:e0:f1:6e:4b:90:13:77:ba:
         7f:0b:cc:ea
-----BEGIN CERTIFICATE-----
MIIEQjCCAyqgAwIBAgIBAzANBgkqhkiG9w0BAQsFADBxMQswCQYDVQQGEwJVUzET
MBEGA1UECAwKQ2FsaWZvcm5pYTEUMBIGA1UEBwwLU2FudGEgQ2xhcmExDTALBgNV
BAoMBHBrZzUxEDAOBgNVBAMMB2NoMl90YTExFjAUBgkqhkiG9w0BCQEWB2NoMl90
YTEwHhcNMTYwMTIyMDE1NzU0WhcNMTgxMDE4MDE1NzU0WjBxMQswCQYDVQQGEwJV
UzETMBEGA1UECAwKQ2FsaWZvcm5pYTEUMBIGA1UEBwwLU2FudGEgQ2xhcmExDTAL
BgNVBAoMBHBrZzUxEDAOBgNVBAMMB2NoM190YTExFjAUBgkqhkiG9w0BCQEWB2No
M190YTEwggEiMA0GCSqGSIb3DQEBAQUAA4IBDwAwggEKAoIBAQC20A1W1IPIIgj9
OL3iNB4aTorKuJebaXW+eBtFrqpgGYbrS5qfS3ZLDiDjvzGJsDaesn9wF1DV81qE
7lc9hoNuNEe/mjrLo/HpAFqCzblhY6z63RojnnmgExxbnCCPpHMJC25AguETmIxx
J4tL+SCiFBdpPO+6aI5NYbj0/ZL8XBCcEl+RY65XpDGiZ0ZgyNkQuoYzb5mnFDpC
XbJ39eVSnun29QHqY7Fxl82DGFwHQESzQ8ev963XYQ98x2Be39QG9R3uwRkOSxPj
Uba3zD81j2yZVkLrhopC+kpcYAZ1pLFr6usM6yFdLQ8MoP0+Z0K0odpXPKZQpN8K
jsr8ECy9AgMBAAGjgeQwgeEwHQYDVR0OBBYEFO6gwFS1hIkogHlJztCpxou5joUg
MIGbBgNVHSMEgZMwgZCAFDYwcpbS+dR6rs/CSz/uUqrfm/MSoXWkczBxMQswCQYD
VQQGEwJVUzETMBEGA1UECAwKQ2FsaWZvcm5pYTEUMBIGA1UEBwwLU2FudGEgQ2xh
cmExDTALBgNVBAoMBHBrZzUxEDAOBgNVBAMMB2NoMV90YTExFjAUBgkqhkiG9w0B
CQEWB2NoMV90YTGCAQIwEgYDVR0TAQH/BAgwBgEB/wIBAjAOBgNVHQ8BAf8EBAMC
AQYwDQYJKoZIhvcNAQELBQADggEBAKbPmRltDmxGi5p55xLZOxNvyZgFCVykFELe
Lb/MhTmn7OP7HHN2DI+rGufzSstEjjOgPD1qIYiH4lLXJyMFyfVZqLfD5gABbIWY
zTcw+fnXbwdWXfDGpteq7Kb0QJeqRfM+JSL6+0oEQjx3NpaRLUmKugfLcGlxbU9e
nPAdj+0i/VvGxoew6QwgURcJoy/92umEXl7Umjm55HXiT441cZdGLTxuMN2SWoYp
tHonqs8e0jFu99d/89YX491NE9PUPtQ6q0b3aOe5nygm8uz08ZbqCdD+7QiMUpj/
rUcNL8Ukm1gXXE6iuxEphAOR2KYxp8+z9zvg8W5LkBN3un8LzOo=
-----END CERTIFICATE-----
