Certificate:
    Data:
        Version: 3 (0x2)
        Serial Number: 4 (0x4)
    Signature Algorithm: sha256WithRSAEncryption
        Issuer: C=US, ST=California, L=Santa Clara, O=pkg5, CN=ch3_ta1/emailAddress=ch3_ta1
        Validity
            Not Before: Sep 22 05:33:15 2021 GMT
            Not After : Jun 18 05:33:15 2024 GMT
        Subject: C=US, ST=California, L=Santa Clara, O=pkg5, CN=ch4_ta1/emailAddress=ch4_ta1
        Subject Public Key Info:
            Public Key Algorithm: rsaEncryption
                Public-Key: (2048 bit)
                Modulus:
                    00:e0:46:5c:3e:84:6d:9a:0f:ef:70:78:a1:93:07:
                    ba:8d:e4:52:7d:37:6b:1b:e0:62:24:6e:08:80:5b:
                    eb:d5:67:50:08:32:7e:ff:f1:bc:b9:ca:88:22:82:
                    13:36:87:61:e9:02:c7:e5:18:4c:e5:0a:16:dc:33:
                    ee:ae:92:b4:91:eb:9d:ea:5c:11:34:7a:54:82:9e:
                    f4:94:d0:1a:a0:08:43:87:3c:2c:43:3f:f8:64:99:
                    ce:eb:0f:f8:66:03:d5:eb:27:30:f1:1c:71:5d:37:
                    36:c7:2b:7b:84:fe:ec:f5:2c:fb:c1:ab:1a:fe:de:
                    bf:e5:ad:70:fb:34:e2:57:21:58:be:b1:16:e5:b1:
                    b3:c7:69:e7:35:4a:11:bf:90:76:d4:aa:63:e7:94:
                    83:c0:3d:f1:64:68:7b:48:5b:6f:0a:4b:ab:1c:4b:
                    ad:1c:c9:93:70:f4:18:98:6d:c9:68:93:1d:78:71:
                    e8:cd:85:3a:a5:73:cb:94:b0:8e:54:ee:db:f3:82:
                    3f:5a:8d:7b:a5:4f:ab:de:da:47:9c:73:72:cc:7c:
                    ca:1e:9f:b5:43:62:48:e3:36:69:f3:b2:6c:38:43:
                    5f:74:8c:9f:4f:a0:84:1c:1d:72:ee:4d:56:3f:61:
                    f4:c1:26:f0:90:87:f4:76:ce:d7:92:0f:79:6a:cf:
                    4d:9d
                Exponent: 65537 (0x10001)
        X509v3 extensions:
            X509v3 Subject Key Identifier: 
                79:24:9E:9E:DF:31:26:39:7E:ED:7F:85:88:DA:DD:21:5B:7A:11:FF
            X509v3 Authority Key Identifier: 
                keyid:E7:FD:5D:2E:2E:AC:82:18:8F:E8:B2:FA:23:60:7C:DE:53:04:F9:30
                DirName:/C=US/ST=California/L=Santa Clara/O=pkg5/CN=ch2_ta1/emailAddress=ch2_ta1
                serial:03

            X509v3 Basic Constraints: critical
                CA:TRUE, pathlen:1
            X509v3 Key Usage: critical
                Certificate Sign, CRL Sign
    Signature Algorithm: sha256WithRSAEncryption
         28:06:da:5d:d6:c1:9b:ad:71:6e:2a:5a:28:77:6a:b7:f4:cb:
         e6:0d:98:c2:bf:40:4a:12:6f:81:bd:92:b4:3b:e4:6f:cf:b9:
         57:10:ee:6a:19:31:1c:25:b2:b7:c2:5f:d9:c4:59:00:a6:8d:
         5c:99:b8:7b:ab:3f:71:51:35:e8:60:4d:10:b4:74:45:b7:49:
         51:d5:83:ed:9a:39:c2:a3:61:2c:de:c3:10:2b:81:01:73:6a:
         15:77:5a:b0:4f:cd:aa:c6:88:bc:ba:f8:38:f7:d5:85:16:7f:
         4e:9c:29:8e:e2:f1:fc:d6:4c:bd:47:62:71:e5:d0:80:da:b9:
         81:8a:62:8a:93:5c:7f:3f:9d:e9:61:5b:f3:14:a5:4e:f0:6b:
         a7:92:7b:a6:ce:ec:3f:a4:df:ab:4e:8d:a3:89:e7:e0:14:84:
         98:3b:00:a0:f4:47:ab:ad:1f:8a:51:b7:8f:8c:cb:db:88:53:
         63:d6:e2:0f:cb:03:2d:55:35:5c:1e:6a:e5:45:72:fe:85:22:
         d0:4c:9e:7d:90:80:cb:01:74:9c:43:7e:1e:0d:ef:1c:a1:f8:
         d3:85:da:c2:70:d9:62:a1:03:5f:06:9f:b4:8c:b5:95:15:af:
         12:74:94:d0:7b:9e:3f:12:95:fe:1c:41:68:6e:01:55:cf:26:
         91:d1:31:2d
-----BEGIN CERTIFICATE-----
MIIEQjCCAyqgAwIBAgIBBDANBgkqhkiG9w0BAQsFADBxMQswCQYDVQQGEwJVUzET
MBEGA1UECAwKQ2FsaWZvcm5pYTEUMBIGA1UEBwwLU2FudGEgQ2xhcmExDTALBgNV
BAoMBHBrZzUxEDAOBgNVBAMMB2NoM190YTExFjAUBgkqhkiG9w0BCQEWB2NoM190
YTEwHhcNMjEwOTIyMDUzMzE1WhcNMjQwNjE4MDUzMzE1WjBxMQswCQYDVQQGEwJV
UzETMBEGA1UECAwKQ2FsaWZvcm5pYTEUMBIGA1UEBwwLU2FudGEgQ2xhcmExDTAL
BgNVBAoMBHBrZzUxEDAOBgNVBAMMB2NoNF90YTExFjAUBgkqhkiG9w0BCQEWB2No
NF90YTEwggEiMA0GCSqGSIb3DQEBAQUAA4IBDwAwggEKAoIBAQDgRlw+hG2aD+9w
eKGTB7qN5FJ9N2sb4GIkbgiAW+vVZ1AIMn7/8by5yogighM2h2HpAsflGEzlChbc
M+6ukrSR653qXBE0elSCnvSU0BqgCEOHPCxDP/hkmc7rD/hmA9XrJzDxHHFdNzbH
K3uE/uz1LPvBqxr+3r/lrXD7NOJXIVi+sRblsbPHaec1ShG/kHbUqmPnlIPAPfFk
aHtIW28KS6scS60cyZNw9BiYbclokx14cejNhTqlc8uUsI5U7tvzgj9ajXulT6ve
2kecc3LMfMoen7VDYkjjNmnzsmw4Q190jJ9PoIQcHXLuTVY/YfTBJvCQh/R2zteS
D3lqz02dAgMBAAGjgeQwgeEwHQYDVR0OBBYEFHkknp7fMSY5fu1/hYja3SFbehH/
MIGbBgNVHSMEgZMwgZCAFOf9XS4urIIYj+iy+iNgfN5TBPkwoXWkczBxMQswCQYD
VQQGEwJVUzETMBEGA1UECAwKQ2FsaWZvcm5pYTEUMBIGA1UEBwwLU2FudGEgQ2xh
cmExDTALBgNVBAoMBHBrZzUxEDAOBgNVBAMMB2NoMl90YTExFjAUBgkqhkiG9w0B
CQEWB2NoMl90YTGCAQMwEgYDVR0TAQH/BAgwBgEB/wIBATAOBgNVHQ8BAf8EBAMC
AQYwDQYJKoZIhvcNAQELBQADggEBACgG2l3WwZutcW4qWih3arf0y+YNmMK/QEoS
b4G9krQ75G/PuVcQ7moZMRwlsrfCX9nEWQCmjVyZuHurP3FRNehgTRC0dEW3SVHV
g+2aOcKjYSzewxArgQFzahV3WrBPzarGiLy6+Dj31YUWf06cKY7i8fzWTL1HYnHl
0IDauYGKYoqTXH8/nelhW/MUpU7wa6eSe6bO7D+k36tOjaOJ5+AUhJg7AKD0R6ut
H4pRt4+My9uIU2PW4g/LAy1VNVweauVFcv6FItBMnn2QgMsBdJxDfh4N7xyh+NOF
2sJw2WKhA18Gn7SMtZUVrxJ0lNB7nj8Slf4cQWhuAVXPJpHRMS0=
-----END CERTIFICATE-----
