Certificate:
    Data:
        Version: 3 (0x2)
        Serial Number: 4 (0x4)
    Signature Algorithm: sha256WithRSAEncryption
        Issuer: C=US, ST=California, L=Santa Clara, O=pkg5, CN=ch3_ta1/emailAddress=ch3_ta1
        Validity
            Not Before: Jul 19 11:35:43 2023 GMT
            Not After : Apr 14 11:35:43 2026 GMT
        Subject: C=US, ST=California, L=Santa Clara, O=pkg5, CN=ch4_ta1/emailAddress=ch4_ta1
        Subject Public Key Info:
            Public Key Algorithm: rsaEncryption
                Public-Key: (2048 bit)
                Modulus:
                    00:a0:f6:e0:b7:f7:a8:17:5d:57:60:9e:3f:57:98:
                    0c:60:1e:05:06:ac:6d:9b:ef:5a:aa:9a:07:56:d8:
                    aa:bb:49:cb:24:32:bb:a8:6d:79:8a:24:2f:5c:9a:
                    55:bc:15:c5:bc:f9:0f:97:59:13:4a:a7:b5:d0:17:
                    c6:22:43:b8:fb:9e:f1:59:5b:88:c1:1d:d4:84:d8:
                    49:79:c7:fe:3b:d8:a7:e7:ae:87:0d:f6:5e:00:a0:
                    d1:66:b1:31:5d:4f:7f:da:e0:1f:7a:1c:9b:10:a0:
                    a1:8f:2c:c7:57:2f:66:69:5f:a8:ac:7d:ad:f5:27:
                    ea:ec:31:4b:97:ba:ba:cb:75:53:13:27:3a:c4:59:
                    d0:75:3d:db:84:48:81:07:df:88:85:cb:42:a2:3a:
                    f9:92:fd:40:a6:5c:c4:d9:b7:71:31:18:ea:62:4b:
                    f4:8c:34:46:95:61:3d:89:04:46:91:7f:aa:67:8a:
                    87:74:1a:5d:9f:c0:c6:ed:b3:e8:f0:d1:93:e1:5a:
                    e1:a5:96:98:7c:b8:e0:64:7c:10:67:e5:a2:13:e0:
                    d4:ad:99:74:4d:5e:e5:57:93:07:5f:96:98:33:b1:
                    53:47:8e:73:66:d5:68:29:47:15:f0:0f:26:32:5a:
                    6e:be:d4:d0:60:7a:c5:07:2f:a2:65:c3:b8:46:df:
                    9c:f7
                Exponent: 65537 (0x10001)
        X509v3 extensions:
            X509v3 Subject Key Identifier: 
                1B:DF:89:ED:1B:94:55:1A:84:9B:A3:37:2B:A7:24:65:58:6A:1D:DC
            X509v3 Authority Key Identifier: 
                keyid:7F:6A:6C:0C:20:00:E4:06:0B:BF:66:BE:D8:85:FE:28:4E:A5:23:8E
                DirName:/C=US/ST=California/L=Santa Clara/O=pkg5/CN=ch2_ta1/emailAddress=ch2_ta1
                serial:03

            X509v3 Basic Constraints: critical
                CA:TRUE, pathlen:1
            X509v3 Key Usage: critical
                Certificate Sign, CRL Sign
    Signature Algorithm: sha256WithRSAEncryption
         23:ba:91:31:eb:54:32:ef:ad:b2:ad:74:75:a5:6b:99:03:00:
         ca:1c:0f:1c:da:c5:8b:b3:78:f2:88:a1:8d:37:1f:56:a3:12:
         26:82:ac:5c:f8:fd:78:1e:bd:28:5e:3f:bd:b4:ed:3f:86:a6:
         73:64:6d:ef:c6:80:08:42:75:09:02:25:67:12:77:5d:ff:13:
         11:3c:e6:f9:d9:58:41:f7:18:a0:53:bd:61:7e:ff:48:76:33:
         bc:a5:0d:80:d0:87:f2:36:d1:f4:14:88:b0:05:55:3f:2b:78:
         ea:c5:37:85:dc:74:94:68:69:f2:ef:67:18:d9:26:d1:f0:04:
         c0:0b:a8:70:bb:a5:3a:a5:c4:ef:0a:1d:72:df:3b:a1:e5:c7:
         96:7a:92:aa:21:5e:d7:f9:ca:87:28:4a:b4:5f:37:fb:fb:7e:
         29:85:38:e9:3b:6f:bb:c4:5e:93:a2:62:a9:65:56:c6:77:7a:
         e4:dd:30:ac:c5:a5:57:ff:66:c0:02:2a:cc:02:91:7d:7d:df:
         01:e5:0a:67:6a:12:3c:d0:4f:25:07:97:f5:08:75:03:52:2a:
         a5:94:4a:9d:a9:6b:78:07:bc:40:da:ff:b4:9c:38:f9:e9:d8:
         c3:0e:dc:31:04:d4:e8:70:1d:ac:a3:d6:eb:bb:27:cb:21:ae:
         f6:9e:ce:07
-----BEGIN CERTIFICATE-----
MIIEQjCCAyqgAwIBAgIBBDANBgkqhkiG9w0BAQsFADBxMQswCQYDVQQGEwJVUzET
MBEGA1UECAwKQ2FsaWZvcm5pYTEUMBIGA1UEBwwLU2FudGEgQ2xhcmExDTALBgNV
BAoMBHBrZzUxEDAOBgNVBAMMB2NoM190YTExFjAUBgkqhkiG9w0BCQEWB2NoM190
YTEwHhcNMjMwNzE5MTEzNTQzWhcNMjYwNDE0MTEzNTQzWjBxMQswCQYDVQQGEwJV
UzETMBEGA1UECAwKQ2FsaWZvcm5pYTEUMBIGA1UEBwwLU2FudGEgQ2xhcmExDTAL
BgNVBAoMBHBrZzUxEDAOBgNVBAMMB2NoNF90YTExFjAUBgkqhkiG9w0BCQEWB2No
NF90YTEwggEiMA0GCSqGSIb3DQEBAQUAA4IBDwAwggEKAoIBAQCg9uC396gXXVdg
nj9XmAxgHgUGrG2b71qqmgdW2Kq7ScskMruobXmKJC9cmlW8FcW8+Q+XWRNKp7XQ
F8YiQ7j7nvFZW4jBHdSE2El5x/472KfnrocN9l4AoNFmsTFdT3/a4B96HJsQoKGP
LMdXL2ZpX6isfa31J+rsMUuXurrLdVMTJzrEWdB1PduESIEH34iFy0KiOvmS/UCm
XMTZt3ExGOpiS/SMNEaVYT2JBEaRf6pniod0Gl2fwMbts+jw0ZPhWuGllph8uOBk
fBBn5aIT4NStmXRNXuVXkwdflpgzsVNHjnNm1WgpRxXwDyYyWm6+1NBgesUHL6Jl
w7hG35z3AgMBAAGjgeQwgeEwHQYDVR0OBBYEFBvfie0blFUahJujNyunJGVYah3c
MIGbBgNVHSMEgZMwgZCAFH9qbAwgAOQGC79mvtiF/ihOpSOOoXWkczBxMQswCQYD
VQQGEwJVUzETMBEGA1UECAwKQ2FsaWZvcm5pYTEUMBIGA1UEBwwLU2FudGEgQ2xh
cmExDTALBgNVBAoMBHBrZzUxEDAOBgNVBAMMB2NoMl90YTExFjAUBgkqhkiG9w0B
CQEWB2NoMl90YTGCAQMwEgYDVR0TAQH/BAgwBgEB/wIBATAOBgNVHQ8BAf8EBAMC
AQYwDQYJKoZIhvcNAQELBQADggEBACO6kTHrVDLvrbKtdHWla5kDAMocDxzaxYuz
ePKIoY03H1ajEiaCrFz4/XgevSheP7207T+GpnNkbe/GgAhCdQkCJWcSd13/ExE8
5vnZWEH3GKBTvWF+/0h2M7ylDYDQh/I20fQUiLAFVT8reOrFN4XcdJRoafLvZxjZ
JtHwBMALqHC7pTqlxO8KHXLfO6Hlx5Z6kqohXtf5yocoSrRfN/v7fimFOOk7b7vE
XpOiYqllVsZ3euTdMKzFpVf/ZsACKswCkX193wHlCmdqEjzQTyUHl/UIdQNSKqWU
Sp2pa3gHvEDa/7ScOPnp2MMO3DEE1OhwHayj1uu7J8shrvaezgc=
-----END CERTIFICATE-----
