Certificate:
    Data:
        Version: 3 (0x2)
        Serial Number: 4 (0x4)
        Signature Algorithm: sha256WithRSAEncryption
        Issuer: C=US, ST=California, L=Menlo Park, O=pkg5, CN=pubCA1_ta1/emailAddress=pubCA1_ta1
        Validity
            Not Before: Jan 28 02:54:10 2011 GMT
            Not After : Oct 24 02:54:10 2013 GMT
        Subject: C=US, ST=California, L=Menlo Park, O=pkg5, CN=ch1_pubCA1/emailAddress=ch1_pubCA1
        Subject Public Key Info:
            Public Key Algorithm: rsaEncryption
            RSA Public Key: (1024 bit)
                Modulus (1024 bit):
                    00:d8:64:e4:d7:2c:48:51:df:1e:a5:e3:ba:8e:d9:
                    11:9e:05:43:4c:17:20:37:93:c9:95:40:08:50:c7:
                    ed:a7:20:8f:51:fe:45:b6:d5:e6:5b:f5:30:bb:95:
                    95:2e:c9:cc:3d:b6:7d:07:55:7a:ec:36:4b:92:c8:
                    cd:97:b4:0e:72:43:22:dd:3b:bc:1f:7e:9a:de:5d:
                    97:3f:cb:48:08:c8:20:64:59:d9:db:88:3a:3c:3d:
                    6d:1f:57:42:c0:17:b3:67:1d:3c:1b:1a:53:02:0d:
                    8c:af:91:89:7b:4c:13:49:77:5d:c1:56:80:2b:a2:
                    5c:79:c7:c6:c1:61:95:4a:35
                Exponent: 65537 (0x10001)
        X509v3 extensions:
            X509v3 Subject Key Identifier: 
                C6:B5:AB:18:BB:95:31:CE:CA:76:FC:4A:0E:4A:67:25:0D:6A:2B:8B
            X509v3 Authority Key Identifier: 
                keyid:F1:31:DD:AE:13:EF:6C:62:A3:83:98:4D:1F:0D:25:1A:21:28:1E:5D
                DirName:/C=US/ST=California/L=Menlo Park/O=pkg5/CN=i2_ta1/emailAddress=i2_ta1
                serial:03

            X509v3 Basic Constraints: critical
                CA:TRUE
            X509v3 Key Usage: critical
                Certificate Sign, CRL Sign
    Signature Algorithm: sha256WithRSAEncryption
        6b:c1:e0:d3:b6:d9:9f:b5:a4:fd:37:99:77:76:4a:55:ee:4e:
        e6:90:6e:98:77:87:56:cc:6f:a8:4d:2b:11:06:e6:bf:66:9d:
        8f:21:b7:06:bd:1d:1f:df:12:49:41:84:86:ff:e0:19:6a:f0:
        29:28:dd:d4:45:bd:19:af:f6:67:32:20:1d:af:fa:d4:f8:6e:
        00:cd:32:c4:ca:62:f9:89:b1:85:21:a6:5c:cc:11:60:b4:50:
        3b:40:fb:cd:d2:eb:72:f7:f1:26:94:4d:a6:5a:81:e9:67:d2:
        0c:7d:d6:7f:ee:8a:83:a9:7c:9e:65:b2:c6:67:ef:ef:2b:a6:
        2d:a6
-----BEGIN CERTIFICATE-----
MIIDQTCCAqqgAwIBAgIBBDANBgkqhkiG9w0BAQsFADB2MQswCQYDVQQGEwJVUzET
MBEGA1UECBMKQ2FsaWZvcm5pYTETMBEGA1UEBxMKTWVubG8gUGFyazENMAsGA1UE
ChMEcGtnNTETMBEGA1UEAxQKcHViQ0ExX3RhMTEZMBcGCSqGSIb3DQEJARYKcHVi
Q0ExX3RhMTAeFw0xMTAxMjgwMjU0MTBaFw0xMzEwMjQwMjU0MTBaMHYxCzAJBgNV
BAYTAlVTMRMwEQYDVQQIEwpDYWxpZm9ybmlhMRMwEQYDVQQHEwpNZW5sbyBQYXJr
MQ0wCwYDVQQKEwRwa2c1MRMwEQYDVQQDFApjaDFfcHViQ0ExMRkwFwYJKoZIhvcN
AQkBFgpjaDFfcHViQ0ExMIGfMA0GCSqGSIb3DQEBAQUAA4GNADCBiQKBgQDYZOTX
LEhR3x6l47qO2RGeBUNMFyA3k8mVQAhQx+2nII9R/kW21eZb9TC7lZUuycw9tn0H
VXrsNkuSyM2XtA5yQyLdO7wffpreXZc/y0gIyCBkWdnbiDo8PW0fV0LAF7NnHTwb
GlMCDYyvkYl7TBNJd13BVoArolx5x8bBYZVKNQIDAQABo4HeMIHbMB0GA1UdDgQW
BBTGtasYu5Uxzsp2/EoOSmclDWorizCBmAYDVR0jBIGQMIGNgBTxMd2uE+9sYqOD
mE0fDSUaISgeXaFypHAwbjELMAkGA1UEBhMCVVMxEzARBgNVBAgTCkNhbGlmb3Ju
aWExEzARBgNVBAcTCk1lbmxvIFBhcmsxDTALBgNVBAoTBHBrZzUxDzANBgNVBAMU
BmkyX3RhMTEVMBMGCSqGSIb3DQEJARYGaTJfdGExggEDMA8GA1UdEwEB/wQFMAMB
Af8wDgYDVR0PAQH/BAQDAgEGMA0GCSqGSIb3DQEBCwUAA4GBAGvB4NO22Z+1pP03
mXd2SlXuTuaQbph3h1bMb6hNKxEG5r9mnY8htwa9HR/fEklBhIb/4Blq8Cko3dRF
vRmv9mcyIB2v+tT4bgDNMsTKYvmJsYUhplzMEWC0UDtA+83S63L38SaUTaZageln
0gx91n/uioOpfJ5lssZn7+8rpi2m
-----END CERTIFICATE-----
