Certificate:
    Data:
        Version: 3 (0x2)
        Serial Number: 4 (0x4)
        Signature Algorithm: sha256WithRSAEncryption
        Issuer: C=US, ST=California, L=Menlo Park, O=pkg5, CN=ch3_ta1/emailAddress=ch3_ta1
        Validity
            Not Before: Apr 11 22:37:39 2011 GMT
            Not After : Jan  5 22:37:39 2014 GMT
        Subject: C=US, ST=California, L=Menlo Park, O=pkg5, CN=ch4_ta1/emailAddress=ch4_ta1
        Subject Public Key Info:
            Public Key Algorithm: rsaEncryption
            RSA Public Key: (1024 bit)
                Modulus (1024 bit):
                    00:f5:af:af:99:95:f3:52:3b:eb:be:62:e6:eb:9f:
                    c5:f8:ff:8f:0c:d2:e3:c7:06:b1:45:ca:ff:8c:fc:
                    3d:bc:f4:6d:e3:f9:ac:12:69:d5:a1:6f:02:52:ad:
                    50:34:7e:cc:a7:ee:82:04:b3:5b:e6:be:cc:44:e6:
                    b8:d2:fc:1d:2a:80:d8:0c:c1:3c:4f:95:31:68:8a:
                    fb:2b:e2:aa:b2:54:7c:3a:d3:86:6d:5f:20:b6:29:
                    23:ae:74:09:fd:9a:d3:45:e2:e3:2a:62:1f:91:fd:
                    a2:b1:2f:26:68:fb:4d:69:fb:66:1f:0b:4b:1a:52:
                    ac:e1:8b:69:b1:16:96:89:13
                Exponent: 65537 (0x10001)
        X509v3 extensions:
            X509v3 Subject Key Identifier: 
                B2:A1:C2:1D:B7:20:56:20:8C:64:DA:BA:06:C6:5A:E4:0A:23:6E:01
            X509v3 Authority Key Identifier: 
                keyid:D0:F9:37:92:54:28:C0:40:AE:62:94:51:42:6A:7C:8E:37:5F:AC:A8
                DirName:/C=US/ST=California/L=Menlo Park/O=pkg5/CN=ch2_ta1/emailAddress=ch2_ta1
                serial:03

            X509v3 Basic Constraints: critical
                CA:TRUE, pathlen:1
            X509v3 Key Usage: critical
                Certificate Sign, CRL Sign
    Signature Algorithm: sha256WithRSAEncryption
        d5:54:78:2a:2c:5f:82:26:03:07:71:54:04:2d:81:e5:dd:a6:
        b1:92:8a:37:5f:52:f0:13:cd:35:4a:2b:a7:24:9c:44:7b:ac:
        1d:3c:52:82:e4:15:85:a9:d4:19:4d:55:c6:85:74:ac:2a:6c:
        42:9f:92:d9:86:02:d8:90:a8:53:28:31:e1:e2:33:1b:d5:05:
        c3:f7:94:86:10:5d:78:62:96:a7:d1:e3:b4:be:0e:e6:8c:03:
        ef:4c:03:96:4e:6d:9a:b2:32:55:46:20:cf:41:d1:4f:db:c6:
        57:34:df:51:d4:b9:9d:bf:d1:20:a5:e6:a0:34:ef:ab:e8:e9:
        93:ce
-----BEGIN CERTIFICATE-----
MIIDOjCCAqOgAwIBAgIBBDANBgkqhkiG9w0BAQsFADBwMQswCQYDVQQGEwJVUzET
MBEGA1UECBMKQ2FsaWZvcm5pYTETMBEGA1UEBxMKTWVubG8gUGFyazENMAsGA1UE
ChMEcGtnNTEQMA4GA1UEAxQHY2gzX3RhMTEWMBQGCSqGSIb3DQEJARYHY2gzX3Rh
MTAeFw0xMTA0MTEyMjM3MzlaFw0xNDAxMDUyMjM3MzlaMHAxCzAJBgNVBAYTAlVT
MRMwEQYDVQQIEwpDYWxpZm9ybmlhMRMwEQYDVQQHEwpNZW5sbyBQYXJrMQ0wCwYD
VQQKEwRwa2c1MRAwDgYDVQQDFAdjaDRfdGExMRYwFAYJKoZIhvcNAQkBFgdjaDRf
dGExMIGfMA0GCSqGSIb3DQEBAQUAA4GNADCBiQKBgQD1r6+ZlfNSO+u+Yubrn8X4
/48M0uPHBrFFyv+M/D289G3j+awSadWhbwJSrVA0fsyn7oIEs1vmvsxE5rjS/B0q
gNgMwTxPlTFoivsr4qqyVHw604ZtXyC2KSOudAn9mtNF4uMqYh+R/aKxLyZo+01p
+2YfC0saUqzhi2mxFpaJEwIDAQABo4HjMIHgMB0GA1UdDgQWBBSyocIdtyBWIIxk
2roGxlrkCiNuATCBmgYDVR0jBIGSMIGPgBTQ+TeSVCjAQK5ilFFCanyON1+sqKF0
pHIwcDELMAkGA1UEBhMCVVMxEzARBgNVBAgTCkNhbGlmb3JuaWExEzARBgNVBAcT
Ck1lbmxvIFBhcmsxDTALBgNVBAoTBHBrZzUxEDAOBgNVBAMUB2NoMl90YTExFjAU
BgkqhkiG9w0BCQEWB2NoMl90YTGCAQMwEgYDVR0TAQH/BAgwBgEB/wIBATAOBgNV
HQ8BAf8EBAMCAQYwDQYJKoZIhvcNAQELBQADgYEA1VR4KixfgiYDB3FUBC2B5d2m
sZKKN19S8BPNNUorpyScRHusHTxSguQVhanUGU1VxoV0rCpsQp+S2YYC2JCoUygx
4eIzG9UFw/eUhhBdeGKWp9HjtL4O5owD70wDlk5tmrIyVUYgz0HRT9vGVzTfUdS5
nb/RIKXmoDTvq+jpk84=
-----END CERTIFICATE-----
