Certificate:
    Data:
        Version: 3 (0x2)
        Serial Number: 4 (0x4)
        Signature Algorithm: sha256WithRSAEncryption
        Issuer: C=US, ST=California, L=Menlo Park, O=pkg5, CN=pubCA1_ta1/emailAddress=pubCA1_ta1
        Validity
            Not Before: Aug  4 20:59:23 2010 GMT
            Not After : Apr 30 20:59:23 2013 GMT
        Subject: C=US, ST=California, L=Menlo Park, O=pkg5, CN=ch1_pubCA1/emailAddress=ch1_pubCA1
        Subject Public Key Info:
            Public Key Algorithm: rsaEncryption
            RSA Public Key: (1024 bit)
                Modulus (1024 bit):
                    00:df:49:4c:8c:dd:25:e1:4d:81:08:01:65:e4:37:
                    db:d4:87:be:f1:ca:f3:c2:e5:82:b0:d2:c9:09:a4:
                    3d:41:2a:c9:40:c5:55:aa:0b:8f:41:42:82:3c:2e:
                    47:23:23:88:e5:55:7e:3f:71:ae:c9:f9:d8:bf:b9:
                    e0:4b:74:6d:82:af:20:f0:8c:03:4b:fb:d9:40:99:
                    bf:94:90:f9:00:36:be:a7:97:0d:af:6f:e3:e6:43:
                    0c:22:a7:2b:92:dd:24:8f:78:2e:dd:5a:6d:05:77:
                    b6:16:d1:8a:07:4f:a1:af:71:c3:7a:b4:d3:54:2e:
                    f5:9a:d3:b1:40:7f:e0:35:71
                Exponent: 65537 (0x10001)
        X509v3 extensions:
            X509v3 Subject Key Identifier: 
                D1:05:EC:55:23:1D:1E:53:EC:AE:71:88:8C:12:C2:AE:14:FE:12:5E
            X509v3 Authority Key Identifier: 
                keyid:E8:81:62:06:D5:A6:C6:2E:6C:2A:4F:A3:21:42:59:CD:19:5B:32:ED
                DirName:/C=US/ST=California/L=Menlo Park/O=pkg5/CN=i2_ta1/emailAddress=i2_ta1
                serial:03

            X509v3 Basic Constraints: critical
                CA:TRUE
    Signature Algorithm: sha256WithRSAEncryption
        75:00:7d:53:6d:fb:70:10:81:5c:71:2e:c9:17:29:7b:fb:b8:
        b0:97:c4:49:79:44:9e:ab:50:b5:65:aa:fe:99:18:2d:29:af:
        8d:72:77:72:aa:ca:a5:1e:47:a9:a1:8d:a2:f5:10:ec:d5:a4:
        95:d9:e0:1f:37:94:c3:e5:c5:75:17:d5:00:55:a5:d9:7c:38:
        c2:07:18:b3:f3:48:33:15:7c:25:2d:61:16:71:a1:dc:7f:82:
        85:c0:af:62:48:cf:ca:29:69:23:c5:cc:9e:dd:fa:40:3f:b9:
        b5:1c:82:41:fa:53:50:f9:03:eb:42:de:a5:b4:bd:78:01:dc:
        86:9b
-----BEGIN CERTIFICATE-----
MIIDMTCCApqgAwIBAgIBBDANBgkqhkiG9w0BAQsFADB2MQswCQYDVQQGEwJVUzET
MBEGA1UECBMKQ2FsaWZvcm5pYTETMBEGA1UEBxMKTWVubG8gUGFyazENMAsGA1UE
ChMEcGtnNTETMBEGA1UEAxQKcHViQ0ExX3RhMTEZMBcGCSqGSIb3DQEJARYKcHVi
Q0ExX3RhMTAeFw0xMDA4MDQyMDU5MjNaFw0xMzA0MzAyMDU5MjNaMHYxCzAJBgNV
BAYTAlVTMRMwEQYDVQQIEwpDYWxpZm9ybmlhMRMwEQYDVQQHEwpNZW5sbyBQYXJr
MQ0wCwYDVQQKEwRwa2c1MRMwEQYDVQQDFApjaDFfcHViQ0ExMRkwFwYJKoZIhvcN
AQkBFgpjaDFfcHViQ0ExMIGfMA0GCSqGSIb3DQEBAQUAA4GNADCBiQKBgQDfSUyM
3SXhTYEIAWXkN9vUh77xyvPC5YKw0skJpD1BKslAxVWqC49BQoI8LkcjI4jlVX4/
ca7J+di/ueBLdG2CryDwjANL+9lAmb+UkPkANr6nlw2vb+PmQwwipyuS3SSPeC7d
Wm0Fd7YW0YoHT6GvccN6tNNULvWa07FAf+A1cQIDAQABo4HOMIHLMB0GA1UdDgQW
BBTRBexVIx0eU+yucYiMEsKuFP4SXjCBmAYDVR0jBIGQMIGNgBTogWIG1abGLmwq
T6MhQlnNGVsy7aFypHAwbjELMAkGA1UEBhMCVVMxEzARBgNVBAgTCkNhbGlmb3Ju
aWExEzARBgNVBAcTCk1lbmxvIFBhcmsxDTALBgNVBAoTBHBrZzUxDzANBgNVBAMU
BmkyX3RhMTEVMBMGCSqGSIb3DQEJARYGaTJfdGExggEDMA8GA1UdEwEB/wQFMAMB
Af8wDQYJKoZIhvcNAQELBQADgYEAdQB9U237cBCBXHEuyRcpe/u4sJfESXlEnqtQ
tWWq/pkYLSmvjXJ3cqrKpR5HqaGNovUQ7NWkldngHzeUw+XFdRfVAFWl2Xw4wgcY
s/NIMxV8JS1hFnGh3H+ChcCvYkjPyilpI8XMnt36QD+5tRyCQfpTUPkD60LepbS9
eAHchps=
-----END CERTIFICATE-----
