Certificate:
    Data:
        Version: 3 (0x2)
        Serial Number: 5 (0x5)
    Signature Algorithm: sha256WithRSAEncryption
        Issuer: C=US, ST=California, L=Santa Clara, O=pkg5, CN=ch4_ta1/emailAddress=ch4_ta1
        Validity
            Not Before: Jan 22 15:33:07 2019 GMT
            Not After : Oct 18 15:33:07 2021 GMT
        Subject: C=US, ST=California, L=Santa Clara, O=pkg5, CN=ch5_ta1/emailAddress=ch5_ta1
        Subject Public Key Info:
            Public Key Algorithm: rsaEncryption
                Public-Key: (2048 bit)
                Modulus:
                    00:9f:d5:1d:2b:bd:5d:ba:b6:b1:58:84:24:13:31:
                    b6:72:47:25:95:95:8c:cf:54:c3:3b:02:85:b6:f5:
                    7f:c3:88:fe:7c:7c:c2:13:08:3c:5d:82:5a:d3:26:
                    89:49:60:c6:4c:5b:f4:4b:9b:43:68:98:4a:99:b5:
                    52:5f:af:5d:4b:a2:57:e9:69:e2:32:f5:41:8c:c8:
                    d3:7e:d0:b5:ff:78:1c:ca:e5:0a:74:4e:b7:51:13:
                    a9:c4:0e:6b:0d:0a:f6:e4:25:d9:bb:e8:3a:a5:97:
                    ba:47:74:28:47:e3:d8:26:25:3a:98:49:21:82:85:
                    3f:42:13:42:02:91:02:de:d3:ff:23:15:b6:cc:47:
                    db:fd:b9:2d:26:2f:5c:c0:0e:ca:cf:91:29:93:fa:
                    cc:e2:e5:cc:1a:1d:b3:6a:b9:b5:63:00:ba:1b:d8:
                    8e:d7:57:75:71:8a:60:8a:28:b3:14:11:ab:38:b3:
                    56:d1:6e:26:d9:7a:58:18:c5:63:52:16:6c:ba:da:
                    0b:8f:66:bd:1d:8f:df:97:75:fe:33:c8:31:46:a6:
                    f6:fc:73:d4:c0:e2:35:ae:15:a7:25:64:db:a1:a4:
                    87:46:04:32:e3:4f:69:b7:e0:a8:ee:3c:05:89:ef:
                    21:5f:25:f5:fd:e1:1b:22:58:a7:c6:3d:04:91:10:
                    22:9d
                Exponent: 65537 (0x10001)
        X509v3 extensions:
            X509v3 Subject Key Identifier: 
                D5:6B:D8:2A:EB:9C:D5:10:31:67:00:AF:0D:90:26:18:9D:A3:86:E2
            X509v3 Authority Key Identifier: 
                keyid:18:2C:1D:85:10:D5:B5:BF:CB:44:61:84:3F:8D:AE:8B:92:3A:70:32
                DirName:/C=US/ST=California/L=Santa Clara/O=pkg5/CN=ch3_ta1/emailAddress=ch3_ta1
                serial:04

            X509v3 Basic Constraints: critical
                CA:TRUE, pathlen:0
            X509v3 Key Usage: critical
                Certificate Sign, CRL Sign
    Signature Algorithm: sha256WithRSAEncryption
         91:0b:41:a6:f3:14:00:e7:75:f6:5d:a4:0a:43:44:22:02:d7:
         90:33:2f:e9:4f:d8:39:d3:e2:ac:71:63:32:cf:50:86:db:4b:
         73:40:6d:dc:fd:d5:1a:d8:7e:72:de:c4:b7:a9:e5:28:70:a1:
         3b:18:40:4c:37:e9:61:f0:48:a1:0c:91:c3:c8:86:40:3e:bb:
         dd:6b:f3:24:62:47:b5:c7:07:0a:a4:93:ce:20:e8:3c:e6:da:
         84:c3:cc:e9:a5:39:2c:0a:4e:23:05:f8:8d:5f:7e:f6:7e:1c:
         95:66:78:ab:7b:70:84:8d:5e:39:cb:40:dd:e6:d4:7f:f2:40:
         2b:cd:7b:eb:89:ad:f1:b3:3c:44:b6:7c:3b:c3:93:d0:fb:f1:
         64:e9:9f:41:cd:4c:0a:d7:22:9f:6e:65:6a:a7:ff:f1:4a:89:
         8e:de:25:a3:87:85:87:b4:94:0d:77:2d:ba:21:3c:ca:70:31:
         53:5b:90:b0:c1:f8:e4:cd:57:3a:32:66:f4:e0:74:e7:8e:1b:
         90:80:a5:66:67:b2:03:96:c3:40:39:98:00:63:af:12:03:60:
         ac:b4:c6:6d:9c:74:96:dd:dc:e9:ae:f3:2e:c1:93:93:12:a9:
         e9:f2:8d:1e:b0:25:11:4c:44:08:04:5f:61:e7:1e:19:46:d8:
         5e:e6:8c:ba
-----BEGIN CERTIFICATE-----
MIIEQjCCAyqgAwIBAgIBBTANBgkqhkiG9w0BAQsFADBxMQswCQYDVQQGEwJVUzET
MBEGA1UECAwKQ2FsaWZvcm5pYTEUMBIGA1UEBwwLU2FudGEgQ2xhcmExDTALBgNV
BAoMBHBrZzUxEDAOBgNVBAMMB2NoNF90YTExFjAUBgkqhkiG9w0BCQEWB2NoNF90
YTEwHhcNMTkwMTIyMTUzMzA3WhcNMjExMDE4MTUzMzA3WjBxMQswCQYDVQQGEwJV
UzETMBEGA1UECAwKQ2FsaWZvcm5pYTEUMBIGA1UEBwwLU2FudGEgQ2xhcmExDTAL
BgNVBAoMBHBrZzUxEDAOBgNVBAMMB2NoNV90YTExFjAUBgkqhkiG9w0BCQEWB2No
NV90YTEwggEiMA0GCSqGSIb3DQEBAQUAA4IBDwAwggEKAoIBAQCf1R0rvV26trFY
hCQTMbZyRyWVlYzPVMM7AoW29X/DiP58fMITCDxdglrTJolJYMZMW/RLm0NomEqZ
tVJfr11LolfpaeIy9UGMyNN+0LX/eBzK5Qp0TrdRE6nEDmsNCvbkJdm76Dqll7pH
dChH49gmJTqYSSGChT9CE0ICkQLe0/8jFbbMR9v9uS0mL1zADsrPkSmT+szi5cwa
HbNqubVjALob2I7XV3VximCKKLMUEas4s1bRbibZelgYxWNSFmy62guPZr0dj9+X
df4zyDFGpvb8c9TA4jWuFaclZNuhpIdGBDLjT2m34KjuPAWJ7yFfJfX94RsiWKfG
PQSRECKdAgMBAAGjgeQwgeEwHQYDVR0OBBYEFNVr2CrrnNUQMWcArw2QJhido4bi
MIGbBgNVHSMEgZMwgZCAFBgsHYUQ1bW/y0RhhD+NrouSOnAyoXWkczBxMQswCQYD
VQQGEwJVUzETMBEGA1UECAwKQ2FsaWZvcm5pYTEUMBIGA1UEBwwLU2FudGEgQ2xh
cmExDTALBgNVBAoMBHBrZzUxEDAOBgNVBAMMB2NoM190YTExFjAUBgkqhkiG9w0B
CQEWB2NoM190YTGCAQQwEgYDVR0TAQH/BAgwBgEB/wIBADAOBgNVHQ8BAf8EBAMC
AQYwDQYJKoZIhvcNAQELBQADggEBAJELQabzFADndfZdpApDRCIC15AzL+lP2DnT
4qxxYzLPUIbbS3NAbdz91RrYfnLexLep5ShwoTsYQEw36WHwSKEMkcPIhkA+u91r
8yRiR7XHBwqkk84g6Dzm2oTDzOmlOSwKTiMF+I1ffvZ+HJVmeKt7cISNXjnLQN3m
1H/yQCvNe+uJrfGzPES2fDvDk9D78WTpn0HNTArXIp9uZWqn//FKiY7eJaOHhYe0
lA13LbohPMpwMVNbkLDB+OTNVzoyZvTgdOeOG5CApWZnsgOWw0A5mABjrxIDYKy0
xm2cdJbd3Omu8y7Bk5MSqenyjR6wJRFMRAgEX2HnHhlG2F7mjLo=
-----END CERTIFICATE-----
