Certificate:
    Data:
        Version: 3 (0x2)
        Serial Number: 5 (0x5)
        Signature Algorithm: sha256WithRSAEncryption
        Issuer: C=US, ST=California, L=Menlo Park, O=pkg5, CN=ch4_ta1/emailAddress=ch4_ta1
        Validity
            Not Before: Apr 11 22:37:39 2011 GMT
            Not After : Jan  5 22:37:39 2014 GMT
        Subject: C=US, ST=California, L=Menlo Park, O=pkg5, CN=ch5_ta1/emailAddress=ch5_ta1
        Subject Public Key Info:
            Public Key Algorithm: rsaEncryption
            RSA Public Key: (1024 bit)
                Modulus (1024 bit):
                    00:c3:8d:d0:ab:25:75:ba:f5:20:df:7c:8a:d4:cd:
                    40:f6:c3:ca:25:11:b5:30:d6:27:fa:e4:a0:11:d6:
                    aa:32:7d:c8:15:9d:d7:6f:7f:ae:80:de:28:c3:ae:
                    77:a8:7f:f1:05:e9:6b:bc:63:a9:a6:91:04:3b:79:
                    6b:96:f2:e0:9a:17:79:d3:04:0a:5f:46:09:b5:6f:
                    3e:a9:f4:34:47:62:18:f4:28:f7:d9:09:cd:4f:8a:
                    33:df:9b:69:9b:61:ce:72:c7:35:ed:61:a0:5b:0c:
                    c1:61:00:0a:ac:83:9a:6a:3c:6d:30:96:eb:77:8c:
                    28:3f:fc:62:8a:fa:60:8e:17
                Exponent: 65537 (0x10001)
        X509v3 extensions:
            X509v3 Subject Key Identifier: 
                69:C7:BA:72:9C:7F:C3:92:8D:F6:A6:D0:20:48:5A:8E:A7:B6:E7:82
            X509v3 Authority Key Identifier: 
                keyid:B2:A1:C2:1D:B7:20:56:20:8C:64:DA:BA:06:C6:5A:E4:0A:23:6E:01
                DirName:/C=US/ST=California/L=Menlo Park/O=pkg5/CN=ch3_ta1/emailAddress=ch3_ta1
                serial:04

            X509v3 Basic Constraints: critical
                CA:TRUE, pathlen:0
            X509v3 Key Usage: critical
                Certificate Sign, CRL Sign
    Signature Algorithm: sha256WithRSAEncryption
        e7:9a:14:6b:dc:a5:fa:da:15:2a:f0:b5:87:ef:82:df:2c:b1:
        8b:f9:f6:a5:a0:e6:d2:86:da:46:69:68:6f:68:26:5c:79:73:
        21:31:ea:b4:a7:e6:58:c9:12:cd:8c:c0:d0:e2:05:f0:6f:1d:
        56:e5:3f:4a:32:eb:02:39:b6:6e:cb:c4:e1:d5:21:0f:63:1e:
        4f:0b:3d:af:ca:5a:7b:2b:9c:7f:51:44:7a:39:73:e5:f2:ba:
        48:85:20:f9:36:b5:c2:14:44:da:7d:ae:83:2e:b4:d8:f1:77:
        19:97:c0:c7:8b:e7:62:81:93:75:ed:93:dd:19:4b:36:00:ba:
        c6:2d
-----BEGIN CERTIFICATE-----
MIIDOjCCAqOgAwIBAgIBBTANBgkqhkiG9w0BAQsFADBwMQswCQYDVQQGEwJVUzET
MBEGA1UECBMKQ2FsaWZvcm5pYTETMBEGA1UEBxMKTWVubG8gUGFyazENMAsGA1UE
ChMEcGtnNTEQMA4GA1UEAxQHY2g0X3RhMTEWMBQGCSqGSIb3DQEJARYHY2g0X3Rh
MTAeFw0xMTA0MTEyMjM3MzlaFw0xNDAxMDUyMjM3MzlaMHAxCzAJBgNVBAYTAlVT
MRMwEQYDVQQIEwpDYWxpZm9ybmlhMRMwEQYDVQQHEwpNZW5sbyBQYXJrMQ0wCwYD
VQQKEwRwa2c1MRAwDgYDVQQDFAdjaDVfdGExMRYwFAYJKoZIhvcNAQkBFgdjaDVf
dGExMIGfMA0GCSqGSIb3DQEBAQUAA4GNADCBiQKBgQDDjdCrJXW69SDffIrUzUD2
w8olEbUw1if65KAR1qoyfcgVnddvf66A3ijDrneof/EF6Wu8Y6mmkQQ7eWuW8uCa
F3nTBApfRgm1bz6p9DRHYhj0KPfZCc1PijPfm2mbYc5yxzXtYaBbDMFhAAqsg5pq
PG0wlut3jCg//GKK+mCOFwIDAQABo4HjMIHgMB0GA1UdDgQWBBRpx7pynH/Dko32
ptAgSFqOp7bngjCBmgYDVR0jBIGSMIGPgBSyocIdtyBWIIxk2roGxlrkCiNuAaF0
pHIwcDELMAkGA1UEBhMCVVMxEzARBgNVBAgTCkNhbGlmb3JuaWExEzARBgNVBAcT
Ck1lbmxvIFBhcmsxDTALBgNVBAoTBHBrZzUxEDAOBgNVBAMUB2NoM190YTExFjAU
BgkqhkiG9w0BCQEWB2NoM190YTGCAQQwEgYDVR0TAQH/BAgwBgEB/wIBADAOBgNV
HQ8BAf8EBAMCAQYwDQYJKoZIhvcNAQELBQADgYEA55oUa9yl+toVKvC1h++C3yyx
i/n2paDm0obaRmlob2gmXHlzITHqtKfmWMkSzYzA0OIF8G8dVuU/SjLrAjm2bsvE
4dUhD2MeTws9r8paeyucf1FEejlz5fK6SIUg+Ta1whRE2n2ugy602PF3GZfAx4vn
YoGTde2T3RlLNgC6xi0=
-----END CERTIFICATE-----
