Certificate:
    Data:
        Version: 3 (0x2)
        Serial Number: 5 (0x5)
    Signature Algorithm: sha256WithRSAEncryption
        Issuer: C=US, ST=California, L=Santa Clara, O=pkg5, CN=ch4_ta1/emailAddress=ch4_ta1
        Validity
            Not Before: Dec 13 00:13:34 2013 GMT
            Not After : Sep  8 00:13:34 2016 GMT
        Subject: C=US, ST=California, L=Santa Clara, O=pkg5, CN=ch5_ta1/emailAddress=ch5_ta1
        Subject Public Key Info:
            Public Key Algorithm: rsaEncryption
                Public-Key: (1024 bit)
                Modulus:
                    00:df:c0:ed:cc:df:82:ab:d3:9b:54:8d:56:f7:0d:
                    e4:d8:b4:ba:03:ef:a3:82:f6:b6:e6:4d:0f:b4:e5:
                    61:98:88:bd:32:b3:47:21:4b:2c:e8:c3:9a:22:9c:
                    35:63:a8:4f:2a:c1:47:1a:3a:b2:46:d6:61:4e:87:
                    2a:13:3a:d8:35:3e:3c:ae:67:43:b8:3d:a9:95:df:
                    7b:ba:e9:71:ec:31:99:b3:fa:00:96:8c:80:4b:1d:
                    d9:77:e5:d2:14:9d:95:a2:ce:32:21:d5:2e:67:ae:
                    b1:08:04:fb:9d:fb:70:16:74:5f:1a:d1:36:77:e8:
                    4b:68:c3:d8:d4:fb:18:20:31
                Exponent: 65537 (0x10001)
        X509v3 extensions:
            X509v3 Subject Key Identifier: 
                B7:43:D6:5A:46:C2:2F:15:50:05:D5:FB:5E:BE:EC:F8:33:9E:EC:EC
            X509v3 Authority Key Identifier: 
                keyid:54:8A:14:10:0B:AF:89:DC:1E:65:8A:17:37:6A:AC:D2:2B:6C:27:5C
                DirName:/C=US/ST=California/L=Santa Clara/O=pkg5/CN=ch3_ta1/emailAddress=ch3_ta1
                serial:04

            X509v3 Basic Constraints: critical
                CA:TRUE, pathlen:0
            X509v3 Key Usage: critical
                Certificate Sign, CRL Sign
    Signature Algorithm: sha256WithRSAEncryption
         96:fb:63:43:cf:70:0a:14:7b:47:4e:37:4b:2f:7c:7f:8c:75:
         85:bb:e3:44:af:9c:2c:08:c5:9c:4d:c7:59:f1:70:3a:67:82:
         1c:4c:3c:f7:8b:e7:00:f0:05:db:af:29:79:53:6f:09:a2:ac:
         ae:4d:e2:df:4a:7d:4e:56:79:8c:85:97:47:14:4e:2f:7e:bd:
         07:2c:70:01:85:43:3c:18:32:ed:24:36:24:1c:29:e0:0b:ce:
         86:4d:a7:a9:88:b8:de:f1:0e:a3:13:c1:5c:d7:1b:76:81:c2:
         3f:63:c3:76:1d:60:f7:e5:43:1f:25:3b:ae:d2:a5:1f:02:fa:
         8c:a3
-----BEGIN CERTIFICATE-----
MIIDPTCCAqagAwIBAgIBBTANBgkqhkiG9w0BAQsFADBxMQswCQYDVQQGEwJVUzET
MBEGA1UECAwKQ2FsaWZvcm5pYTEUMBIGA1UEBwwLU2FudGEgQ2xhcmExDTALBgNV
BAoMBHBrZzUxEDAOBgNVBAMMB2NoNF90YTExFjAUBgkqhkiG9w0BCQEWB2NoNF90
YTEwHhcNMTMxMjEzMDAxMzM0WhcNMTYwOTA4MDAxMzM0WjBxMQswCQYDVQQGEwJV
UzETMBEGA1UECAwKQ2FsaWZvcm5pYTEUMBIGA1UEBwwLU2FudGEgQ2xhcmExDTAL
BgNVBAoMBHBrZzUxEDAOBgNVBAMMB2NoNV90YTExFjAUBgkqhkiG9w0BCQEWB2No
NV90YTEwgZ8wDQYJKoZIhvcNAQEBBQADgY0AMIGJAoGBAN/A7czfgqvTm1SNVvcN
5Ni0ugPvo4L2tuZND7TlYZiIvTKzRyFLLOjDmiKcNWOoTyrBRxo6skbWYU6HKhM6
2DU+PK5nQ7g9qZXfe7rpcewxmbP6AJaMgEsd2Xfl0hSdlaLOMiHVLmeusQgE+537
cBZ0XxrRNnfoS2jD2NT7GCAxAgMBAAGjgeQwgeEwHQYDVR0OBBYEFLdD1lpGwi8V
UAXV+16+7PgznuzsMIGbBgNVHSMEgZMwgZCAFFSKFBALr4ncHmWKFzdqrNIrbCdc
oXWkczBxMQswCQYDVQQGEwJVUzETMBEGA1UECAwKQ2FsaWZvcm5pYTEUMBIGA1UE
BwwLU2FudGEgQ2xhcmExDTALBgNVBAoMBHBrZzUxEDAOBgNVBAMMB2NoM190YTEx
FjAUBgkqhkiG9w0BCQEWB2NoM190YTGCAQQwEgYDVR0TAQH/BAgwBgEB/wIBADAO
BgNVHQ8BAf8EBAMCAQYwDQYJKoZIhvcNAQELBQADgYEAlvtjQ89wChR7R043Sy98
f4x1hbvjRK+cLAjFnE3HWfFwOmeCHEw894vnAPAF268peVNvCaKsrk3i30p9TlZ5
jIWXRxROL369ByxwAYVDPBgy7SQ2JBwp4AvOhk2nqYi43vEOoxPBXNcbdoHCP2PD
dh1g9+VDHyU7rtKlHwL6jKM=
-----END CERTIFICATE-----
