Certificate:
    Data:
        Version: 3 (0x2)
        Serial Number: 5 (0x5)
        Signature Algorithm: sha256WithRSAEncryption
        Issuer: C=US, ST=California, L=Menlo Park, O=pkg5, CN=ch1_pubCA1/emailAddress=ch1_pubCA1
        Validity
            Not Before: Jan 28 02:54:10 2011 GMT
            Not After : Oct 24 02:54:10 2013 GMT
        Subject: C=US, ST=California, L=Menlo Park, O=pkg5, CN=ch2_pubCA1/emailAddress=ch2_pubCA1
        Subject Public Key Info:
            Public Key Algorithm: rsaEncryption
            RSA Public Key: (1024 bit)
                Modulus (1024 bit):
                    00:ec:10:82:b8:bd:a9:12:9e:70:2e:52:89:62:d7:
                    8d:9c:a4:01:07:27:ee:20:92:6e:07:1e:dd:58:98:
                    5b:65:6f:85:1b:b0:cd:e7:6d:f6:b3:9b:bd:1f:be:
                    93:09:79:b6:f8:0a:45:8c:c4:b8:22:a3:fb:ad:96:
                    03:6b:0f:18:b6:fa:d3:b5:35:99:92:a3:82:a2:71:
                    93:ba:76:e4:ba:f6:87:2f:e8:a2:ed:2b:0c:a7:e4:
                    bf:ae:9c:03:08:8a:1e:29:25:66:72:14:f1:99:05:
                    2c:29:14:4d:59:b8:71:d6:95:78:48:7d:a3:b9:8f:
                    eb:9e:e9:7c:b8:5c:65:5b:e7
                Exponent: 65537 (0x10001)
        X509v3 extensions:
            X509v3 Subject Key Identifier: 
                A2:7C:37:64:6C:9B:F6:34:69:35:2F:6E:2A:03:57:1C:DD:C7:69:60
            X509v3 Authority Key Identifier: 
                keyid:C6:B5:AB:18:BB:95:31:CE:CA:76:FC:4A:0E:4A:67:25:0D:6A:2B:8B
                DirName:/C=US/ST=California/L=Menlo Park/O=pkg5/CN=pubCA1_ta1/emailAddress=pubCA1_ta1
                serial:04

            X509v3 Basic Constraints: critical
                CA:TRUE
            X509v3 Key Usage: critical
                Certificate Sign, CRL Sign
    Signature Algorithm: sha256WithRSAEncryption
        8f:da:b0:83:87:60:1c:12:43:c5:37:e3:09:36:f2:5b:b2:e8:
        36:eb:d5:c6:00:30:22:8c:e0:33:6a:61:8b:1b:45:d3:b4:e3:
        c0:05:54:ef:52:1e:d1:41:f5:7d:c2:3b:0d:24:d5:78:bf:f1:
        93:ad:32:c5:66:8c:3b:84:0d:f7:0b:e4:08:2c:bf:10:47:09:
        02:18:d4:19:40:f1:18:af:c1:38:90:89:b1:a2:48:d2:b1:4d:
        f9:ad:86:f2:64:cc:35:fb:35:87:25:49:2b:e3:29:23:f3:fd:
        47:55:4c:2d:05:c3:c4:5b:75:27:4a:45:2a:e2:7f:5b:c5:b8:
        97:78
-----BEGIN CERTIFICATE-----
MIIDSTCCArKgAwIBAgIBBTANBgkqhkiG9w0BAQsFADB2MQswCQYDVQQGEwJVUzET
MBEGA1UECBMKQ2FsaWZvcm5pYTETMBEGA1UEBxMKTWVubG8gUGFyazENMAsGA1UE
ChMEcGtnNTETMBEGA1UEAxQKY2gxX3B1YkNBMTEZMBcGCSqGSIb3DQEJARYKY2gx
X3B1YkNBMTAeFw0xMTAxMjgwMjU0MTBaFw0xMzEwMjQwMjU0MTBaMHYxCzAJBgNV
BAYTAlVTMRMwEQYDVQQIEwpDYWxpZm9ybmlhMRMwEQYDVQQHEwpNZW5sbyBQYXJr
MQ0wCwYDVQQKEwRwa2c1MRMwEQYDVQQDFApjaDJfcHViQ0ExMRkwFwYJKoZIhvcN
AQkBFgpjaDJfcHViQ0ExMIGfMA0GCSqGSIb3DQEBAQUAA4GNADCBiQKBgQDsEIK4
vakSnnAuUoli142cpAEHJ+4gkm4HHt1YmFtlb4UbsM3nbfazm70fvpMJebb4CkWM
xLgio/utlgNrDxi2+tO1NZmSo4KicZO6duS69ocv6KLtKwyn5L+unAMIih4pJWZy
FPGZBSwpFE1ZuHHWlXhIfaO5j+ue6Xy4XGVb5wIDAQABo4HmMIHjMB0GA1UdDgQW
BBSifDdkbJv2NGk1L24qA1cc3cdpYDCBoAYDVR0jBIGYMIGVgBTGtasYu5Uxzsp2
/EoOSmclDWori6F6pHgwdjELMAkGA1UEBhMCVVMxEzARBgNVBAgTCkNhbGlmb3Ju
aWExEzARBgNVBAcTCk1lbmxvIFBhcmsxDTALBgNVBAoTBHBrZzUxEzARBgNVBAMU
CnB1YkNBMV90YTExGTAXBgkqhkiG9w0BCQEWCnB1YkNBMV90YTGCAQQwDwYDVR0T
AQH/BAUwAwEB/zAOBgNVHQ8BAf8EBAMCAQYwDQYJKoZIhvcNAQELBQADgYEAj9qw
g4dgHBJDxTfjCTbyW7LoNuvVxgAwIozgM2phixtF07TjwAVU71Ie0UH1fcI7DSTV
eL/xk60yxWaMO4QN9wvkCCy/EEcJAhjUGUDxGK/BOJCJsaJI0rFN+a2G8mTMNfs1
hyVJK+MpI/P9R1VMLQXDxFt1J0pFKuJ/W8W4l3g=
-----END CERTIFICATE-----
