Certificate:
    Data:
        Version: 3 (0x2)
        Serial Number: 8 (0x8)
    Signature Algorithm: sha256WithRSAEncryption
        Issuer: C=US, ST=California, L=Santa Clara, O=pkg5, CN=ch4_ta1/emailAddress=ch4_ta1
        Validity
            Not Before: Jan 22 15:33:07 2019 GMT
            Not After : Oct 18 15:33:07 2021 GMT
        Subject: C=US, ST=California, L=Santa Clara, O=pkg5, CN=ch5.1_ta1/emailAddress=ch5.1_ta1
        Subject Public Key Info:
            Public Key Algorithm: rsaEncryption
                Public-Key: (2048 bit)
                Modulus:
                    00:cc:2b:98:a8:e8:bb:53:49:6a:7d:6d:0a:b6:99:
                    d9:3e:b1:23:d2:19:66:f2:07:30:df:f8:51:67:5b:
                    8c:bd:e7:ee:16:5b:b0:8c:36:91:01:d4:0f:32:2a:
                    82:a7:46:d4:de:e1:30:ad:8b:2b:43:b0:93:db:b6:
                    55:29:06:9b:5a:60:53:d7:f8:aa:4a:28:ab:d4:81:
                    7f:e0:6e:b2:cc:fa:b4:1e:5a:ee:b3:a9:c2:d3:94:
                    b0:1a:5b:76:7a:93:5e:98:14:1f:5b:db:68:f3:f3:
                    08:60:00:31:96:74:e0:5f:7d:18:50:64:a8:2d:76:
                    85:a8:14:d5:d4:bf:f9:3d:96:5c:c2:15:fc:64:0e:
                    fe:f1:21:04:0f:ea:95:07:ee:5e:e3:80:f0:62:8b:
                    91:a9:d1:c9:3a:fb:46:b4:6e:fb:7e:02:87:d4:ee:
                    17:73:74:d1:a5:c0:c6:13:0b:c6:92:69:41:00:44:
                    b7:c8:2a:e3:9c:4c:58:53:16:71:8f:a4:e1:51:ca:
                    62:2b:ad:af:a6:84:35:59:14:62:cf:0e:fe:93:b0:
                    5a:b1:ca:a0:62:54:7a:d0:02:46:99:5b:af:c7:51:
                    c4:65:36:dd:ca:36:ce:8a:91:c8:d0:9c:4f:94:12:
                    e9:c4:fa:92:77:4b:b6:b3:2e:47:3b:0d:2c:13:37:
                    bc:13
                Exponent: 65537 (0x10001)
        X509v3 extensions:
            X509v3 Basic Constraints: critical
                CA:TRUE
            X509v3 Issuer Alternative Name: critical
                <EMPTY>

    Signature Algorithm: sha256WithRSAEncryption
         6b:45:d8:55:8c:bc:ce:32:ad:63:79:f5:43:62:d0:64:38:47:
         6d:af:19:09:33:16:db:01:a8:92:e3:d1:b4:3f:fb:46:c3:46:
         80:12:89:87:53:aa:d5:10:6f:a1:7b:6a:b4:63:61:15:03:e2:
         8d:36:12:73:60:6f:9c:ed:bf:6d:25:e2:ec:ed:a1:49:9b:ba:
         03:7d:29:72:8b:83:30:ce:0f:37:b0:be:06:41:35:51:c4:33:
         e1:b3:ae:bd:72:c0:2a:3c:91:49:b6:a6:58:8c:fd:42:e0:d1:
         f1:3a:bf:c8:f8:91:c1:e2:57:0f:b4:48:3f:e9:4d:2a:8a:07:
         51:16:6b:2d:e6:f8:2f:b7:5b:70:9d:e9:fd:31:ed:94:be:fa:
         4d:2a:d3:2c:59:ca:4d:d0:b6:ff:51:a5:f2:70:35:53:e2:f2:
         1c:d0:bf:05:6c:90:44:99:8d:ee:7d:e9:b4:85:6a:3e:92:92:
         54:af:67:36:ed:9e:3b:be:f4:2c:39:8f:06:58:ab:62:6a:80:
         bb:ae:4a:24:7b:c7:a4:b4:e9:59:b3:13:8c:e5:50:50:8c:2d:
         15:f6:48:b2:0a:60:6c:ae:92:df:29:20:18:e3:be:74:0c:9a:
         b6:e4:80:69:b6:c7:37:53:8c:59:c2:79:7e:56:d2:b8:21:0a:
         6e:78:02:1d
-----BEGIN CERTIFICATE-----
MIIDgjCCAmqgAwIBAgIBCDANBgkqhkiG9w0BAQsFADBxMQswCQYDVQQGEwJVUzET
MBEGA1UECAwKQ2FsaWZvcm5pYTEUMBIGA1UEBwwLU2FudGEgQ2xhcmExDTALBgNV
BAoMBHBrZzUxEDAOBgNVBAMMB2NoNF90YTExFjAUBgkqhkiG9w0BCQEWB2NoNF90
YTEwHhcNMTkwMTIyMTUzMzA3WhcNMjExMDE4MTUzMzA3WjB1MQswCQYDVQQGEwJV
UzETMBEGA1UECAwKQ2FsaWZvcm5pYTEUMBIGA1UEBwwLU2FudGEgQ2xhcmExDTAL
BgNVBAoMBHBrZzUxEjAQBgNVBAMMCWNoNS4xX3RhMTEYMBYGCSqGSIb3DQEJARYJ
Y2g1LjFfdGExMIIBIjANBgkqhkiG9w0BAQEFAAOCAQ8AMIIBCgKCAQEAzCuYqOi7
U0lqfW0KtpnZPrEj0hlm8gcw3/hRZ1uMvefuFluwjDaRAdQPMiqCp0bU3uEwrYsr
Q7CT27ZVKQabWmBT1/iqSiir1IF/4G6yzPq0Hlrus6nC05SwGlt2epNemBQfW9to
8/MIYAAxlnTgX30YUGSoLXaFqBTV1L/5PZZcwhX8ZA7+8SEED+qVB+5e44DwYouR
qdHJOvtGtG77fgKH1O4Xc3TRpcDGEwvGkmlBAES3yCrjnExYUxZxj6ThUcpiK62v
poQ1WRRizw7+k7BascqgYlR60AJGmVuvx1HEZTbdyjbOipHI0JxPlBLpxPqSd0u2
sy5HOw0sEze8EwIDAQABoyEwHzAPBgNVHRMBAf8EBTADAQH/MAwGA1UdEgEB/wQC
MAAwDQYJKoZIhvcNAQELBQADggEBAGtF2FWMvM4yrWN59UNi0GQ4R22vGQkzFtsB
qJLj0bQ/+0bDRoASiYdTqtUQb6F7arRjYRUD4o02EnNgb5ztv20l4uztoUmbugN9
KXKLgzDODzewvgZBNVHEM+Gzrr1ywCo8kUm2pliM/ULg0fE6v8j4kcHiVw+0SD/p
TSqKB1EWay3m+C+3W3Cd6f0x7ZS++k0q0yxZyk3Qtv9RpfJwNVPi8hzQvwVskESZ
je596bSFaj6SklSvZzbtnju+9Cw5jwZYq2JqgLuuSiR7x6S06VmzE4zlUFCMLRX2
SLIKYGyukt8pIBjjvnQMmrbkgGm2xzdTjFnCeX5W0rghCm54Ah0=
-----END CERTIFICATE-----
