Certificate:
    Data:
        Version: 3 (0x2)
        Serial Number: 8 (0x8)
        Signature Algorithm: sha256WithRSAEncryption
        Issuer: C=US, ST=California, L=Menlo Park, O=pkg5, CN=ch4_ta1/emailAddress=ch4_ta1
        Validity
            Not Before: Mar 21 00:49:24 2011 GMT
            Not After : Dec 15 00:49:24 2013 GMT
        Subject: C=US, ST=California, L=Menlo Park, O=pkg5, CN=ch5.1_ta1/emailAddress=ch5.1_ta1
        Subject Public Key Info:
            Public Key Algorithm: rsaEncryption
            RSA Public Key: (1024 bit)
                Modulus (1024 bit):
                    00:d7:b9:78:e1:ad:bd:98:ac:da:90:68:26:db:d7:
                    ed:5b:e4:0f:d7:ef:c1:4d:84:20:4b:7c:ef:27:50:
                    4b:ab:e0:61:10:10:ae:6b:d6:ed:96:b3:04:18:b2:
                    4d:30:b8:23:97:24:a9:92:6a:19:95:fc:bc:7a:70:
                    ab:65:55:26:4a:62:dd:09:df:9b:03:e1:38:f8:ba:
                    ac:2d:26:f3:76:84:c9:5d:f8:21:a0:57:d0:6c:ad:
                    2e:60:cc:af:15:03:8f:e5:e0:e2:86:df:ed:07:a5:
                    4a:35:fe:65:78:94:5f:07:bd:d0:f7:7a:28:8e:5d:
                    98:21:7b:c5:6d:fe:43:5c:57
                Exponent: 65537 (0x10001)
        X509v3 extensions:
            X509v3 Basic Constraints: critical
                CA:TRUE
            X509v3 Issuer Alternative Name: critical
                <EMPTY>

    Signature Algorithm: sha256WithRSAEncryption
        57:9c:5a:4b:ab:37:f1:61:c6:ab:27:91:f0:8b:68:aa:8d:81:
        0b:6f:4c:ae:9b:05:91:e6:f3:1a:91:6f:8a:e8:5c:a4:9e:dd:
        a9:aa:2f:2a:85:e9:77:6d:d4:04:d5:07:e4:ad:3d:db:90:8f:
        08:99:ca:c2:4c:c5:8c:c9:6b:01:e8:98:2f:6e:ad:17:46:59:
        15:3a:72:ee:16:30:3e:14:82:6a:7f:ea:89:ce:b8:9d:00:14:
        af:c7:bf:06:54:04:c5:3c:ab:f6:96:48:1a:a5:60:b5:3d:94:
        41:91:24:8a:98:bb:8d:ea:be:f3:4b:2d:fc:8d:de:06:48:9e:
        35:55
-----BEGIN CERTIFICATE-----
MIICezCCAeSgAwIBAgIBCDANBgkqhkiG9w0BAQsFADBwMQswCQYDVQQGEwJVUzET
MBEGA1UECBMKQ2FsaWZvcm5pYTETMBEGA1UEBxMKTWVubG8gUGFyazENMAsGA1UE
ChMEcGtnNTEQMA4GA1UEAxQHY2g0X3RhMTEWMBQGCSqGSIb3DQEJARYHY2g0X3Rh
MTAeFw0xMTAzMjEwMDQ5MjRaFw0xMzEyMTUwMDQ5MjRaMHQxCzAJBgNVBAYTAlVT
MRMwEQYDVQQIEwpDYWxpZm9ybmlhMRMwEQYDVQQHEwpNZW5sbyBQYXJrMQ0wCwYD
VQQKEwRwa2c1MRIwEAYDVQQDFAljaDUuMV90YTExGDAWBgkqhkiG9w0BCQEWCWNo
NS4xX3RhMTCBnzANBgkqhkiG9w0BAQEFAAOBjQAwgYkCgYEA17l44a29mKzakGgm
29ftW+QP1+/BTYQgS3zvJ1BLq+BhEBCua9btlrMEGLJNMLgjlySpkmoZlfy8enCr
ZVUmSmLdCd+bA+E4+LqsLSbzdoTJXfghoFfQbK0uYMyvFQOP5eDiht/tB6VKNf5l
eJRfB73Q93oojl2YIXvFbf5DXFcCAwEAAaMhMB8wDwYDVR0TAQH/BAUwAwEB/zAM
BgNVHRIBAf8EAjAAMA0GCSqGSIb3DQEBCwUAA4GBAFecWkurN/FhxqsnkfCLaKqN
gQtvTK6bBZHm8xqRb4roXKSe3amqLyqF6Xdt1ATVB+StPduQjwiZysJMxYzJawHo
mC9urRdGWRU6cu4WMD4Ugmp/6onOuJ0AFK/HvwZUBMU8q/aWSBqlYLU9lEGRJIqY
u43qvvNLLfyN3gZInjVV
-----END CERTIFICATE-----
