Certificate:
    Data:
        Version: 3 (0x2)
        Serial Number: 8 (0x8)
    Signature Algorithm: sha256WithRSAEncryption
        Issuer: C=US, ST=California, L=Santa Clara, O=pkg5, CN=ch4_ta1/emailAddress=ch4_ta1
        Validity
            Not Before: Jul 19 11:35:44 2023 GMT
            Not After : Apr 14 11:35:44 2026 GMT
        Subject: C=US, ST=California, L=Santa Clara, O=pkg5, CN=ch5.1_ta1/emailAddress=ch5.1_ta1
        Subject Public Key Info:
            Public Key Algorithm: rsaEncryption
                Public-Key: (2048 bit)
                Modulus:
                    00:b4:92:26:44:95:4c:24:ff:9b:bf:89:3e:81:8b:
                    47:96:35:36:83:51:1a:75:33:95:cc:e0:df:6f:c2:
                    bc:10:3c:8d:e8:5c:52:98:24:a8:dd:fe:3b:38:4b:
                    19:27:7f:29:16:b8:0e:1b:a0:55:54:a6:a3:10:4b:
                    c4:5b:3f:c4:95:e1:3d:5e:61:d4:7d:fc:39:7d:08:
                    eb:cd:e9:c8:6a:29:16:2e:69:32:88:6d:d4:9a:dc:
                    ef:f2:9d:30:06:f0:ac:19:ce:8c:2b:16:33:a0:98:
                    31:21:c3:f7:34:8d:44:5b:72:a1:42:d5:ed:9e:45:
                    ff:c9:40:05:52:f6:79:bb:49:80:59:17:77:17:b2:
                    f8:a5:b6:4d:e8:d1:02:92:18:6a:e0:39:17:ae:9e:
                    4d:32:02:00:f3:ee:2b:85:d0:8c:ff:41:57:7d:b9:
                    81:fa:62:e1:69:ef:1c:a3:03:f8:e6:11:b7:f9:33:
                    34:75:eb:95:2c:91:ff:ae:6c:9a:11:d8:fe:f0:f1:
                    6b:1b:a2:7c:70:b7:93:ae:d6:1b:53:8e:ba:cf:04:
                    d3:47:ec:0e:0d:f5:4f:e6:07:44:58:c0:c8:24:89:
                    f7:62:ec:0e:91:ad:9b:29:ea:de:c6:43:b1:a3:65:
                    f6:6f:47:50:f9:1f:86:ba:ab:e9:5a:d0:12:26:dc:
                    f7:f3
                Exponent: 65537 (0x10001)
        X509v3 extensions:
            X509v3 Basic Constraints: critical
                CA:TRUE
            X509v3 Issuer Alternative Name: critical
                <EMPTY>

    Signature Algorithm: sha256WithRSAEncryption
         1b:2a:26:a6:80:3b:2b:18:cd:26:ac:f5:9b:e9:41:89:8e:d8:
         0d:5c:2a:0c:35:21:52:50:0f:f0:2f:ea:6f:f4:13:22:b4:ef:
         04:51:6f:5f:81:10:ce:57:ba:8e:45:9b:f5:6d:71:84:ea:08:
         b3:58:1a:76:d3:6d:e8:fa:00:97:57:24:8d:8b:d2:11:d3:a7:
         39:c3:5b:dd:e9:15:f4:3b:81:a7:ca:c3:53:c8:9b:00:f0:35:
         97:6e:d1:48:78:24:27:1e:6b:8b:e5:ff:1d:f4:dd:27:37:c7:
         f0:51:7f:db:06:c7:95:1d:51:91:ae:46:1c:39:da:50:21:8d:
         c7:6b:97:b3:8f:10:8f:c9:58:6e:16:74:79:26:50:ac:50:eb:
         5d:8b:27:bd:d7:19:b8:18:44:b7:23:27:22:19:da:8d:18:c2:
         44:b7:26:4a:d7:75:d5:f8:be:c4:8a:92:bb:d2:0c:a4:cc:1e:
         4c:54:e6:a0:fd:fc:28:ab:81:7c:a8:2d:a6:a9:70:6a:83:ef:
         86:cd:0e:01:ec:7c:3b:cd:27:0d:d2:6c:f6:c1:82:0e:ef:8a:
         b2:3a:b5:3d:9f:1d:87:5c:77:f3:99:86:ec:fe:5c:3c:8d:75:
         b2:2c:4c:48:52:ab:cc:4a:6d:ae:8f:8b:94:a2:5b:6b:8e:10:
         46:dc:64:7b
-----BEGIN CERTIFICATE-----
MIIDgjCCAmqgAwIBAgIBCDANBgkqhkiG9w0BAQsFADBxMQswCQYDVQQGEwJVUzET
MBEGA1UECAwKQ2FsaWZvcm5pYTEUMBIGA1UEBwwLU2FudGEgQ2xhcmExDTALBgNV
BAoMBHBrZzUxEDAOBgNVBAMMB2NoNF90YTExFjAUBgkqhkiG9w0BCQEWB2NoNF90
YTEwHhcNMjMwNzE5MTEzNTQ0WhcNMjYwNDE0MTEzNTQ0WjB1MQswCQYDVQQGEwJV
UzETMBEGA1UECAwKQ2FsaWZvcm5pYTEUMBIGA1UEBwwLU2FudGEgQ2xhcmExDTAL
BgNVBAoMBHBrZzUxEjAQBgNVBAMMCWNoNS4xX3RhMTEYMBYGCSqGSIb3DQEJARYJ
Y2g1LjFfdGExMIIBIjANBgkqhkiG9w0BAQEFAAOCAQ8AMIIBCgKCAQEAtJImRJVM
JP+bv4k+gYtHljU2g1EadTOVzODfb8K8EDyN6FxSmCSo3f47OEsZJ38pFrgOG6BV
VKajEEvEWz/EleE9XmHUffw5fQjrzenIaikWLmkyiG3Umtzv8p0wBvCsGc6MKxYz
oJgxIcP3NI1EW3KhQtXtnkX/yUAFUvZ5u0mAWRd3F7L4pbZN6NECkhhq4DkXrp5N
MgIA8+4rhdCM/0FXfbmB+mLhae8cowP45hG3+TM0deuVLJH/rmyaEdj+8PFrG6J8
cLeTrtYbU466zwTTR+wODfVP5gdEWMDIJIn3YuwOka2bKerexkOxo2X2b0dQ+R+G
uqvpWtASJtz38wIDAQABoyEwHzAPBgNVHRMBAf8EBTADAQH/MAwGA1UdEgEB/wQC
MAAwDQYJKoZIhvcNAQELBQADggEBABsqJqaAOysYzSas9ZvpQYmO2A1cKgw1IVJQ
D/Av6m/0EyK07wRRb1+BEM5Xuo5Fm/VtcYTqCLNYGnbTbej6AJdXJI2L0hHTpznD
W93pFfQ7gafKw1PImwDwNZdu0Uh4JCcea4vl/x303Sc3x/BRf9sGx5UdUZGuRhw5
2lAhjcdrl7OPEI/JWG4WdHkmUKxQ612LJ73XGbgYRLcjJyIZ2o0YwkS3JkrXddX4
vsSKkrvSDKTMHkxU5qD9/CirgXyoLaapcGqD74bNDgHsfDvNJw3SbPbBgg7virI6
tT2fHYdcd/OZhuz+XDyNdbIsTEhSq8xKba6Pi5SiW2uOEEbcZHs=
-----END CERTIFICATE-----
