Certificate:
    Data:
        Version: 3 (0x2)
        Serial Number: 8 (0x8)
    Signature Algorithm: sha256WithRSAEncryption
        Issuer: C=US, ST=California, L=Santa Clara, O=pkg5, CN=ch4_ta1/emailAddress=ch4_ta1
        Validity
            Not Before: Dec 13 00:13:34 2013 GMT
            Not After : Sep  8 00:13:34 2016 GMT
        Subject: C=US, ST=California, L=Santa Clara, O=pkg5, CN=ch5.1_ta1/emailAddress=ch5.1_ta1
        Subject Public Key Info:
            Public Key Algorithm: rsaEncryption
                Public-Key: (1024 bit)
                Modulus:
                    00:9d:91:87:82:56:78:7f:64:32:62:7e:ee:6c:38:
                    f2:a2:f6:34:ba:a9:ec:bb:6e:0f:87:ab:46:a4:37:
                    ce:80:f1:b5:8b:9b:0a:4b:2a:b6:46:9b:f1:47:c0:
                    6b:85:7f:64:08:61:ac:53:d4:3b:ce:54:2a:6d:a4:
                    65:cd:a7:dc:a5:3a:33:bf:86:2b:f6:d0:fb:24:80:
                    56:8f:4f:d4:f9:96:71:f3:86:74:4b:47:38:da:18:
                    79:ae:d9:5b:9d:09:9e:f7:cb:b4:a7:85:33:85:20:
                    d3:2a:fc:72:c1:37:62:01:d6:b1:cb:4a:a0:09:c2:
                    72:ea:fd:b8:5d:03:68:33:7d
                Exponent: 65537 (0x10001)
        X509v3 extensions:
            X509v3 Basic Constraints: critical
                CA:TRUE
            X509v3 Issuer Alternative Name: critical
                <EMPTY>

    Signature Algorithm: sha256WithRSAEncryption
         11:3c:6b:22:14:f6:1a:18:8b:59:a4:8d:38:d6:6f:48:8a:01:
         e2:d3:9d:6a:26:40:61:d3:9b:ce:8a:ab:b9:25:c4:89:c4:f9:
         98:1e:6c:f5:1c:d7:f7:6a:c9:7b:48:ba:d7:e0:03:59:41:4d:
         29:28:7d:2d:61:c5:7f:7f:8c:2f:30:2b:c6:6e:16:31:7d:45:
         d2:2a:83:ea:fc:25:92:1f:cb:85:28:0a:f4:2c:a0:c4:c2:fc:
         52:43:53:d1:46:e7:fd:3c:0a:9b:11:45:0f:09:2e:c6:93:26:
         72:c9:20:28:7a:db:18:55:1b:15:70:1f:bc:0e:ab:18:c1:f8:
         64:03
-----BEGIN CERTIFICATE-----
MIICfTCCAeagAwIBAgIBCDANBgkqhkiG9w0BAQsFADBxMQswCQYDVQQGEwJVUzET
MBEGA1UECAwKQ2FsaWZvcm5pYTEUMBIGA1UEBwwLU2FudGEgQ2xhcmExDTALBgNV
BAoMBHBrZzUxEDAOBgNVBAMMB2NoNF90YTExFjAUBgkqhkiG9w0BCQEWB2NoNF90
YTEwHhcNMTMxMjEzMDAxMzM0WhcNMTYwOTA4MDAxMzM0WjB1MQswCQYDVQQGEwJV
UzETMBEGA1UECAwKQ2FsaWZvcm5pYTEUMBIGA1UEBwwLU2FudGEgQ2xhcmExDTAL
BgNVBAoMBHBrZzUxEjAQBgNVBAMMCWNoNS4xX3RhMTEYMBYGCSqGSIb3DQEJARYJ
Y2g1LjFfdGExMIGfMA0GCSqGSIb3DQEBAQUAA4GNADCBiQKBgQCdkYeCVnh/ZDJi
fu5sOPKi9jS6qey7bg+Hq0akN86A8bWLmwpLKrZGm/FHwGuFf2QIYaxT1DvOVCpt
pGXNp9ylOjO/hiv20PskgFaPT9T5lnHzhnRLRzjaGHmu2VudCZ73y7SnhTOFINMq
/HLBN2IB1rHLSqAJwnLq/bhdA2gzfQIDAQABoyEwHzAPBgNVHRMBAf8EBTADAQH/
MAwGA1UdEgEB/wQCMAAwDQYJKoZIhvcNAQELBQADgYEAETxrIhT2GhiLWaSNONZv
SIoB4tOdaiZAYdObzoqruSXEicT5mB5s9RzX92rJe0i61+ADWUFNKSh9LWHFf3+M
LzArxm4WMX1F0iqD6vwlkh/LhSgK9CygxML8UkNT0Ubn/TwKmxFFDwkuxpMmcskg
KHrbGFUbFXAfvA6rGMH4ZAM=
-----END CERTIFICATE-----
