Certificate:
    Data:
        Version: 3 (0x2)
        Serial Number: 8 (0x8)
        Signature Algorithm: sha256WithRSAEncryption
        Issuer: C=US, ST=California, L=Menlo Park, O=pkg5, CN=ch4_ta1/emailAddress=ch4_ta1
        Validity
            Not Before: Apr 11 22:37:40 2011 GMT
            Not After : Jan  5 22:37:40 2014 GMT
        Subject: C=US, ST=California, L=Menlo Park, O=pkg5, CN=ch5.1_ta1/emailAddress=ch5.1_ta1
        Subject Public Key Info:
            Public Key Algorithm: rsaEncryption
            RSA Public Key: (1024 bit)
                Modulus (1024 bit):
                    00:cc:de:54:ed:78:31:c0:7c:e4:25:98:a3:0d:fa:
                    77:08:f3:39:c4:9f:88:41:ee:00:a3:35:ed:b6:f0:
                    cc:a3:fd:0f:ce:3c:70:b5:aa:1e:42:4e:5c:ae:d8:
                    cb:99:53:ef:1e:49:f9:4c:5f:47:be:d0:e6:e2:f1:
                    12:29:d5:77:75:88:79:4c:3b:64:05:ba:08:5d:dc:
                    ed:1f:7f:15:92:69:ec:b9:c9:84:f0:7d:3f:db:66:
                    34:a5:35:8c:22:9b:5f:4b:19:83:15:35:49:7c:4b:
                    77:35:2c:c4:58:34:15:f1:66:99:ce:65:d3:06:b7:
                    d2:35:d7:96:39:ee:d8:08:91
                Exponent: 65537 (0x10001)
        X509v3 extensions:
            X509v3 Basic Constraints: critical
                CA:TRUE
            X509v3 Issuer Alternative Name: critical
                <EMPTY>

    Signature Algorithm: sha256WithRSAEncryption
        22:ec:49:fd:44:5e:9a:b1:55:f7:29:4c:cf:66:ff:1f:ce:d7:
        e6:31:ae:b5:f3:3b:c9:d8:e4:d4:4a:59:ff:db:9a:88:23:28:
        14:62:78:03:b8:36:d8:32:56:c6:d2:09:0f:e4:33:ea:02:7f:
        24:02:fc:4c:58:5c:e7:3a:4c:b6:69:55:bc:5e:c8:3e:c2:97:
        66:82:74:6a:1c:1e:ae:ae:3d:35:f5:6e:a3:a5:9b:9d:23:d5:
        da:de:e2:47:ee:ea:78:8a:36:19:73:f5:7f:38:bd:0e:bb:56:
        3c:c8:21:0e:5a:57:a0:cf:08:50:e6:80:ef:3e:e5:ed:64:69:
        d6:6d
-----BEGIN CERTIFICATE-----
MIICezCCAeSgAwIBAgIBCDANBgkqhkiG9w0BAQsFADBwMQswCQYDVQQGEwJVUzET
MBEGA1UECBMKQ2FsaWZvcm5pYTETMBEGA1UEBxMKTWVubG8gUGFyazENMAsGA1UE
ChMEcGtnNTEQMA4GA1UEAxQHY2g0X3RhMTEWMBQGCSqGSIb3DQEJARYHY2g0X3Rh
MTAeFw0xMTA0MTEyMjM3NDBaFw0xNDAxMDUyMjM3NDBaMHQxCzAJBgNVBAYTAlVT
MRMwEQYDVQQIEwpDYWxpZm9ybmlhMRMwEQYDVQQHEwpNZW5sbyBQYXJrMQ0wCwYD
VQQKEwRwa2c1MRIwEAYDVQQDFAljaDUuMV90YTExGDAWBgkqhkiG9w0BCQEWCWNo
NS4xX3RhMTCBnzANBgkqhkiG9w0BAQEFAAOBjQAwgYkCgYEAzN5U7XgxwHzkJZij
Dfp3CPM5xJ+IQe4AozXttvDMo/0PzjxwtaoeQk5crtjLmVPvHkn5TF9HvtDm4vES
KdV3dYh5TDtkBboIXdztH38VkmnsucmE8H0/22Y0pTWMIptfSxmDFTVJfEt3NSzE
WDQV8WaZzmXTBrfSNdeWOe7YCJECAwEAAaMhMB8wDwYDVR0TAQH/BAUwAwEB/zAM
BgNVHRIBAf8EAjAAMA0GCSqGSIb3DQEBCwUAA4GBACLsSf1EXpqxVfcpTM9m/x/O
1+YxrrXzO8nY5NRKWf/bmogjKBRieAO4NtgyVsbSCQ/kM+oCfyQC/ExYXOc6TLZp
VbxeyD7Cl2aCdGocHq6uPTX1bqOlm50j1dre4kfu6niKNhlz9X84vQ67VjzIIQ5a
V6DPCFDmgO8+5e1kadZt
-----END CERTIFICATE-----
