Certificate:
    Data:
        Version: 3 (0x2)
        Serial Number: 9 (0x9)
        Signature Algorithm: sha256WithRSAEncryption
        Issuer: C=US, ST=California, L=Menlo Park, O=pkg5, CN=ch1_pubCA1/emailAddress=ch1_pubCA1
        Validity
            Not Before: Aug  4 20:59:24 2010 GMT
            Not After : Apr 30 20:59:24 2013 GMT
        Subject: C=US, ST=California, L=Menlo Park, O=pkg5, CN=ch2.2_pubCA1/emailAddress=ch2.2_pubCA1
        Subject Public Key Info:
            Public Key Algorithm: rsaEncryption
            RSA Public Key: (1024 bit)
                Modulus (1024 bit):
                    00:b8:4f:d8:46:38:cf:4d:f8:68:64:10:4a:2f:8b:
                    2c:d6:5f:89:32:44:90:89:25:76:ff:54:65:59:d2:
                    75:86:d0:94:cf:2d:f0:94:18:23:32:fd:ce:f4:6b:
                    a0:c7:0e:f9:aa:18:f9:0b:fe:e7:85:aa:ff:8a:e1:
                    04:53:f9:a4:34:75:45:07:6f:f1:80:06:ca:c3:0f:
                    3b:b4:45:97:fe:09:f5:17:18:6c:05:e9:34:68:b9:
                    de:61:a3:ac:e1:22:0f:69:72:6f:a9:a8:64:cb:89:
                    a3:3d:32:02:25:64:5f:49:1e:0f:50:47:14:f2:0a:
                    bf:8c:72:57:44:f9:2e:9e:69
                Exponent: 65537 (0x10001)
        X509v3 extensions:
            X509v3 Basic Constraints: critical
                CA:TRUE
            X509v3 Issuer Alternative Name: critical
                <EMPTY>

    Signature Algorithm: sha256WithRSAEncryption
        9c:a9:be:da:f7:df:71:83:f0:eb:cb:f1:a3:68:cf:e1:eb:7f:
        a2:6d:1f:52:19:46:de:f1:8c:d0:1d:52:2b:a7:f0:70:2a:2f:
        e6:7e:48:4b:2a:3f:68:4d:4d:c7:39:2a:bd:65:84:67:d1:73:
        cd:a2:6f:38:59:29:2b:e4:71:ad:59:10:ff:ae:b2:c9:89:e1:
        32:6e:87:6c:e2:6d:8c:24:d1:64:a8:19:3c:68:ee:b5:f2:f2:
        5b:6c:36:0e:0f:85:3f:e6:9e:a1:6e:6e:2b:98:b4:94:3f:16:
        a2:37:7b:45:bc:8f:b1:bc:e5:26:2b:dd:0d:55:34:1d:ee:7c:
        70:a9
-----BEGIN CERTIFICATE-----
MIIChzCCAfCgAwIBAgIBCTANBgkqhkiG9w0BAQsFADB2MQswCQYDVQQGEwJVUzET
MBEGA1UECBMKQ2FsaWZvcm5pYTETMBEGA1UEBxMKTWVubG8gUGFyazENMAsGA1UE
ChMEcGtnNTETMBEGA1UEAxQKY2gxX3B1YkNBMTEZMBcGCSqGSIb3DQEJARYKY2gx
X3B1YkNBMTAeFw0xMDA4MDQyMDU5MjRaFw0xMzA0MzAyMDU5MjRaMHoxCzAJBgNV
BAYTAlVTMRMwEQYDVQQIEwpDYWxpZm9ybmlhMRMwEQYDVQQHEwpNZW5sbyBQYXJr
MQ0wCwYDVQQKEwRwa2c1MRUwEwYDVQQDFAxjaDIuMl9wdWJDQTExGzAZBgkqhkiG
9w0BCQEWDGNoMi4yX3B1YkNBMTCBnzANBgkqhkiG9w0BAQEFAAOBjQAwgYkCgYEA
uE/YRjjPTfhoZBBKL4ss1l+JMkSQiSV2/1RlWdJ1htCUzy3wlBgjMv3O9Gugxw75
qhj5C/7nhar/iuEEU/mkNHVFB2/xgAbKww87tEWX/gn1FxhsBek0aLneYaOs4SIP
aXJvqahky4mjPTICJWRfSR4PUEcU8gq/jHJXRPkunmkCAwEAAaMhMB8wDwYDVR0T
AQH/BAUwAwEB/zAMBgNVHRIBAf8EAjAAMA0GCSqGSIb3DQEBCwUAA4GBAJypvtr3
33GD8OvL8aNoz+Hrf6JtH1IZRt7xjNAdUiun8HAqL+Z+SEsqP2hNTcc5Kr1lhGfR
c82ibzhZKSvkca1ZEP+ussmJ4TJuh2zibYwk0WSoGTxo7rXy8ltsNg4PhT/mnqFu
biuYtJQ/FqI3e0W8j7G85SYr3Q1VNB3ufHCp
-----END CERTIFICATE-----
