Certificate:
    Data:
        Version: 3 (0x2)
        Serial Number: 10 (0xa)
    Signature Algorithm: sha256WithRSAEncryption
        Issuer: C=US, ST=California, L=Santa Clara, O=pkg5, CN=ch4_ta1/emailAddress=ch4_ta1
        Validity
            Not Before: Sep 22 05:33:18 2021 GMT
            Not After : Jun 18 05:33:18 2024 GMT
        Subject: C=US, ST=California, L=Santa Clara, O=pkg5, CN=ch5.2_ta1/emailAddress=ch5.2_ta1
        Subject Public Key Info:
            Public Key Algorithm: rsaEncryption
                Public-Key: (2048 bit)
                Modulus:
                    00:e0:04:c4:93:df:31:65:29:83:56:69:cd:d2:c2:
                    f4:1e:92:aa:be:48:78:50:84:57:39:99:96:51:dc:
                    7c:f1:a9:d5:85:16:c9:96:62:14:7f:ff:70:60:a6:
                    18:16:c2:9a:f4:96:61:c5:ac:a0:4b:1d:90:8d:1b:
                    5c:c1:99:80:14:38:f9:bd:e6:d0:1e:84:ff:e6:bd:
                    ca:3f:3e:33:5a:dc:a2:f0:97:3c:1e:b8:88:62:f9:
                    59:7c:40:28:25:7a:d5:76:54:13:6e:59:08:7f:87:
                    2a:c6:0f:fa:a6:a1:d5:dd:68:f0:19:4f:33:45:ee:
                    09:50:e8:96:b2:4f:21:74:14:7a:35:91:6b:5f:86:
                    e8:07:b7:ff:eb:36:9c:32:f4:0c:29:9d:15:00:d2:
                    9c:35:3c:0a:06:2e:55:c2:43:b8:54:28:e4:13:a0:
                    46:65:46:ce:f1:d2:fc:76:bb:c6:02:a3:07:81:7d:
                    1b:2f:ba:b9:08:45:02:aa:9e:86:ec:11:ae:f3:9c:
                    87:9f:5b:53:55:f7:83:ee:ee:ed:19:8e:41:33:a6:
                    5f:fd:22:89:88:ff:3d:e4:1a:77:bc:df:5d:4f:7e:
                    af:10:e6:15:03:11:b4:09:1d:6f:0d:42:df:fc:6f:
                    5c:41:b8:66:4b:c2:f4:36:ba:82:27:9a:95:5d:db:
                    0f:8f
                Exponent: 65537 (0x10001)
        X509v3 extensions:
            X509v3 Subject Key Identifier: 
                4F:A2:A6:F3:31:17:77:27:2F:4B:2D:06:84:00:8D:97:C4:BD:55:0F
            X509v3 Authority Key Identifier: 
                keyid:79:24:9E:9E:DF:31:26:39:7E:ED:7F:85:88:DA:DD:21:5B:7A:11:FF
                DirName:/C=US/ST=California/L=Santa Clara/O=pkg5/CN=ch3_ta1/emailAddress=ch3_ta1
                serial:04

            X509v3 Basic Constraints: critical
                CA:TRUE, pathlen:1
            X509v3 Key Usage: critical
                Certificate Sign, CRL Sign
    Signature Algorithm: sha256WithRSAEncryption
         66:6f:48:1b:a8:4b:76:9c:2a:b2:e5:1e:83:ba:ce:b7:e3:c3:
         a0:67:e4:1a:2d:f1:07:1d:32:61:17:36:28:cd:7a:95:75:e8:
         50:56:0f:b5:37:74:f7:e4:98:57:6e:71:fa:b4:07:50:2c:f3:
         04:ef:aa:ee:13:db:e2:3a:24:ba:0f:f2:f7:37:ba:90:6b:62:
         71:f9:ca:5a:82:45:58:cb:ef:d8:42:63:3d:e6:e6:a9:3f:71:
         5a:03:01:23:6d:34:d4:e5:0a:d5:91:f7:28:50:00:40:5f:f9:
         68:10:61:50:03:47:7b:2c:7e:4b:17:ad:e5:19:5e:9a:28:fc:
         3b:81:b3:05:31:09:47:b9:41:15:52:75:23:7f:71:cb:ac:2c:
         35:8a:f8:ac:ea:a4:02:1c:57:0a:1d:2b:9d:36:d6:a9:28:1e:
         ea:ab:73:25:43:05:c9:43:11:c4:cc:12:c6:c3:37:68:4f:27:
         4c:c2:7c:af:a6:a2:07:96:a4:39:05:b8:ca:68:4b:b9:ca:f7:
         c2:86:9d:f7:67:8e:dc:54:bc:8b:ba:09:fd:c7:e6:d8:98:f3:
         fd:fe:de:58:1c:1c:83:c1:c8:a4:93:1a:9e:5d:47:6d:81:84:
         b3:bc:45:e9:07:62:fd:8b:d9:b8:fb:39:8f:73:79:56:d6:85:
         58:94:88:3d
-----BEGIN CERTIFICATE-----
MIIERjCCAy6gAwIBAgIBCjANBgkqhkiG9w0BAQsFADBxMQswCQYDVQQGEwJVUzET
MBEGA1UECAwKQ2FsaWZvcm5pYTEUMBIGA1UEBwwLU2FudGEgQ2xhcmExDTALBgNV
BAoMBHBrZzUxEDAOBgNVBAMMB2NoNF90YTExFjAUBgkqhkiG9w0BCQEWB2NoNF90
YTEwHhcNMjEwOTIyMDUzMzE4WhcNMjQwNjE4MDUzMzE4WjB1MQswCQYDVQQGEwJV
UzETMBEGA1UECAwKQ2FsaWZvcm5pYTEUMBIGA1UEBwwLU2FudGEgQ2xhcmExDTAL
BgNVBAoMBHBrZzUxEjAQBgNVBAMMCWNoNS4yX3RhMTEYMBYGCSqGSIb3DQEJARYJ
Y2g1LjJfdGExMIIBIjANBgkqhkiG9w0BAQEFAAOCAQ8AMIIBCgKCAQEA4ATEk98x
ZSmDVmnN0sL0HpKqvkh4UIRXOZmWUdx88anVhRbJlmIUf/9wYKYYFsKa9JZhxayg
Sx2QjRtcwZmAFDj5vebQHoT/5r3KPz4zWtyi8Jc8HriIYvlZfEAoJXrVdlQTblkI
f4cqxg/6pqHV3WjwGU8zRe4JUOiWsk8hdBR6NZFrX4boB7f/6zacMvQMKZ0VANKc
NTwKBi5VwkO4VCjkE6BGZUbO8dL8drvGAqMHgX0bL7q5CEUCqp6G7BGu85yHn1tT
VfeD7u7tGY5BM6Zf/SKJiP895Bp3vN9dT36vEOYVAxG0CR1vDULf/G9cQbhmS8L0
NrqCJ5qVXdsPjwIDAQABo4HkMIHhMB0GA1UdDgQWBBRPoqbzMRd3Jy9LLQaEAI2X
xL1VDzCBmwYDVR0jBIGTMIGQgBR5JJ6e3zEmOX7tf4WI2t0hW3oR/6F1pHMwcTEL
MAkGA1UEBhMCVVMxEzARBgNVBAgMCkNhbGlmb3JuaWExFDASBgNVBAcMC1NhbnRh
IENsYXJhMQ0wCwYDVQQKDARwa2c1MRAwDgYDVQQDDAdjaDNfdGExMRYwFAYJKoZI
hvcNAQkBFgdjaDNfdGExggEEMBIGA1UdEwEB/wQIMAYBAf8CAQEwDgYDVR0PAQH/
BAQDAgEGMA0GCSqGSIb3DQEBCwUAA4IBAQBmb0gbqEt2nCqy5R6Dus6348OgZ+Qa
LfEHHTJhFzYozXqVdehQVg+1N3T35JhXbnH6tAdQLPME76ruE9viOiS6D/L3N7qQ
a2Jx+cpagkVYy+/YQmM95uapP3FaAwEjbTTU5QrVkfcoUABAX/loEGFQA0d7LH5L
F63lGV6aKPw7gbMFMQlHuUEVUnUjf3HLrCw1ivis6qQCHFcKHSudNtapKB7qq3Ml
QwXJQxHEzBLGwzdoTydMwnyvpqIHlqQ5BbjKaEu5yvfChp33Z47cVLyLugn9x+bY
mPP9/t5YHByDwcikkxqeXUdtgYSzvEXpB2L9i9m4+zmPc3lW1oVYlIg9
-----END CERTIFICATE-----
