Certificate:
    Data:
        Version: 3 (0x2)
        Serial Number: 10 (0xa)
        Signature Algorithm: sha256WithRSAEncryption
        Issuer: C=US, ST=California, L=Menlo Park, O=pkg5, CN=ch4_ta1/emailAddress=ch4_ta1
        Validity
            Not Before: Apr 11 22:37:41 2011 GMT
            Not After : Jan  5 22:37:41 2014 GMT
        Subject: C=US, ST=California, L=Menlo Park, O=pkg5, CN=ch5.2_ta1/emailAddress=ch5.2_ta1
        Subject Public Key Info:
            Public Key Algorithm: rsaEncryption
            RSA Public Key: (1024 bit)
                Modulus (1024 bit):
                    00:c5:27:9b:4d:c3:41:cf:96:d4:f0:21:59:1b:77:
                    ce:54:81:dc:05:57:1f:56:69:8c:5f:58:3f:88:4a:
                    c6:73:bd:a9:4a:d0:f8:a3:33:1b:4f:d8:94:b5:d3:
                    95:bd:00:06:d1:18:e8:ea:9e:41:ad:06:ea:c6:cc:
                    9f:93:a7:c4:a0:3e:05:62:4c:3f:1c:88:79:a0:a1:
                    eb:f3:94:d0:1b:8c:a8:9f:4c:3b:37:80:06:6b:00:
                    e7:30:6c:d4:c2:51:27:7f:1a:e5:95:a7:1c:15:d6:
                    98:0e:1f:2f:28:b7:a7:75:60:56:8e:74:a0:86:9a:
                    06:d5:23:0f:11:83:02:95:73
                Exponent: 65537 (0x10001)
        X509v3 extensions:
            X509v3 Subject Key Identifier: 
                89:81:B5:75:FE:47:C0:C6:F5:28:97:38:D7:FC:58:E9:62:8D:31:C0
            X509v3 Authority Key Identifier: 
                keyid:B2:A1:C2:1D:B7:20:56:20:8C:64:DA:BA:06:C6:5A:E4:0A:23:6E:01
                DirName:/C=US/ST=California/L=Menlo Park/O=pkg5/CN=ch3_ta1/emailAddress=ch3_ta1
                serial:04

            X509v3 Basic Constraints: critical
                CA:TRUE, pathlen:1
            X509v3 Key Usage: critical
                Certificate Sign, CRL Sign
    Signature Algorithm: sha256WithRSAEncryption
        63:3d:1b:46:ff:99:65:19:01:e8:fc:b1:a4:22:30:8c:da:43:
        c5:79:05:0c:60:3a:0f:4b:3f:53:63:f0:12:63:a9:ee:63:10:
        15:aa:f4:ae:13:10:4f:43:b4:31:8c:84:f5:c1:0b:86:ab:7b:
        78:7e:7c:9b:3c:26:56:8e:aa:54:3b:ad:7e:be:23:3e:8f:8c:
        cf:47:22:7d:f6:83:53:ca:72:f1:02:9a:07:4a:f7:94:00:1b:
        d2:57:80:6d:c9:37:ab:58:d6:54:71:90:de:c9:3f:ee:c3:b5:
        5c:0e:46:09:30:cf:95:58:2f:07:64:fe:27:70:9e:d0:29:dd:
        f5:25
-----BEGIN CERTIFICATE-----
MIIDPjCCAqegAwIBAgIBCjANBgkqhkiG9w0BAQsFADBwMQswCQYDVQQGEwJVUzET
MBEGA1UECBMKQ2FsaWZvcm5pYTETMBEGA1UEBxMKTWVubG8gUGFyazENMAsGA1UE
ChMEcGtnNTEQMA4GA1UEAxQHY2g0X3RhMTEWMBQGCSqGSIb3DQEJARYHY2g0X3Rh
MTAeFw0xMTA0MTEyMjM3NDFaFw0xNDAxMDUyMjM3NDFaMHQxCzAJBgNVBAYTAlVT
MRMwEQYDVQQIEwpDYWxpZm9ybmlhMRMwEQYDVQQHEwpNZW5sbyBQYXJrMQ0wCwYD
VQQKEwRwa2c1MRIwEAYDVQQDFAljaDUuMl90YTExGDAWBgkqhkiG9w0BCQEWCWNo
NS4yX3RhMTCBnzANBgkqhkiG9w0BAQEFAAOBjQAwgYkCgYEAxSebTcNBz5bU8CFZ
G3fOVIHcBVcfVmmMX1g/iErGc72pStD4ozMbT9iUtdOVvQAG0Rjo6p5BrQbqxsyf
k6fEoD4FYkw/HIh5oKHr85TQG4yon0w7N4AGawDnMGzUwlEnfxrllaccFdaYDh8v
KLendWBWjnSghpoG1SMPEYMClXMCAwEAAaOB4zCB4DAdBgNVHQ4EFgQUiYG1df5H
wMb1KJc41/xY6WKNMcAwgZoGA1UdIwSBkjCBj4AUsqHCHbcgViCMZNq6BsZa5Aoj
bgGhdKRyMHAxCzAJBgNVBAYTAlVTMRMwEQYDVQQIEwpDYWxpZm9ybmlhMRMwEQYD
VQQHEwpNZW5sbyBQYXJrMQ0wCwYDVQQKEwRwa2c1MRAwDgYDVQQDFAdjaDNfdGEx
MRYwFAYJKoZIhvcNAQkBFgdjaDNfdGExggEEMBIGA1UdEwEB/wQIMAYBAf8CAQEw
DgYDVR0PAQH/BAQDAgEGMA0GCSqGSIb3DQEBCwUAA4GBAGM9G0b/mWUZAej8saQi
MIzaQ8V5BQxgOg9LP1Nj8BJjqe5jEBWq9K4TEE9DtDGMhPXBC4are3h+fJs8JlaO
qlQ7rX6+Iz6PjM9HIn32g1PKcvECmgdK95QAG9JXgG3JN6tY1lRxkN7JP+7DtVwO
Rgkwz5VYLwdk/idwntAp3fUl
-----END CERTIFICATE-----
