Certificate:
    Data:
        Version: 3 (0x2)
        Serial Number: 10 (0xa)
        Signature Algorithm: sha256WithRSAEncryption
        Issuer: C=US, ST=California, L=Menlo Park, O=pkg5, CN=ch4_ta1/emailAddress=ch4_ta1
        Validity
            Not Before: Mar 21 00:49:24 2011 GMT
            Not After : Dec 15 00:49:24 2013 GMT
        Subject: C=US, ST=California, L=Menlo Park, O=pkg5, CN=ch5.2_ta1/emailAddress=ch5.2_ta1
        Subject Public Key Info:
            Public Key Algorithm: rsaEncryption
            RSA Public Key: (1024 bit)
                Modulus (1024 bit):
                    00:ae:6a:8e:9d:ec:f8:54:be:fb:5c:ae:02:f6:32:
                    dc:e0:8c:a7:3a:26:62:27:93:68:2d:c5:7d:84:0a:
                    ae:c5:d6:a6:61:a5:d4:0b:6c:e2:b8:43:6a:a4:af:
                    78:a7:dc:4d:b4:d5:b1:85:67:57:d2:a8:61:c4:08:
                    21:34:07:4c:d5:87:71:65:8b:d3:af:44:87:3f:f5:
                    d5:2d:45:83:3e:52:4d:0a:6d:cb:68:55:8e:f4:bc:
                    2b:50:6d:e6:69:50:68:6c:a1:be:ec:cd:e2:96:96:
                    96:04:8d:ba:32:b9:0d:90:87:0f:ff:f0:ab:77:92:
                    51:ac:ef:36:b3:6b:2d:17:93
                Exponent: 65537 (0x10001)
        X509v3 extensions:
            X509v3 Subject Key Identifier: 
                51:52:C7:88:A6:9D:32:EF:AC:95:BF:79:10:0B:6E:F7:65:94:A7:F9
            X509v3 Authority Key Identifier: 
                keyid:52:80:D6:40:50:47:FD:82:5A:83:A4:24:CE:3E:DC:C7:E1:6F:56:00
                DirName:/C=US/ST=California/L=Menlo Park/O=pkg5/CN=ch3_ta1/emailAddress=ch3_ta1
                serial:04

            X509v3 Basic Constraints: critical
                CA:TRUE, pathlen:1
            X509v3 Key Usage: critical
                Certificate Sign, CRL Sign
    Signature Algorithm: sha256WithRSAEncryption
        61:86:a8:a9:d8:9f:08:19:cc:fd:ad:24:65:2e:67:dc:39:79:
        35:75:d5:c4:06:4b:e2:84:ce:86:9a:b8:b9:d6:00:a4:47:41:
        a8:57:4f:09:2d:b4:cb:7f:40:73:8a:a3:fe:9d:eb:14:00:f0:
        e8:f5:23:b2:30:19:31:d9:15:98:96:f2:6b:80:9e:11:52:b2:
        f5:d3:ed:30:38:c7:a0:d1:21:fc:7a:99:cd:1f:a8:fc:6b:0b:
        31:29:02:1a:1e:77:c8:75:70:5f:13:cf:92:02:79:a9:e1:d7:
        d9:2a:38:f7:ff:0a:8d:21:1a:5a:8e:25:1e:8c:a7:02:f0:ff:
        ef:02
-----BEGIN CERTIFICATE-----
MIIDPjCCAqegAwIBAgIBCjANBgkqhkiG9w0BAQsFADBwMQswCQYDVQQGEwJVUzET
MBEGA1UECBMKQ2FsaWZvcm5pYTETMBEGA1UEBxMKTWVubG8gUGFyazENMAsGA1UE
ChMEcGtnNTEQMA4GA1UEAxQHY2g0X3RhMTEWMBQGCSqGSIb3DQEJARYHY2g0X3Rh
MTAeFw0xMTAzMjEwMDQ5MjRaFw0xMzEyMTUwMDQ5MjRaMHQxCzAJBgNVBAYTAlVT
MRMwEQYDVQQIEwpDYWxpZm9ybmlhMRMwEQYDVQQHEwpNZW5sbyBQYXJrMQ0wCwYD
VQQKEwRwa2c1MRIwEAYDVQQDFAljaDUuMl90YTExGDAWBgkqhkiG9w0BCQEWCWNo
NS4yX3RhMTCBnzANBgkqhkiG9w0BAQEFAAOBjQAwgYkCgYEArmqOnez4VL77XK4C
9jLc4IynOiZiJ5NoLcV9hAquxdamYaXUC2ziuENqpK94p9xNtNWxhWdX0qhhxAgh
NAdM1YdxZYvTr0SHP/XVLUWDPlJNCm3LaFWO9LwrUG3maVBobKG+7M3ilpaWBI26
MrkNkIcP//Crd5JRrO82s2stF5MCAwEAAaOB4zCB4DAdBgNVHQ4EFgQUUVLHiKad
Mu+slb95EAtu92WUp/kwgZoGA1UdIwSBkjCBj4AUUoDWQFBH/YJag6Qkzj7cx+Fv
VgChdKRyMHAxCzAJBgNVBAYTAlVTMRMwEQYDVQQIEwpDYWxpZm9ybmlhMRMwEQYD
VQQHEwpNZW5sbyBQYXJrMQ0wCwYDVQQKEwRwa2c1MRAwDgYDVQQDFAdjaDNfdGEx
MRYwFAYJKoZIhvcNAQkBFgdjaDNfdGExggEEMBIGA1UdEwEB/wQIMAYBAf8CAQEw
DgYDVR0PAQH/BAQDAgEGMA0GCSqGSIb3DQEBCwUAA4GBAGGGqKnYnwgZzP2tJGUu
Z9w5eTV11cQGS+KEzoaauLnWAKRHQahXTwkttMt/QHOKo/6d6xQA8Oj1I7IwGTHZ
FZiW8muAnhFSsvXT7TA4x6DRIfx6mc0fqPxrCzEpAhoed8h1cF8Tz5ICeanh19kq
OPf/Co0hGlqOJR6MpwLw/+8C
-----END CERTIFICATE-----
