Certificate:
    Data:
        Version: 3 (0x2)
        Serial Number: 12 (0xc)
    Signature Algorithm: sha256WithRSAEncryption
        Issuer: C=US, ST=California, L=Santa Clara, O=pkg5, CN=ch3_ta1/emailAddress=ch3_ta1
        Validity
            Not Before: Jul 19 11:35:45 2023 GMT
            Not After : Apr 14 11:35:45 2026 GMT
        Subject: C=US, ST=California, L=Santa Clara, O=pkg5, CN=ch4.3_ta1/emailAddress=ch4.3_ta1
        Subject Public Key Info:
            Public Key Algorithm: rsaEncryption
                Public-Key: (2048 bit)
                Modulus:
                    00:d7:ca:bd:02:ff:3c:d2:ed:03:11:79:d8:6a:3f:
                    19:30:1a:ac:6d:04:ac:8c:39:b6:86:14:a6:87:c5:
                    c9:97:c0:af:af:8f:eb:0c:98:ab:f5:0d:2c:b4:26:
                    03:aa:cc:67:de:15:db:e3:81:1b:b0:09:c2:33:28:
                    6a:b1:e3:93:68:61:c1:c0:2d:ed:ff:5b:82:27:a1:
                    46:bd:28:2b:56:5c:3a:3c:36:68:be:50:03:8d:db:
                    42:0d:00:22:40:43:b5:9e:62:38:a1:0a:ac:1b:83:
                    f1:dc:ba:82:49:5e:7c:d6:e4:ea:99:a9:92:67:1c:
                    a3:80:d2:28:95:10:35:8f:64:1b:3a:8b:e7:42:00:
                    b1:e0:8e:8d:f2:cc:c9:67:40:c0:80:3c:2f:06:11:
                    d4:89:21:7f:a2:3d:82:6a:15:69:11:8d:97:c8:83:
                    45:27:70:fb:b9:38:ab:b2:0e:ba:00:8a:f3:2d:53:
                    fc:8e:df:ea:a9:ac:8a:68:1c:3b:43:d0:7a:c2:f2:
                    0c:92:1b:5c:f1:6a:0f:77:9b:28:71:17:60:ea:97:
                    3f:9a:1e:e1:5b:a0:f9:ea:92:55:94:8e:68:ba:5b:
                    fe:8a:bb:a6:92:f4:9c:44:ce:a6:c5:fa:a9:43:41:
                    a4:ae:60:1d:dd:2d:d9:5d:2e:23:a0:f7:12:55:9f:
                    13:71
                Exponent: 65537 (0x10001)
        X509v3 extensions:
            X509v3 Subject Key Identifier: 
                40:FA:8A:12:CF:53:25:89:E6:A3:4A:9D:46:D7:FE:26:EF:15:D1:D9
            X509v3 Authority Key Identifier: 
                keyid:7F:6A:6C:0C:20:00:E4:06:0B:BF:66:BE:D8:85:FE:28:4E:A5:23:8E
                DirName:/C=US/ST=California/L=Santa Clara/O=pkg5/CN=ch2_ta1/emailAddress=ch2_ta1
                serial:03

            X509v3 Basic Constraints: critical
                CA:TRUE, pathlen:0
            X509v3 Key Usage: critical
                Certificate Sign, CRL Sign
    Signature Algorithm: sha256WithRSAEncryption
         9a:80:d3:07:3f:d1:a1:60:0a:25:aa:14:21:0b:73:e0:1c:98:
         9b:a5:02:84:f8:80:66:be:a7:ad:81:c2:e6:47:3a:01:cc:db:
         4f:57:03:7c:f5:2b:da:4c:1a:5c:f2:1c:81:d8:94:c2:33:cc:
         33:d8:1a:a0:b1:6d:25:ec:e2:2e:02:9f:ff:cc:21:56:2a:25:
         76:75:c5:06:d2:69:10:7d:82:85:20:e7:92:23:7d:31:5f:a8:
         d3:91:fa:a1:fa:42:01:e3:ad:cd:4b:75:bc:94:e3:92:ea:35:
         3b:63:b8:24:54:97:42:bf:1a:26:d4:85:01:da:73:ec:2b:ee:
         46:9d:0f:57:38:c3:dd:75:7b:68:2a:d9:2d:be:95:04:5f:da:
         35:94:b8:1b:f5:7e:06:81:50:81:a8:87:34:29:48:84:5e:31:
         ad:dd:9f:a6:46:0a:25:8e:10:6c:79:3b:e9:f5:6c:5d:53:65:
         a2:78:6c:48:db:b6:db:f7:1d:a6:db:b2:30:9b:3f:26:8f:86:
         be:ba:8f:43:bc:92:61:ae:69:f5:4c:d5:f1:91:e5:f0:14:b8:
         f6:58:cf:d7:16:5c:74:11:c9:d1:1b:8c:85:2e:de:ef:6a:44:
         96:4c:28:cd:4c:97:38:14:33:26:70:80:97:63:0e:0e:5f:9a:
         20:52:59:ef
-----BEGIN CERTIFICATE-----
MIIERjCCAy6gAwIBAgIBDDANBgkqhkiG9w0BAQsFADBxMQswCQYDVQQGEwJVUzET
MBEGA1UECAwKQ2FsaWZvcm5pYTEUMBIGA1UEBwwLU2FudGEgQ2xhcmExDTALBgNV
BAoMBHBrZzUxEDAOBgNVBAMMB2NoM190YTExFjAUBgkqhkiG9w0BCQEWB2NoM190
YTEwHhcNMjMwNzE5MTEzNTQ1WhcNMjYwNDE0MTEzNTQ1WjB1MQswCQYDVQQGEwJV
UzETMBEGA1UECAwKQ2FsaWZvcm5pYTEUMBIGA1UEBwwLU2FudGEgQ2xhcmExDTAL
BgNVBAoMBHBrZzUxEjAQBgNVBAMMCWNoNC4zX3RhMTEYMBYGCSqGSIb3DQEJARYJ
Y2g0LjNfdGExMIIBIjANBgkqhkiG9w0BAQEFAAOCAQ8AMIIBCgKCAQEA18q9Av88
0u0DEXnYaj8ZMBqsbQSsjDm2hhSmh8XJl8Cvr4/rDJir9Q0stCYDqsxn3hXb44Eb
sAnCMyhqseOTaGHBwC3t/1uCJ6FGvSgrVlw6PDZovlADjdtCDQAiQEO1nmI4oQqs
G4Px3LqCSV581uTqmamSZxyjgNIolRA1j2QbOovnQgCx4I6N8szJZ0DAgDwvBhHU
iSF/oj2CahVpEY2XyINFJ3D7uTirsg66AIrzLVP8jt/qqayKaBw7Q9B6wvIMkhtc
8WoPd5socRdg6pc/mh7hW6D56pJVlI5oulv+irumkvScRM6mxfqpQ0GkrmAd3S3Z
XS4joPcSVZ8TcQIDAQABo4HkMIHhMB0GA1UdDgQWBBRA+ooSz1MlieajSp1G1/4m
7xXR2TCBmwYDVR0jBIGTMIGQgBR/amwMIADkBgu/Zr7Yhf4oTqUjjqF1pHMwcTEL
MAkGA1UEBhMCVVMxEzARBgNVBAgMCkNhbGlmb3JuaWExFDASBgNVBAcMC1NhbnRh
IENsYXJhMQ0wCwYDVQQKDARwa2c1MRAwDgYDVQQDDAdjaDJfdGExMRYwFAYJKoZI
hvcNAQkBFgdjaDJfdGExggEDMBIGA1UdEwEB/wQIMAYBAf8CAQAwDgYDVR0PAQH/
BAQDAgEGMA0GCSqGSIb3DQEBCwUAA4IBAQCagNMHP9GhYAolqhQhC3PgHJibpQKE
+IBmvqetgcLmRzoBzNtPVwN89SvaTBpc8hyB2JTCM8wz2BqgsW0l7OIuAp//zCFW
KiV2dcUG0mkQfYKFIOeSI30xX6jTkfqh+kIB463NS3W8lOOS6jU7Y7gkVJdCvxom
1IUB2nPsK+5GnQ9XOMPddXtoKtktvpUEX9o1lLgb9X4GgVCBqIc0KUiEXjGt3Z+m
RgoljhBseTvp9WxdU2WieGxI27bb9x2m27Iwmz8mj4a+uo9DvJJhrmn1TNXxkeXw
FLj2WM/XFlx0EcnRG4yFLt7vakSWTCjNTJc4FDMmcICXYw4OX5ogUlnv
-----END CERTIFICATE-----
