Certificate:
    Data:
        Version: 3 (0x2)
        Serial Number: 12 (0xc)
        Signature Algorithm: sha256WithRSAEncryption
        Issuer: C=US, ST=California, L=Menlo Park, O=pkg5, CN=ch3_ta1/emailAddress=ch3_ta1
        Validity
            Not Before: Mar 21 00:49:26 2011 GMT
            Not After : Dec 15 00:49:26 2013 GMT
        Subject: C=US, ST=California, L=Menlo Park, O=pkg5, CN=ch4.3_ta1/emailAddress=ch4.3_ta1
        Subject Public Key Info:
            Public Key Algorithm: rsaEncryption
            RSA Public Key: (1024 bit)
                Modulus (1024 bit):
                    00:bf:bb:29:f0:2f:1e:74:b0:bc:ea:4d:fe:c7:9b:
                    d3:4c:ce:d5:46:d1:11:ef:56:6f:9a:be:1a:53:c3:
                    04:3b:cd:10:14:87:67:c5:87:39:8e:a3:17:aa:42:
                    f4:09:cc:31:68:2a:6e:1c:50:2c:70:5a:de:59:10:
                    c0:74:ea:73:2b:06:1c:d9:20:29:f4:48:d5:c9:1e:
                    29:0a:9d:47:73:68:50:f4:75:34:06:93:d5:a9:7e:
                    b8:20:2e:6d:ef:79:c3:92:83:79:53:4b:26:9e:80:
                    32:19:5f:39:fe:44:7b:89:09:dc:63:7a:4c:ad:d6:
                    77:31:1a:9c:26:3c:af:3c:7b
                Exponent: 65537 (0x10001)
        X509v3 extensions:
            X509v3 Subject Key Identifier: 
                B2:F9:FB:5A:A8:19:23:A0:E6:D5:C5:4C:B0:2D:8B:01:65:7F:9E:49
            X509v3 Authority Key Identifier: 
                keyid:9D:49:C0:40:BE:F9:2D:9D:38:CF:BB:7C:6C:33:70:E3:13:2C:F9:05
                DirName:/C=US/ST=California/L=Menlo Park/O=pkg5/CN=ch2_ta1/emailAddress=ch2_ta1
                serial:03

            X509v3 Basic Constraints: critical
                CA:TRUE, pathlen:0
            X509v3 Key Usage: critical
                Certificate Sign, CRL Sign
    Signature Algorithm: sha256WithRSAEncryption
        44:f7:b5:6e:5f:59:fc:8f:11:6f:c8:52:14:e2:f6:e2:13:36:
        03:88:ab:7f:86:bc:56:a6:d8:f1:94:bd:ac:48:36:f5:af:5d:
        63:f5:47:1e:03:ac:64:2d:08:ee:1c:4f:0b:08:3d:cf:48:0a:
        2b:94:12:d7:b7:96:00:d0:76:e6:3b:63:fa:ea:2a:c8:46:04:
        94:9e:a2:51:88:b5:54:96:63:6d:a5:10:f2:6c:3b:fb:2b:ef:
        cc:ee:8a:d4:c1:a0:05:e4:c0:4f:23:dc:2b:5b:c3:18:37:68:
        90:98:3d:12:17:e0:b8:e4:38:75:34:58:08:03:05:15:3d:b7:
        b6:64
-----BEGIN CERTIFICATE-----
MIIDPjCCAqegAwIBAgIBDDANBgkqhkiG9w0BAQsFADBwMQswCQYDVQQGEwJVUzET
MBEGA1UECBMKQ2FsaWZvcm5pYTETMBEGA1UEBxMKTWVubG8gUGFyazENMAsGA1UE
ChMEcGtnNTEQMA4GA1UEAxQHY2gzX3RhMTEWMBQGCSqGSIb3DQEJARYHY2gzX3Rh
MTAeFw0xMTAzMjEwMDQ5MjZaFw0xMzEyMTUwMDQ5MjZaMHQxCzAJBgNVBAYTAlVT
MRMwEQYDVQQIEwpDYWxpZm9ybmlhMRMwEQYDVQQHEwpNZW5sbyBQYXJrMQ0wCwYD
VQQKEwRwa2c1MRIwEAYDVQQDFAljaDQuM190YTExGDAWBgkqhkiG9w0BCQEWCWNo
NC4zX3RhMTCBnzANBgkqhkiG9w0BAQEFAAOBjQAwgYkCgYEAv7sp8C8edLC86k3+
x5vTTM7VRtER71Zvmr4aU8MEO80QFIdnxYc5jqMXqkL0CcwxaCpuHFAscFreWRDA
dOpzKwYc2SAp9EjVyR4pCp1Hc2hQ9HU0BpPVqX64IC5t73nDkoN5U0smnoAyGV85
/kR7iQncY3pMrdZ3MRqcJjyvPHsCAwEAAaOB4zCB4DAdBgNVHQ4EFgQUsvn7WqgZ
I6Dm1cVMsC2LAWV/nkkwgZoGA1UdIwSBkjCBj4AUnUnAQL75LZ04z7t8bDNw4xMs
+QWhdKRyMHAxCzAJBgNVBAYTAlVTMRMwEQYDVQQIEwpDYWxpZm9ybmlhMRMwEQYD
VQQHEwpNZW5sbyBQYXJrMQ0wCwYDVQQKEwRwa2c1MRAwDgYDVQQDFAdjaDJfdGEx
MRYwFAYJKoZIhvcNAQkBFgdjaDJfdGExggEDMBIGA1UdEwEB/wQIMAYBAf8CAQAw
DgYDVR0PAQH/BAQDAgEGMA0GCSqGSIb3DQEBCwUAA4GBAET3tW5fWfyPEW/IUhTi
9uITNgOIq3+GvFam2PGUvaxINvWvXWP1Rx4DrGQtCO4cTwsIPc9ICiuUEte3lgDQ
duY7Y/rqKshGBJSeolGItVSWY22lEPJsO/sr78zuitTBoAXkwE8j3Ctbwxg3aJCY
PRIX4LjkOHU0WAgDBRU9t7Zk
-----END CERTIFICATE-----
