Certificate:
    Data:
        Version: 3 (0x2)
        Serial Number: 13 (0xd)
    Signature Algorithm: sha256WithRSAEncryption
        Issuer: C=US, ST=California, L=Santa Clara, O=pkg5, CN=ch4.3_ta1/emailAddress=ch4.3_ta1
        Validity
            Not Before: Jul 19 11:35:45 2023 GMT
            Not After : Apr 14 11:35:45 2026 GMT
        Subject: C=US, ST=California, L=Santa Clara, O=pkg5, CN=ch5.3_ta1/emailAddress=ch5.3_ta1
        Subject Public Key Info:
            Public Key Algorithm: rsaEncryption
                Public-Key: (2048 bit)
                Modulus:
                    00:d2:1c:b3:2c:6f:b7:cd:3b:e8:c9:f1:dd:e5:0c:
                    c5:63:b0:be:ab:84:5a:57:1b:93:a0:a7:78:8b:ad:
                    84:ee:8c:b5:e5:65:f3:1d:c7:1d:f1:73:6a:85:e3:
                    ae:5f:97:b1:f8:a9:ff:67:72:2d:7f:0d:42:c8:74:
                    96:a1:10:64:44:3a:42:64:39:cd:81:8e:6d:96:32:
                    af:14:8e:e8:7d:6a:f7:e1:a9:70:b1:ca:6a:a1:36:
                    f6:66:21:db:c6:75:c1:60:e0:5b:1c:b8:6b:6d:d0:
                    93:c6:cf:bb:84:ac:b2:2e:8e:f0:e4:58:17:c5:a9:
                    7a:ca:2e:af:15:23:5a:84:01:90:91:cf:22:bd:26:
                    a1:e6:9c:39:f8:5d:06:3a:6a:fc:43:61:f4:82:f8:
                    5d:ba:4e:8f:f7:e8:d9:4f:7e:94:b5:d6:3a:87:8e:
                    72:31:c2:42:6d:21:69:d2:04:00:a9:7a:91:44:22:
                    d4:c5:e7:5d:29:fd:ee:69:32:27:1f:98:00:8a:cd:
                    93:96:ec:b2:8c:d9:a8:fc:de:24:b1:a7:ac:7b:19:
                    1e:be:f6:ad:0e:57:24:3e:4d:cd:95:5e:7a:61:a4:
                    4c:24:e5:e8:26:ea:ea:9d:69:07:d6:36:c5:7c:97:
                    d7:c8:1e:92:cb:24:6f:8e:6a:d1:2c:3a:8d:51:e9:
                    64:2b
                Exponent: 65537 (0x10001)
        X509v3 extensions:
            X509v3 Subject Key Identifier: 
                2B:84:54:D3:1F:53:84:6D:52:73:3A:E8:2E:A2:38:40:CD:EC:BF:1B
            X509v3 Authority Key Identifier: 
                keyid:40:FA:8A:12:CF:53:25:89:E6:A3:4A:9D:46:D7:FE:26:EF:15:D1:D9
                DirName:/C=US/ST=California/L=Santa Clara/O=pkg5/CN=ch3_ta1/emailAddress=ch3_ta1
                serial:0C

            X509v3 Basic Constraints: critical
                CA:TRUE, pathlen:0
            X509v3 Key Usage: critical
                Certificate Sign, CRL Sign
    Signature Algorithm: sha256WithRSAEncryption
         13:41:1d:4e:f2:7f:76:27:86:3e:92:fa:57:16:38:35:4a:f8:
         a9:2a:e0:62:9c:99:95:7c:97:cc:3c:76:a5:b9:26:fc:52:42:
         d0:6a:12:d5:70:2f:ba:d4:c4:7f:c7:1e:18:32:7a:26:7d:86:
         c8:75:26:1b:14:06:0a:13:8b:23:64:8d:92:82:2f:a7:a0:c4:
         ba:a0:32:1b:61:0d:e0:0f:f1:a8:16:61:4a:54:c3:17:b1:b5:
         0c:30:37:12:cb:63:83:a7:85:91:ad:ec:8f:82:7a:d9:13:ef:
         4a:f4:4d:8f:90:ce:6c:8f:13:69:5f:d1:3d:e3:1b:4e:30:b4:
         6c:15:42:a0:05:28:f4:99:4c:22:00:c0:09:91:18:f8:08:ab:
         77:4d:58:cf:c0:2e:91:5b:e2:9c:36:3f:ef:52:fc:01:57:d6:
         a1:7e:28:bb:24:a1:dd:3b:a7:dc:39:6f:d9:a5:a0:df:b2:d5:
         e7:47:10:c3:59:15:62:6a:dc:18:cc:ac:82:25:52:f8:ef:2d:
         1c:cf:9b:65:4d:fb:58:73:e6:41:e2:71:d7:4e:43:8d:12:2a:
         ce:20:46:e1:7e:07:8d:06:db:35:16:54:1d:c6:a7:f3:82:d2:
         79:67:cc:4f:4f:f7:17:e0:0a:37:dd:72:40:cd:3a:39:60:81:
         93:d4:c2:ec
-----BEGIN CERTIFICATE-----
MIIESjCCAzKgAwIBAgIBDTANBgkqhkiG9w0BAQsFADB1MQswCQYDVQQGEwJVUzET
MBEGA1UECAwKQ2FsaWZvcm5pYTEUMBIGA1UEBwwLU2FudGEgQ2xhcmExDTALBgNV
BAoMBHBrZzUxEjAQBgNVBAMMCWNoNC4zX3RhMTEYMBYGCSqGSIb3DQEJARYJY2g0
LjNfdGExMB4XDTIzMDcxOTExMzU0NVoXDTI2MDQxNDExMzU0NVowdTELMAkGA1UE
BhMCVVMxEzARBgNVBAgMCkNhbGlmb3JuaWExFDASBgNVBAcMC1NhbnRhIENsYXJh
MQ0wCwYDVQQKDARwa2c1MRIwEAYDVQQDDAljaDUuM190YTExGDAWBgkqhkiG9w0B
CQEWCWNoNS4zX3RhMTCCASIwDQYJKoZIhvcNAQEBBQADggEPADCCAQoCggEBANIc
syxvt8076Mnx3eUMxWOwvquEWlcbk6CneIuthO6MteVl8x3HHfFzaoXjrl+Xsfip
/2dyLX8NQsh0lqEQZEQ6QmQ5zYGObZYyrxSO6H1q9+GpcLHKaqE29mYh28Z1wWDg
Wxy4a23Qk8bPu4Sssi6O8ORYF8WpesourxUjWoQBkJHPIr0moeacOfhdBjpq/ENh
9IL4XbpOj/fo2U9+lLXWOoeOcjHCQm0hadIEAKl6kUQi1MXnXSn97mkyJx+YAIrN
k5bssozZqPzeJLGnrHsZHr72rQ5XJD5NzZVeemGkTCTl6Cbq6p1pB9Y2xXyX18ge
ksskb45q0Sw6jVHpZCsCAwEAAaOB5DCB4TAdBgNVHQ4EFgQUK4RU0x9ThG1Sczro
LqI4QM3svxswgZsGA1UdIwSBkzCBkIAUQPqKEs9TJYnmo0qdRtf+Ju8V0dmhdaRz
MHExCzAJBgNVBAYTAlVTMRMwEQYDVQQIDApDYWxpZm9ybmlhMRQwEgYDVQQHDAtT
YW50YSBDbGFyYTENMAsGA1UECgwEcGtnNTEQMA4GA1UEAwwHY2gzX3RhMTEWMBQG
CSqGSIb3DQEJARYHY2gzX3RhMYIBDDASBgNVHRMBAf8ECDAGAQH/AgEAMA4GA1Ud
DwEB/wQEAwIBBjANBgkqhkiG9w0BAQsFAAOCAQEAE0EdTvJ/dieGPpL6VxY4NUr4
qSrgYpyZlXyXzDx2pbkm/FJC0GoS1XAvutTEf8ceGDJ6Jn2GyHUmGxQGChOLI2SN
koIvp6DEuqAyG2EN4A/xqBZhSlTDF7G1DDA3Estjg6eFka3sj4J62RPvSvRNj5DO
bI8TaV/RPeMbTjC0bBVCoAUo9JlMIgDACZEY+Aird01Yz8AukVvinDY/71L8AVfW
oX4ouySh3Tun3Dlv2aWg37LV50cQw1kVYmrcGMysgiVS+O8tHM+bZU37WHPmQeJx
105DjRIqziBG4X4HjQbbNRZUHcan84LSeWfMT0/3F+AKN91yQM06OWCBk9TC7A==
-----END CERTIFICATE-----
