Certificate:
    Data:
        Version: 3 (0x2)
        Serial Number: 13 (0xd)
    Signature Algorithm: sha256WithRSAEncryption
        Issuer: C=US, ST=California, L=Santa Clara, O=pkg5, CN=ch4.3_ta1/emailAddress=ch4.3_ta1
        Validity
            Not Before: Sep 22 05:33:19 2021 GMT
            Not After : Jun 18 05:33:19 2024 GMT
        Subject: C=US, ST=California, L=Santa Clara, O=pkg5, CN=ch5.3_ta1/emailAddress=ch5.3_ta1
        Subject Public Key Info:
            Public Key Algorithm: rsaEncryption
                Public-Key: (2048 bit)
                Modulus:
                    00:c1:52:a2:a2:c4:be:e9:0f:50:bd:61:2f:29:64:
                    5a:36:02:7e:72:6f:47:ac:7a:39:40:51:36:14:db:
                    80:bc:46:4b:44:38:42:51:f8:6c:be:42:c3:ae:68:
                    e7:a5:a0:2f:0b:9c:d3:4d:2d:bc:b8:bf:a2:4c:b1:
                    a6:a5:4a:81:8a:ac:1f:06:dd:65:a1:20:c7:a3:ce:
                    76:d0:52:af:22:43:52:50:6f:cf:6d:a5:e0:19:9d:
                    0c:04:09:41:d5:f9:11:ef:57:77:5b:4c:ed:27:d8:
                    91:f6:bb:3c:8c:93:30:4e:14:87:35:55:d4:75:3e:
                    d5:9c:72:d4:f0:cf:6c:b7:16:69:68:de:a9:f5:77:
                    43:a8:7d:91:d7:2b:63:80:96:49:0a:5b:1d:67:a1:
                    a2:cb:14:16:8f:29:f7:ae:29:5d:f8:a2:84:9b:72:
                    ec:e1:f9:47:fb:77:d7:04:07:42:31:e3:0a:a4:4e:
                    4f:fd:31:d7:d5:54:59:a4:ad:23:2b:d8:18:65:02:
                    9b:b3:c0:41:33:31:5c:35:f8:e4:5d:1d:b7:c3:eb:
                    93:22:69:2c:42:d8:cd:34:d8:0f:b8:4e:ce:57:fe:
                    1d:76:85:d3:14:0d:03:93:d8:79:36:b1:f5:1f:70:
                    86:b5:28:87:b7:0a:3b:eb:55:6d:7d:ac:de:18:ae:
                    70:cb
                Exponent: 65537 (0x10001)
        X509v3 extensions:
            X509v3 Subject Key Identifier: 
                78:1E:57:8D:0F:F3:00:9A:AC:44:26:2A:57:6A:DE:7D:7A:26:DF:F1
            X509v3 Authority Key Identifier: 
                keyid:DC:08:89:5E:50:4D:B3:6A:A9:55:77:B3:26:AB:80:55:C4:60:2E:AE
                DirName:/C=US/ST=California/L=Santa Clara/O=pkg5/CN=ch3_ta1/emailAddress=ch3_ta1
                serial:0C

            X509v3 Basic Constraints: critical
                CA:TRUE, pathlen:0
            X509v3 Key Usage: critical
                Certificate Sign, CRL Sign
    Signature Algorithm: sha256WithRSAEncryption
         b1:5a:0f:24:b6:71:65:61:d8:ac:df:65:e2:53:37:65:b6:51:
         f2:35:8f:42:68:5b:69:e6:82:34:9c:cb:e2:64:64:76:ab:0c:
         21:f7:aa:3e:8d:7f:31:3d:dd:4b:9f:fc:d8:f6:81:e2:53:c7:
         36:b3:2c:91:b0:5a:d2:f3:3f:a5:c0:ac:29:6a:3c:d5:cb:f7:
         ea:87:55:22:91:8d:98:4a:bd:ea:eb:fb:2e:1f:fb:e6:0e:41:
         08:0f:91:de:33:7e:a4:6b:34:ff:c8:b4:25:30:80:c3:84:52:
         79:8f:40:5d:7f:b6:41:59:af:3e:b1:f0:8c:c5:95:10:15:3a:
         2c:69:ed:bc:e2:ad:06:3a:bf:2d:0e:84:ac:c1:39:df:19:48:
         57:fa:98:8e:cf:61:b2:ca:31:bf:80:f8:74:1e:e1:b1:a3:61:
         ce:8d:b9:60:79:b9:c9:a6:76:c1:83:87:46:7d:b5:ae:19:53:
         c1:ad:02:76:df:98:cb:a8:9c:44:9d:6c:bd:cf:80:c2:65:14:
         7c:59:e4:51:51:74:e8:41:d9:2f:82:16:b6:22:b2:74:86:f2:
         b2:fe:d0:8c:6e:ac:d3:af:13:12:fa:b5:61:e1:bf:6e:f0:0e:
         8d:b9:95:8b:ec:2c:d5:3b:39:0d:0a:bd:64:8a:88:e0:cf:89:
         b9:e7:71:7b
-----BEGIN CERTIFICATE-----
MIIESjCCAzKgAwIBAgIBDTANBgkqhkiG9w0BAQsFADB1MQswCQYDVQQGEwJVUzET
MBEGA1UECAwKQ2FsaWZvcm5pYTEUMBIGA1UEBwwLU2FudGEgQ2xhcmExDTALBgNV
BAoMBHBrZzUxEjAQBgNVBAMMCWNoNC4zX3RhMTEYMBYGCSqGSIb3DQEJARYJY2g0
LjNfdGExMB4XDTIxMDkyMjA1MzMxOVoXDTI0MDYxODA1MzMxOVowdTELMAkGA1UE
BhMCVVMxEzARBgNVBAgMCkNhbGlmb3JuaWExFDASBgNVBAcMC1NhbnRhIENsYXJh
MQ0wCwYDVQQKDARwa2c1MRIwEAYDVQQDDAljaDUuM190YTExGDAWBgkqhkiG9w0B
CQEWCWNoNS4zX3RhMTCCASIwDQYJKoZIhvcNAQEBBQADggEPADCCAQoCggEBAMFS
oqLEvukPUL1hLylkWjYCfnJvR6x6OUBRNhTbgLxGS0Q4QlH4bL5Cw65o56WgLwuc
000tvLi/okyxpqVKgYqsHwbdZaEgx6POdtBSryJDUlBvz22l4BmdDAQJQdX5Ee9X
d1tM7SfYkfa7PIyTME4UhzVV1HU+1Zxy1PDPbLcWaWjeqfV3Q6h9kdcrY4CWSQpb
HWehossUFo8p964pXfiihJty7OH5R/t31wQHQjHjCqROT/0x19VUWaStIyvYGGUC
m7PAQTMxXDX45F0dt8PrkyJpLELYzTTYD7hOzlf+HXaF0xQNA5PYeTax9R9whrUo
h7cKO+tVbX2s3hiucMsCAwEAAaOB5DCB4TAdBgNVHQ4EFgQUeB5XjQ/zAJqsRCYq
V2refXom3/EwgZsGA1UdIwSBkzCBkIAU3AiJXlBNs2qpVXezJquAVcRgLq6hdaRz
MHExCzAJBgNVBAYTAlVTMRMwEQYDVQQIDApDYWxpZm9ybmlhMRQwEgYDVQQHDAtT
YW50YSBDbGFyYTENMAsGA1UECgwEcGtnNTEQMA4GA1UEAwwHY2gzX3RhMTEWMBQG
CSqGSIb3DQEJARYHY2gzX3RhMYIBDDASBgNVHRMBAf8ECDAGAQH/AgEAMA4GA1Ud
DwEB/wQEAwIBBjANBgkqhkiG9w0BAQsFAAOCAQEAsVoPJLZxZWHYrN9l4lM3ZbZR
8jWPQmhbaeaCNJzL4mRkdqsMIfeqPo1/MT3dS5/82PaB4lPHNrMskbBa0vM/pcCs
KWo81cv36odVIpGNmEq96uv7Lh/75g5BCA+R3jN+pGs0/8i0JTCAw4RSeY9AXX+2
QVmvPrHwjMWVEBU6LGntvOKtBjq/LQ6ErME53xlIV/qYjs9hssoxv4D4dB7hsaNh
zo25YHm5yaZ2wYOHRn21rhlTwa0Cdt+Yy6icRJ1svc+AwmUUfFnkUVF06EHZL4IW
tiKydIbysv7QjG6s068TEvq1YeG/bvAOjbmVi+ws1Ts5DQq9ZIqI4M+Juedxew==
-----END CERTIFICATE-----
