Certificate:
    Data:
        Version: 3 (0x2)
        Serial Number: 13 (0xd)
        Signature Algorithm: sha256WithRSAEncryption
        Issuer: C=US, ST=California, L=Menlo Park, O=pkg5, CN=ch4.3_ta1/emailAddress=ch4.3_ta1
        Validity
            Not Before: Apr 11 22:37:42 2011 GMT
            Not After : Jan  5 22:37:42 2014 GMT
        Subject: C=US, ST=California, L=Menlo Park, O=pkg5, CN=ch5.3_ta1/emailAddress=ch5.3_ta1
        Subject Public Key Info:
            Public Key Algorithm: rsaEncryption
            RSA Public Key: (1024 bit)
                Modulus (1024 bit):
                    00:be:99:38:81:c2:5f:37:c3:d2:cc:7f:01:19:61:
                    8d:8b:57:70:3a:2c:36:c1:c8:e4:a6:33:2a:bc:27:
                    e9:cf:d7:ca:49:90:d2:e0:f1:82:0e:7d:50:aa:e3:
                    8c:ca:07:61:bf:d3:fd:1e:f3:af:ec:00:dd:d2:ab:
                    70:6a:1a:5a:00:32:ec:04:a3:a4:25:b1:82:1d:90:
                    3c:f9:ae:91:90:d7:d6:c2:0e:8d:31:55:62:e2:6b:
                    10:e0:10:6f:33:93:78:2f:58:b7:46:f4:b9:1a:4c:
                    fd:81:b2:66:42:95:4b:a1:ff:46:9e:9d:f6:32:56:
                    63:88:bc:83:43:54:bb:ce:a1
                Exponent: 65537 (0x10001)
        X509v3 extensions:
            X509v3 Subject Key Identifier: 
                9F:45:5B:75:2A:5E:64:78:D2:D9:6F:34:3C:19:AE:27:DE:D7:6C:98
            X509v3 Authority Key Identifier: 
                keyid:9E:F5:29:85:12:A6:F3:26:1C:25:81:F4:75:82:9E:80:B1:33:8D:BE
                DirName:/C=US/ST=California/L=Menlo Park/O=pkg5/CN=ch3_ta1/emailAddress=ch3_ta1
                serial:0C

            X509v3 Basic Constraints: critical
                CA:TRUE, pathlen:0
            X509v3 Key Usage: critical
                Certificate Sign, CRL Sign
    Signature Algorithm: sha256WithRSAEncryption
        62:7d:64:11:6a:5f:cd:6d:09:ae:5c:5f:d7:ef:5e:08:1f:c0:
        6d:b0:b5:a1:28:74:88:95:10:93:2b:50:a4:7f:f3:92:3c:75:
        23:ad:4b:e6:bd:ae:62:35:74:1c:0f:fd:00:e4:e7:e2:53:80:
        b9:c5:30:1e:47:83:39:a5:88:3d:9b:a2:ee:86:27:94:cb:f5:
        57:ba:91:ce:70:d7:12:a0:61:39:64:af:70:91:12:41:5e:4c:
        7e:5d:5e:b0:42:05:31:e5:13:fd:bc:86:cc:b6:bc:4e:4c:69:
        b6:2f:0e:63:80:16:c2:6d:7c:68:07:b6:a7:b4:04:ff:0b:97:
        51:ee
-----BEGIN CERTIFICATE-----
MIIDQjCCAqugAwIBAgIBDTANBgkqhkiG9w0BAQsFADB0MQswCQYDVQQGEwJVUzET
MBEGA1UECBMKQ2FsaWZvcm5pYTETMBEGA1UEBxMKTWVubG8gUGFyazENMAsGA1UE
ChMEcGtnNTESMBAGA1UEAxQJY2g0LjNfdGExMRgwFgYJKoZIhvcNAQkBFgljaDQu
M190YTEwHhcNMTEwNDExMjIzNzQyWhcNMTQwMTA1MjIzNzQyWjB0MQswCQYDVQQG
EwJVUzETMBEGA1UECBMKQ2FsaWZvcm5pYTETMBEGA1UEBxMKTWVubG8gUGFyazEN
MAsGA1UEChMEcGtnNTESMBAGA1UEAxQJY2g1LjNfdGExMRgwFgYJKoZIhvcNAQkB
FgljaDUuM190YTEwgZ8wDQYJKoZIhvcNAQEBBQADgY0AMIGJAoGBAL6ZOIHCXzfD
0sx/ARlhjYtXcDosNsHI5KYzKrwn6c/XykmQ0uDxgg59UKrjjMoHYb/T/R7zr+wA
3dKrcGoaWgAy7ASjpCWxgh2QPPmukZDX1sIOjTFVYuJrEOAQbzOTeC9Yt0b0uRpM
/YGyZkKVS6H/Rp6d9jJWY4i8g0NUu86hAgMBAAGjgeMwgeAwHQYDVR0OBBYEFJ9F
W3UqXmR40tlvNDwZrife12yYMIGaBgNVHSMEgZIwgY+AFJ71KYUSpvMmHCWB9HWC
noCxM42+oXSkcjBwMQswCQYDVQQGEwJVUzETMBEGA1UECBMKQ2FsaWZvcm5pYTET
MBEGA1UEBxMKTWVubG8gUGFyazENMAsGA1UEChMEcGtnNTEQMA4GA1UEAxQHY2gz
X3RhMTEWMBQGCSqGSIb3DQEJARYHY2gzX3RhMYIBDDASBgNVHRMBAf8ECDAGAQH/
AgEAMA4GA1UdDwEB/wQEAwIBBjANBgkqhkiG9w0BAQsFAAOBgQBifWQRal/NbQmu
XF/X714IH8BtsLWhKHSIlRCTK1Ckf/OSPHUjrUvmva5iNXQcD/0A5OfiU4C5xTAe
R4M5pYg9m6LuhieUy/VXupHOcNcSoGE5ZK9wkRJBXkx+XV6wQgUx5RP9vIbMtrxO
TGm2Lw5jgBbCbXxoB7antAT/C5dR7g==
-----END CERTIFICATE-----
