Certificate:
    Data:
        Version: 3 (0x2)
        Serial Number: 13 (0xd)
        Signature Algorithm: sha256WithRSAEncryption
        Issuer: C=US, ST=California, L=Santa Clara, O=pkg5, CN=ch4.3_ta1/emailAddress=ch4.3_ta1
        Validity
            Not Before: Mar 18 08:51:32 2026 GMT
            Not After : Dec 12 08:51:32 2028 GMT
        Subject: C=US, ST=California, L=Santa Clara, O=pkg5, CN=ch5.3_ta1/emailAddress=ch5.3_ta1
        Subject Public Key Info:
            Public Key Algorithm: rsaEncryption
                Public-Key: (2048 bit)
                Modulus:
                    00:b4:7f:43:e9:3c:0e:51:55:ff:3d:91:8d:19:3e:
                    fe:44:1f:63:4b:01:15:b8:43:6a:e4:1d:06:e6:5f:
                    dc:63:98:9d:52:3c:65:7b:45:7f:03:4b:b0:d0:0a:
                    68:bc:03:9e:2e:1b:52:ef:f4:29:c2:c9:5a:e7:54:
                    a1:86:b4:d7:45:f9:59:16:e0:aa:35:51:19:bd:e7:
                    72:c3:26:0e:1f:fa:52:dc:68:72:da:51:d9:e5:4c:
                    a7:6c:bc:f4:c4:06:92:bd:a8:d8:42:45:58:20:81:
                    82:c8:1d:90:b1:b8:af:75:99:31:f6:ef:dd:57:74:
                    90:0d:61:bc:0a:38:be:40:5a:5f:e8:c8:d1:cc:ec:
                    b7:58:95:05:83:fe:01:93:f7:2d:d1:d2:a8:52:3b:
                    de:92:73:3b:99:3a:1c:e1:f6:66:30:73:65:8d:1b:
                    51:8e:4d:e7:de:77:9d:f9:a5:ed:a9:fd:cb:8a:4e:
                    72:93:ec:1b:ec:38:d3:d8:86:e1:d4:8f:b8:c2:7f:
                    33:0d:96:e7:9b:9b:3c:1b:dd:b8:65:9d:d1:fb:94:
                    84:c3:95:15:b5:df:b7:2d:d2:06:a1:16:53:75:03:
                    54:1e:9e:67:28:58:c7:93:36:5b:4c:66:de:6d:e1:
                    44:6c:07:8a:a7:43:71:ae:45:48:40:b2:6d:a9:36:
                    e0:8d
                Exponent: 65537 (0x10001)
        X509v3 extensions:
            X509v3 Subject Key Identifier: 
                42:85:4A:38:16:EF:35:BF:DA:EF:A5:6A:1D:3B:FC:EB:86:A8:55:31
            X509v3 Authority Key Identifier: 
                keyid:FB:32:B9:60:FB:73:89:4B:0C:16:72:9A:9A:65:35:08:82:A7:33:85
                DirName:/C=US/ST=California/L=Santa Clara/O=pkg5/CN=ch3_ta1/emailAddress=ch3_ta1
                serial:0C
            X509v3 Basic Constraints: critical
                CA:TRUE, pathlen:0
            X509v3 Key Usage: critical
                Certificate Sign, CRL Sign
    Signature Algorithm: sha256WithRSAEncryption
    Signature Value:
        5e:d9:b2:72:72:63:5b:6f:f3:71:7e:93:4b:b9:38:db:84:96:
        d0:af:2d:49:21:fc:c5:ea:3c:ac:61:8e:7a:c2:9c:de:b0:3d:
        84:fb:db:9e:81:e0:fc:fd:c1:39:0c:bd:79:79:30:65:24:86:
        ff:06:72:8c:e1:1e:7e:d1:2f:e7:8f:bf:22:94:aa:d1:2a:de:
        a1:91:33:1f:9b:c9:7d:09:01:17:5f:5c:0a:29:9b:63:4f:ec:
        fa:3b:0c:a0:08:52:d8:42:6e:48:41:a2:50:33:d1:ed:1b:76:
        73:d8:6b:1b:60:9c:b9:31:10:91:97:b8:ee:7d:a5:0d:da:97:
        fd:5e:10:81:bf:15:0c:40:76:12:9e:73:b2:26:bb:10:5a:9c:
        6a:c2:8b:11:b4:e9:3e:ac:90:22:3d:7b:d2:06:aa:51:4f:54:
        90:4c:b2:eb:cf:af:43:5f:43:c1:dd:90:09:bd:bd:17:b5:84:
        33:00:d6:81:73:6a:b2:14:b2:ba:c5:26:42:b4:6a:33:d9:7f:
        a7:3c:6a:bc:5a:9a:17:f4:9c:04:1b:f5:cf:9f:fe:05:76:f2:
        69:fb:68:4a:ee:0b:9a:25:da:11:4b:5b:93:4f:15:3c:18:d1:
        b4:97:69:2a:d5:f2:10:fe:1d:df:d8:e1:56:08:2f:ce:73:c3:
        76:c8:d3:e6
-----BEGIN CERTIFICATE-----
MIIESjCCAzKgAwIBAgIBDTANBgkqhkiG9w0BAQsFADB1MQswCQYDVQQGEwJVUzET
MBEGA1UECAwKQ2FsaWZvcm5pYTEUMBIGA1UEBwwLU2FudGEgQ2xhcmExDTALBgNV
BAoMBHBrZzUxEjAQBgNVBAMMCWNoNC4zX3RhMTEYMBYGCSqGSIb3DQEJARYJY2g0
LjNfdGExMB4XDTI2MDMxODA4NTEzMloXDTI4MTIxMjA4NTEzMlowdTELMAkGA1UE
BhMCVVMxEzARBgNVBAgMCkNhbGlmb3JuaWExFDASBgNVBAcMC1NhbnRhIENsYXJh
MQ0wCwYDVQQKDARwa2c1MRIwEAYDVQQDDAljaDUuM190YTExGDAWBgkqhkiG9w0B
CQEWCWNoNS4zX3RhMTCCASIwDQYJKoZIhvcNAQEBBQADggEPADCCAQoCggEBALR/
Q+k8DlFV/z2RjRk+/kQfY0sBFbhDauQdBuZf3GOYnVI8ZXtFfwNLsNAKaLwDni4b
Uu/0KcLJWudUoYa010X5WRbgqjVRGb3ncsMmDh/6UtxoctpR2eVMp2y89MQGkr2o
2EJFWCCBgsgdkLG4r3WZMfbv3Vd0kA1hvAo4vkBaX+jI0czst1iVBYP+AZP3LdHS
qFI73pJzO5k6HOH2ZjBzZY0bUY5N5953nfml7an9y4pOcpPsG+w409iG4dSPuMJ/
Mw2W55ubPBvduGWd0fuUhMOVFbXfty3SBqEWU3UDVB6eZyhYx5M2W0xm3m3hRGwH
iqdDca5FSECybak24I0CAwEAAaOB5DCB4TAdBgNVHQ4EFgQUQoVKOBbvNb/a76Vq
HTv864aoVTEwgZsGA1UdIwSBkzCBkIAU+zK5YPtziUsMFnKammU1CIKnM4WhdaRz
MHExCzAJBgNVBAYTAlVTMRMwEQYDVQQIDApDYWxpZm9ybmlhMRQwEgYDVQQHDAtT
YW50YSBDbGFyYTENMAsGA1UECgwEcGtnNTEQMA4GA1UEAwwHY2gzX3RhMTEWMBQG
CSqGSIb3DQEJARYHY2gzX3RhMYIBDDASBgNVHRMBAf8ECDAGAQH/AgEAMA4GA1Ud
DwEB/wQEAwIBBjANBgkqhkiG9w0BAQsFAAOCAQEAXtmycnJjW2/zcX6TS7k424SW
0K8tSSH8xeo8rGGOesKc3rA9hPvbnoHg/P3BOQy9eXkwZSSG/wZyjOEeftEv54+/
IpSq0SreoZEzH5vJfQkBF19cCimbY0/s+jsMoAhS2EJuSEGiUDPR7Rt2c9hrG2Cc
uTEQkZe47n2lDdqX/V4Qgb8VDEB2Ep5zsia7EFqcasKLEbTpPqyQIj170gaqUU9U
kEyy68+vQ19Dwd2QCb29F7WEMwDWgXNqshSyusUmQrRqM9l/pzxqvFqaF/ScBBv1
z5/+BXbyaftoSu4LmiXaEUtbk08VPBjRtJdpKtXyEP4d39jhVggvznPDdsjT5g==
-----END CERTIFICATE-----
