Certificate:
    Data:
        Version: 3 (0x2)
        Serial Number: 13 (0xd)
    Signature Algorithm: sha256WithRSAEncryption
        Issuer: C=US, ST=California, L=Santa Clara, O=pkg5, CN=ch4.3_ta1/emailAddress=ch4.3_ta1
        Validity
            Not Before: Jan 22 15:33:08 2019 GMT
            Not After : Oct 18 15:33:08 2021 GMT
        Subject: C=US, ST=California, L=Santa Clara, O=pkg5, CN=ch5.3_ta1/emailAddress=ch5.3_ta1
        Subject Public Key Info:
            Public Key Algorithm: rsaEncryption
                Public-Key: (2048 bit)
                Modulus:
                    00:b3:9f:28:90:21:8e:dc:0d:78:10:d6:f1:6d:c1:
                    57:02:1d:92:d4:0a:19:79:c6:35:6a:07:04:b4:9b:
                    1b:67:9c:e5:1e:8c:ba:fd:f9:44:a0:15:9a:41:de:
                    dc:93:ca:64:b1:08:17:e8:6d:01:80:75:0b:86:6c:
                    45:c4:c8:49:c2:ad:12:84:88:0b:1d:45:1b:75:e7:
                    c6:6c:31:c9:9f:56:e1:e9:66:62:8a:8d:1c:0c:4f:
                    33:d9:35:9b:26:45:70:c0:dc:38:13:c7:dd:7f:bf:
                    cc:44:5d:da:e7:34:2e:73:9d:e4:81:e4:56:a0:14:
                    cb:04:2e:a3:6f:72:ea:9e:b2:1c:c6:c3:ac:cf:cd:
                    ab:80:f0:61:25:fb:1c:9c:76:fd:3d:f6:56:4b:96:
                    6f:f2:41:9a:39:d6:3a:95:a2:bd:d6:a0:bb:62:26:
                    ba:9f:26:ff:96:b8:59:80:2a:23:83:c0:41:59:c5:
                    71:27:02:86:9c:b7:12:c1:82:c2:51:42:01:3b:51:
                    a5:58:33:ef:27:50:79:30:b1:d0:be:20:f3:35:af:
                    fc:8c:13:0b:7f:c6:78:62:60:86:fb:26:3d:64:22:
                    32:c9:60:84:b9:f0:a4:36:2f:ab:d7:da:fa:ed:20:
                    53:32:1a:7d:fc:68:9d:6f:d8:97:d5:eb:5c:62:57:
                    73:69
                Exponent: 65537 (0x10001)
        X509v3 extensions:
            X509v3 Subject Key Identifier: 
                F6:54:8F:39:15:9C:10:A0:D7:91:3C:9A:2D:48:9E:E7:D9:45:58:98
            X509v3 Authority Key Identifier: 
                keyid:CE:B9:44:55:C1:62:56:34:1A:DB:4A:C7:D2:1D:93:71:F6:83:22:D5
                DirName:/C=US/ST=California/L=Santa Clara/O=pkg5/CN=ch3_ta1/emailAddress=ch3_ta1
                serial:0C

            X509v3 Basic Constraints: critical
                CA:TRUE, pathlen:0
            X509v3 Key Usage: critical
                Certificate Sign, CRL Sign
    Signature Algorithm: sha256WithRSAEncryption
         80:9c:6f:fd:7a:1e:60:d8:f8:01:c8:fc:37:18:67:01:d2:01:
         8f:ef:db:1f:08:82:12:15:be:26:37:50:03:77:fc:9d:ed:49:
         8b:9c:aa:bb:84:45:c1:77:2b:b4:c8:01:a3:05:c8:f6:b2:22:
         9c:3e:fb:0c:79:ca:4c:ae:55:62:7c:34:45:0f:02:e8:d7:be:
         a9:ed:d7:5c:39:2c:ff:9c:1b:07:9f:7c:37:3b:92:da:ae:43:
         10:77:4e:d5:fe:29:52:20:7e:f4:9d:21:69:9c:8d:51:37:3d:
         55:98:0a:7d:2f:a2:68:19:ba:45:1e:ee:5b:7b:65:18:03:fd:
         40:bd:92:4a:8a:a8:2a:22:12:ce:74:79:c9:99:df:9e:f5:33:
         e5:ea:41:b2:a8:19:5d:1b:64:f0:ed:d1:af:11:c6:40:67:f8:
         40:79:13:69:c5:9d:19:82:82:d1:49:c2:d3:88:7d:ed:85:e7:
         46:ee:c4:b2:91:c9:e6:ed:9e:d8:5c:f3:e2:71:c3:8a:c9:b7:
         23:d9:7f:5e:0f:9f:0c:c1:49:4e:21:2e:9c:c0:b2:2b:d8:1d:
         df:b5:a2:4f:9c:e7:f1:05:d4:75:3e:3d:87:29:99:74:a4:5c:
         0a:67:bd:53:23:de:af:0c:a4:27:51:1b:20:6f:ef:73:b1:b5:
         9d:d9:72:f4
-----BEGIN CERTIFICATE-----
MIIESjCCAzKgAwIBAgIBDTANBgkqhkiG9w0BAQsFADB1MQswCQYDVQQGEwJVUzET
MBEGA1UECAwKQ2FsaWZvcm5pYTEUMBIGA1UEBwwLU2FudGEgQ2xhcmExDTALBgNV
BAoMBHBrZzUxEjAQBgNVBAMMCWNoNC4zX3RhMTEYMBYGCSqGSIb3DQEJARYJY2g0
LjNfdGExMB4XDTE5MDEyMjE1MzMwOFoXDTIxMTAxODE1MzMwOFowdTELMAkGA1UE
BhMCVVMxEzARBgNVBAgMCkNhbGlmb3JuaWExFDASBgNVBAcMC1NhbnRhIENsYXJh
MQ0wCwYDVQQKDARwa2c1MRIwEAYDVQQDDAljaDUuM190YTExGDAWBgkqhkiG9w0B
CQEWCWNoNS4zX3RhMTCCASIwDQYJKoZIhvcNAQEBBQADggEPADCCAQoCggEBALOf
KJAhjtwNeBDW8W3BVwIdktQKGXnGNWoHBLSbG2ec5R6Muv35RKAVmkHe3JPKZLEI
F+htAYB1C4ZsRcTIScKtEoSICx1FG3XnxmwxyZ9W4elmYoqNHAxPM9k1myZFcMDc
OBPH3X+/zERd2uc0LnOd5IHkVqAUywQuo29y6p6yHMbDrM/Nq4DwYSX7HJx2/T32
VkuWb/JBmjnWOpWivdagu2Imup8m/5a4WYAqI4PAQVnFcScChpy3EsGCwlFCATtR
pVgz7ydQeTCx0L4g8zWv/IwTC3/GeGJghvsmPWQiMslghLnwpDYvq9fa+u0gUzIa
ffxonW/Yl9XrXGJXc2kCAwEAAaOB5DCB4TAdBgNVHQ4EFgQU9lSPORWcEKDXkTya
LUie59lFWJgwgZsGA1UdIwSBkzCBkIAUzrlEVcFiVjQa20rH0h2TcfaDItWhdaRz
MHExCzAJBgNVBAYTAlVTMRMwEQYDVQQIDApDYWxpZm9ybmlhMRQwEgYDVQQHDAtT
YW50YSBDbGFyYTENMAsGA1UECgwEcGtnNTEQMA4GA1UEAwwHY2gzX3RhMTEWMBQG
CSqGSIb3DQEJARYHY2gzX3RhMYIBDDASBgNVHRMBAf8ECDAGAQH/AgEAMA4GA1Ud
DwEB/wQEAwIBBjANBgkqhkiG9w0BAQsFAAOCAQEAgJxv/XoeYNj4Acj8NxhnAdIB
j+/bHwiCEhW+JjdQA3f8ne1Ji5yqu4RFwXcrtMgBowXI9rIinD77DHnKTK5VYnw0
RQ8C6Ne+qe3XXDks/5wbB598NzuS2q5DEHdO1f4pUiB+9J0haZyNUTc9VZgKfS+i
aBm6RR7uW3tlGAP9QL2SSoqoKiISznR5yZnfnvUz5epBsqgZXRtk8O3RrxHGQGf4
QHkTacWdGYKC0UnC04h97YXnRu7EspHJ5u2e2Fzz4nHDism3I9l/Xg+fDMFJTiEu
nMCyK9gd37WiT5zn8QXUdT49hymZdKRcCme9UyPerwykJ1EbIG/vc7G1ndly9A==
-----END CERTIFICATE-----
