Certificate:
    Data:
        Version: 3 (0x2)
        Serial Number: 16 (0x10)
        Signature Algorithm: sha256WithRSAEncryption
        Issuer: C=US, ST=California, L=Menlo Park, O=pkg5, CN=ta3/emailAddress=ta3
        Validity
            Not Before: Apr 11 22:37:44 2011 GMT
            Not After : Jan  5 22:37:44 2014 GMT
        Subject: C=US, ST=California, L=Menlo Park, O=pkg5, CN=ch1_ta3/emailAddress=ch1_ta3
        Subject Public Key Info:
            Public Key Algorithm: rsaEncryption
            RSA Public Key: (1024 bit)
                Modulus (1024 bit):
                    00:e1:a3:d0:51:dc:0b:73:6f:44:f2:c7:6b:f2:9d:
                    da:56:de:d4:41:61:75:48:78:10:2c:53:f1:c1:28:
                    01:4a:10:53:7d:32:bc:e2:01:a2:75:59:0b:cf:3a:
                    fc:41:b8:2c:36:fb:fe:3d:d9:a2:41:7b:6e:3c:0a:
                    a9:7e:74:5a:86:ea:06:6a:2b:ad:3c:7e:32:8b:97:
                    a4:ba:53:c1:b8:bc:f0:8f:80:22:53:97:66:bb:80:
                    15:05:96:dc:df:62:29:4d:15:df:85:e6:90:30:4d:
                    29:d3:04:b7:4f:22:40:b8:a1:22:ed:0e:4b:e6:00:
                    82:df:89:48:63:87:b5:80:55
                Exponent: 65537 (0x10001)
        X509v3 extensions:
            X509v3 Subject Key Identifier: 
                D9:77:48:13:09:B0:17:15:2A:95:47:CA:4C:13:2E:A9:AC:18:5D:AD
            X509v3 Authority Key Identifier: 
                keyid:7A:F6:51:7A:7F:9B:AB:37:3D:4E:93:03:90:6D:6A:84:09:7C:3A:DD
                DirName:/C=US/ST=California/L=Menlo Park/O=pkg5/CN=ta3/emailAddress=ta3
                serial:F4:58:54:6A:83:22:66:E9

            X509v3 Basic Constraints: critical
                CA:TRUE
            X509v3 Key Usage: critical
                Certificate Sign, CRL Sign
    Signature Algorithm: sha256WithRSAEncryption
        a5:b4:3f:fe:d9:aa:36:19:da:97:ab:60:50:43:50:e0:26:2e:
        23:af:39:d9:d6:60:0a:41:5d:6a:2f:6f:f2:4c:4f:a8:22:40:
        04:40:84:4e:0a:34:10:21:a5:9a:36:f6:7c:aa:e3:29:88:ce:
        8c:1f:4a:cd:db:19:db:25:0c:04:46:28:67:ba:74:ff:74:78:
        4e:20:9b:ef:31:95:c9:ab:46:53:f3:02:bb:25:78:3e:43:6a:
        87:d6:86:61:a6:3e:8a:91:91:a6:88:f2:32:2d:b2:51:22:46:
        9a:b3:b6:c9:45:90:83:c2:0f:d7:a2:4a:1b:61:30:3f:55:3d:
        47:1f
-----BEGIN CERTIFICATE-----
MIIDLzCCApigAwIBAgIBEDANBgkqhkiG9w0BAQsFADBoMQswCQYDVQQGEwJVUzET
MBEGA1UECBMKQ2FsaWZvcm5pYTETMBEGA1UEBxMKTWVubG8gUGFyazENMAsGA1UE
ChMEcGtnNTEMMAoGA1UEAxMDdGEzMRIwEAYJKoZIhvcNAQkBFgN0YTMwHhcNMTEw
NDExMjIzNzQ0WhcNMTQwMTA1MjIzNzQ0WjBwMQswCQYDVQQGEwJVUzETMBEGA1UE
CBMKQ2FsaWZvcm5pYTETMBEGA1UEBxMKTWVubG8gUGFyazENMAsGA1UEChMEcGtn
NTEQMA4GA1UEAxQHY2gxX3RhMzEWMBQGCSqGSIb3DQEJARYHY2gxX3RhMzCBnzAN
BgkqhkiG9w0BAQEFAAOBjQAwgYkCgYEA4aPQUdwLc29E8sdr8p3aVt7UQWF1SHgQ
LFPxwSgBShBTfTK84gGidVkLzzr8QbgsNvv+PdmiQXtuPAqpfnRahuoGaiutPH4y
i5ekulPBuLzwj4AiU5dmu4AVBZbc32IpTRXfheaQME0p0wS3TyJAuKEi7Q5L5gCC
34lIY4e1gFUCAwEAAaOB4DCB3TAdBgNVHQ4EFgQU2XdIEwmwFxUqlUfKTBMuqawY
Xa0wgZoGA1UdIwSBkjCBj4AUevZRen+bqzc9TpMDkG1qhAl8Ot2hbKRqMGgxCzAJ
BgNVBAYTAlVTMRMwEQYDVQQIEwpDYWxpZm9ybmlhMRMwEQYDVQQHEwpNZW5sbyBQ
YXJrMQ0wCwYDVQQKEwRwa2c1MQwwCgYDVQQDEwN0YTMxEjAQBgkqhkiG9w0BCQEW
A3RhM4IJAPRYVGqDImbpMA8GA1UdEwEB/wQFMAMBAf8wDgYDVR0PAQH/BAQDAgEG
MA0GCSqGSIb3DQEBCwUAA4GBAKW0P/7ZqjYZ2perYFBDUOAmLiOvOdnWYApBXWov
b/JMT6giQARAhE4KNBAhpZo29nyq4ymIzowfSs3bGdslDARGKGe6dP90eE4gm+8x
lcmrRlPzArsleD5DaofWhmGmPoqRkaaI8jItslEiRpqztslFkIPCD9eiShthMD9V
PUcf
-----END CERTIFICATE-----
