Certificate:
    Data:
        Version: 3 (0x2)
        Serial Number: 16 (0x10)
    Signature Algorithm: sha256WithRSAEncryption
        Issuer: C=US, ST=California, L=Santa Clara, O=pkg5, CN=ta3/emailAddress=ta3
        Validity
            Not Before: Jan 22 15:33:10 2019 GMT
            Not After : Oct 18 15:33:10 2021 GMT
        Subject: C=US, ST=California, L=Santa Clara, O=pkg5, CN=ch1_ta3/emailAddress=ch1_ta3
        Subject Public Key Info:
            Public Key Algorithm: rsaEncryption
                Public-Key: (2048 bit)
                Modulus:
                    00:be:2e:98:70:8b:dc:86:ad:1e:ad:91:3c:d7:ae:
                    ad:e2:54:a8:48:ed:63:7e:1f:1c:5d:a0:2a:18:dc:
                    a2:6b:76:b5:8d:d7:fc:e3:01:69:f2:94:f0:de:73:
                    9a:82:05:11:70:3f:ff:99:77:97:f3:b8:d0:85:07:
                    85:c2:17:01:7b:35:9c:48:e4:cd:c8:e9:b6:8a:df:
                    97:5c:52:71:ea:a7:38:6d:e9:41:28:24:4c:78:0c:
                    95:b3:72:ba:be:f5:41:bb:fb:3c:30:08:e8:17:21:
                    6a:e0:fb:59:f0:09:98:1b:0e:28:25:25:94:a3:4e:
                    bf:00:a6:46:78:a8:f2:33:59:00:97:ed:7f:f0:a4:
                    3c:f4:fb:80:c6:a5:bf:e3:c1:fe:09:5e:90:00:13:
                    71:1d:50:a9:70:ad:bb:a7:3f:dd:b7:0e:4c:b4:77:
                    83:3f:11:81:7b:9d:54:74:19:1f:a8:05:b1:51:9f:
                    02:9a:35:89:63:18:9b:7c:29:d0:ae:a9:c1:9f:ad:
                    c8:51:ec:3e:d5:04:43:fd:f9:11:e5:7a:2e:6a:c9:
                    96:5b:63:30:85:3a:f0:ab:24:e6:1f:4a:ef:74:96:
                    d0:de:15:c9:31:da:b1:28:bb:50:b2:50:31:45:94:
                    37:6c:a0:a3:e8:08:d7:92:92:6b:55:70:be:72:5b:
                    f7:45
                Exponent: 65537 (0x10001)
        X509v3 extensions:
            X509v3 Subject Key Identifier: 
                56:56:84:2A:E6:2D:86:2C:12:71:41:0C:D1:0F:D3:31:15:82:AF:C9
            X509v3 Authority Key Identifier: 
                keyid:D4:96:C5:46:89:1A:DF:AE:C8:49:CA:65:E8:A8:C4:8E:10:60:26:1A
                DirName:/C=US/ST=California/L=Santa Clara/O=pkg5/CN=ta3/emailAddress=ta3
                serial:8D:46:D3:00:C5:00:EE:1C

            X509v3 Basic Constraints: critical
                CA:TRUE
            X509v3 Key Usage: critical
                Certificate Sign, CRL Sign
    Signature Algorithm: sha256WithRSAEncryption
         a6:6a:9b:01:0f:e9:c0:97:b6:99:fd:06:22:d2:be:92:22:ef:
         cb:21:1e:dd:e8:cd:c1:66:74:f3:2a:b8:55:69:d1:9c:e2:d0:
         ac:bc:8e:d7:52:3e:e9:d2:7f:f2:bd:8d:d5:94:13:16:3e:54:
         76:20:dc:a6:57:0e:6d:02:44:f5:65:83:e4:d6:1b:11:dd:28:
         83:d6:92:42:0f:40:4e:64:9e:d3:19:5f:29:a0:11:7b:46:32:
         63:69:b2:09:5b:61:7e:fe:5f:db:df:1a:81:7b:71:63:b8:ef:
         52:29:bb:6c:16:c3:3a:61:37:bc:af:b0:b0:3d:b6:23:1e:d9:
         21:31:91:f3:c1:b1:6c:16:75:85:9a:ce:03:cc:4a:a5:17:a1:
         13:7f:40:20:2c:0d:a6:08:d2:1d:c2:4c:b8:29:83:5d:a0:a8:
         f5:b5:13:41:ed:05:2f:25:a0:9d:8c:af:6a:da:fc:2c:8f:08:
         6a:0d:db:d7:df:79:b6:7c:64:0f:8b:bc:71:d1:14:2c:ca:2f:
         b9:d0:f5:06:c6:f1:49:00:28:ea:76:66:33:20:29:92:3b:15:
         cb:ef:c1:f9:f7:8f:0f:07:bb:aa:f9:08:94:11:65:1a:c6:08:
         c9:b8:c0:94:c8:fe:d6:dd:21:f6:49:58:cc:50:ca:f3:89:58:
         bb:09:94:24
-----BEGIN CERTIFICATE-----
MIIENzCCAx+gAwIBAgIBEDANBgkqhkiG9w0BAQsFADBpMQswCQYDVQQGEwJVUzET
MBEGA1UECAwKQ2FsaWZvcm5pYTEUMBIGA1UEBwwLU2FudGEgQ2xhcmExDTALBgNV
BAoMBHBrZzUxDDAKBgNVBAMMA3RhMzESMBAGCSqGSIb3DQEJARYDdGEzMB4XDTE5
MDEyMjE1MzMxMFoXDTIxMTAxODE1MzMxMFowcTELMAkGA1UEBhMCVVMxEzARBgNV
BAgMCkNhbGlmb3JuaWExFDASBgNVBAcMC1NhbnRhIENsYXJhMQ0wCwYDVQQKDARw
a2c1MRAwDgYDVQQDDAdjaDFfdGEzMRYwFAYJKoZIhvcNAQkBFgdjaDFfdGEzMIIB
IjANBgkqhkiG9w0BAQEFAAOCAQ8AMIIBCgKCAQEAvi6YcIvchq0erZE8166t4lSo
SO1jfh8cXaAqGNyia3a1jdf84wFp8pTw3nOaggURcD//mXeX87jQhQeFwhcBezWc
SOTNyOm2it+XXFJx6qc4belBKCRMeAyVs3K6vvVBu/s8MAjoFyFq4PtZ8AmYGw4o
JSWUo06/AKZGeKjyM1kAl+1/8KQ89PuAxqW/48H+CV6QABNxHVCpcK27pz/dtw5M
tHeDPxGBe51UdBkfqAWxUZ8CmjWJYxibfCnQrqnBn63IUew+1QRD/fkR5XouasmW
W2MwhTrwqyTmH0rvdJbQ3hXJMdqxKLtQslAxRZQ3bKCj6AjXkpJrVXC+clv3RQID
AQABo4HhMIHeMB0GA1UdDgQWBBRWVoQq5i2GLBJxQQzRD9MxFYKvyTCBmwYDVR0j
BIGTMIGQgBTUlsVGiRrfrshJymXoqMSOEGAmGqFtpGswaTELMAkGA1UEBhMCVVMx
EzARBgNVBAgMCkNhbGlmb3JuaWExFDASBgNVBAcMC1NhbnRhIENsYXJhMQ0wCwYD
VQQKDARwa2c1MQwwCgYDVQQDDAN0YTMxEjAQBgkqhkiG9w0BCQEWA3RhM4IJAI1G
0wDFAO4cMA8GA1UdEwEB/wQFMAMBAf8wDgYDVR0PAQH/BAQDAgEGMA0GCSqGSIb3
DQEBCwUAA4IBAQCmapsBD+nAl7aZ/QYi0r6SIu/LIR7d6M3BZnTzKrhVadGc4tCs
vI7XUj7p0n/yvY3VlBMWPlR2INymVw5tAkT1ZYPk1hsR3SiD1pJCD0BOZJ7TGV8p
oBF7RjJjabIJW2F+/l/b3xqBe3FjuO9SKbtsFsM6YTe8r7CwPbYjHtkhMZHzwbFs
FnWFms4DzEqlF6ETf0AgLA2mCNIdwky4KYNdoKj1tRNB7QUvJaCdjK9q2vwsjwhq
DdvX33m2fGQPi7xx0RQsyi+50PUGxvFJACjqdmYzICmSOxXL78H5948PB7uq+QiU
EWUaxgjJuMCUyP7W3SH2SVjMUMrziVi7CZQk
-----END CERTIFICATE-----
