Certificate:
    Data:
        Version: 3 (0x2)
        Serial Number: 16 (0x10)
        Signature Algorithm: sha256WithRSAEncryption
        Issuer: C=US, ST=California, L=Santa Clara, O=pkg5, CN=ta3/emailAddress=ta3
        Validity
            Not Before: Mar 18 08:51:33 2026 GMT
            Not After : Dec 12 08:51:33 2028 GMT
        Subject: C=US, ST=California, L=Santa Clara, O=pkg5, CN=ch1_ta3/emailAddress=ch1_ta3
        Subject Public Key Info:
            Public Key Algorithm: rsaEncryption
                Public-Key: (2048 bit)
                Modulus:
                    00:a7:0b:b7:2b:49:e4:d8:43:c3:06:6a:37:df:10:
                    8a:09:95:b1:49:61:5e:10:9a:3a:c5:94:d6:4e:5b:
                    e1:b7:91:3a:76:10:24:96:ea:60:e3:e9:8b:ca:89:
                    e3:e9:d7:fc:c2:28:9e:d4:11:20:90:6d:3e:89:d5:
                    3e:4d:eb:5a:e3:8b:7e:1a:3f:89:38:1c:44:ca:ec:
                    3e:15:0b:1a:bb:29:85:21:fd:1c:92:14:4e:da:6c:
                    88:4c:fa:fc:4c:8b:e8:0b:80:6b:b0:a0:a1:a1:22:
                    43:1c:e5:33:bd:b5:e1:09:a5:ec:73:38:08:43:51:
                    03:8b:d3:fd:b2:eb:db:bc:7f:36:d2:21:2c:06:f1:
                    ff:10:7e:74:3a:e2:09:a7:3b:db:00:98:e2:69:4c:
                    57:0c:c9:45:17:98:b4:1b:4d:d9:5b:cc:71:d3:aa:
                    c9:86:7b:3e:50:b0:af:4d:d2:c3:0c:7c:4c:5f:0e:
                    63:37:62:a0:ae:c2:47:12:b2:2f:e5:9c:ba:9f:ba:
                    fa:e1:dc:a6:4e:1d:e1:d4:06:07:18:d1:cc:65:ba:
                    ae:02:93:e8:64:6b:c6:0f:8b:ad:ff:00:88:a1:0a:
                    16:e2:fa:32:aa:77:e6:cf:dd:3b:5b:c5:fc:28:86:
                    53:78:b4:26:52:2b:0d:35:bd:02:c8:3b:68:67:18:
                    81:05
                Exponent: 65537 (0x10001)
        X509v3 extensions:
            X509v3 Subject Key Identifier: 
                D9:5E:2F:ED:23:64:CE:9F:A3:C2:6F:7D:FD:22:C9:21:6D:C3:CE:2F
            X509v3 Authority Key Identifier: 
                keyid:43:54:28:1A:4B:3C:F9:91:B3:CB:00:A8:B8:90:E4:B7:6F:B6:22:CD
                DirName:/C=US/ST=California/L=Santa Clara/O=pkg5/CN=ta3/emailAddress=ta3
                serial:74:E7:12:B5:F0:FD:DA:49:31:EB:3B:E1:EB:75:65:B3:79:2D:FC:FF
            X509v3 Basic Constraints: critical
                CA:TRUE
            X509v3 Key Usage: critical
                Certificate Sign, CRL Sign
    Signature Algorithm: sha256WithRSAEncryption
    Signature Value:
        a4:47:e2:a5:71:f3:f6:ee:a8:98:55:60:42:9c:81:77:6e:d5:
        a0:80:ad:56:4d:c0:63:42:8e:e7:30:31:5e:ec:a6:a9:75:93:
        af:b8:74:4f:ec:55:cd:3c:6c:77:1b:66:6d:39:26:3a:64:81:
        38:74:33:5b:74:8f:76:3a:4b:a2:86:30:de:0b:dd:66:33:03:
        4b:2b:77:0f:bb:47:1f:0f:03:e8:ff:ee:8d:c1:b2:48:61:2a:
        a0:3c:ea:f3:7d:22:90:83:ce:1c:86:50:16:f5:3f:f7:4e:81:
        62:3e:ca:87:d4:61:a6:ae:a4:64:b6:31:9d:0b:cd:19:fd:ea:
        c1:96:90:9f:c9:bc:38:45:00:ab:57:66:db:df:e2:04:18:22:
        8e:d2:d7:24:35:4f:e7:3c:14:0a:74:dd:4f:aa:c2:53:d1:21:
        64:e7:76:e5:6d:78:73:4e:4c:6b:56:26:96:46:10:d8:eb:71:
        99:4c:46:8a:19:c8:1d:4a:03:3a:c8:47:02:92:d6:7a:8a:d4:
        64:f9:1a:5d:5a:6e:ac:23:65:ef:d5:c7:ac:3e:26:20:62:ce:
        81:a5:9a:db:6a:3f:8b:5f:53:87:f4:ca:dc:81:5e:47:17:8d:
        19:2f:30:15:05:87:5f:00:6d:42:bf:16:c9:67:5f:96:b0:e9:
        73:39:68:4d
-----BEGIN CERTIFICATE-----
MIIEQjCCAyqgAwIBAgIBEDANBgkqhkiG9w0BAQsFADBpMQswCQYDVQQGEwJVUzET
MBEGA1UECAwKQ2FsaWZvcm5pYTEUMBIGA1UEBwwLU2FudGEgQ2xhcmExDTALBgNV
BAoMBHBrZzUxDDAKBgNVBAMMA3RhMzESMBAGCSqGSIb3DQEJARYDdGEzMB4XDTI2
MDMxODA4NTEzM1oXDTI4MTIxMjA4NTEzM1owcTELMAkGA1UEBhMCVVMxEzARBgNV
BAgMCkNhbGlmb3JuaWExFDASBgNVBAcMC1NhbnRhIENsYXJhMQ0wCwYDVQQKDARw
a2c1MRAwDgYDVQQDDAdjaDFfdGEzMRYwFAYJKoZIhvcNAQkBFgdjaDFfdGEzMIIB
IjANBgkqhkiG9w0BAQEFAAOCAQ8AMIIBCgKCAQEApwu3K0nk2EPDBmo33xCKCZWx
SWFeEJo6xZTWTlvht5E6dhAklupg4+mLyonj6df8wiie1BEgkG0+idU+Teta44t+
Gj+JOBxEyuw+FQsauymFIf0ckhRO2myITPr8TIvoC4BrsKChoSJDHOUzvbXhCaXs
czgIQ1EDi9P9suvbvH820iEsBvH/EH50OuIJpzvbAJjiaUxXDMlFF5i0G03ZW8xx
06rJhns+ULCvTdLDDHxMXw5jN2KgrsJHErIv5Zy6n7r64dymTh3h1AYHGNHMZbqu
ApPoZGvGD4ut/wCIoQoW4voyqnfmz907W8X8KIZTeLQmUisNNb0CyDtoZxiBBQID
AQABo4HsMIHpMB0GA1UdDgQWBBTZXi/tI2TOn6PCb339IskhbcPOLzCBpgYDVR0j
BIGeMIGbgBRDVCgaSzz5kbPLAKi4kOS3b7YizaFtpGswaTELMAkGA1UEBhMCVVMx
EzARBgNVBAgMCkNhbGlmb3JuaWExFDASBgNVBAcMC1NhbnRhIENsYXJhMQ0wCwYD
VQQKDARwa2c1MQwwCgYDVQQDDAN0YTMxEjAQBgkqhkiG9w0BCQEWA3RhM4IUdOcS
tfD92kkx6zvh63Vls3kt/P8wDwYDVR0TAQH/BAUwAwEB/zAOBgNVHQ8BAf8EBAMC
AQYwDQYJKoZIhvcNAQELBQADggEBAKRH4qVx8/buqJhVYEKcgXdu1aCArVZNwGNC
jucwMV7spql1k6+4dE/sVc08bHcbZm05JjpkgTh0M1t0j3Y6S6KGMN4L3WYzA0sr
dw+7Rx8PA+j/7o3BskhhKqA86vN9IpCDzhyGUBb1P/dOgWI+yofUYaaupGS2MZ0L
zRn96sGWkJ/JvDhFAKtXZtvf4gQYIo7S1yQ1T+c8FAp03U+qwlPRIWTnduVteHNO
TGtWJpZGENjrcZlMRooZyB1KAzrIRwKS1nqK1GT5Gl1abqwjZe/Vx6w+JiBizoGl
mttqP4tfU4f0ytyBXkcXjRkvMBUFh18AbUK/FslnX5aw6XM5aE0=
-----END CERTIFICATE-----
