Certificate:
    Data:
        Version: 3 (0x2)
        Serial Number: 16 (0x10)
    Signature Algorithm: sha256WithRSAEncryption
        Issuer: C=US, ST=California, L=Santa Clara, O=pkg5, CN=ta3/emailAddress=ta3
        Validity
            Not Before: Dec 13 00:13:35 2013 GMT
            Not After : Sep  8 00:13:35 2016 GMT
        Subject: C=US, ST=California, L=Santa Clara, O=pkg5, CN=ch1_ta3/emailAddress=ch1_ta3
        Subject Public Key Info:
            Public Key Algorithm: rsaEncryption
                Public-Key: (1024 bit)
                Modulus:
                    00:ba:0e:36:90:a0:6b:75:19:6b:30:76:54:9e:20:
                    b0:81:70:21:47:97:9c:c1:15:7c:9e:2d:50:3c:db:
                    dc:8c:d0:31:9c:b9:78:c6:2a:5c:53:ca:ed:d3:44:
                    e2:f9:93:d8:b5:b6:a6:8a:c2:bd:be:4f:8b:f5:a0:
                    28:68:cf:ec:f9:e3:e9:57:a8:ab:cd:a5:45:0d:82:
                    eb:f0:5b:aa:2d:1b:88:65:30:9f:a1:74:59:1f:e5:
                    d2:25:f9:d6:31:3f:0a:a2:4a:92:5d:2a:30:2e:3f:
                    2f:72:48:93:f8:8d:7c:bf:79:21:e3:e1:91:9a:a7:
                    03:01:ba:20:95:a6:da:56:35
                Exponent: 65537 (0x10001)
        X509v3 extensions:
            X509v3 Subject Key Identifier: 
                A7:11:90:E6:5F:5F:79:74:A3:1D:B5:9E:0C:15:F1:16:C5:D4:FB:6B
            X509v3 Authority Key Identifier: 
                keyid:B4:D4:36:9F:F8:CB:A2:5F:50:89:DA:21:E3:27:C4:91:F7:84:88:45
                DirName:/C=US/ST=California/L=Santa Clara/O=pkg5/CN=ta3/emailAddress=ta3
                serial:C0:C4:B4:7D:88:D6:E3:3E

            X509v3 Basic Constraints: critical
                CA:TRUE
            X509v3 Key Usage: critical
                Certificate Sign, CRL Sign
    Signature Algorithm: sha256WithRSAEncryption
         5f:db:a1:d4:03:bc:a0:f9:d7:80:88:ac:94:2b:22:cc:1c:88:
         56:65:bd:0d:57:d6:d4:ae:5c:a2:27:44:7c:5e:4d:23:8c:ba:
         fe:1c:a6:49:96:20:c2:f5:45:cf:52:0e:0a:80:40:5b:1c:e7:
         83:2b:d4:72:6c:95:10:c6:a7:44:27:85:6b:e5:37:f5:a4:25:
         70:e4:e0:0e:de:1d:c1:72:1f:05:be:0f:4b:23:61:38:e3:52:
         cb:05:c3:f4:41:26:80:58:ea:02:c6:6b:7d:f8:9f:41:40:76:
         94:44:59:2e:da:bc:a8:54:11:22:bc:58:ff:61:85:3c:60:e7:
         67:e6
-----BEGIN CERTIFICATE-----
MIIDMjCCApugAwIBAgIBEDANBgkqhkiG9w0BAQsFADBpMQswCQYDVQQGEwJVUzET
MBEGA1UECAwKQ2FsaWZvcm5pYTEUMBIGA1UEBwwLU2FudGEgQ2xhcmExDTALBgNV
BAoMBHBrZzUxDDAKBgNVBAMMA3RhMzESMBAGCSqGSIb3DQEJARYDdGEzMB4XDTEz
MTIxMzAwMTMzNVoXDTE2MDkwODAwMTMzNVowcTELMAkGA1UEBhMCVVMxEzARBgNV
BAgMCkNhbGlmb3JuaWExFDASBgNVBAcMC1NhbnRhIENsYXJhMQ0wCwYDVQQKDARw
a2c1MRAwDgYDVQQDDAdjaDFfdGEzMRYwFAYJKoZIhvcNAQkBFgdjaDFfdGEzMIGf
MA0GCSqGSIb3DQEBAQUAA4GNADCBiQKBgQC6DjaQoGt1GWswdlSeILCBcCFHl5zB
FXyeLVA829yM0DGcuXjGKlxTyu3TROL5k9i1tqaKwr2+T4v1oChoz+z54+lXqKvN
pUUNguvwW6otG4hlMJ+hdFkf5dIl+dYxPwqiSpJdKjAuPy9ySJP4jXy/eSHj4ZGa
pwMBuiCVptpWNQIDAQABo4HhMIHeMB0GA1UdDgQWBBSnEZDmX195dKMdtZ4MFfEW
xdT7azCBmwYDVR0jBIGTMIGQgBS01Daf+MuiX1CJ2iHjJ8SR94SIRaFtpGswaTEL
MAkGA1UEBhMCVVMxEzARBgNVBAgMCkNhbGlmb3JuaWExFDASBgNVBAcMC1NhbnRh
IENsYXJhMQ0wCwYDVQQKDARwa2c1MQwwCgYDVQQDDAN0YTMxEjAQBgkqhkiG9w0B
CQEWA3RhM4IJAMDEtH2I1uM+MA8GA1UdEwEB/wQFMAMBAf8wDgYDVR0PAQH/BAQD
AgEGMA0GCSqGSIb3DQEBCwUAA4GBAF/bodQDvKD514CIrJQrIswciFZlvQ1X1tSu
XKInRHxeTSOMuv4cpkmWIML1Rc9SDgqAQFsc54Mr1HJslRDGp0QnhWvlN/WkJXDk
4A7eHcFyHwW+D0sjYTjjUssFw/RBJoBY6gLGa334n0FAdpREWS7avKhUESK8WP9h
hTxg52fm
-----END CERTIFICATE-----
