Certificate:
    Data:
        Version: 3 (0x2)
        Serial Number: 16 (0x10)
    Signature Algorithm: sha256WithRSAEncryption
        Issuer: C=US, ST=California, L=Santa Clara, O=pkg5, CN=ta3/emailAddress=ta3
        Validity
            Not Before: Jan 22 01:57:56 2016 GMT
            Not After : Oct 18 01:57:56 2018 GMT
        Subject: C=US, ST=California, L=Santa Clara, O=pkg5, CN=ch1_ta3/emailAddress=ch1_ta3
        Subject Public Key Info:
            Public Key Algorithm: rsaEncryption
                Public-Key: (2048 bit)
                Modulus:
                    00:ad:c4:ce:08:be:18:a7:5c:74:34:46:19:29:0b:
                    0e:09:7e:42:b2:ac:a4:40:2e:ee:2e:c8:0a:11:a8:
                    88:85:73:a5:d8:15:65:9a:d6:4e:d4:8b:49:c1:32:
                    dc:c3:f9:3d:99:87:d6:df:98:be:f6:71:db:f9:3d:
                    63:98:65:7f:b9:a8:99:3c:f4:28:39:59:bf:e1:ff:
                    7a:ef:a6:54:6e:43:31:33:95:72:d9:7d:11:24:e0:
                    e0:47:24:df:84:27:a4:ee:19:6f:e8:f9:61:42:82:
                    45:78:10:22:29:d5:b2:b8:1a:e6:7a:db:6d:d7:76:
                    aa:27:bb:e7:cc:2b:60:39:8e:ac:3a:1c:b3:62:20:
                    c4:db:10:5c:1d:22:fe:3d:36:ae:14:10:1f:81:d9:
                    ce:bb:bc:93:4a:5f:1c:fc:1a:08:55:a6:4a:84:3b:
                    0b:ca:89:8f:1e:f1:00:fe:6e:5b:9e:a3:57:dd:97:
                    7c:fa:90:e7:ca:8d:9e:f2:b6:24:3e:f5:85:e8:77:
                    53:1e:f5:c8:ba:37:53:05:43:dc:d8:56:c4:f9:cd:
                    56:d3:3b:1a:16:c7:3d:e9:09:26:ef:6a:6a:b1:6b:
                    28:77:14:69:d8:f5:67:a3:2e:04:d2:98:39:91:aa:
                    c8:63:8f:55:56:f4:49:c9:67:84:82:a4:dd:d5:37:
                    b9:8f
                Exponent: 65537 (0x10001)
        X509v3 extensions:
            X509v3 Subject Key Identifier: 
                2B:95:76:FC:68:FE:EC:2A:19:A1:FC:D3:30:D9:C8:26:24:79:BE:9B
            X509v3 Authority Key Identifier: 
                keyid:29:6E:FA:0C:C3:3A:D4:13:5F:93:39:0F:10:08:27:C7:BF:62:56:E5
                DirName:/C=US/ST=California/L=Santa Clara/O=pkg5/CN=ta3/emailAddress=ta3
                serial:8A:15:23:60:8D:FB:3E:84

            X509v3 Basic Constraints: critical
                CA:TRUE
            X509v3 Key Usage: critical
                Certificate Sign, CRL Sign
    Signature Algorithm: sha256WithRSAEncryption
         82:73:57:62:96:05:6f:f0:f1:22:b0:e7:f7:4f:c8:a7:20:9e:
         94:cc:80:fa:9f:4f:98:24:75:49:5d:e7:cf:51:11:de:0d:64:
         3c:24:8c:2b:5d:84:7c:40:6a:d2:27:81:2e:19:f4:16:c0:d3:
         e1:d3:fa:23:e9:25:cc:f8:e2:f5:e8:b7:2b:ae:c5:70:19:f7:
         0e:d4:ac:35:16:56:ad:7c:dc:f6:39:f2:80:b4:d3:d3:67:f7:
         d9:cd:58:bf:17:01:94:50:af:a4:17:b9:49:50:1a:73:d7:f9:
         1e:f4:6b:43:01:53:cf:a1:da:66:9d:e4:1c:fc:48:41:24:83:
         ae:ce:18:d2:a7:95:5f:70:c6:24:e0:72:ec:08:c4:49:67:ac:
         73:dc:f0:ad:2c:1c:f6:6c:e2:e9:44:2f:38:d4:80:03:71:41:
         be:7c:04:b9:07:3e:a5:9d:6a:3c:b1:46:d9:d2:4d:76:28:ee:
         37:da:5b:53:30:30:31:23:0b:95:47:c3:41:d3:45:1b:08:47:
         22:14:e7:84:11:da:b2:95:c8:ea:98:94:d0:d1:33:8a:36:71:
         a1:2f:fe:65:2e:91:39:16:6e:5e:1c:ff:0a:57:d5:eb:88:50:
         b3:f2:89:68:c2:ff:a9:bd:af:de:c6:0f:57:af:15:4e:c1:31:
         1e:67:16:2c
-----BEGIN CERTIFICATE-----
MIIENzCCAx+gAwIBAgIBEDANBgkqhkiG9w0BAQsFADBpMQswCQYDVQQGEwJVUzET
MBEGA1UECAwKQ2FsaWZvcm5pYTEUMBIGA1UEBwwLU2FudGEgQ2xhcmExDTALBgNV
BAoMBHBrZzUxDDAKBgNVBAMMA3RhMzESMBAGCSqGSIb3DQEJARYDdGEzMB4XDTE2
MDEyMjAxNTc1NloXDTE4MTAxODAxNTc1NlowcTELMAkGA1UEBhMCVVMxEzARBgNV
BAgMCkNhbGlmb3JuaWExFDASBgNVBAcMC1NhbnRhIENsYXJhMQ0wCwYDVQQKDARw
a2c1MRAwDgYDVQQDDAdjaDFfdGEzMRYwFAYJKoZIhvcNAQkBFgdjaDFfdGEzMIIB
IjANBgkqhkiG9w0BAQEFAAOCAQ8AMIIBCgKCAQEArcTOCL4Yp1x0NEYZKQsOCX5C
sqykQC7uLsgKEaiIhXOl2BVlmtZO1ItJwTLcw/k9mYfW35i+9nHb+T1jmGV/uaiZ
PPQoOVm/4f9676ZUbkMxM5Vy2X0RJODgRyTfhCek7hlv6PlhQoJFeBAiKdWyuBrm
ettt13aqJ7vnzCtgOY6sOhyzYiDE2xBcHSL+PTauFBAfgdnOu7yTSl8c/BoIVaZK
hDsLyomPHvEA/m5bnqNX3Zd8+pDnyo2e8rYkPvWF6HdTHvXIujdTBUPc2FbE+c1W
0zsaFsc96Qkm72pqsWsodxRp2PVnoy4E0pg5karIY49VVvRJyWeEgqTd1Te5jwID
AQABo4HhMIHeMB0GA1UdDgQWBBQrlXb8aP7sKhmh/NMw2cgmJHm+mzCBmwYDVR0j
BIGTMIGQgBQpbvoMwzrUE1+TOQ8QCCfHv2JW5aFtpGswaTELMAkGA1UEBhMCVVMx
EzARBgNVBAgMCkNhbGlmb3JuaWExFDASBgNVBAcMC1NhbnRhIENsYXJhMQ0wCwYD
VQQKDARwa2c1MQwwCgYDVQQDDAN0YTMxEjAQBgkqhkiG9w0BCQEWA3RhM4IJAIoV
I2CN+z6EMA8GA1UdEwEB/wQFMAMBAf8wDgYDVR0PAQH/BAQDAgEGMA0GCSqGSIb3
DQEBCwUAA4IBAQCCc1dilgVv8PEisOf3T8inIJ6UzID6n0+YJHVJXefPURHeDWQ8
JIwrXYR8QGrSJ4EuGfQWwNPh0/oj6SXM+OL16LcrrsVwGfcO1Kw1FlatfNz2OfKA
tNPTZ/fZzVi/FwGUUK+kF7lJUBpz1/ke9GtDAVPPodpmneQc/EhBJIOuzhjSp5Vf
cMYk4HLsCMRJZ6xz3PCtLBz2bOLpRC841IADcUG+fAS5Bz6lnWo8sUbZ0k12KO43
2ltTMDAxIwuVR8NB00UbCEciFOeEEdqylcjqmJTQ0TOKNnGhL/5lLpE5Fm5eHP8K
V9XriFCz8olowv+pva/exg9XrxVOwTEeZxYs
-----END CERTIFICATE-----
