Certificate:
    Data:
        Version: 3 (0x2)
        Serial Number: 26 (0x1a)
        Signature Algorithm: sha256WithRSAEncryption
        Issuer: C=US, ST=California, L=Menlo Park, O=pkg5, CN=ta3/emailAddress=ta3
        Validity
            Not Before: Apr 11 22:37:47 2011 GMT
            Not After : Jan  5 22:37:47 2014 GMT
        Subject: C=US, ST=California, L=Menlo Park, O=pkg5, CN=ch1.1_ta3/emailAddress=ch1.1_ta3
        Subject Public Key Info:
            Public Key Algorithm: rsaEncryption
            RSA Public Key: (1024 bit)
                Modulus (1024 bit):
                    00:a1:1f:54:43:20:65:63:b2:fc:8b:d7:f6:a8:90:
                    f0:1e:b8:e9:06:37:cb:1b:c9:47:56:3a:3f:ec:7e:
                    e6:ee:c6:9a:d4:15:0d:64:f7:d5:77:2f:52:31:6c:
                    36:8d:2f:07:7f:0d:a7:cf:79:af:68:70:2b:74:a7:
                    30:92:1e:55:fc:2a:f4:b7:c3:47:01:57:4f:65:ba:
                    58:bf:75:73:02:4c:4c:a8:51:3d:82:ee:57:fa:93:
                    64:d6:53:05:12:10:36:c9:9c:c3:af:6c:56:9d:20:
                    44:4b:b4:bc:67:d8:06:99:8e:fa:32:4c:c1:4f:09:
                    5a:46:ec:06:cf:ac:e1:fa:21
                Exponent: 65537 (0x10001)
        X509v3 extensions:
            X509v3 Basic Constraints: critical
                CA:TRUE
            X509v3 Issuer Alternative Name: critical
                <EMPTY>

    Signature Algorithm: sha256WithRSAEncryption
        34:ad:5e:5d:7a:64:12:a2:c0:f9:85:cb:e4:5c:43:0a:e9:f7:
        68:be:c5:96:93:83:04:ca:dc:2c:93:f6:a6:ec:fb:26:a7:9d:
        dc:d3:e7:ee:f2:d2:93:90:10:3c:4f:8f:ce:0e:63:60:d7:5d:
        6a:af:97:4d:3d:1b:4b:5c:e6:ed:24:19:c7:d9:20:27:0d:8e:
        d2:e2:85:68:c2:45:ba:2e:70:9b:78:bd:91:b6:29:0e:75:93:
        f3:c2:38:14:ee:37:c2:66:1b:cf:de:81:b1:64:eb:8d:19:c4:
        b2:1d:33:66:47:83:dc:e3:5b:14:d9:69:30:d8:5c:90:5f:34:
        48:d5
-----BEGIN CERTIFICATE-----
MIICczCCAdygAwIBAgIBGjANBgkqhkiG9w0BAQsFADBoMQswCQYDVQQGEwJVUzET
MBEGA1UECBMKQ2FsaWZvcm5pYTETMBEGA1UEBxMKTWVubG8gUGFyazENMAsGA1UE
ChMEcGtnNTEMMAoGA1UEAxMDdGEzMRIwEAYJKoZIhvcNAQkBFgN0YTMwHhcNMTEw
NDExMjIzNzQ3WhcNMTQwMTA1MjIzNzQ3WjB0MQswCQYDVQQGEwJVUzETMBEGA1UE
CBMKQ2FsaWZvcm5pYTETMBEGA1UEBxMKTWVubG8gUGFyazENMAsGA1UEChMEcGtn
NTESMBAGA1UEAxQJY2gxLjFfdGEzMRgwFgYJKoZIhvcNAQkBFgljaDEuMV90YTMw
gZ8wDQYJKoZIhvcNAQEBBQADgY0AMIGJAoGBAKEfVEMgZWOy/IvX9qiQ8B646QY3
yxvJR1Y6P+x+5u7GmtQVDWT31XcvUjFsNo0vB38Np895r2hwK3SnMJIeVfwq9LfD
RwFXT2W6WL91cwJMTKhRPYLuV/qTZNZTBRIQNsmcw69sVp0gREu0vGfYBpmO+jJM
wU8JWkbsBs+s4fohAgMBAAGjITAfMA8GA1UdEwEB/wQFMAMBAf8wDAYDVR0SAQH/
BAIwADANBgkqhkiG9w0BAQsFAAOBgQA0rV5demQSosD5hcvkXEMK6fdovsWWk4ME
ytwsk/am7Psmp53c0+fu8tKTkBA8T4/ODmNg111qr5dNPRtLXObtJBnH2SAnDY7S
4oVowkW6LnCbeL2RtikOdZPzwjgU7jfCZhvP3oGxZOuNGcSyHTNmR4Pc41sU2Wkw
2FyQXzRI1Q==
-----END CERTIFICATE-----
