Certificate:
    Data:
        Version: 3 (0x2)
        Serial Number: 26 (0x1a)
    Signature Algorithm: sha256WithRSAEncryption
        Issuer: C=US, ST=California, L=Santa Clara, O=pkg5, CN=ta3/emailAddress=ta3
        Validity
            Not Before: Jan 22 15:33:11 2019 GMT
            Not After : Oct 18 15:33:11 2021 GMT
        Subject: C=US, ST=California, L=Santa Clara, O=pkg5, CN=ch1.1_ta3/emailAddress=ch1.1_ta3
        Subject Public Key Info:
            Public Key Algorithm: rsaEncryption
                Public-Key: (2048 bit)
                Modulus:
                    00:a8:2e:14:a1:00:f6:bf:de:fd:2f:98:d7:5a:fd:
                    c1:f8:7b:49:a5:f3:dc:04:b4:b2:5e:79:8a:cb:90:
                    fd:90:97:8c:83:bc:4a:c4:6e:ba:ee:8c:a3:56:8b:
                    d3:70:52:21:29:cf:b0:d9:54:a4:ff:f7:26:b3:a8:
                    ae:bc:b5:5c:d8:e5:eb:f0:b4:30:72:5c:00:29:7b:
                    0f:3c:cb:02:7a:7a:81:e0:a3:97:eb:6b:9f:4e:19:
                    e9:08:ea:d3:e3:c7:26:26:11:49:ed:d6:5f:4a:30:
                    3f:95:d1:9d:62:e4:43:db:0f:99:c4:8a:66:27:dc:
                    23:b6:a8:bb:20:aa:ba:da:8c:e6:3d:de:59:54:b0:
                    26:19:2e:02:d0:8b:b3:21:b1:1f:4e:9a:c2:57:7d:
                    e5:77:a7:85:c6:6c:98:46:b0:0b:66:22:88:14:7d:
                    1f:70:96:e0:46:25:b1:a1:82:73:07:a9:7a:f2:31:
                    15:f0:4d:0e:7c:45:3f:e5:00:b5:f4:3d:4d:77:32:
                    a2:4f:11:bf:4e:ab:9f:66:6a:cf:4f:f8:79:fd:45:
                    db:82:e4:4f:e2:8a:30:16:93:5c:2a:97:0f:e4:2b:
                    2f:9e:8d:9a:e8:ac:15:9a:eb:c0:32:cc:2a:38:ae:
                    12:71:64:79:7f:1d:49:a4:8e:37:dd:12:80:68:22:
                    a0:cb
                Exponent: 65537 (0x10001)
        X509v3 extensions:
            X509v3 Basic Constraints: critical
                CA:TRUE
            X509v3 Issuer Alternative Name: critical
                <EMPTY>

    Signature Algorithm: sha256WithRSAEncryption
         72:cd:d8:79:4f:4e:e6:13:04:b4:27:b5:9c:6a:93:2b:1a:0b:
         ef:9e:6f:12:dd:f8:be:92:a3:bc:73:ab:f3:a4:fb:c5:08:bc:
         9a:0f:bd:7a:f6:ff:7b:64:cd:6a:e5:2e:e9:5f:e1:1f:90:bf:
         35:20:a2:34:0d:6b:b5:1a:75:42:e3:37:93:bd:b5:a4:11:b0:
         db:55:ed:92:fe:29:e7:0d:5c:9e:cd:20:a9:ec:ba:fb:11:10:
         94:35:ac:da:38:27:e4:8d:93:f1:a7:45:35:d3:13:58:36:d1:
         c8:f1:c6:12:a7:c9:e3:54:c5:0d:24:9f:fb:18:36:71:60:07:
         f4:82:d1:bb:4a:1a:1f:68:c9:61:45:3e:19:e3:e6:f8:e7:61:
         3c:9d:7d:c4:c5:cf:1e:9e:e6:7a:ce:1a:61:f0:e7:bf:dc:cf:
         d4:73:04:3a:83:1f:27:b6:8d:fa:e7:2c:5b:b1:d8:6b:e1:6f:
         aa:84:6a:18:f0:8a:6c:ef:5e:6b:0f:71:5f:21:19:6a:6c:a9:
         17:7a:8d:35:f9:49:10:8f:5a:f2:cb:dc:3b:18:49:cd:a1:8f:
         d5:68:bd:74:8a:52:12:1f:11:b9:ba:1c:7c:76:c2:41:44:26:
         a4:45:e2:cf:5d:da:49:9e:f7:2f:c7:40:5f:06:81:78:38:56:
         8a:ab:81:df
-----BEGIN CERTIFICATE-----
MIIDejCCAmKgAwIBAgIBGjANBgkqhkiG9w0BAQsFADBpMQswCQYDVQQGEwJVUzET
MBEGA1UECAwKQ2FsaWZvcm5pYTEUMBIGA1UEBwwLU2FudGEgQ2xhcmExDTALBgNV
BAoMBHBrZzUxDDAKBgNVBAMMA3RhMzESMBAGCSqGSIb3DQEJARYDdGEzMB4XDTE5
MDEyMjE1MzMxMVoXDTIxMTAxODE1MzMxMVowdTELMAkGA1UEBhMCVVMxEzARBgNV
BAgMCkNhbGlmb3JuaWExFDASBgNVBAcMC1NhbnRhIENsYXJhMQ0wCwYDVQQKDARw
a2c1MRIwEAYDVQQDDAljaDEuMV90YTMxGDAWBgkqhkiG9w0BCQEWCWNoMS4xX3Rh
MzCCASIwDQYJKoZIhvcNAQEBBQADggEPADCCAQoCggEBAKguFKEA9r/e/S+Y11r9
wfh7SaXz3AS0sl55isuQ/ZCXjIO8SsRuuu6Mo1aL03BSISnPsNlUpP/3JrOorry1
XNjl6/C0MHJcACl7DzzLAnp6geCjl+trn04Z6Qjq0+PHJiYRSe3WX0owP5XRnWLk
Q9sPmcSKZifcI7aouyCqutqM5j3eWVSwJhkuAtCLsyGxH06awld95XenhcZsmEaw
C2YiiBR9H3CW4EYlsaGCcwepevIxFfBNDnxFP+UAtfQ9TXcyok8Rv06rn2Zqz0/4
ef1F24LkT+KKMBaTXCqXD+QrL56NmuisFZrrwDLMKjiuEnFkeX8dSaSON90SgGgi
oMsCAwEAAaMhMB8wDwYDVR0TAQH/BAUwAwEB/zAMBgNVHRIBAf8EAjAAMA0GCSqG
SIb3DQEBCwUAA4IBAQByzdh5T07mEwS0J7WcapMrGgvvnm8S3fi+kqO8c6vzpPvF
CLyaD7169v97ZM1q5S7pX+EfkL81IKI0DWu1GnVC4zeTvbWkEbDbVe2S/innDVye
zSCp7Lr7ERCUNazaOCfkjZPxp0U10xNYNtHI8cYSp8njVMUNJJ/7GDZxYAf0gtG7
ShofaMlhRT4Z4+b452E8nX3Exc8enuZ6zhph8Oe/3M/UcwQ6gx8nto365yxbsdhr
4W+qhGoY8Ips715rD3FfIRlqbKkXeo01+UkQj1ryy9w7GEnNoY/VaL10ilISHxG5
uhx8dsJBRCakReLPXdpJnvcvx0BfBoF4OFaKq4Hf
-----END CERTIFICATE-----
