Certificate:
    Data:
        Version: 3 (0x2)
        Serial Number: 26 (0x1a)
    Signature Algorithm: sha256WithRSAEncryption
        Issuer: C=US, ST=California, L=Santa Clara, O=pkg5, CN=ta3/emailAddress=ta3
        Validity
            Not Before: Dec 13 00:13:36 2013 GMT
            Not After : Sep  8 00:13:36 2016 GMT
        Subject: C=US, ST=California, L=Santa Clara, O=pkg5, CN=ch1.1_ta3/emailAddress=ch1.1_ta3
        Subject Public Key Info:
            Public Key Algorithm: rsaEncryption
                Public-Key: (1024 bit)
                Modulus:
                    00:df:da:60:8b:c6:d6:55:f7:d0:5b:a7:5a:87:d2:
                    90:7b:9c:46:31:96:5e:15:a0:c7:44:b3:79:ce:ae:
                    d7:af:99:a9:fe:6d:c6:69:23:09:45:68:64:01:dc:
                    a0:7e:8c:ed:c9:bc:14:d3:84:62:2a:8a:21:30:48:
                    30:97:94:99:84:69:f0:c0:46:a4:72:82:51:30:fe:
                    f0:fc:60:6c:ea:b8:7d:52:ce:fd:e5:20:b7:9f:4b:
                    03:21:74:f3:58:35:3a:ef:f7:e0:84:64:06:84:36:
                    62:e8:82:65:82:1e:56:c7:ea:1e:eb:65:7d:b3:83:
                    9c:fc:e6:ba:65:c4:82:e3:5f
                Exponent: 65537 (0x10001)
        X509v3 extensions:
            X509v3 Basic Constraints: critical
                CA:TRUE
            X509v3 Issuer Alternative Name: critical
                <EMPTY>

    Signature Algorithm: sha256WithRSAEncryption
         ae:2b:af:4b:e6:7b:a1:28:27:46:1e:10:55:c2:2c:e4:6b:e9:
         f2:6c:38:87:ed:f1:da:d5:92:39:89:22:53:3e:b4:da:3d:ae:
         8d:ea:42:15:bb:4d:c6:ef:50:9c:1d:8b:93:92:7d:33:31:bd:
         48:79:76:15:d4:8a:fd:bd:ae:1d:61:43:8d:88:ec:83:8d:15:
         c9:50:73:e0:07:1a:41:e7:b2:a0:ac:9b:33:ed:bd:73:c5:32:
         25:dd:ad:01:4b:90:62:25:e8:75:8e:19:e8:f5:4b:b8:89:2a:
         c6:eb:d6:9c:31:f5:83:dd:1d:f9:71:11:ce:3b:0c:f5:e3:e4:
         89:0a
-----BEGIN CERTIFICATE-----
MIICdTCCAd6gAwIBAgIBGjANBgkqhkiG9w0BAQsFADBpMQswCQYDVQQGEwJVUzET
MBEGA1UECAwKQ2FsaWZvcm5pYTEUMBIGA1UEBwwLU2FudGEgQ2xhcmExDTALBgNV
BAoMBHBrZzUxDDAKBgNVBAMMA3RhMzESMBAGCSqGSIb3DQEJARYDdGEzMB4XDTEz
MTIxMzAwMTMzNloXDTE2MDkwODAwMTMzNlowdTELMAkGA1UEBhMCVVMxEzARBgNV
BAgMCkNhbGlmb3JuaWExFDASBgNVBAcMC1NhbnRhIENsYXJhMQ0wCwYDVQQKDARw
a2c1MRIwEAYDVQQDDAljaDEuMV90YTMxGDAWBgkqhkiG9w0BCQEWCWNoMS4xX3Rh
MzCBnzANBgkqhkiG9w0BAQEFAAOBjQAwgYkCgYEA39pgi8bWVffQW6dah9KQe5xG
MZZeFaDHRLN5zq7Xr5mp/m3GaSMJRWhkAdygfoztybwU04RiKoohMEgwl5SZhGnw
wEakcoJRMP7w/GBs6rh9Us795SC3n0sDIXTzWDU67/fghGQGhDZi6IJlgh5Wx+oe
62V9s4Oc/Oa6ZcSC418CAwEAAaMhMB8wDwYDVR0TAQH/BAUwAwEB/zAMBgNVHRIB
Af8EAjAAMA0GCSqGSIb3DQEBCwUAA4GBAK4rr0vme6EoJ0YeEFXCLORr6fJsOIft
8drVkjmJIlM+tNo9ro3qQhW7TcbvUJwdi5OSfTMxvUh5dhXUiv29rh1hQ42I7ION
FclQc+AHGkHnsqCsmzPtvXPFMiXdrQFLkGIl6HWOGej1S7iJKsbr1pwx9YPdHflx
Ec47DPXj5IkK
-----END CERTIFICATE-----
