Certificate:
    Data:
        Version: 3 (0x2)
        Serial Number: 26 (0x1a)
        Signature Algorithm: sha256WithRSAEncryption
        Issuer: C=US, ST=California, L=Menlo Park, O=pkg5, CN=ta3/emailAddress=ta3
        Validity
            Not Before: Mar 21 00:49:29 2011 GMT
            Not After : Dec 15 00:49:29 2013 GMT
        Subject: C=US, ST=California, L=Menlo Park, O=pkg5, CN=ch1.1_ta3/emailAddress=ch1.1_ta3
        Subject Public Key Info:
            Public Key Algorithm: rsaEncryption
            RSA Public Key: (1024 bit)
                Modulus (1024 bit):
                    00:b1:2b:53:b9:59:1d:7a:5f:9b:1e:8f:62:91:94:
                    a7:05:dc:e8:3b:87:d0:e4:3c:76:b8:60:a5:30:bd:
                    0f:24:a5:5f:9e:cc:4f:cc:e3:b2:23:23:4b:37:3b:
                    97:25:48:00:0e:1c:31:ae:8f:1d:cd:32:f8:25:a2:
                    fe:d9:50:c5:ec:7e:ef:d8:09:1d:6f:bb:e0:60:b0:
                    33:fd:66:39:b4:ff:2f:54:6b:7d:88:d8:e8:6a:1e:
                    cd:54:0a:da:ed:c3:5f:89:c5:1d:b4:4f:9e:3c:11:
                    3c:1d:0b:8a:88:b0:64:c2:79:88:e7:2d:e4:3f:c8:
                    a4:eb:d4:f3:3e:9b:9a:98:7d
                Exponent: 65537 (0x10001)
        X509v3 extensions:
            X509v3 Basic Constraints: critical
                CA:TRUE
            X509v3 Issuer Alternative Name: critical
                <EMPTY>

    Signature Algorithm: sha256WithRSAEncryption
        0a:d2:4f:8e:74:ec:43:44:20:84:14:8b:11:02:10:f1:a0:d3:
        93:4f:dc:be:fe:cc:33:ec:f7:7e:2b:58:45:94:d0:03:e4:a3:
        58:13:aa:81:f1:6d:d7:f7:64:09:7f:d8:68:e5:97:25:7a:65:
        70:e8:b1:60:9a:55:4b:d5:26:fd:0f:7b:36:88:6e:5f:98:ee:
        77:cb:df:ce:62:cd:ae:70:14:91:66:ee:e5:a3:9f:72:89:bf:
        8f:66:86:4b:71:27:6a:d0:d2:15:20:d5:11:35:4a:e5:28:6f:
        e2:8a:dc:29:08:e0:da:7d:fa:df:1e:b5:ea:66:80:18:d3:4f:
        1d:a8
-----BEGIN CERTIFICATE-----
MIICczCCAdygAwIBAgIBGjANBgkqhkiG9w0BAQsFADBoMQswCQYDVQQGEwJVUzET
MBEGA1UECBMKQ2FsaWZvcm5pYTETMBEGA1UEBxMKTWVubG8gUGFyazENMAsGA1UE
ChMEcGtnNTEMMAoGA1UEAxMDdGEzMRIwEAYJKoZIhvcNAQkBFgN0YTMwHhcNMTEw
MzIxMDA0OTI5WhcNMTMxMjE1MDA0OTI5WjB0MQswCQYDVQQGEwJVUzETMBEGA1UE
CBMKQ2FsaWZvcm5pYTETMBEGA1UEBxMKTWVubG8gUGFyazENMAsGA1UEChMEcGtn
NTESMBAGA1UEAxQJY2gxLjFfdGEzMRgwFgYJKoZIhvcNAQkBFgljaDEuMV90YTMw
gZ8wDQYJKoZIhvcNAQEBBQADgY0AMIGJAoGBALErU7lZHXpfmx6PYpGUpwXc6DuH
0OQ8drhgpTC9DySlX57MT8zjsiMjSzc7lyVIAA4cMa6PHc0y+CWi/tlQxex+79gJ
HW+74GCwM/1mObT/L1RrfYjY6GoezVQK2u3DX4nFHbRPnjwRPB0LioiwZMJ5iOct
5D/IpOvU8z6bmph9AgMBAAGjITAfMA8GA1UdEwEB/wQFMAMBAf8wDAYDVR0SAQH/
BAIwADANBgkqhkiG9w0BAQsFAAOBgQAK0k+OdOxDRCCEFIsRAhDxoNOTT9y+/swz
7Pd+K1hFlNAD5KNYE6qB8W3X92QJf9ho5ZclemVw6LFgmlVL1Sb9D3s2iG5fmO53
y9/OYs2ucBSRZu7lo59yib+PZoZLcSdq0NIVINURNUrlKG/iitwpCODaffrfHrXq
ZoAY008dqA==
-----END CERTIFICATE-----
