Certificate:
    Data:
        Version: 3 (0x2)
        Serial Number: 26 (0x1a)
    Signature Algorithm: sha256WithRSAEncryption
        Issuer: C=US, ST=California, L=Santa Clara, O=pkg5, CN=ta3/emailAddress=ta3
        Validity
            Not Before: Jul 19 11:35:48 2023 GMT
            Not After : Apr 14 11:35:48 2026 GMT
        Subject: C=US, ST=California, L=Santa Clara, O=pkg5, CN=ch1.1_ta3/emailAddress=ch1.1_ta3
        Subject Public Key Info:
            Public Key Algorithm: rsaEncryption
                Public-Key: (2048 bit)
                Modulus:
                    00:ad:25:59:6e:d7:b5:31:e3:5a:da:3f:67:19:c3:
                    bc:6e:c4:c1:e2:8d:22:ec:b2:e8:0f:c6:d1:f1:c0:
                    05:60:37:42:b4:d1:09:ba:96:7a:46:9c:98:70:aa:
                    23:9d:0c:aa:da:0d:f3:86:8d:94:c5:73:05:db:61:
                    c1:f7:19:95:e7:34:f0:73:5f:a7:7c:37:30:33:a0:
                    b6:5a:f1:a7:2d:53:f2:47:d3:38:40:84:09:61:a3:
                    b0:14:57:33:1e:d1:76:69:0a:b6:68:46:e3:6f:c3:
                    9f:06:77:95:0f:b3:a3:be:61:f1:5e:42:fc:23:20:
                    69:d6:2b:c2:bd:8d:49:98:32:a1:01:f6:f6:b4:c8:
                    d8:e5:fe:bb:2b:ce:d8:ef:87:4f:e9:89:5f:55:e6:
                    6a:10:f2:df:f5:61:a3:d2:76:37:e1:48:d5:2a:a2:
                    c7:67:8e:94:f2:42:78:f5:75:27:cc:ea:c7:1c:86:
                    76:e1:22:0b:21:d4:f1:45:82:6b:cf:37:9d:18:9f:
                    63:7d:68:a8:e6:7a:33:50:c5:36:84:3c:50:e0:47:
                    40:db:98:b3:ce:27:70:a1:f4:d5:5f:8b:a3:36:2c:
                    45:34:53:b7:4a:39:5c:bd:ea:a9:5f:25:d5:5e:1f:
                    d5:3a:0e:82:93:42:c5:c8:c9:12:49:35:32:b9:9b:
                    a4:d3
                Exponent: 65537 (0x10001)
        X509v3 extensions:
            X509v3 Basic Constraints: critical
                CA:TRUE
            X509v3 Issuer Alternative Name: critical
                <EMPTY>

    Signature Algorithm: sha256WithRSAEncryption
         12:1e:02:13:b8:06:58:bf:07:4c:db:5b:59:cf:94:6c:30:a4:
         b4:cb:2d:e4:6e:5f:9d:7f:1a:68:50:33:a5:81:a1:03:fb:60:
         a0:5f:ef:9f:ce:53:76:9d:2d:6d:48:a3:d7:63:42:bc:22:a0:
         a5:86:85:6a:d3:ab:b9:9f:a5:18:76:80:49:b8:cb:7d:b1:2a:
         c7:b9:5d:da:04:15:24:8c:bc:00:20:5d:22:37:60:c3:c6:67:
         39:e7:e2:58:36:6e:cb:88:a1:40:1a:f8:c2:27:f1:15:61:3e:
         9e:b4:96:65:65:b7:fa:bd:3a:4c:fe:e6:36:b5:f9:f6:96:bd:
         d8:1e:a2:80:60:7a:ea:10:26:af:31:8e:45:13:8c:6b:47:94:
         19:2a:ba:98:ea:e5:e6:6a:f9:e1:64:09:53:c2:70:0b:07:1d:
         5d:a4:f8:c1:b1:dd:c9:93:8a:0b:30:e4:9c:e9:33:f0:04:83:
         db:a0:82:2c:be:6e:fd:0c:f9:33:5f:b3:6e:06:64:d3:ba:1e:
         0f:87:55:64:e9:0a:4b:77:39:dd:91:c8:22:b5:fb:64:a5:0b:
         23:90:65:a8:51:fb:f1:3e:b0:0d:75:d5:da:c0:15:2f:36:21:
         e7:ac:d4:7a:37:97:71:98:77:42:87:57:fd:3a:e4:5e:ba:bb:
         8b:2f:26:43
-----BEGIN CERTIFICATE-----
MIIDejCCAmKgAwIBAgIBGjANBgkqhkiG9w0BAQsFADBpMQswCQYDVQQGEwJVUzET
MBEGA1UECAwKQ2FsaWZvcm5pYTEUMBIGA1UEBwwLU2FudGEgQ2xhcmExDTALBgNV
BAoMBHBrZzUxDDAKBgNVBAMMA3RhMzESMBAGCSqGSIb3DQEJARYDdGEzMB4XDTIz
MDcxOTExMzU0OFoXDTI2MDQxNDExMzU0OFowdTELMAkGA1UEBhMCVVMxEzARBgNV
BAgMCkNhbGlmb3JuaWExFDASBgNVBAcMC1NhbnRhIENsYXJhMQ0wCwYDVQQKDARw
a2c1MRIwEAYDVQQDDAljaDEuMV90YTMxGDAWBgkqhkiG9w0BCQEWCWNoMS4xX3Rh
MzCCASIwDQYJKoZIhvcNAQEBBQADggEPADCCAQoCggEBAK0lWW7XtTHjWto/ZxnD
vG7EweKNIuyy6A/G0fHABWA3QrTRCbqWekacmHCqI50MqtoN84aNlMVzBdthwfcZ
lec08HNfp3w3MDOgtlrxpy1T8kfTOECECWGjsBRXMx7RdmkKtmhG42/DnwZ3lQ+z
o75h8V5C/CMgadYrwr2NSZgyoQH29rTI2OX+uyvO2O+HT+mJX1XmahDy3/Vho9J2
N+FI1Sqix2eOlPJCePV1J8zqxxyGduEiCyHU8UWCa883nRifY31oqOZ6M1DFNoQ8
UOBHQNuYs84ncKH01V+LozYsRTRTt0o5XL3qqV8l1V4f1ToOgpNCxcjJEkk1Mrmb
pNMCAwEAAaMhMB8wDwYDVR0TAQH/BAUwAwEB/zAMBgNVHRIBAf8EAjAAMA0GCSqG
SIb3DQEBCwUAA4IBAQASHgITuAZYvwdM21tZz5RsMKS0yy3kbl+dfxpoUDOlgaED
+2CgX++fzlN2nS1tSKPXY0K8IqClhoVq06u5n6UYdoBJuMt9sSrHuV3aBBUkjLwA
IF0iN2DDxmc55+JYNm7LiKFAGvjCJ/EVYT6etJZlZbf6vTpM/uY2tfn2lr3YHqKA
YHrqECavMY5FE4xrR5QZKrqY6uXmavnhZAlTwnALBx1dpPjBsd3Jk4oLMOSc6TPw
BIPboIIsvm79DPkzX7NuBmTTuh4Ph1Vk6QpLdzndkcgitftkpQsjkGWoUfvxPrAN
ddXawBUvNiHnrNR6N5dxmHdCh1f9OuReuruLLyZD
-----END CERTIFICATE-----
