Certificate:
    Data:
        Version: 3 (0x2)
        Serial Number: 27 (0x1b)
    Signature Algorithm: sha256WithRSAEncryption
        Issuer: C=US, ST=California, L=Santa Clara, O=pkg5, CN=ta3/emailAddress=ta3
        Validity
            Not Before: Jan 22 01:57:57 2016 GMT
            Not After : Oct 18 01:57:57 2018 GMT
        Subject: C=US, ST=California, L=Santa Clara, O=pkg5, CN=ch1.1_ta3/emailAddress=ch1.1_ta3
        Subject Public Key Info:
            Public Key Algorithm: rsaEncryption
                Public-Key: (2048 bit)
                Modulus:
                    00:9f:68:52:eb:ed:18:33:43:ef:ec:5d:7a:a7:a7:
                    06:d7:86:ce:0d:52:d6:da:ab:34:ad:9f:cd:0a:79:
                    20:47:a9:3d:8f:f8:6b:e3:1a:9d:df:88:5c:c4:ad:
                    06:66:22:d9:d7:f0:c2:ca:b3:ae:9c:78:e6:2d:18:
                    20:c9:cc:e1:1a:27:12:32:b3:0b:eb:ba:e2:0e:ce:
                    dd:fa:22:0b:ae:00:03:ee:89:1e:03:14:d4:86:80:
                    b9:a2:98:be:60:25:63:2a:16:b4:63:1a:3f:0b:53:
                    13:c6:53:77:1c:ed:b2:11:e6:f4:d5:1a:51:c0:f5:
                    0f:3c:f7:b7:85:cf:66:f4:88:b0:e3:ea:35:fd:bc:
                    35:e0:82:16:a8:08:b0:9b:c9:2e:88:94:bb:ac:5d:
                    76:2f:b5:cf:da:e7:4e:72:d3:dc:8e:df:aa:0b:ed:
                    55:ac:41:01:4f:fd:68:87:ee:ee:32:90:d6:95:b0:
                    f7:78:1c:82:34:31:46:44:fa:f4:1a:63:88:ee:14:
                    96:b1:bf:bd:41:82:77:4e:bb:5f:06:2b:dc:2f:4c:
                    d3:42:96:0c:c2:82:a8:fb:3b:9f:4b:9f:d5:0a:74:
                    44:62:4f:9f:55:ce:ed:72:7e:26:ee:22:12:6f:69:
                    87:53:b8:79:aa:ee:21:e2:5f:bc:dd:c1:2a:2a:75:
                    86:45
                Exponent: 65537 (0x10001)
        X509v3 extensions:
            X509v3 Basic Constraints: critical
                CA:TRUE
            X509v3 Issuer Alternative Name: critical
                <EMPTY>

    Signature Algorithm: sha256WithRSAEncryption
         0e:01:13:03:6b:ee:cc:3f:ef:73:4b:8e:5e:a9:4d:67:34:05:
         a7:58:5e:58:cf:09:25:77:74:82:da:76:03:79:cf:65:83:c5:
         97:2c:dc:37:b8:d6:c9:bb:a9:5d:57:17:5b:da:c3:8d:18:11:
         e4:47:d4:e5:a2:72:0d:15:eb:1c:de:82:ff:cc:30:98:0b:4c:
         46:96:63:f0:00:87:db:ac:1d:88:b3:c4:3b:ea:ac:20:4b:b1:
         e3:71:28:8f:a6:bb:b4:0d:b8:6f:8d:eb:e9:9a:0f:53:03:1a:
         ab:a0:c7:db:0c:e8:6e:05:a3:90:26:00:68:65:67:b7:a1:8e:
         0c:08:96:2e:27:03:4b:df:b6:c8:a1:53:ce:3c:83:b0:7b:d8:
         5f:8f:cf:61:d9:7c:8a:79:e4:a6:3a:79:0a:a7:82:c1:d3:d4:
         a4:01:a2:82:08:f0:01:77:0f:2c:dc:40:73:81:35:83:ff:56:
         4e:70:65:89:4e:17:9a:ff:7d:c4:9f:eb:62:f3:d3:44:87:c2:
         d5:41:28:2d:72:69:d9:f9:94:9a:c9:0a:f1:02:9a:47:04:3e:
         80:d6:c8:14:ab:e2:c7:3a:24:86:01:77:58:af:2b:e4:6a:73:
         81:96:7f:5d:0b:34:ff:ef:98:88:f9:ea:2b:43:a4:2c:56:65:
         c1:2c:f5:48
-----BEGIN CERTIFICATE-----
MIIDejCCAmKgAwIBAgIBGzANBgkqhkiG9w0BAQsFADBpMQswCQYDVQQGEwJVUzET
MBEGA1UECAwKQ2FsaWZvcm5pYTEUMBIGA1UEBwwLU2FudGEgQ2xhcmExDTALBgNV
BAoMBHBrZzUxDDAKBgNVBAMMA3RhMzESMBAGCSqGSIb3DQEJARYDdGEzMB4XDTE2
MDEyMjAxNTc1N1oXDTE4MTAxODAxNTc1N1owdTELMAkGA1UEBhMCVVMxEzARBgNV
BAgMCkNhbGlmb3JuaWExFDASBgNVBAcMC1NhbnRhIENsYXJhMQ0wCwYDVQQKDARw
a2c1MRIwEAYDVQQDDAljaDEuMV90YTMxGDAWBgkqhkiG9w0BCQEWCWNoMS4xX3Rh
MzCCASIwDQYJKoZIhvcNAQEBBQADggEPADCCAQoCggEBAJ9oUuvtGDND7+xdeqen
BteGzg1S1tqrNK2fzQp5IEepPY/4a+Mand+IXMStBmYi2dfwwsqzrpx45i0YIMnM
4RonEjKzC+u64g7O3foiC64AA+6JHgMU1IaAuaKYvmAlYyoWtGMaPwtTE8ZTdxzt
shHm9NUaUcD1Dzz3t4XPZvSIsOPqNf28NeCCFqgIsJvJLoiUu6xddi+1z9rnTnLT
3I7fqgvtVaxBAU/9aIfu7jKQ1pWw93gcgjQxRkT69BpjiO4UlrG/vUGCd067XwYr
3C9M00KWDMKCqPs7n0uf1Qp0RGJPn1XO7XJ+Ju4iEm9ph1O4earuIeJfvN3BKip1
hkUCAwEAAaMhMB8wDwYDVR0TAQH/BAUwAwEB/zAMBgNVHRIBAf8EAjAAMA0GCSqG
SIb3DQEBCwUAA4IBAQAOARMDa+7MP+9zS45eqU1nNAWnWF5Yzwkld3SC2nYDec9l
g8WXLNw3uNbJu6ldVxdb2sONGBHkR9TlonINFesc3oL/zDCYC0xGlmPwAIfbrB2I
s8Q76qwgS7HjcSiPpru0Dbhvjevpmg9TAxqroMfbDOhuBaOQJgBoZWe3oY4MCJYu
JwNL37bIoVPOPIOwe9hfj89h2XyKeeSmOnkKp4LB09SkAaKCCPABdw8s3EBzgTWD
/1ZOcGWJThea/33En+ti89NEh8LVQSgtcmnZ+ZSayQrxAppHBD6A1sgUq+LHOiSG
AXdYryvkanOBln9dCzT/75iI+eorQ6QsVmXBLPVI
-----END CERTIFICATE-----
