Certificate:
    Data:
        Version: 3 (0x2)
        Serial Number: 28 (0x1c)
    Signature Algorithm: sha256WithRSAEncryption
        Issuer: C=US, ST=California, L=Santa Clara, O=pkg5, CN=ta3/emailAddress=ta3
        Validity
            Not Before: Jan  1 01:01:01 2009 GMT
            Not After : Jan  2 01:01:01 2009 GMT
        Subject: C=US, ST=California, L=Santa Clara, O=pkg5, CN=ch1.2_ta3/emailAddress=ch1.2_ta3
        Subject Public Key Info:
            Public Key Algorithm: rsaEncryption
                Public-Key: (2048 bit)
                Modulus:
                    00:98:5b:e0:61:53:d4:fd:c0:f8:c0:37:17:95:71:
                    f0:99:5b:74:40:f4:87:c4:85:33:ce:97:69:a3:bd:
                    12:4c:1b:13:94:1b:28:eb:c3:13:67:57:fb:40:88:
                    0c:57:9f:e2:2f:5a:f2:86:5f:0c:c3:97:8a:be:47:
                    ba:c0:22:36:9b:a5:cf:e1:ba:1c:2c:1d:d0:af:25:
                    0b:f7:bf:3e:a3:d9:91:7c:ed:b2:ca:f3:7a:3b:69:
                    37:4f:57:15:b4:82:28:07:f7:e4:74:f8:fb:de:86:
                    f8:73:0b:24:9a:ec:1a:dc:08:9e:9c:27:40:11:c2:
                    d6:58:43:23:38:ea:09:01:8f:6f:26:d7:30:11:b5:
                    2c:bd:4f:cc:d2:8d:54:dd:e2:35:7d:8e:95:96:4f:
                    6b:dc:a6:6a:db:35:53:5c:0d:46:94:b3:32:f4:31:
                    4a:5f:e1:e8:0b:eb:94:5d:dc:02:0d:60:95:f9:06:
                    20:82:6a:88:25:9c:bc:7a:83:f6:de:0b:7a:03:c1:
                    4a:dc:9b:db:50:71:06:27:c4:66:73:69:f2:bc:85:
                    f0:d6:26:23:f0:91:a8:61:3c:fa:92:f4:84:ae:13:
                    2f:e9:db:d3:31:f7:06:76:58:bd:fc:0a:ad:2b:e4:
                    aa:01:60:f2:75:9d:4e:15:3c:f2:a8:0d:b6:ce:56:
                    39:6f
                Exponent: 65537 (0x10001)
        X509v3 extensions:
            X509v3 Subject Key Identifier: 
                6F:ED:68:96:7A:BB:F1:A5:BD:1D:FF:4A:C2:2D:66:64:E2:5E:63:8C
            X509v3 Authority Key Identifier: 
                keyid:D4:96:C5:46:89:1A:DF:AE:C8:49:CA:65:E8:A8:C4:8E:10:60:26:1A
                DirName:/C=US/ST=California/L=Santa Clara/O=pkg5/CN=ta3/emailAddress=ta3
                serial:8D:46:D3:00:C5:00:EE:1C

            X509v3 Basic Constraints: critical
                CA:TRUE
            X509v3 Key Usage: critical
                Certificate Sign, CRL Sign
    Signature Algorithm: sha256WithRSAEncryption
         7a:77:2a:c1:39:ad:ed:55:35:20:2e:dd:04:1e:a9:cd:5d:a6:
         50:8d:a3:39:91:20:a6:9b:b7:96:e2:2f:f9:03:0e:32:ad:73:
         1d:4a:9c:58:2f:dd:25:07:84:aa:12:a5:31:de:3c:03:6b:47:
         a9:1d:e8:17:3b:45:4e:e0:13:03:35:e4:8f:70:5b:b8:91:85:
         a5:54:36:c4:94:31:05:64:49:da:e7:80:5e:2c:95:90:a3:c7:
         45:af:62:36:70:36:23:42:36:57:e7:00:5e:41:ca:09:fa:59:
         4d:1f:33:d4:e9:2c:d5:63:dd:56:7e:de:1b:47:21:ea:bf:d0:
         dd:23:49:5a:2f:7e:8f:37:5a:01:48:a2:25:21:1d:49:65:6f:
         09:3d:1f:56:1f:d9:7f:28:79:5e:3a:72:29:7c:e6:b5:6e:8d:
         38:69:fa:42:a7:cc:5b:32:10:b9:6a:16:db:00:2a:6c:7c:bf:
         c8:ce:12:68:9e:b6:33:43:30:a8:f9:41:5d:64:b2:23:33:4f:
         86:e6:f2:5a:df:c5:5b:46:38:3c:92:be:33:32:32:a7:c5:73:
         c5:8b:39:c9:a3:97:fa:9e:1c:a2:03:b1:51:b1:b1:ce:80:e1:
         9d:94:c7:73:13:5b:f4:c3:de:21:f3:58:c8:7b:72:4e:7f:44:
         d7:23:77:c0
-----BEGIN CERTIFICATE-----
MIIEOzCCAyOgAwIBAgIBHDANBgkqhkiG9w0BAQsFADBpMQswCQYDVQQGEwJVUzET
MBEGA1UECAwKQ2FsaWZvcm5pYTEUMBIGA1UEBwwLU2FudGEgQ2xhcmExDTALBgNV
BAoMBHBrZzUxDDAKBgNVBAMMA3RhMzESMBAGCSqGSIb3DQEJARYDdGEzMB4XDTA5
MDEwMTAxMDEwMVoXDTA5MDEwMjAxMDEwMVowdTELMAkGA1UEBhMCVVMxEzARBgNV
BAgMCkNhbGlmb3JuaWExFDASBgNVBAcMC1NhbnRhIENsYXJhMQ0wCwYDVQQKDARw
a2c1MRIwEAYDVQQDDAljaDEuMl90YTMxGDAWBgkqhkiG9w0BCQEWCWNoMS4yX3Rh
MzCCASIwDQYJKoZIhvcNAQEBBQADggEPADCCAQoCggEBAJhb4GFT1P3A+MA3F5Vx
8JlbdED0h8SFM86XaaO9EkwbE5QbKOvDE2dX+0CIDFef4i9a8oZfDMOXir5HusAi
Npulz+G6HCwd0K8lC/e/PqPZkXztssrzejtpN09XFbSCKAf35HT4+96G+HMLJJrs
GtwInpwnQBHC1lhDIzjqCQGPbybXMBG1LL1PzNKNVN3iNX2OlZZPa9ymats1U1wN
RpSzMvQxSl/h6AvrlF3cAg1glfkGIIJqiCWcvHqD9t4LegPBStyb21BxBifEZnNp
8ryF8NYmI/CRqGE8+pL0hK4TL+nb0zH3BnZYvfwKrSvkqgFg8nWdThU88qgNts5W
OW8CAwEAAaOB4TCB3jAdBgNVHQ4EFgQUb+1olnq78aW9Hf9Kwi1mZOJeY4wwgZsG
A1UdIwSBkzCBkIAU1JbFRoka367IScpl6KjEjhBgJhqhbaRrMGkxCzAJBgNVBAYT
AlVTMRMwEQYDVQQIDApDYWxpZm9ybmlhMRQwEgYDVQQHDAtTYW50YSBDbGFyYTEN
MAsGA1UECgwEcGtnNTEMMAoGA1UEAwwDdGEzMRIwEAYJKoZIhvcNAQkBFgN0YTOC
CQCNRtMAxQDuHDAPBgNVHRMBAf8EBTADAQH/MA4GA1UdDwEB/wQEAwIBBjANBgkq
hkiG9w0BAQsFAAOCAQEAencqwTmt7VU1IC7dBB6pzV2mUI2jOZEgppu3luIv+QMO
Mq1zHUqcWC/dJQeEqhKlMd48A2tHqR3oFztFTuATAzXkj3BbuJGFpVQ2xJQxBWRJ
2ueAXiyVkKPHRa9iNnA2I0I2V+cAXkHKCfpZTR8z1Oks1WPdVn7eG0ch6r/Q3SNJ
Wi9+jzdaAUiiJSEdSWVvCT0fVh/Zfyh5XjpyKXzmtW6NOGn6QqfMWzIQuWoW2wAq
bHy/yM4SaJ62M0MwqPlBXWSyIzNPhubyWt/FW0Y4PJK+MzIyp8VzxYs5yaOX+p4c
ogOxUbGxzoDhnZTHcxNb9MPeIfNYyHtyTn9E1yN3wA==
-----END CERTIFICATE-----
