Certificate:
    Data:
        Version: 3 (0x2)
        Serial Number: 28 (0x1c)
    Signature Algorithm: sha256WithRSAEncryption
        Issuer: C=US, ST=California, L=Santa Clara, O=pkg5, CN=ta3/emailAddress=ta3
        Validity
            Not Before: Jan  1 01:01:01 2009 GMT
            Not After : Jan  2 01:01:01 2009 GMT
        Subject: C=US, ST=California, L=Santa Clara, O=pkg5, CN=ch1.2_ta3/emailAddress=ch1.2_ta3
        Subject Public Key Info:
            Public Key Algorithm: rsaEncryption
                Public-Key: (2048 bit)
                Modulus:
                    00:e8:c8:99:2d:5b:f2:46:cd:5f:7a:97:24:d3:b0:
                    fb:05:58:68:1f:aa:89:c2:ab:1c:82:9a:1a:b4:28:
                    48:1c:19:58:de:c2:2d:ed:57:39:5b:6f:56:d0:8e:
                    91:3a:4c:8d:7f:af:ce:10:0d:27:35:7f:fd:53:7d:
                    4d:f6:80:c3:b1:18:4e:a6:7e:f6:00:0e:f9:ac:66:
                    b9:33:52:28:bf:f7:7f:e2:43:d5:f1:59:7e:6a:ad:
                    b0:80:91:6e:c5:ab:29:fe:66:20:2c:9b:81:71:25:
                    7a:d4:48:6e:4b:1d:e2:b4:63:e4:3d:35:ef:f8:9a:
                    e4:76:85:f9:79:94:dc:10:23:e3:07:79:ab:b6:26:
                    e1:6d:3f:1e:73:42:59:1f:de:7f:17:e1:95:62:43:
                    8c:f2:35:52:d1:7b:0e:5c:d8:33:84:0c:f0:73:97:
                    04:21:56:b2:4a:68:79:64:d4:5c:a5:57:52:6d:98:
                    44:2f:dc:6d:63:14:c3:09:fa:02:4c:68:f3:8e:e0:
                    fb:7a:2c:ac:3f:d5:36:f7:d3:cf:79:fc:53:82:66:
                    36:4c:c2:00:f4:82:7a:da:56:ae:89:cc:88:36:43:
                    b3:68:9b:d7:32:20:6d:c0:21:68:4b:a8:4a:9e:35:
                    8d:99:ee:4a:cc:10:d7:27:78:5e:25:c6:54:bd:13:
                    bc:45
                Exponent: 65537 (0x10001)
        X509v3 extensions:
            X509v3 Subject Key Identifier: 
                86:A1:57:88:C0:F9:36:46:A6:F3:C4:42:2B:0D:14:40:4B:3A:6B:54
            X509v3 Authority Key Identifier: 
                keyid:CB:9F:D9:B5:D9:C8:81:12:9B:8E:95:9D:97:1F:DB:47:09:05:39:09
                DirName:/C=US/ST=California/L=Santa Clara/O=pkg5/CN=ta3/emailAddress=ta3
                serial:F3:7D:D2:B8:8F:C0:94:19

            X509v3 Basic Constraints: critical
                CA:TRUE
            X509v3 Key Usage: critical
                Certificate Sign, CRL Sign
    Signature Algorithm: sha256WithRSAEncryption
         13:49:a1:8a:82:e8:78:bd:f0:b7:fc:9b:f5:2e:f0:19:7c:eb:
         a3:f5:07:e6:c0:33:17:70:e6:90:8c:ce:a0:75:43:86:1f:cc:
         06:1b:a4:d1:f0:0b:d3:1c:f5:a0:d2:8d:d4:b1:b8:d9:83:2b:
         8d:00:fa:1f:de:b2:6b:b1:e8:f9:37:a1:be:25:34:59:e6:da:
         02:58:47:d7:e4:53:56:e9:b3:37:58:44:c9:6e:89:78:d0:83:
         a5:02:20:b8:15:dc:12:b9:ad:84:28:21:9e:90:94:a7:ac:e7:
         8d:f1:14:54:8d:91:00:15:49:7f:c8:8a:e8:6a:a2:7b:73:05:
         90:dc:ba:04:54:8a:b6:eb:a4:f0:d2:eb:35:8a:64:d0:03:07:
         5c:16:b5:cc:62:b8:1b:66:bf:74:85:8f:20:56:35:36:a9:0c:
         b8:58:60:20:f6:51:dd:b1:20:ee:6e:6b:5e:a7:15:06:aa:cf:
         66:48:a2:47:fc:eb:8a:ba:ef:e9:36:65:89:f6:47:35:28:39:
         c3:d2:09:7d:99:09:3d:98:fc:53:02:4c:1b:01:e6:a1:e9:64:
         b1:e9:cd:01:9c:46:e9:d5:26:d1:0e:3b:5a:c2:63:e8:f8:47:
         a1:21:20:07:76:64:f0:2c:5c:ad:ea:d5:dd:91:bd:5e:bd:15:
         d6:14:88:22
-----BEGIN CERTIFICATE-----
MIIEOzCCAyOgAwIBAgIBHDANBgkqhkiG9w0BAQsFADBpMQswCQYDVQQGEwJVUzET
MBEGA1UECAwKQ2FsaWZvcm5pYTEUMBIGA1UEBwwLU2FudGEgQ2xhcmExDTALBgNV
BAoMBHBrZzUxDDAKBgNVBAMMA3RhMzESMBAGCSqGSIb3DQEJARYDdGEzMB4XDTA5
MDEwMTAxMDEwMVoXDTA5MDEwMjAxMDEwMVowdTELMAkGA1UEBhMCVVMxEzARBgNV
BAgMCkNhbGlmb3JuaWExFDASBgNVBAcMC1NhbnRhIENsYXJhMQ0wCwYDVQQKDARw
a2c1MRIwEAYDVQQDDAljaDEuMl90YTMxGDAWBgkqhkiG9w0BCQEWCWNoMS4yX3Rh
MzCCASIwDQYJKoZIhvcNAQEBBQADggEPADCCAQoCggEBAOjImS1b8kbNX3qXJNOw
+wVYaB+qicKrHIKaGrQoSBwZWN7CLe1XOVtvVtCOkTpMjX+vzhANJzV//VN9TfaA
w7EYTqZ+9gAO+axmuTNSKL/3f+JD1fFZfmqtsICRbsWrKf5mICybgXEletRIbksd
4rRj5D017/ia5HaF+XmU3BAj4wd5q7Ym4W0/HnNCWR/efxfhlWJDjPI1UtF7DlzY
M4QM8HOXBCFWskpoeWTUXKVXUm2YRC/cbWMUwwn6Akxo847g+3osrD/VNvfTz3n8
U4JmNkzCAPSCetpWronMiDZDs2ib1zIgbcAhaEuoSp41jZnuSswQ1yd4XiXGVL0T
vEUCAwEAAaOB4TCB3jAdBgNVHQ4EFgQUhqFXiMD5Nkam88RCKw0UQEs6a1QwgZsG
A1UdIwSBkzCBkIAUy5/ZtdnIgRKbjpWdlx/bRwkFOQmhbaRrMGkxCzAJBgNVBAYT
AlVTMRMwEQYDVQQIDApDYWxpZm9ybmlhMRQwEgYDVQQHDAtTYW50YSBDbGFyYTEN
MAsGA1UECgwEcGtnNTEMMAoGA1UEAwwDdGEzMRIwEAYJKoZIhvcNAQkBFgN0YTOC
CQDzfdK4j8CUGTAPBgNVHRMBAf8EBTADAQH/MA4GA1UdDwEB/wQEAwIBBjANBgkq
hkiG9w0BAQsFAAOCAQEAE0mhioLoeL3wt/yb9S7wGXzro/UH5sAzF3DmkIzOoHVD
hh/MBhuk0fAL0xz1oNKN1LG42YMrjQD6H96ya7Ho+TehviU0WebaAlhH1+RTVumz
N1hEyW6JeNCDpQIguBXcErmthCghnpCUp6znjfEUVI2RABVJf8iK6Gqie3MFkNy6
BFSKtuuk8NLrNYpk0AMHXBa1zGK4G2a/dIWPIFY1NqkMuFhgIPZR3bEg7m5rXqcV
BqrPZkiiR/zrirrv6TZlifZHNSg5w9IJfZkJPZj8UwJMGwHmoelksenNAZxG6dUm
0Q47WsJj6PhHoSEgB3Zk8CxcrerV3ZG9Xr0V1hSIIg==
-----END CERTIFICATE-----
