Certificate:
    Data:
        Version: 3 (0x2)
        Serial Number: 28 (0x1c)
    Signature Algorithm: sha256WithRSAEncryption
        Issuer: C=US, ST=California, L=Santa Clara, O=pkg5, CN=ta3/emailAddress=ta3
        Validity
            Not Before: Jan  1 01:01:01 2009 GMT
            Not After : Jan  2 01:01:01 2009 GMT
        Subject: C=US, ST=California, L=Santa Clara, O=pkg5, CN=ch1.2_ta3/emailAddress=ch1.2_ta3
        Subject Public Key Info:
            Public Key Algorithm: rsaEncryption
                Public-Key: (2048 bit)
                Modulus:
                    00:a9:b3:15:ca:f4:bb:31:1b:c8:45:64:f0:64:e8:
                    e6:48:45:62:21:ff:76:b0:3a:9d:a9:4a:04:0c:3f:
                    eb:f4:04:4b:7d:a1:db:fc:da:b0:0d:3d:78:5d:a5:
                    8a:ae:f1:10:c5:fe:cd:b5:88:43:c0:d3:f3:96:30:
                    c7:23:4f:f9:0e:e0:33:63:2e:89:ca:82:14:16:7e:
                    be:9a:fe:32:fb:90:55:a3:f3:3d:79:b6:42:6c:96:
                    cf:f8:06:52:7d:d5:05:e1:28:a4:ab:92:70:bc:be:
                    b0:22:f5:0d:23:2b:e4:75:22:dd:09:f1:81:02:59:
                    d8:c1:c8:68:4c:bb:41:02:bd:e5:ee:9b:ee:46:c3:
                    0b:86:d0:d8:e0:ec:2a:47:a6:50:e5:b9:02:df:2e:
                    b4:f8:47:dd:1a:1f:98:11:e6:7e:06:2a:57:f0:31:
                    bb:bf:2f:85:e2:99:cb:6f:85:41:97:b5:24:c1:66:
                    c3:cc:97:55:f3:17:ba:71:98:09:f0:fd:6e:d6:c5:
                    56:dd:85:44:28:e2:2e:be:65:95:a7:7a:8e:6e:5f:
                    09:93:b0:03:bc:a6:b6:28:40:cc:01:9a:5b:a8:f1:
                    97:f6:45:74:ff:c3:06:22:98:0f:65:15:e6:81:7e:
                    03:50:c5:68:33:3d:bc:12:25:6a:16:95:52:50:8b:
                    b9:03
                Exponent: 65537 (0x10001)
        X509v3 extensions:
            X509v3 Subject Key Identifier: 
                B3:A4:3B:01:CD:D0:FE:45:7F:12:DF:C0:4B:15:09:99:1C:11:F9:41
            X509v3 Authority Key Identifier: 
                keyid:F8:FC:1B:17:AF:A0:B5:3C:20:B8:72:93:D2:EA:04:A7:52:B6:29:60
                DirName:/C=US/ST=California/L=Santa Clara/O=pkg5/CN=ta3/emailAddress=ta3
                serial:86:89:BA:18:66:F8:F6:2F

            X509v3 Basic Constraints: critical
                CA:TRUE
            X509v3 Key Usage: critical
                Certificate Sign, CRL Sign
    Signature Algorithm: sha256WithRSAEncryption
         38:d9:a5:c9:d4:ea:a9:fd:46:1d:7e:ce:35:34:1d:11:66:68:
         fb:a7:a7:8d:df:22:4c:f9:65:c4:45:56:b2:70:a3:f3:cd:e3:
         94:25:64:5e:bf:ea:df:2d:fd:dc:cb:f2:a2:2b:3b:38:99:0b:
         8e:da:3e:d9:38:56:ec:7c:88:1b:5e:83:0f:03:39:6b:db:b5:
         88:05:c5:55:9b:6d:60:7b:99:1c:38:5d:d1:1e:40:b4:ab:14:
         20:80:a9:f0:ae:5f:a6:4f:80:37:92:bc:bd:cd:3d:8a:eb:11:
         66:8a:b8:14:ea:73:3f:5c:b6:54:2c:ad:2f:83:9b:68:9e:3c:
         aa:9d:58:32:b2:f2:81:73:67:0b:94:37:37:94:d4:6d:a2:e3:
         70:fa:44:7d:f5:fa:43:1e:50:d2:d0:1d:17:01:62:ce:f2:26:
         cf:1b:e4:ce:10:b1:87:cb:c7:1b:59:01:21:40:55:eb:01:b1:
         a6:cf:f4:26:3f:07:a9:77:21:c2:4e:ac:3d:69:f4:0c:53:59:
         6a:65:62:ab:fb:74:cd:e8:0f:79:c6:60:aa:b1:b2:01:3b:90:
         74:80:ce:3c:29:e4:c4:78:dd:d0:83:29:56:c1:9c:4a:e8:04:
         01:cd:fe:33:4c:c7:11:de:28:35:6d:86:5e:f5:f9:c3:00:06:
         61:31:cf:12
-----BEGIN CERTIFICATE-----
MIIEOzCCAyOgAwIBAgIBHDANBgkqhkiG9w0BAQsFADBpMQswCQYDVQQGEwJVUzET
MBEGA1UECAwKQ2FsaWZvcm5pYTEUMBIGA1UEBwwLU2FudGEgQ2xhcmExDTALBgNV
BAoMBHBrZzUxDDAKBgNVBAMMA3RhMzESMBAGCSqGSIb3DQEJARYDdGEzMB4XDTA5
MDEwMTAxMDEwMVoXDTA5MDEwMjAxMDEwMVowdTELMAkGA1UEBhMCVVMxEzARBgNV
BAgMCkNhbGlmb3JuaWExFDASBgNVBAcMC1NhbnRhIENsYXJhMQ0wCwYDVQQKDARw
a2c1MRIwEAYDVQQDDAljaDEuMl90YTMxGDAWBgkqhkiG9w0BCQEWCWNoMS4yX3Rh
MzCCASIwDQYJKoZIhvcNAQEBBQADggEPADCCAQoCggEBAKmzFcr0uzEbyEVk8GTo
5khFYiH/drA6nalKBAw/6/QES32h2/zasA09eF2liq7xEMX+zbWIQ8DT85YwxyNP
+Q7gM2MuicqCFBZ+vpr+MvuQVaPzPXm2QmyWz/gGUn3VBeEopKuScLy+sCL1DSMr
5HUi3QnxgQJZ2MHIaEy7QQK95e6b7kbDC4bQ2ODsKkemUOW5At8utPhH3RofmBHm
fgYqV/Axu78vheKZy2+FQZe1JMFmw8yXVfMXunGYCfD9btbFVt2FRCjiLr5llad6
jm5fCZOwA7ymtihAzAGaW6jxl/ZFdP/DBiKYD2UV5oF+A1DFaDM9vBIlahaVUlCL
uQMCAwEAAaOB4TCB3jAdBgNVHQ4EFgQUs6Q7Ac3Q/kV/Et/ASxUJmRwR+UEwgZsG
A1UdIwSBkzCBkIAU+PwbF6+gtTwguHKT0uoEp1K2KWChbaRrMGkxCzAJBgNVBAYT
AlVTMRMwEQYDVQQIDApDYWxpZm9ybmlhMRQwEgYDVQQHDAtTYW50YSBDbGFyYTEN
MAsGA1UECgwEcGtnNTEMMAoGA1UEAwwDdGEzMRIwEAYJKoZIhvcNAQkBFgN0YTOC
CQCGiboYZvj2LzAPBgNVHRMBAf8EBTADAQH/MA4GA1UdDwEB/wQEAwIBBjANBgkq
hkiG9w0BAQsFAAOCAQEAONmlydTqqf1GHX7ONTQdEWZo+6enjd8iTPllxEVWsnCj
883jlCVkXr/q3y393Mvyois7OJkLjto+2ThW7HyIG16DDwM5a9u1iAXFVZttYHuZ
HDhd0R5AtKsUIICp8K5fpk+AN5K8vc09iusRZoq4FOpzP1y2VCytL4ObaJ48qp1Y
MrLygXNnC5Q3N5TUbaLjcPpEffX6Qx5Q0tAdFwFizvImzxvkzhCxh8vHG1kBIUBV
6wGxps/0Jj8HqXchwk6sPWn0DFNZamViq/t0zegPecZgqrGyATuQdIDOPCnkxHjd
0IMpVsGcSugEAc3+M0zHEd4oNW2GXvX5wwAGYTHPEg==
-----END CERTIFICATE-----
