Certificate:
    Data:
        Version: 3 (0x2)
        Serial Number: 28 (0x1c)
    Signature Algorithm: sha256WithRSAEncryption
        Issuer: C=US, ST=California, L=Santa Clara, O=pkg5, CN=ta3/emailAddress=ta3
        Validity
            Not Before: Jan  1 01:01:01 2009 GMT
            Not After : Jan  2 01:01:01 2009 GMT
        Subject: C=US, ST=California, L=Santa Clara, O=pkg5, CN=ch1.2_ta3/emailAddress=ch1.2_ta3
        Subject Public Key Info:
            Public Key Algorithm: rsaEncryption
                Public-Key: (1024 bit)
                Modulus:
                    00:db:7e:41:d8:93:1f:35:e5:6b:38:25:93:e5:99:
                    cf:fe:c7:b8:ab:0b:14:47:23:66:52:c7:d4:18:58:
                    ff:39:a6:c4:a3:44:2e:46:be:24:7b:9d:71:26:12:
                    6a:99:bd:92:01:5a:dc:a9:36:3c:2d:f8:42:b8:5f:
                    db:87:8f:09:9a:83:32:5c:b6:1d:c5:e4:aa:47:6d:
                    46:11:16:72:44:d7:49:ea:d3:4a:a4:52:9a:f4:8a:
                    b5:e4:ef:32:7b:71:a0:d7:8e:71:86:22:34:44:4a:
                    95:5a:37:ef:c4:7f:57:1f:99:32:39:ef:ab:94:05:
                    1b:9a:88:de:39:85:56:4c:f7
                Exponent: 65537 (0x10001)
        X509v3 extensions:
            X509v3 Subject Key Identifier: 
                91:8B:82:B9:57:2C:1B:DB:4B:F6:16:04:D7:3F:04:10:DD:8B:3B:05
            X509v3 Authority Key Identifier: 
                keyid:B4:D4:36:9F:F8:CB:A2:5F:50:89:DA:21:E3:27:C4:91:F7:84:88:45
                DirName:/C=US/ST=California/L=Santa Clara/O=pkg5/CN=ta3/emailAddress=ta3
                serial:C0:C4:B4:7D:88:D6:E3:3E

            X509v3 Basic Constraints: critical
                CA:TRUE
            X509v3 Key Usage: critical
                Certificate Sign, CRL Sign
    Signature Algorithm: sha256WithRSAEncryption
         8a:bc:bf:7b:28:d4:bd:a2:a9:91:e8:24:cf:1e:1b:05:7c:32:
         68:71:40:9a:ef:48:3c:58:43:6c:ae:90:7a:50:a3:49:86:12:
         57:21:00:0c:49:28:ec:31:fb:04:58:a4:24:c6:7e:14:9d:5a:
         96:bd:ba:cd:c1:31:cd:c8:f0:77:de:3f:81:0a:d0:31:65:f2:
         d5:11:c9:6f:cc:5a:f8:f3:c1:8f:31:37:75:3a:c6:6d:6d:6e:
         d7:16:0a:9b:b0:ce:07:d7:97:36:61:37:5e:4a:16:df:8d:97:
         f4:71:fe:9b:32:4b:b6:d2:27:f4:9a:7c:b8:83:b3:92:48:2c:
         ec:0c
-----BEGIN CERTIFICATE-----
MIIDNjCCAp+gAwIBAgIBHDANBgkqhkiG9w0BAQsFADBpMQswCQYDVQQGEwJVUzET
MBEGA1UECAwKQ2FsaWZvcm5pYTEUMBIGA1UEBwwLU2FudGEgQ2xhcmExDTALBgNV
BAoMBHBrZzUxDDAKBgNVBAMMA3RhMzESMBAGCSqGSIb3DQEJARYDdGEzMB4XDTA5
MDEwMTAxMDEwMVoXDTA5MDEwMjAxMDEwMVowdTELMAkGA1UEBhMCVVMxEzARBgNV
BAgMCkNhbGlmb3JuaWExFDASBgNVBAcMC1NhbnRhIENsYXJhMQ0wCwYDVQQKDARw
a2c1MRIwEAYDVQQDDAljaDEuMl90YTMxGDAWBgkqhkiG9w0BCQEWCWNoMS4yX3Rh
MzCBnzANBgkqhkiG9w0BAQEFAAOBjQAwgYkCgYEA235B2JMfNeVrOCWT5ZnP/se4
qwsURyNmUsfUGFj/OabEo0QuRr4ke51xJhJqmb2SAVrcqTY8LfhCuF/bh48JmoMy
XLYdxeSqR21GERZyRNdJ6tNKpFKa9Iq15O8ye3Gg145xhiI0REqVWjfvxH9XH5ky
Oe+rlAUbmojeOYVWTPcCAwEAAaOB4TCB3jAdBgNVHQ4EFgQUkYuCuVcsG9tL9hYE
1z8EEN2LOwUwgZsGA1UdIwSBkzCBkIAUtNQ2n/jLol9Qidoh4yfEkfeEiEWhbaRr
MGkxCzAJBgNVBAYTAlVTMRMwEQYDVQQIDApDYWxpZm9ybmlhMRQwEgYDVQQHDAtT
YW50YSBDbGFyYTENMAsGA1UECgwEcGtnNTEMMAoGA1UEAwwDdGEzMRIwEAYJKoZI
hvcNAQkBFgN0YTOCCQDAxLR9iNbjPjAPBgNVHRMBAf8EBTADAQH/MA4GA1UdDwEB
/wQEAwIBBjANBgkqhkiG9w0BAQsFAAOBgQCKvL97KNS9oqmR6CTPHhsFfDJocUCa
70g8WENsrpB6UKNJhhJXIQAMSSjsMfsEWKQkxn4UnVqWvbrNwTHNyPB33j+BCtAx
ZfLVEclvzFr488GPMTd1OsZtbW7XFgqbsM4H15c2YTdeShbfjZf0cf6bMku20if0
mny4g7OSSCzsDA==
-----END CERTIFICATE-----
