Certificate:
    Data:
        Version: 3 (0x2)
        Serial Number: 28 (0x1c)
        Signature Algorithm: sha256WithRSAEncryption
        Issuer: C=US, ST=California, L=Santa Clara, O=pkg5, CN=ta3/emailAddress=ta3
        Validity
            Not Before: Jan  1 01:01:01 2009 GMT
            Not After : Jan  2 01:01:01 2009 GMT
        Subject: C=US, ST=California, L=Santa Clara, O=pkg5, CN=ch1.2_ta3/emailAddress=ch1.2_ta3
        Subject Public Key Info:
            Public Key Algorithm: rsaEncryption
                Public-Key: (2048 bit)
                Modulus:
                    00:b9:1c:e2:61:9b:7a:f2:2d:74:0e:f9:9f:a1:54:
                    88:a6:ff:25:4d:70:bd:8b:b1:66:08:9b:bc:47:23:
                    be:f3:ac:8c:97:92:90:87:81:e2:a4:96:4d:f3:a0:
                    12:65:6a:fd:c2:e6:37:24:f4:d7:b1:93:be:f9:45:
                    cf:c3:a5:ce:e9:62:78:af:87:85:2a:9e:32:40:22:
                    33:df:f4:88:bc:f4:49:63:ed:08:dc:46:77:2c:32:
                    8a:30:71:5e:6b:65:14:78:99:3b:e6:15:0a:87:63:
                    72:86:94:97:14:49:86:00:f4:88:03:1d:00:44:29:
                    20:37:5a:79:59:d4:51:5e:fd:39:e3:a5:f7:63:22:
                    38:f7:a9:1f:c1:71:49:17:56:a4:e4:4e:ba:ee:fc:
                    d6:7a:94:6d:be:60:27:e9:bb:ef:ef:fe:8a:b2:31:
                    9e:b8:37:22:a0:72:79:8f:26:0b:e4:0b:79:1b:16:
                    b0:92:99:92:0f:e7:a4:bd:24:67:87:04:0e:56:51:
                    d2:29:2a:ec:8b:31:2b:6e:2c:f4:6f:72:57:b2:65:
                    f5:da:ad:5e:9b:a3:08:b8:d3:0b:11:d7:af:64:b0:
                    0d:29:e2:eb:cf:bf:a9:38:24:db:be:9c:6e:c7:7c:
                    ef:d7:6d:70:85:9a:af:31:ca:4f:23:5a:03:b0:06:
                    fc:91
                Exponent: 65537 (0x10001)
        X509v3 extensions:
            X509v3 Subject Key Identifier: 
                85:A4:00:6F:28:FB:CD:04:5E:71:40:0F:22:9F:3E:81:C9:52:7A:60
            X509v3 Authority Key Identifier: 
                keyid:43:54:28:1A:4B:3C:F9:91:B3:CB:00:A8:B8:90:E4:B7:6F:B6:22:CD
                DirName:/C=US/ST=California/L=Santa Clara/O=pkg5/CN=ta3/emailAddress=ta3
                serial:74:E7:12:B5:F0:FD:DA:49:31:EB:3B:E1:EB:75:65:B3:79:2D:FC:FF
            X509v3 Basic Constraints: critical
                CA:TRUE
            X509v3 Key Usage: critical
                Certificate Sign, CRL Sign
    Signature Algorithm: sha256WithRSAEncryption
    Signature Value:
        6c:57:fa:67:6e:86:72:f8:a7:32:f5:1a:c5:e5:54:09:24:0e:
        4a:4d:5f:ac:14:55:84:78:75:db:df:cb:23:f6:c6:ce:2a:68:
        f7:1e:ee:94:ea:53:55:0c:71:7b:75:f4:92:5f:ae:a5:f3:d6:
        65:4a:6c:d9:fb:c2:36:53:67:f4:c7:41:bf:7c:a5:39:c9:ae:
        6c:12:6b:96:55:2f:e0:9f:d7:de:2a:be:27:bc:49:54:b4:29:
        c0:82:8d:bc:69:3c:00:36:46:fe:71:34:bc:27:e3:68:7c:0a:
        fc:78:ab:fe:9c:be:4b:a8:e3:ff:90:a5:3d:2e:5e:e7:42:3f:
        9f:e6:fc:73:bf:ed:f1:68:3d:c8:1a:97:fb:49:33:aa:bc:1b:
        e9:bb:34:1b:fa:7a:75:eb:22:a0:c8:5b:96:71:82:50:5f:92:
        ab:e7:18:4a:6c:36:19:1f:f2:ac:8c:cc:76:ca:ca:0c:be:d1:
        fb:61:4c:93:2e:61:c2:eb:cd:b5:a1:f2:09:77:12:1b:29:1e:
        8a:09:de:af:09:56:1c:17:98:eb:24:cc:66:94:af:6b:c0:76:
        c3:3d:ca:65:6a:a9:4b:05:aa:27:f7:d6:9f:94:83:ed:36:69:
        e4:cd:23:21:27:49:00:cc:c2:33:6b:fd:7f:cc:3c:db:04:fc:
        24:e9:70:90
-----BEGIN CERTIFICATE-----
MIIERjCCAy6gAwIBAgIBHDANBgkqhkiG9w0BAQsFADBpMQswCQYDVQQGEwJVUzET
MBEGA1UECAwKQ2FsaWZvcm5pYTEUMBIGA1UEBwwLU2FudGEgQ2xhcmExDTALBgNV
BAoMBHBrZzUxDDAKBgNVBAMMA3RhMzESMBAGCSqGSIb3DQEJARYDdGEzMB4XDTA5
MDEwMTAxMDEwMVoXDTA5MDEwMjAxMDEwMVowdTELMAkGA1UEBhMCVVMxEzARBgNV
BAgMCkNhbGlmb3JuaWExFDASBgNVBAcMC1NhbnRhIENsYXJhMQ0wCwYDVQQKDARw
a2c1MRIwEAYDVQQDDAljaDEuMl90YTMxGDAWBgkqhkiG9w0BCQEWCWNoMS4yX3Rh
MzCCASIwDQYJKoZIhvcNAQEBBQADggEPADCCAQoCggEBALkc4mGbevItdA75n6FU
iKb/JU1wvYuxZgibvEcjvvOsjJeSkIeB4qSWTfOgEmVq/cLmNyT017GTvvlFz8Ol
zulieK+HhSqeMkAiM9/0iLz0SWPtCNxGdywyijBxXmtlFHiZO+YVCodjcoaUlxRJ
hgD0iAMdAEQpIDdaeVnUUV79OeOl92MiOPepH8FxSRdWpOROuu781nqUbb5gJ+m7
7+/+irIxnrg3IqByeY8mC+QLeRsWsJKZkg/npL0kZ4cEDlZR0ikq7IsxK24s9G9y
V7Jl9dqtXpujCLjTCxHXr2SwDSni68+/qTgk276cbsd879dtcIWarzHKTyNaA7AG
/JECAwEAAaOB7DCB6TAdBgNVHQ4EFgQUhaQAbyj7zQRecUAPIp8+gclSemAwgaYG
A1UdIwSBnjCBm4AUQ1QoGks8+ZGzywCouJDkt2+2Is2hbaRrMGkxCzAJBgNVBAYT
AlVTMRMwEQYDVQQIDApDYWxpZm9ybmlhMRQwEgYDVQQHDAtTYW50YSBDbGFyYTEN
MAsGA1UECgwEcGtnNTEMMAoGA1UEAwwDdGEzMRIwEAYJKoZIhvcNAQkBFgN0YTOC
FHTnErXw/dpJMes74et1ZbN5Lfz/MA8GA1UdEwEB/wQFMAMBAf8wDgYDVR0PAQH/
BAQDAgEGMA0GCSqGSIb3DQEBCwUAA4IBAQBsV/pnboZy+Kcy9RrF5VQJJA5KTV+s
FFWEeHXb38sj9sbOKmj3Hu6U6lNVDHF7dfSSX66l89ZlSmzZ+8I2U2f0x0G/fKU5
ya5sEmuWVS/gn9feKr4nvElUtCnAgo28aTwANkb+cTS8J+NofAr8eKv+nL5LqOP/
kKU9Ll7nQj+f5vxzv+3xaD3IGpf7STOqvBvpuzQb+np16yKgyFuWcYJQX5Kr5xhK
bDYZH/KsjMx2ysoMvtH7YUyTLmHC6821ofIJdxIbKR6KCd6vCVYcF5jrJMxmlK9r
wHbDPcplaqlLBaon99aflIPtNmnkzSMhJ0kAzMIza/1/zDzbBPwk6XCQ
-----END CERTIFICATE-----
