Certificate:
    Data:
        Version: 3 (0x2)
        Serial Number: 29 (0x1d)
    Signature Algorithm: sha256WithRSAEncryption
        Issuer: C=US, ST=California, L=Santa Clara, O=pkg5, CN=ta3/emailAddress=ta3
        Validity
            Not Before: Jan  1 01:01:01 2009 GMT
            Not After : Jan  2 01:01:01 2009 GMT
        Subject: C=US, ST=California, L=Santa Clara, O=pkg5, CN=ch1.2_ta3/emailAddress=ch1.2_ta3
        Subject Public Key Info:
            Public Key Algorithm: rsaEncryption
                Public-Key: (2048 bit)
                Modulus:
                    00:d6:9f:34:ff:2a:8c:3f:a8:9d:6a:bf:0b:d9:66:
                    57:2b:ba:9d:bd:88:b8:60:57:c9:b1:a8:2d:f1:74:
                    e6:84:29:6c:93:9d:ed:12:03:f9:48:ee:8c:f0:5d:
                    b0:da:9c:a6:2e:4b:64:f1:38:b8:cb:b9:d3:24:57:
                    e1:57:b6:f1:79:4b:ee:d7:30:5c:89:67:43:1a:e1:
                    aa:a2:b3:fb:f5:63:69:5b:55:98:3c:f9:2a:5f:56:
                    f1:b9:6d:a6:4b:8b:9e:c4:2d:30:a2:0e:98:92:0d:
                    c3:f7:80:69:d3:4b:a6:0a:5b:e8:d8:3d:0e:16:1b:
                    09:12:b3:95:55:1b:b3:c8:5a:71:45:4d:05:30:ba:
                    34:8d:86:a0:4a:0f:c3:e5:aa:19:3b:4c:5b:e6:20:
                    03:7b:d5:c4:90:ec:b4:06:8b:55:ec:37:81:f7:f6:
                    6d:f8:1e:01:7c:8f:45:08:25:2f:ab:eb:bb:c6:da:
                    91:6a:f3:c2:21:6c:33:be:ce:56:2e:36:6c:bb:8c:
                    12:3c:fc:1d:8b:33:14:d4:a0:4b:8e:0d:5b:3a:7c:
                    47:32:93:03:48:66:6a:a4:1b:a4:b5:43:19:b9:79:
                    cd:b5:f7:63:a9:5c:8f:ca:99:94:e3:d1:eb:15:a9:
                    16:3b:92:73:a0:fb:2b:16:8b:31:42:28:6f:0a:6d:
                    90:3f
                Exponent: 65537 (0x10001)
        X509v3 extensions:
            X509v3 Subject Key Identifier: 
                41:31:30:65:46:6B:1C:63:B9:C8:23:8E:02:37:E2:FF:FF:7C:C4:53
            X509v3 Authority Key Identifier: 
                keyid:29:6E:FA:0C:C3:3A:D4:13:5F:93:39:0F:10:08:27:C7:BF:62:56:E5
                DirName:/C=US/ST=California/L=Santa Clara/O=pkg5/CN=ta3/emailAddress=ta3
                serial:8A:15:23:60:8D:FB:3E:84

            X509v3 Basic Constraints: critical
                CA:TRUE
            X509v3 Key Usage: critical
                Certificate Sign, CRL Sign
    Signature Algorithm: sha256WithRSAEncryption
         8c:b9:ed:07:b3:f1:6f:53:7a:1d:62:ef:57:ba:ab:a5:46:93:
         d0:af:3a:67:2d:50:b0:5a:3b:b0:90:e2:f6:71:5e:fd:d6:fc:
         70:ce:6c:bf:51:ba:94:db:84:5d:c6:0b:d9:87:79:ea:bf:40:
         fd:a9:0b:c3:dd:81:ba:7a:40:7e:71:54:89:8b:e4:b2:85:e4:
         d6:93:d2:a4:9a:02:66:f9:7e:aa:48:e3:0c:ad:3c:f7:2e:55:
         fa:a1:10:f9:17:d0:2b:36:8a:36:57:f4:6c:42:2f:cf:4a:dc:
         f2:73:de:8b:08:e7:54:d6:8c:cf:83:ac:de:e0:b4:b5:f3:26:
         9f:9c:a0:6e:1e:29:77:bf:7e:d4:1d:1a:51:77:e1:82:e4:6d:
         fe:04:b4:23:8d:26:2b:9f:3f:f1:d9:98:35:b0:fe:b6:61:3c:
         21:2d:54:e4:2d:f1:3f:88:3d:cb:7d:57:11:98:4b:01:68:0b:
         af:79:a3:f4:8a:5d:11:c7:63:78:ac:94:e7:82:f0:4c:90:b1:
         89:49:f0:8c:50:a3:38:04:98:38:14:49:cc:1d:69:57:84:5a:
         4e:2d:10:f7:0c:88:73:48:de:83:90:0f:a0:53:b9:03:f6:f0:
         bf:cc:d6:91:73:b3:9c:13:0a:dc:24:52:d9:d0:ac:6d:cf:11:
         53:bc:d2:75
-----BEGIN CERTIFICATE-----
MIIEOzCCAyOgAwIBAgIBHTANBgkqhkiG9w0BAQsFADBpMQswCQYDVQQGEwJVUzET
MBEGA1UECAwKQ2FsaWZvcm5pYTEUMBIGA1UEBwwLU2FudGEgQ2xhcmExDTALBgNV
BAoMBHBrZzUxDDAKBgNVBAMMA3RhMzESMBAGCSqGSIb3DQEJARYDdGEzMB4XDTA5
MDEwMTAxMDEwMVoXDTA5MDEwMjAxMDEwMVowdTELMAkGA1UEBhMCVVMxEzARBgNV
BAgMCkNhbGlmb3JuaWExFDASBgNVBAcMC1NhbnRhIENsYXJhMQ0wCwYDVQQKDARw
a2c1MRIwEAYDVQQDDAljaDEuMl90YTMxGDAWBgkqhkiG9w0BCQEWCWNoMS4yX3Rh
MzCCASIwDQYJKoZIhvcNAQEBBQADggEPADCCAQoCggEBANafNP8qjD+onWq/C9lm
Vyu6nb2IuGBXybGoLfF05oQpbJOd7RID+UjujPBdsNqcpi5LZPE4uMu50yRX4Ve2
8XlL7tcwXIlnQxrhqqKz+/VjaVtVmDz5Kl9W8bltpkuLnsQtMKIOmJINw/eAadNL
pgpb6Ng9DhYbCRKzlVUbs8hacUVNBTC6NI2GoEoPw+WqGTtMW+YgA3vVxJDstAaL
Vew3gff2bfgeAXyPRQglL6vru8bakWrzwiFsM77OVi42bLuMEjz8HYszFNSgS44N
Wzp8RzKTA0hmaqQbpLVDGbl5zbX3Y6lcj8qZlOPR6xWpFjuSc6D7KxaLMUIobwpt
kD8CAwEAAaOB4TCB3jAdBgNVHQ4EFgQUQTEwZUZrHGO5yCOOAjfi//98xFMwgZsG
A1UdIwSBkzCBkIAUKW76DMM61BNfkzkPEAgnx79iVuWhbaRrMGkxCzAJBgNVBAYT
AlVTMRMwEQYDVQQIDApDYWxpZm9ybmlhMRQwEgYDVQQHDAtTYW50YSBDbGFyYTEN
MAsGA1UECgwEcGtnNTEMMAoGA1UEAwwDdGEzMRIwEAYJKoZIhvcNAQkBFgN0YTOC
CQCKFSNgjfs+hDAPBgNVHRMBAf8EBTADAQH/MA4GA1UdDwEB/wQEAwIBBjANBgkq
hkiG9w0BAQsFAAOCAQEAjLntB7Pxb1N6HWLvV7qrpUaT0K86Zy1QsFo7sJDi9nFe
/db8cM5sv1G6lNuEXcYL2Yd56r9A/akLw92BunpAfnFUiYvksoXk1pPSpJoCZvl+
qkjjDK089y5V+qEQ+RfQKzaKNlf0bEIvz0rc8nPeiwjnVNaMz4Os3uC0tfMmn5yg
bh4pd79+1B0aUXfhguRt/gS0I40mK58/8dmYNbD+tmE8IS1U5C3xP4g9y31XEZhL
AWgLr3mj9IpdEcdjeKyU54LwTJCxiUnwjFCjOASYOBRJzB1pV4RaTi0Q9wyIc0je
g5APoFO5A/bwv8zWkXOznBMK3CRS2dCsbc8RU7zSdQ==
-----END CERTIFICATE-----
