Certificate:
    Data:
        Version: 3 (0x2)
        Serial Number: 30 (0x1e)
    Signature Algorithm: sha256WithRSAEncryption
        Issuer: C=US, ST=California, L=Santa Clara, O=pkg5, CN=ta3/emailAddress=ta3
        Validity
            Not Before: Jan  1 01:01:01 2035 GMT
            Not After : Jan  2 01:01:01 2035 GMT
        Subject: C=US, ST=California, L=Santa Clara, O=pkg5, CN=ch1.3_ta3/emailAddress=ch1.3_ta3
        Subject Public Key Info:
            Public Key Algorithm: rsaEncryption
                Public-Key: (2048 bit)
                Modulus:
                    00:c2:16:db:19:ec:f9:13:6e:91:7d:64:23:5f:72:
                    0b:9e:a7:49:69:18:4e:75:40:15:99:c8:aa:10:13:
                    64:b6:10:62:ea:9a:8b:3e:65:0b:db:c3:9f:60:65:
                    fe:63:e1:05:f9:0e:b8:0e:72:6a:5d:b8:85:7c:70:
                    3e:16:09:8a:d8:63:61:66:de:9c:a4:37:ad:cc:57:
                    a4:ce:98:8b:c6:2c:b1:b5:c7:a1:94:11:de:28:cf:
                    d1:01:e6:4e:b2:9d:df:22:f9:1d:ef:bc:90:72:17:
                    83:7d:a1:10:d5:2f:10:aa:28:54:a7:76:32:b9:9f:
                    a3:61:62:73:5a:e9:8f:24:79:94:25:51:7f:56:9c:
                    10:67:7d:0f:92:bf:69:21:2d:9e:43:c3:9d:e1:ec:
                    1f:51:7a:14:5d:83:99:58:57:c3:12:76:91:ae:71:
                    5d:d8:1f:3b:f1:83:95:7a:28:ea:d6:69:60:7b:b6:
                    1d:e8:cb:fa:be:e7:59:36:3d:9f:c4:e1:1f:f3:5b:
                    b4:5d:bd:96:b5:21:76:40:17:ad:9c:e7:26:b1:20:
                    48:8d:62:f9:a9:d0:97:19:13:2d:f3:05:db:ce:06:
                    ef:7b:61:28:b4:2f:0f:57:15:af:5f:6c:b2:9b:98:
                    2b:61:a3:77:33:dc:ec:94:4d:df:94:0f:c6:52:65:
                    30:39
                Exponent: 65537 (0x10001)
        X509v3 extensions:
            X509v3 Subject Key Identifier: 
                C7:8A:F3:FB:57:AC:BF:9C:89:40:28:30:C1:DE:AA:3E:89:A3:B7:C9
            X509v3 Authority Key Identifier: 
                keyid:D4:96:C5:46:89:1A:DF:AE:C8:49:CA:65:E8:A8:C4:8E:10:60:26:1A
                DirName:/C=US/ST=California/L=Santa Clara/O=pkg5/CN=ta3/emailAddress=ta3
                serial:8D:46:D3:00:C5:00:EE:1C

            X509v3 Basic Constraints: critical
                CA:TRUE
            X509v3 Key Usage: critical
                Certificate Sign, CRL Sign
    Signature Algorithm: sha256WithRSAEncryption
         4d:7d:02:74:8b:60:b5:62:0b:39:cc:44:02:1f:f7:7e:fc:3c:
         ef:85:d0:a3:7f:aa:45:4c:16:6c:e4:36:d1:14:5d:a0:00:ee:
         4e:86:ae:6b:7c:3e:bf:f0:43:ee:41:b9:25:9a:92:d8:1f:78:
         a5:74:71:04:d2:1b:fd:0f:c2:ea:3f:83:95:ad:91:78:65:04:
         98:00:04:ec:94:0a:fb:76:e3:73:80:cf:b8:12:46:eb:12:8c:
         d8:6f:c4:b3:c6:88:bc:c6:7d:c6:9f:21:50:58:6c:da:ef:6c:
         3e:f1:ba:20:18:ef:a0:f1:1c:b0:a7:d7:28:14:84:f8:51:b6:
         90:2d:a2:e2:ac:b8:64:f0:81:15:04:b9:2e:4c:89:4c:22:8d:
         b5:14:30:d5:69:e4:d5:1b:b8:90:b5:3f:56:2a:3e:16:00:0b:
         de:a2:72:50:88:aa:d7:3c:1b:1c:e6:88:0d:b1:f0:25:3e:95:
         11:f4:44:8d:d9:56:57:3c:14:4b:60:8c:92:92:c9:02:3d:d2:
         bf:2b:29:3d:32:14:ef:3d:04:fa:f5:64:65:88:0d:f3:84:70:
         07:6e:cc:71:d0:3a:7b:26:c9:14:b4:36:2b:2d:d9:75:62:26:
         5d:c7:5b:e9:64:38:c6:aa:8b:0f:43:60:d0:76:76:f4:26:c6:
         07:00:0c:ed
-----BEGIN CERTIFICATE-----
MIIEOzCCAyOgAwIBAgIBHjANBgkqhkiG9w0BAQsFADBpMQswCQYDVQQGEwJVUzET
MBEGA1UECAwKQ2FsaWZvcm5pYTEUMBIGA1UEBwwLU2FudGEgQ2xhcmExDTALBgNV
BAoMBHBrZzUxDDAKBgNVBAMMA3RhMzESMBAGCSqGSIb3DQEJARYDdGEzMB4XDTM1
MDEwMTAxMDEwMVoXDTM1MDEwMjAxMDEwMVowdTELMAkGA1UEBhMCVVMxEzARBgNV
BAgMCkNhbGlmb3JuaWExFDASBgNVBAcMC1NhbnRhIENsYXJhMQ0wCwYDVQQKDARw
a2c1MRIwEAYDVQQDDAljaDEuM190YTMxGDAWBgkqhkiG9w0BCQEWCWNoMS4zX3Rh
MzCCASIwDQYJKoZIhvcNAQEBBQADggEPADCCAQoCggEBAMIW2xns+RNukX1kI19y
C56nSWkYTnVAFZnIqhATZLYQYuqaiz5lC9vDn2Bl/mPhBfkOuA5yal24hXxwPhYJ
ithjYWbenKQ3rcxXpM6Yi8YssbXHoZQR3ijP0QHmTrKd3yL5He+8kHIXg32hENUv
EKooVKd2Mrmfo2Fic1rpjyR5lCVRf1acEGd9D5K/aSEtnkPDneHsH1F6FF2DmVhX
wxJ2ka5xXdgfO/GDlXoo6tZpYHu2HejL+r7nWTY9n8ThH/NbtF29lrUhdkAXrZzn
JrEgSI1i+anQlxkTLfMF284G73thKLQvD1cVr19sspuYK2GjdzPc7JRN35QPxlJl
MDkCAwEAAaOB4TCB3jAdBgNVHQ4EFgQUx4rz+1esv5yJQCgwwd6qPomjt8kwgZsG
A1UdIwSBkzCBkIAU1JbFRoka367IScpl6KjEjhBgJhqhbaRrMGkxCzAJBgNVBAYT
AlVTMRMwEQYDVQQIDApDYWxpZm9ybmlhMRQwEgYDVQQHDAtTYW50YSBDbGFyYTEN
MAsGA1UECgwEcGtnNTEMMAoGA1UEAwwDdGEzMRIwEAYJKoZIhvcNAQkBFgN0YTOC
CQCNRtMAxQDuHDAPBgNVHRMBAf8EBTADAQH/MA4GA1UdDwEB/wQEAwIBBjANBgkq
hkiG9w0BAQsFAAOCAQEATX0CdItgtWILOcxEAh/3fvw874XQo3+qRUwWbOQ20RRd
oADuToaua3w+v/BD7kG5JZqS2B94pXRxBNIb/Q/C6j+Dla2ReGUEmAAE7JQK+3bj
c4DPuBJG6xKM2G/Es8aIvMZ9xp8hUFhs2u9sPvG6IBjvoPEcsKfXKBSE+FG2kC2i
4qy4ZPCBFQS5LkyJTCKNtRQw1Wnk1Ru4kLU/Vio+FgAL3qJyUIiq1zwbHOaIDbHw
JT6VEfREjdlWVzwUS2CMkpLJAj3SvyspPTIU7z0E+vVkZYgN84RwB27McdA6eybJ
FLQ2Ky3ZdWImXcdb6WQ4xqqLD0Ng0HZ29CbGBwAM7Q==
-----END CERTIFICATE-----
