Certificate:
    Data:
        Version: 3 (0x2)
        Serial Number: 30 (0x1e)
        Signature Algorithm: sha256WithRSAEncryption
        Issuer: C=US, ST=California, L=Menlo Park, O=pkg5, CN=ta3/emailAddress=ta3
        Validity
            Not Before: Jan  1 01:01:01 2035 GMT
            Not After : Jan  2 01:01:01 2035 GMT
        Subject: C=US, ST=California, L=Menlo Park, O=pkg5, CN=ch1.3_ta3/emailAddress=ch1.3_ta3
        Subject Public Key Info:
            Public Key Algorithm: rsaEncryption
            RSA Public Key: (1024 bit)
                Modulus (1024 bit):
                    00:b0:ce:aa:d1:c2:56:6f:4f:cb:8d:95:8c:65:fd:
                    26:2f:42:d1:8a:4e:5f:aa:6b:79:c9:d9:f1:ce:85:
                    c0:ab:fe:28:b9:84:12:4a:d7:d8:a9:19:80:c8:0f:
                    c2:1f:45:66:64:d2:df:04:e3:16:4d:93:79:b5:dd:
                    75:c7:8e:9b:7d:cf:81:1e:3a:45:a1:34:b5:52:e7:
                    76:e9:9b:5b:71:4f:91:41:72:d2:f4:d2:e4:b5:1a:
                    1d:87:d1:31:15:56:39:12:71:46:f9:47:0f:e8:2b:
                    83:78:e8:ee:11:92:17:cb:4a:66:42:85:0b:d8:a7:
                    f5:c4:20:f2:e1:6a:a9:20:cf
                Exponent: 65537 (0x10001)
        X509v3 extensions:
            X509v3 Subject Key Identifier: 
                57:94:FF:CF:71:C0:54:64:35:16:AF:CC:33:F3:BF:54:84:E7:D3:3D
            X509v3 Authority Key Identifier: 
                keyid:E2:9E:A1:8B:D7:D3:B0:F1:C3:E9:77:A4:49:5D:6A:4E:AB:73:AC:5D
                DirName:/C=US/ST=California/L=Menlo Park/O=pkg5/CN=ta3/emailAddress=ta3
                serial:EE:77:7E:6A:C1:1E:57:ED

            X509v3 Basic Constraints: critical
                CA:TRUE
            X509v3 Key Usage: critical
                Certificate Sign, CRL Sign
    Signature Algorithm: sha256WithRSAEncryption
        0a:29:20:8b:d5:51:eb:d8:bb:c6:d0:c3:c1:c9:b9:e2:9f:13:
        b5:4f:67:fd:cc:4f:16:66:0e:b0:db:a8:42:f3:0c:72:25:42:
        b5:71:87:a1:2a:a6:71:69:98:e5:42:70:10:34:66:87:de:d1:
        03:0e:6c:df:35:bc:f5:23:18:26:7f:44:f5:d4:48:f0:0b:24:
        9a:d4:0c:e8:8d:6c:cb:7a:5b:55:a3:5e:de:87:35:02:b2:ba:
        01:02:7f:f4:b3:fd:57:87:59:5b:d2:2d:10:27:e0:4a:a5:9c:
        b1:d0:d9:55:a5:9a:50:c3:65:97:d6:29:9f:22:7a:6c:8f:13:
        64:ed
-----BEGIN CERTIFICATE-----
MIIDMzCCApygAwIBAgIBHjANBgkqhkiG9w0BAQsFADBoMQswCQYDVQQGEwJVUzET
MBEGA1UECBMKQ2FsaWZvcm5pYTETMBEGA1UEBxMKTWVubG8gUGFyazENMAsGA1UE
ChMEcGtnNTEMMAoGA1UEAxMDdGEzMRIwEAYJKoZIhvcNAQkBFgN0YTMwHhcNMzUw
MTAxMDEwMTAxWhcNMzUwMTAyMDEwMTAxWjB0MQswCQYDVQQGEwJVUzETMBEGA1UE
CBMKQ2FsaWZvcm5pYTETMBEGA1UEBxMKTWVubG8gUGFyazENMAsGA1UEChMEcGtn
NTESMBAGA1UEAxQJY2gxLjNfdGEzMRgwFgYJKoZIhvcNAQkBFgljaDEuM190YTMw
gZ8wDQYJKoZIhvcNAQEBBQADgY0AMIGJAoGBALDOqtHCVm9Py42VjGX9Ji9C0YpO
X6precnZ8c6FwKv+KLmEEkrX2KkZgMgPwh9FZmTS3wTjFk2TebXddceOm33PgR46
RaE0tVLndumbW3FPkUFy0vTS5LUaHYfRMRVWORJxRvlHD+grg3jo7hGSF8tKZkKF
C9in9cQg8uFqqSDPAgMBAAGjgeAwgd0wHQYDVR0OBBYEFFeU/89xwFRkNRavzDPz
v1SE59M9MIGaBgNVHSMEgZIwgY+AFOKeoYvX07Dxw+l3pEldak6rc6xdoWykajBo
MQswCQYDVQQGEwJVUzETMBEGA1UECBMKQ2FsaWZvcm5pYTETMBEGA1UEBxMKTWVu
bG8gUGFyazENMAsGA1UEChMEcGtnNTEMMAoGA1UEAxMDdGEzMRIwEAYJKoZIhvcN
AQkBFgN0YTOCCQDud35qwR5X7TAPBgNVHRMBAf8EBTADAQH/MA4GA1UdDwEB/wQE
AwIBBjANBgkqhkiG9w0BAQsFAAOBgQAKKSCL1VHr2LvG0MPBybninxO1T2f9zE8W
Zg6w26hC8wxyJUK1cYehKqZxaZjlQnAQNGaH3tEDDmzfNbz1Ixgmf0T11EjwCySa
1AzojWzLeltVo17ehzUCsroBAn/0s/1Xh1lb0i0QJ+BKpZyx0NlVpZpQw2WX1imf
InpsjxNk7Q==
-----END CERTIFICATE-----
