Certificate:
    Data:
        Version: 3 (0x2)
        Serial Number: 30 (0x1e)
    Signature Algorithm: sha256WithRSAEncryption
        Issuer: C=US, ST=California, L=Santa Clara, O=pkg5, CN=ta3/emailAddress=ta3
        Validity
            Not Before: Jan  1 01:01:01 2035 GMT
            Not After : Jan  2 01:01:01 2035 GMT
        Subject: C=US, ST=California, L=Santa Clara, O=pkg5, CN=ch1.3_ta3/emailAddress=ch1.3_ta3
        Subject Public Key Info:
            Public Key Algorithm: rsaEncryption
                Public-Key: (2048 bit)
                Modulus:
                    00:a0:7e:a9:ce:43:bb:e1:aa:3f:69:79:63:79:42:
                    23:09:31:4f:b4:e2:75:a5:a6:19:58:b0:e9:4a:2c:
                    f7:99:b7:1a:ca:71:1c:a6:ed:85:97:ea:f8:de:c6:
                    87:dd:b4:7f:8b:0d:0a:01:c0:4f:bb:5c:99:aa:e1:
                    d2:66:9f:63:a2:1a:5a:3c:c1:45:27:2d:9b:54:8a:
                    58:c8:4a:8d:3d:dd:d0:07:78:7f:de:c1:72:47:93:
                    f6:ef:fd:e0:35:83:59:c5:2a:a2:9c:12:88:4f:d6:
                    ba:ed:cb:ea:36:36:5a:19:67:ec:70:db:86:6b:00:
                    8f:28:23:1d:f2:0a:e2:a0:1b:f3:6b:a2:cd:bf:9a:
                    69:fa:6d:9b:ae:6e:97:cc:44:78:26:d5:72:bd:44:
                    49:18:db:c8:8a:63:ed:94:7f:5e:71:80:dc:e0:ce:
                    3d:91:60:ea:26:0e:45:48:01:19:54:71:0b:79:90:
                    df:ae:8c:83:a7:93:59:a1:d3:a1:30:e6:f9:57:7e:
                    f4:aa:94:84:30:d6:7c:5c:49:dd:52:36:0a:bc:92:
                    9b:b0:b4:7f:a1:4d:f4:be:8d:e3:cf:fd:61:0f:0e:
                    d3:8d:f8:a3:6e:8d:63:6a:c9:0b:88:5f:48:60:65:
                    1d:d9:70:68:4c:3f:09:d4:d9:8f:a2:59:ba:20:a7:
                    f0:bd
                Exponent: 65537 (0x10001)
        X509v3 extensions:
            X509v3 Subject Key Identifier: 
                8E:DE:0D:24:FF:25:24:F6:D7:89:92:DA:73:BB:84:9B:8D:8C:EE:0F
            X509v3 Authority Key Identifier: 
                keyid:F8:FC:1B:17:AF:A0:B5:3C:20:B8:72:93:D2:EA:04:A7:52:B6:29:60
                DirName:/C=US/ST=California/L=Santa Clara/O=pkg5/CN=ta3/emailAddress=ta3
                serial:86:89:BA:18:66:F8:F6:2F

            X509v3 Basic Constraints: critical
                CA:TRUE
            X509v3 Key Usage: critical
                Certificate Sign, CRL Sign
    Signature Algorithm: sha256WithRSAEncryption
         0f:19:89:47:b5:a6:41:4e:07:24:07:6e:a6:9c:a8:a2:c7:bc:
         95:10:51:78:99:5c:88:d3:49:db:cc:07:1b:7c:b4:ed:d1:50:
         a6:2f:0b:a2:e5:a6:a3:dc:f1:12:63:12:40:2d:be:34:ef:fa:
         dd:90:69:db:24:d0:96:39:d3:4a:ec:19:4d:fe:24:25:60:d6:
         2f:c9:16:f8:1d:01:12:ce:d6:64:f3:dd:39:64:bb:bf:d7:5a:
         93:44:ba:22:8d:79:8c:e3:5f:8c:2a:e2:9a:c5:79:61:89:4d:
         dd:68:56:9b:ed:98:44:62:be:54:de:a1:fc:ec:b3:e8:c7:a0:
         93:d4:91:47:f1:82:df:56:40:f4:c2:4d:a8:21:f5:b2:fa:18:
         7b:19:cc:5b:38:50:76:1c:7d:18:05:4f:d0:c9:a3:18:1f:9b:
         1f:4b:6b:f2:d7:e6:27:25:e6:8e:73:23:dc:fa:86:db:d6:4c:
         57:2e:d0:6e:0f:c8:6c:5a:e1:3d:db:ab:5b:fa:25:81:35:00:
         74:97:98:11:31:79:87:03:5b:e8:b2:94:2b:16:e4:8f:2b:f9:
         44:63:cd:81:4d:dd:fc:78:b7:6c:40:d9:28:f5:bf:f2:ec:ba:
         90:bc:fa:67:2d:33:dc:00:05:07:99:7c:33:87:71:68:44:b7:
         08:52:e1:3a
-----BEGIN CERTIFICATE-----
MIIEOzCCAyOgAwIBAgIBHjANBgkqhkiG9w0BAQsFADBpMQswCQYDVQQGEwJVUzET
MBEGA1UECAwKQ2FsaWZvcm5pYTEUMBIGA1UEBwwLU2FudGEgQ2xhcmExDTALBgNV
BAoMBHBrZzUxDDAKBgNVBAMMA3RhMzESMBAGCSqGSIb3DQEJARYDdGEzMB4XDTM1
MDEwMTAxMDEwMVoXDTM1MDEwMjAxMDEwMVowdTELMAkGA1UEBhMCVVMxEzARBgNV
BAgMCkNhbGlmb3JuaWExFDASBgNVBAcMC1NhbnRhIENsYXJhMQ0wCwYDVQQKDARw
a2c1MRIwEAYDVQQDDAljaDEuM190YTMxGDAWBgkqhkiG9w0BCQEWCWNoMS4zX3Rh
MzCCASIwDQYJKoZIhvcNAQEBBQADggEPADCCAQoCggEBAKB+qc5Du+GqP2l5Y3lC
IwkxT7TidaWmGViw6Uos95m3GspxHKbthZfq+N7Gh920f4sNCgHAT7tcmarh0maf
Y6IaWjzBRSctm1SKWMhKjT3d0Ad4f97BckeT9u/94DWDWcUqopwSiE/Wuu3L6jY2
Whln7HDbhmsAjygjHfIK4qAb82uizb+aafptm65ul8xEeCbVcr1ESRjbyIpj7ZR/
XnGA3ODOPZFg6iYORUgBGVRxC3mQ366Mg6eTWaHToTDm+Vd+9KqUhDDWfFxJ3VI2
CrySm7C0f6FN9L6N48/9YQ8O0434o26NY2rJC4hfSGBlHdlwaEw/CdTZj6JZuiCn
8L0CAwEAAaOB4TCB3jAdBgNVHQ4EFgQUjt4NJP8lJPbXiZLac7uEm42M7g8wgZsG
A1UdIwSBkzCBkIAU+PwbF6+gtTwguHKT0uoEp1K2KWChbaRrMGkxCzAJBgNVBAYT
AlVTMRMwEQYDVQQIDApDYWxpZm9ybmlhMRQwEgYDVQQHDAtTYW50YSBDbGFyYTEN
MAsGA1UECgwEcGtnNTEMMAoGA1UEAwwDdGEzMRIwEAYJKoZIhvcNAQkBFgN0YTOC
CQCGiboYZvj2LzAPBgNVHRMBAf8EBTADAQH/MA4GA1UdDwEB/wQEAwIBBjANBgkq
hkiG9w0BAQsFAAOCAQEADxmJR7WmQU4HJAduppyoose8lRBReJlciNNJ28wHG3y0
7dFQpi8LouWmo9zxEmMSQC2+NO/63ZBp2yTQljnTSuwZTf4kJWDWL8kW+B0BEs7W
ZPPdOWS7v9dak0S6Io15jONfjCrimsV5YYlN3WhWm+2YRGK+VN6h/Oyz6Megk9SR
R/GC31ZA9MJNqCH1svoYexnMWzhQdhx9GAVP0MmjGB+bH0tr8tfmJyXmjnMj3PqG
29ZMVy7Qbg/IbFrhPdurW/olgTUAdJeYETF5hwNb6LKUKxbkjyv5RGPNgU3d/Hi3
bEDZKPW/8uy6kLz6Zy0z3AAFB5l8M4dxaES3CFLhOg==
-----END CERTIFICATE-----
