Certificate:
    Data:
        Version: 3 (0x2)
        Serial Number: 30 (0x1e)
        Signature Algorithm: sha256WithRSAEncryption
        Issuer: C=US, ST=California, L=Menlo Park, O=pkg5, CN=ta3/emailAddress=ta3
        Validity
            Not Before: Jan  1 01:01:01 2035 GMT
            Not After : Jan  2 01:01:01 2035 GMT
        Subject: C=US, ST=California, L=Menlo Park, O=pkg5, CN=ch1.3_ta3/emailAddress=ch1.3_ta3
        Subject Public Key Info:
            Public Key Algorithm: rsaEncryption
            RSA Public Key: (1024 bit)
                Modulus (1024 bit):
                    00:d9:34:eb:28:22:6a:51:f8:11:2c:ee:1f:6d:c9:
                    f1:12:5a:04:33:dd:d6:27:ca:9a:40:ae:df:5c:78:
                    53:28:c8:37:d2:47:14:e1:fc:22:ea:90:d9:19:05:
                    08:fd:b7:99:20:97:28:23:fd:3d:62:87:0d:29:a0:
                    de:95:61:33:6c:d6:e0:65:db:c1:8b:8c:70:c3:ce:
                    66:e9:93:ee:92:9f:87:2c:d4:6f:1d:e1:92:cb:8a:
                    38:a4:95:0a:6a:a2:94:c6:41:25:17:ce:a6:01:fb:
                    cf:03:52:40:93:34:37:b5:74:48:15:d4:e7:64:82:
                    46:ee:b3:bd:b5:1f:3b:42:81
                Exponent: 65537 (0x10001)
        X509v3 extensions:
            X509v3 Subject Key Identifier: 
                E0:C8:F3:4A:A9:FE:FA:63:97:C7:CE:EE:A8:27:45:F4:C5:11:8F:A6
            X509v3 Authority Key Identifier: 
                keyid:7A:F6:51:7A:7F:9B:AB:37:3D:4E:93:03:90:6D:6A:84:09:7C:3A:DD
                DirName:/C=US/ST=California/L=Menlo Park/O=pkg5/CN=ta3/emailAddress=ta3
                serial:F4:58:54:6A:83:22:66:E9

            X509v3 Basic Constraints: critical
                CA:TRUE
            X509v3 Key Usage: critical
                Certificate Sign, CRL Sign
    Signature Algorithm: sha256WithRSAEncryption
        8d:45:1b:e3:e0:58:10:d4:92:66:aa:50:1a:ee:7a:d9:99:82:
        7b:6e:3b:9b:88:9e:7c:a2:35:34:bb:77:9d:1f:79:d2:5d:aa:
        b6:91:f8:07:ff:dc:63:81:d5:f3:e2:47:27:cc:79:2a:33:c8:
        77:d5:9b:9a:f0:2e:58:64:d3:cb:fb:e4:f9:55:bb:89:9c:36:
        8f:dd:84:95:a9:8c:8c:d3:6b:81:f8:64:b1:8a:15:20:59:10:
        e3:5c:b3:05:c6:cd:d1:cb:03:3c:39:84:1c:93:f3:67:5c:10:
        09:e9:99:1a:a0:45:21:ea:16:31:a1:3d:74:4d:27:75:f9:3d:
        aa:df
-----BEGIN CERTIFICATE-----
MIIDMzCCApygAwIBAgIBHjANBgkqhkiG9w0BAQsFADBoMQswCQYDVQQGEwJVUzET
MBEGA1UECBMKQ2FsaWZvcm5pYTETMBEGA1UEBxMKTWVubG8gUGFyazENMAsGA1UE
ChMEcGtnNTEMMAoGA1UEAxMDdGEzMRIwEAYJKoZIhvcNAQkBFgN0YTMwHhcNMzUw
MTAxMDEwMTAxWhcNMzUwMTAyMDEwMTAxWjB0MQswCQYDVQQGEwJVUzETMBEGA1UE
CBMKQ2FsaWZvcm5pYTETMBEGA1UEBxMKTWVubG8gUGFyazENMAsGA1UEChMEcGtn
NTESMBAGA1UEAxQJY2gxLjNfdGEzMRgwFgYJKoZIhvcNAQkBFgljaDEuM190YTMw
gZ8wDQYJKoZIhvcNAQEBBQADgY0AMIGJAoGBANk06ygialH4ESzuH23J8RJaBDPd
1ifKmkCu31x4UyjIN9JHFOH8IuqQ2RkFCP23mSCXKCP9PWKHDSmg3pVhM2zW4GXb
wYuMcMPOZumT7pKfhyzUbx3hksuKOKSVCmqilMZBJRfOpgH7zwNSQJM0N7V0SBXU
52SCRu6zvbUfO0KBAgMBAAGjgeAwgd0wHQYDVR0OBBYEFODI80qp/vpjl8fO7qgn
RfTFEY+mMIGaBgNVHSMEgZIwgY+AFHr2UXp/m6s3PU6TA5BtaoQJfDrdoWykajBo
MQswCQYDVQQGEwJVUzETMBEGA1UECBMKQ2FsaWZvcm5pYTETMBEGA1UEBxMKTWVu
bG8gUGFyazENMAsGA1UEChMEcGtnNTEMMAoGA1UEAxMDdGEzMRIwEAYJKoZIhvcN
AQkBFgN0YTOCCQD0WFRqgyJm6TAPBgNVHRMBAf8EBTADAQH/MA4GA1UdDwEB/wQE
AwIBBjANBgkqhkiG9w0BAQsFAAOBgQCNRRvj4FgQ1JJmqlAa7nrZmYJ7bjubiJ58
ojU0u3edH3nSXaq2kfgH/9xjgdXz4kcnzHkqM8h31Zua8C5YZNPL++T5VbuJnDaP
3YSVqYyM02uB+GSxihUgWRDjXLMFxs3RywM8OYQck/NnXBAJ6ZkaoEUh6hYxoT10
TSd1+T2q3w==
-----END CERTIFICATE-----
