Certificate:
    Data:
        Version: 3 (0x2)
        Serial Number: 30 (0x1e)
    Signature Algorithm: sha256WithRSAEncryption
        Issuer: C=US, ST=California, L=Santa Clara, O=pkg5, CN=ta3/emailAddress=ta3
        Validity
            Not Before: Jan  1 01:01:01 2035 GMT
            Not After : Jan  2 01:01:01 2035 GMT
        Subject: C=US, ST=California, L=Santa Clara, O=pkg5, CN=ch1.3_ta3/emailAddress=ch1.3_ta3
        Subject Public Key Info:
            Public Key Algorithm: rsaEncryption
                Public-Key: (1024 bit)
                Modulus:
                    00:ce:58:8a:05:67:47:a9:62:99:37:13:35:4c:74:
                    75:9b:2f:d7:4c:23:7a:cd:60:35:0c:95:4b:58:b3:
                    dd:c8:2d:69:ad:3c:8d:d3:27:0d:02:06:d0:4b:6c:
                    6e:57:e9:1f:3c:dc:f3:88:22:25:86:35:13:91:3c:
                    9f:76:67:a4:ae:98:63:d2:73:4d:2f:07:d5:7f:80:
                    7e:27:92:25:16:aa:32:fe:7a:17:65:d5:9f:ee:39:
                    9f:c8:a1:57:6a:9b:2d:e3:61:d9:35:d5:94:fb:fa:
                    95:21:c3:31:33:50:d6:2f:e5:c0:7a:bb:a7:61:a4:
                    e0:9b:5e:ca:99:2a:5d:6a:db
                Exponent: 65537 (0x10001)
        X509v3 extensions:
            X509v3 Subject Key Identifier: 
                28:44:43:26:57:0F:45:87:1A:A5:36:FB:0F:49:91:4B:A1:38:F3:ED
            X509v3 Authority Key Identifier: 
                keyid:B4:D4:36:9F:F8:CB:A2:5F:50:89:DA:21:E3:27:C4:91:F7:84:88:45
                DirName:/C=US/ST=California/L=Santa Clara/O=pkg5/CN=ta3/emailAddress=ta3
                serial:C0:C4:B4:7D:88:D6:E3:3E

            X509v3 Basic Constraints: critical
                CA:TRUE
            X509v3 Key Usage: critical
                Certificate Sign, CRL Sign
    Signature Algorithm: sha256WithRSAEncryption
         b8:a1:7b:ba:b7:10:91:c0:21:86:fe:4d:01:f7:14:34:d9:aa:
         dc:f3:04:56:c2:08:e6:66:f5:77:55:7e:dd:ea:b5:49:ff:d9:
         32:39:2c:c9:9f:2f:9c:b3:cc:68:25:3e:d4:92:ef:be:b7:a1:
         a5:d6:8c:31:3d:3a:7f:f4:5d:e8:ca:a3:30:29:ff:89:82:63:
         cb:46:47:34:e8:ce:25:dd:a4:09:61:0b:08:7b:fd:24:1b:2b:
         2d:9b:b9:84:ba:9e:fe:c1:2a:bd:df:e5:86:08:9c:74:ca:51:
         c8:2e:b8:24:13:49:8c:a4:3e:c1:48:44:bd:30:18:40:88:43:
         c1:a6
-----BEGIN CERTIFICATE-----
MIIDNjCCAp+gAwIBAgIBHjANBgkqhkiG9w0BAQsFADBpMQswCQYDVQQGEwJVUzET
MBEGA1UECAwKQ2FsaWZvcm5pYTEUMBIGA1UEBwwLU2FudGEgQ2xhcmExDTALBgNV
BAoMBHBrZzUxDDAKBgNVBAMMA3RhMzESMBAGCSqGSIb3DQEJARYDdGEzMB4XDTM1
MDEwMTAxMDEwMVoXDTM1MDEwMjAxMDEwMVowdTELMAkGA1UEBhMCVVMxEzARBgNV
BAgMCkNhbGlmb3JuaWExFDASBgNVBAcMC1NhbnRhIENsYXJhMQ0wCwYDVQQKDARw
a2c1MRIwEAYDVQQDDAljaDEuM190YTMxGDAWBgkqhkiG9w0BCQEWCWNoMS4zX3Rh
MzCBnzANBgkqhkiG9w0BAQEFAAOBjQAwgYkCgYEAzliKBWdHqWKZNxM1THR1my/X
TCN6zWA1DJVLWLPdyC1prTyN0ycNAgbQS2xuV+kfPNzziCIlhjUTkTyfdmekrphj
0nNNLwfVf4B+J5IlFqoy/noXZdWf7jmfyKFXapst42HZNdWU+/qVIcMxM1DWL+XA
erunYaTgm17KmSpdatsCAwEAAaOB4TCB3jAdBgNVHQ4EFgQUKERDJlcPRYcapTb7
D0mRS6E48+0wgZsGA1UdIwSBkzCBkIAUtNQ2n/jLol9Qidoh4yfEkfeEiEWhbaRr
MGkxCzAJBgNVBAYTAlVTMRMwEQYDVQQIDApDYWxpZm9ybmlhMRQwEgYDVQQHDAtT
YW50YSBDbGFyYTENMAsGA1UECgwEcGtnNTEMMAoGA1UEAwwDdGEzMRIwEAYJKoZI
hvcNAQkBFgN0YTOCCQDAxLR9iNbjPjAPBgNVHRMBAf8EBTADAQH/MA4GA1UdDwEB
/wQEAwIBBjANBgkqhkiG9w0BAQsFAAOBgQC4oXu6txCRwCGG/k0B9xQ02arc8wRW
wgjmZvV3VX7d6rVJ/9kyOSzJny+cs8xoJT7Uku++t6Gl1owxPTp/9F3oyqMwKf+J
gmPLRkc06M4l3aQJYQsIe/0kGystm7mEup7+wSq93+WGCJx0ylHILrgkE0mMpD7B
SES9MBhAiEPBpg==
-----END CERTIFICATE-----
