Certificate:
    Data:
        Version: 3 (0x2)
        Serial Number: 31 (0x1f)
    Signature Algorithm: sha256WithRSAEncryption
        Issuer: C=US, ST=California, L=Santa Clara, O=pkg5, CN=ta3/emailAddress=ta3
        Validity
            Not Before: Jan  1 01:01:01 2035 GMT
            Not After : Jan  2 01:01:01 2035 GMT
        Subject: C=US, ST=California, L=Santa Clara, O=pkg5, CN=ch1.3_ta3/emailAddress=ch1.3_ta3
        Subject Public Key Info:
            Public Key Algorithm: rsaEncryption
                Public-Key: (2048 bit)
                Modulus:
                    00:a5:a2:9a:58:4a:0e:d7:07:3b:38:52:04:65:eb:
                    e5:9e:7c:eb:2e:d6:22:89:1e:a8:b2:5c:d2:8b:6e:
                    76:3b:7c:66:dd:ec:d9:ee:2a:6e:d0:b8:47:e2:cf:
                    30:c8:13:9c:60:2b:6a:e1:9e:62:65:71:77:fb:50:
                    8f:08:95:55:05:86:93:ed:38:f6:b8:5d:bf:07:a1:
                    d9:66:7d:da:80:7b:09:c3:02:74:9c:33:44:6d:cd:
                    7a:0e:be:46:54:14:65:f8:11:75:1f:d7:f4:6c:c8:
                    97:76:fb:20:0c:86:ff:31:bd:c4:7b:86:38:4c:ee:
                    96:c6:c2:b4:c1:ca:ce:9f:43:16:ef:86:d4:fe:fd:
                    04:06:a6:a7:99:30:8e:aa:a8:d3:93:b2:b2:cd:0f:
                    56:50:1a:02:8d:71:c9:2d:b5:97:b7:d2:ca:c8:b1:
                    9d:9b:bd:a6:9c:5a:da:7d:22:2c:41:34:2d:b9:5f:
                    06:d8:ad:26:20:98:f2:d7:48:71:5f:c7:9f:bb:02:
                    6a:64:65:7b:ec:d6:80:ab:a3:c6:45:55:8a:e6:b2:
                    1d:f6:d0:b9:c4:26:85:88:7b:ea:84:3a:3c:f1:c7:
                    e6:b0:47:f6:5f:99:85:b1:cd:5c:20:6a:cc:e4:2c:
                    7d:72:23:92:21:85:37:c5:20:e5:ff:07:36:35:d5:
                    b7:2f
                Exponent: 65537 (0x10001)
        X509v3 extensions:
            X509v3 Subject Key Identifier: 
                8B:2B:21:B0:6C:71:E6:F0:68:6D:FC:32:0C:DB:53:38:EC:B3:43:A6
            X509v3 Authority Key Identifier: 
                keyid:29:6E:FA:0C:C3:3A:D4:13:5F:93:39:0F:10:08:27:C7:BF:62:56:E5
                DirName:/C=US/ST=California/L=Santa Clara/O=pkg5/CN=ta3/emailAddress=ta3
                serial:8A:15:23:60:8D:FB:3E:84

            X509v3 Basic Constraints: critical
                CA:TRUE
            X509v3 Key Usage: critical
                Certificate Sign, CRL Sign
    Signature Algorithm: sha256WithRSAEncryption
         84:66:26:74:86:86:ab:62:33:c4:6e:69:75:7c:54:be:52:f6:
         0a:4e:3a:36:9c:11:a9:f0:7c:65:0d:eb:c5:f4:f7:bf:28:64:
         9f:de:ac:f7:cb:cd:3b:eb:57:a1:2b:3f:d4:e9:d1:f9:2c:7b:
         75:c8:5b:9c:a6:22:cc:fd:04:5e:48:f3:0f:22:a0:f7:75:a8:
         56:b7:4a:95:ee:a0:be:29:c4:8b:9d:ef:d9:65:f6:ac:a8:37:
         41:cc:79:cd:ea:b2:dd:d0:e8:b3:2d:80:36:dd:eb:31:62:7f:
         7e:1a:15:ae:3b:14:cf:ae:aa:1d:8d:42:1e:aa:b7:28:4c:ae:
         30:b2:ab:ac:b4:48:50:e6:ec:35:94:fb:7f:94:de:f8:ea:f9:
         e5:7d:d4:3e:db:58:79:49:59:25:85:33:20:f0:b1:e0:7c:44:
         79:4a:61:e3:39:d4:06:c8:87:05:a5:ce:ff:13:4d:ba:3a:2e:
         9e:78:15:f3:d3:85:9c:41:e1:2d:6d:e2:ce:d1:1d:cc:4f:ee:
         6e:3f:3d:d1:16:df:e2:fe:2a:fc:6b:1f:cc:e1:45:57:0b:b7:
         26:3d:ca:14:ee:5d:81:cd:69:28:4b:d6:25:30:6f:68:39:ea:
         b6:5c:e7:37:05:55:a6:c4:9b:72:42:f8:f1:46:fe:a0:56:27:
         e1:c6:85:e8
-----BEGIN CERTIFICATE-----
MIIEOzCCAyOgAwIBAgIBHzANBgkqhkiG9w0BAQsFADBpMQswCQYDVQQGEwJVUzET
MBEGA1UECAwKQ2FsaWZvcm5pYTEUMBIGA1UEBwwLU2FudGEgQ2xhcmExDTALBgNV
BAoMBHBrZzUxDDAKBgNVBAMMA3RhMzESMBAGCSqGSIb3DQEJARYDdGEzMB4XDTM1
MDEwMTAxMDEwMVoXDTM1MDEwMjAxMDEwMVowdTELMAkGA1UEBhMCVVMxEzARBgNV
BAgMCkNhbGlmb3JuaWExFDASBgNVBAcMC1NhbnRhIENsYXJhMQ0wCwYDVQQKDARw
a2c1MRIwEAYDVQQDDAljaDEuM190YTMxGDAWBgkqhkiG9w0BCQEWCWNoMS4zX3Rh
MzCCASIwDQYJKoZIhvcNAQEBBQADggEPADCCAQoCggEBAKWimlhKDtcHOzhSBGXr
5Z586y7WIokeqLJc0otudjt8Zt3s2e4qbtC4R+LPMMgTnGArauGeYmVxd/tQjwiV
VQWGk+049rhdvweh2WZ92oB7CcMCdJwzRG3Neg6+RlQUZfgRdR/X9GzIl3b7IAyG
/zG9xHuGOEzulsbCtMHKzp9DFu+G1P79BAamp5kwjqqo05Oyss0PVlAaAo1xyS21
l7fSysixnZu9ppxa2n0iLEE0LblfBtitJiCY8tdIcV/Hn7sCamRle+zWgKujxkVV
iuayHfbQucQmhYh76oQ6PPHH5rBH9l+ZhbHNXCBqzOQsfXIjkiGFN8Ug5f8HNjXV
ty8CAwEAAaOB4TCB3jAdBgNVHQ4EFgQUiyshsGxx5vBobfwyDNtTOOyzQ6YwgZsG
A1UdIwSBkzCBkIAUKW76DMM61BNfkzkPEAgnx79iVuWhbaRrMGkxCzAJBgNVBAYT
AlVTMRMwEQYDVQQIDApDYWxpZm9ybmlhMRQwEgYDVQQHDAtTYW50YSBDbGFyYTEN
MAsGA1UECgwEcGtnNTEMMAoGA1UEAwwDdGEzMRIwEAYJKoZIhvcNAQkBFgN0YTOC
CQCKFSNgjfs+hDAPBgNVHRMBAf8EBTADAQH/MA4GA1UdDwEB/wQEAwIBBjANBgkq
hkiG9w0BAQsFAAOCAQEAhGYmdIaGq2IzxG5pdXxUvlL2Ck46NpwRqfB8ZQ3rxfT3
vyhkn96s98vNO+tXoSs/1OnR+Sx7dchbnKYizP0EXkjzDyKg93WoVrdKle6gvinE
i53v2WX2rKg3Qcx5zeqy3dDosy2ANt3rMWJ/fhoVrjsUz66qHY1CHqq3KEyuMLKr
rLRIUObsNZT7f5Te+Or55X3UPttYeUlZJYUzIPCx4HxEeUph4znUBsiHBaXO/xNN
ujounngV89OFnEHhLW3iztEdzE/ubj890Rbf4v4q/GsfzOFFVwu3Jj3KFO5dgc1p
KEvWJTBvaDnqtlznNwVVpsSbckL48Ub+oFYn4caF6A==
-----END CERTIFICATE-----
