Certificate:
    Data:
        Version: 3 (0x2)
        Serial Number: 32 (0x20)
    Signature Algorithm: sha256WithRSAEncryption
        Issuer: C=US, ST=California, L=Santa Clara, O=pkg5, CN=ta3/emailAddress=ta3
        Validity
            Not Before: Jan  1 01:01:01 2035 GMT
            Not After : Jan  2 01:01:01 2035 GMT
        Subject: C=US, ST=California, L=Santa Clara, O=pkg5, CN=ch1.4_ta3/emailAddress=ch1.4_ta3
        Subject Public Key Info:
            Public Key Algorithm: rsaEncryption
                Public-Key: (2048 bit)
                Modulus:
                    00:bf:73:bc:85:fd:d3:43:54:2c:2f:0a:23:69:cf:
                    98:62:45:90:e3:a3:5b:f2:c0:ab:50:33:90:20:21:
                    70:be:78:e9:ba:f7:ce:ed:01:f0:6f:41:79:b0:68:
                    39:d1:ad:e6:3e:00:f9:ae:c6:59:69:09:18:4e:59:
                    23:54:58:1a:f1:79:0a:93:59:fd:67:75:b0:a3:87:
                    3a:80:5d:90:d7:3a:33:bb:55:31:a6:7a:3e:e5:75:
                    69:2d:2c:5b:6e:a7:21:99:5a:4e:3c:fa:19:d7:ef:
                    fc:32:5a:e1:bc:5a:e3:0c:7f:1d:09:8f:93:fe:8f:
                    e1:4c:36:d1:2f:68:ea:64:b9:f9:05:ff:9a:42:ae:
                    f5:ae:cd:1f:76:b7:30:eb:c3:c5:21:5b:03:1f:47:
                    eb:62:87:cf:74:36:eb:df:ed:09:cf:a3:d5:d2:14:
                    3b:2d:d9:89:ea:f3:52:bb:25:88:a1:ac:74:54:7e:
                    c0:6b:ba:39:ec:4e:26:c2:ee:37:5c:52:78:c2:19:
                    90:6e:0a:ff:aa:a8:99:e1:2d:a3:9e:5f:34:6d:75:
                    57:05:90:a5:cf:69:be:a1:91:47:02:89:9a:1b:dc:
                    7c:10:f6:6d:6b:4f:aa:f0:b9:8f:d6:49:f1:90:64:
                    25:c6:f6:ae:11:53:11:36:25:ed:a4:4c:c2:02:2b:
                    aa:d9
                Exponent: 65537 (0x10001)
        X509v3 extensions:
            X509v3 Subject Key Identifier: 
                7C:76:A8:F6:40:EA:48:35:51:61:35:3A:9D:48:5B:61:FC:01:C6:E6
            X509v3 Authority Key Identifier: 
                keyid:D4:96:C5:46:89:1A:DF:AE:C8:49:CA:65:E8:A8:C4:8E:10:60:26:1A
                DirName:/C=US/ST=California/L=Santa Clara/O=pkg5/CN=ta3/emailAddress=ta3
                serial:8D:46:D3:00:C5:00:EE:1C

            X509v3 Basic Constraints: critical
                CA:TRUE
    Signature Algorithm: sha256WithRSAEncryption
         54:e1:75:fe:74:11:c7:a0:2d:10:a7:76:c7:83:aa:3f:e5:6b:
         e4:4e:f0:9e:19:58:06:26:a2:81:50:63:f8:9f:52:a1:34:ad:
         53:fb:4c:d1:c0:db:b4:8d:ee:80:96:12:c1:0e:18:bf:18:59:
         6a:5b:e6:ce:2a:c0:54:2c:1f:89:01:6b:9c:e5:71:f8:c9:33:
         fb:e9:77:1b:f7:0c:d4:3f:8c:c5:9b:ec:c2:c5:1d:f5:47:92:
         9d:bd:7c:fc:ba:90:6d:67:2a:b1:ae:41:68:a3:d3:b6:6b:e0:
         53:83:5e:b4:6c:f3:97:48:fb:c9:7d:06:d6:38:d0:0f:43:2d:
         19:cc:92:71:68:c6:fb:0c:38:73:64:5b:f3:3f:4a:9a:c8:78:
         ce:f0:a7:9c:88:56:fe:49:75:0c:60:f0:76:6a:6f:57:d9:6e:
         10:92:dc:68:fb:46:2b:ce:4b:9c:9e:23:83:84:02:a0:eb:5a:
         69:4b:07:91:ec:78:2e:ad:27:bb:5f:34:9d:2a:28:0a:d2:d8:
         2a:74:cd:d5:63:0d:96:bc:be:71:50:cf:63:8f:7c:89:7b:6a:
         49:7e:f0:bc:59:34:9c:68:7f:52:32:82:4d:5e:cc:d6:7b:36:
         60:89:3d:60:8e:d9:13:98:be:cb:d9:0d:68:4c:04:bb:93:cf:
         1f:1e:73:1d
-----BEGIN CERTIFICATE-----
MIIEKzCCAxOgAwIBAgIBIDANBgkqhkiG9w0BAQsFADBpMQswCQYDVQQGEwJVUzET
MBEGA1UECAwKQ2FsaWZvcm5pYTEUMBIGA1UEBwwLU2FudGEgQ2xhcmExDTALBgNV
BAoMBHBrZzUxDDAKBgNVBAMMA3RhMzESMBAGCSqGSIb3DQEJARYDdGEzMB4XDTM1
MDEwMTAxMDEwMVoXDTM1MDEwMjAxMDEwMVowdTELMAkGA1UEBhMCVVMxEzARBgNV
BAgMCkNhbGlmb3JuaWExFDASBgNVBAcMC1NhbnRhIENsYXJhMQ0wCwYDVQQKDARw
a2c1MRIwEAYDVQQDDAljaDEuNF90YTMxGDAWBgkqhkiG9w0BCQEWCWNoMS40X3Rh
MzCCASIwDQYJKoZIhvcNAQEBBQADggEPADCCAQoCggEBAL9zvIX900NULC8KI2nP
mGJFkOOjW/LAq1AzkCAhcL546br3zu0B8G9BebBoOdGt5j4A+a7GWWkJGE5ZI1RY
GvF5CpNZ/Wd1sKOHOoBdkNc6M7tVMaZ6PuV1aS0sW26nIZlaTjz6Gdfv/DJa4bxa
4wx/HQmPk/6P4Uw20S9o6mS5+QX/mkKu9a7NH3a3MOvDxSFbAx9H62KHz3Q269/t
Cc+j1dIUOy3ZierzUrsliKGsdFR+wGu6OexOJsLuN1xSeMIZkG4K/6qomeEto55f
NG11VwWQpc9pvqGRRwKJmhvcfBD2bWtPqvC5j9ZJ8ZBkJcb2rhFTETYl7aRMwgIr
qtkCAwEAAaOB0TCBzjAdBgNVHQ4EFgQUfHao9kDqSDVRYTU6nUhbYfwBxuYwgZsG
A1UdIwSBkzCBkIAU1JbFRoka367IScpl6KjEjhBgJhqhbaRrMGkxCzAJBgNVBAYT
AlVTMRMwEQYDVQQIDApDYWxpZm9ybmlhMRQwEgYDVQQHDAtTYW50YSBDbGFyYTEN
MAsGA1UECgwEcGtnNTEMMAoGA1UEAwwDdGEzMRIwEAYJKoZIhvcNAQkBFgN0YTOC
CQCNRtMAxQDuHDAPBgNVHRMBAf8EBTADAQH/MA0GCSqGSIb3DQEBCwUAA4IBAQBU
4XX+dBHHoC0Qp3bHg6o/5WvkTvCeGVgGJqKBUGP4n1KhNK1T+0zRwNu0je6AlhLB
Dhi/GFlqW+bOKsBULB+JAWuc5XH4yTP76Xcb9wzUP4zFm+zCxR31R5KdvXz8upBt
ZyqxrkFoo9O2a+BTg160bPOXSPvJfQbWONAPQy0ZzJJxaMb7DDhzZFvzP0qayHjO
8KeciFb+SXUMYPB2am9X2W4Qktxo+0YrzkucniODhAKg61ppSweR7HgurSe7XzSd
KigK0tgqdM3VYw2WvL5xUM9jj3yJe2pJfvC8WTScaH9SMoJNXszWezZgiT1gjtkT
mL7L2Q1oTAS7k88fHnMd
-----END CERTIFICATE-----
