Certificate:
    Data:
        Version: 3 (0x2)
        Serial Number: 32 (0x20)
        Signature Algorithm: sha256WithRSAEncryption
        Issuer: C=US, ST=California, L=Menlo Park, O=pkg5, CN=ta3/emailAddress=ta3
        Validity
            Not Before: Jan  1 01:01:01 2035 GMT
            Not After : Jan  2 01:01:01 2035 GMT
        Subject: C=US, ST=California, L=Menlo Park, O=pkg5, CN=ch1.4_ta3/emailAddress=ch1.4_ta3
        Subject Public Key Info:
            Public Key Algorithm: rsaEncryption
            RSA Public Key: (1024 bit)
                Modulus (1024 bit):
                    00:d4:73:3a:40:f9:03:81:b2:0a:4c:a4:d9:45:f7:
                    81:c0:bb:53:ee:6f:9c:3d:a0:98:89:86:84:8d:33:
                    1f:02:a6:ed:2a:14:9a:5f:84:11:06:9d:82:28:fb:
                    cf:92:bd:bf:f9:f0:6b:fe:3d:06:5e:65:7c:35:96:
                    4f:e8:44:2c:83:d5:b8:32:16:8c:e0:7c:ed:8b:96:
                    79:a6:14:e5:12:87:e0:55:2a:45:3e:e7:fd:bd:0e:
                    94:70:93:e4:61:82:d3:06:9a:38:ef:e2:22:be:1a:
                    10:b1:8b:5e:16:60:f3:9a:5c:2d:ff:06:01:cb:5f:
                    24:cb:e7:c7:27:a7:3a:58:f1
                Exponent: 65537 (0x10001)
        X509v3 extensions:
            X509v3 Subject Key Identifier: 
                91:D7:D6:98:F3:B9:7A:A3:30:35:78:02:00:01:14:2D:0E:FD:90:57
            X509v3 Authority Key Identifier: 
                keyid:E2:9E:A1:8B:D7:D3:B0:F1:C3:E9:77:A4:49:5D:6A:4E:AB:73:AC:5D
                DirName:/C=US/ST=California/L=Menlo Park/O=pkg5/CN=ta3/emailAddress=ta3
                serial:EE:77:7E:6A:C1:1E:57:ED

            X509v3 Basic Constraints: critical
                CA:TRUE
    Signature Algorithm: sha256WithRSAEncryption
        cc:45:03:b6:88:a7:29:26:ca:08:af:dd:0a:6f:6a:b4:86:35:
        f7:01:15:32:e5:7c:70:0b:01:01:de:2b:c3:73:66:29:25:97:
        0d:28:84:16:7d:fb:97:18:26:a4:07:08:90:00:d2:a4:c4:4e:
        7f:53:77:87:da:34:56:0b:38:85:57:e4:e3:24:d4:54:5b:c9:
        74:65:9b:6e:d9:79:53:0e:3f:81:7a:61:d2:00:4c:ea:49:9c:
        01:02:3f:6e:28:5d:b7:f7:3d:85:4a:78:9d:39:a2:2b:10:25:
        d1:55:04:46:9f:40:9f:bc:c2:6a:68:3d:cc:6f:18:a7:cf:7e:
        67:7a
-----BEGIN CERTIFICATE-----
MIIDIzCCAoygAwIBAgIBIDANBgkqhkiG9w0BAQsFADBoMQswCQYDVQQGEwJVUzET
MBEGA1UECBMKQ2FsaWZvcm5pYTETMBEGA1UEBxMKTWVubG8gUGFyazENMAsGA1UE
ChMEcGtnNTEMMAoGA1UEAxMDdGEzMRIwEAYJKoZIhvcNAQkBFgN0YTMwHhcNMzUw
MTAxMDEwMTAxWhcNMzUwMTAyMDEwMTAxWjB0MQswCQYDVQQGEwJVUzETMBEGA1UE
CBMKQ2FsaWZvcm5pYTETMBEGA1UEBxMKTWVubG8gUGFyazENMAsGA1UEChMEcGtn
NTESMBAGA1UEAxQJY2gxLjRfdGEzMRgwFgYJKoZIhvcNAQkBFgljaDEuNF90YTMw
gZ8wDQYJKoZIhvcNAQEBBQADgY0AMIGJAoGBANRzOkD5A4GyCkyk2UX3gcC7U+5v
nD2gmImGhI0zHwKm7SoUml+EEQadgij7z5K9v/nwa/49Bl5lfDWWT+hELIPVuDIW
jOB87YuWeaYU5RKH4FUqRT7n/b0OlHCT5GGC0waaOO/iIr4aELGLXhZg85pcLf8G
ActfJMvnxyenOljxAgMBAAGjgdAwgc0wHQYDVR0OBBYEFJHX1pjzuXqjMDV4AgAB
FC0O/ZBXMIGaBgNVHSMEgZIwgY+AFOKeoYvX07Dxw+l3pEldak6rc6xdoWykajBo
MQswCQYDVQQGEwJVUzETMBEGA1UECBMKQ2FsaWZvcm5pYTETMBEGA1UEBxMKTWVu
bG8gUGFyazENMAsGA1UEChMEcGtnNTEMMAoGA1UEAxMDdGEzMRIwEAYJKoZIhvcN
AQkBFgN0YTOCCQDud35qwR5X7TAPBgNVHRMBAf8EBTADAQH/MA0GCSqGSIb3DQEB
CwUAA4GBAMxFA7aIpykmygiv3QpvarSGNfcBFTLlfHALAQHeK8NzZikllw0ohBZ9
+5cYJqQHCJAA0qTETn9Td4faNFYLOIVX5OMk1FRbyXRlm27ZeVMOP4F6YdIATOpJ
nAECP24oXbf3PYVKeJ05oisQJdFVBEafQJ+8wmpoPcxvGKfPfmd6
-----END CERTIFICATE-----
