Certificate:
    Data:
        Version: 3 (0x2)
        Serial Number: 32 (0x20)
        Signature Algorithm: sha256WithRSAEncryption
        Issuer: C=US, ST=California, L=Santa Clara, O=pkg5, CN=ta3/emailAddress=ta3
        Validity
            Not Before: Jan  1 01:01:01 2035 GMT
            Not After : Jan  2 01:01:01 2035 GMT
        Subject: C=US, ST=California, L=Santa Clara, O=pkg5, CN=ch1.4_ta3/emailAddress=ch1.4_ta3
        Subject Public Key Info:
            Public Key Algorithm: rsaEncryption
                Public-Key: (2048 bit)
                Modulus:
                    00:b7:2c:73:93:98:c9:24:c0:b9:ed:3e:fe:bd:2a:
                    d1:a9:a5:79:ea:7c:2c:da:5f:32:32:a3:c1:69:87:
                    99:e4:19:12:b5:2a:bc:f0:46:c0:67:c4:66:b9:b2:
                    69:df:73:a1:cd:eb:61:00:5f:52:91:18:90:0e:db:
                    94:fe:09:52:bf:c1:ff:85:51:95:ad:0c:3b:71:e5:
                    5f:1c:17:89:7c:64:d9:ed:55:dd:08:39:95:c4:d6:
                    b3:4b:de:4f:0b:12:1d:ac:dd:b5:35:b8:c2:cc:b1:
                    4a:9b:ce:0f:11:e5:0a:c0:94:ca:9a:2c:4f:35:f3:
                    f4:a0:67:f1:f8:e0:7c:61:50:f6:30:61:83:f4:e3:
                    c0:e0:aa:d7:07:e5:96:04:2e:2d:c8:17:97:11:bf:
                    76:03:b5:c5:e5:53:4b:7a:8f:cb:12:75:f2:14:d1:
                    37:c7:f5:17:24:05:e4:b5:67:dd:99:29:9e:60:99:
                    20:81:8f:57:e1:fb:cf:fc:0c:86:59:58:c0:84:87:
                    8d:7d:58:6d:60:38:66:72:a0:e3:a2:0c:d1:86:61:
                    26:7a:df:c4:f5:25:ff:12:6a:fb:91:c5:eb:1b:34:
                    c0:87:0e:cd:d3:34:cf:7b:39:5e:4a:d1:ba:b0:c9:
                    9b:de:34:49:26:c1:d8:aa:db:19:6a:b2:0e:f8:98:
                    34:cf
                Exponent: 65537 (0x10001)
        X509v3 extensions:
            X509v3 Subject Key Identifier: 
                CD:A1:A2:60:7A:B9:FF:61:E9:29:73:28:2C:DA:7D:14:30:14:E8:CC
            X509v3 Authority Key Identifier: 
                keyid:43:54:28:1A:4B:3C:F9:91:B3:CB:00:A8:B8:90:E4:B7:6F:B6:22:CD
                DirName:/C=US/ST=California/L=Santa Clara/O=pkg5/CN=ta3/emailAddress=ta3
                serial:74:E7:12:B5:F0:FD:DA:49:31:EB:3B:E1:EB:75:65:B3:79:2D:FC:FF
            X509v3 Basic Constraints: critical
                CA:TRUE
    Signature Algorithm: sha256WithRSAEncryption
    Signature Value:
        74:98:57:9c:8a:b7:ed:11:e7:8e:b2:b8:a0:0c:0a:d7:ce:60:
        66:50:a2:ff:fe:52:43:9a:8a:f0:c8:04:51:a5:da:72:76:41:
        67:49:d0:1c:2e:9b:7d:b5:9b:a0:17:20:8e:39:8f:a2:81:ab:
        28:b5:3f:6f:60:f2:fa:b4:54:1f:99:56:1e:06:17:06:60:a3:
        c5:1d:43:75:47:3e:6b:25:65:f7:6f:89:cc:00:23:c0:16:c4:
        39:f5:73:3c:0e:57:fc:13:47:5d:36:61:bc:62:1d:b3:34:79:
        2f:e1:3d:70:3b:9e:02:ec:9c:5d:21:81:29:59:fa:1b:53:4c:
        df:17:7c:ee:f8:a7:1b:9c:42:7e:66:81:e5:d9:18:5c:15:35:
        4a:23:e8:e8:cf:7e:ca:45:c0:8c:37:32:87:82:d9:ab:c1:ff:
        22:86:d3:e4:c7:61:24:15:b1:3b:5a:92:1d:f6:d2:98:19:05:
        6b:83:22:76:37:e4:19:32:43:d1:06:5b:93:95:6d:99:66:3d:
        f4:96:90:99:6c:91:11:07:d3:58:df:d1:49:2d:c8:f1:0d:ef:
        58:71:60:e6:ad:45:7c:71:b4:85:cf:ec:54:d2:b1:13:55:67:
        af:af:7f:95:e1:a5:1e:e8:3c:f9:27:66:52:7f:30:a1:1c:cf:
        e1:62:9f:78
-----BEGIN CERTIFICATE-----
MIIENjCCAx6gAwIBAgIBIDANBgkqhkiG9w0BAQsFADBpMQswCQYDVQQGEwJVUzET
MBEGA1UECAwKQ2FsaWZvcm5pYTEUMBIGA1UEBwwLU2FudGEgQ2xhcmExDTALBgNV
BAoMBHBrZzUxDDAKBgNVBAMMA3RhMzESMBAGCSqGSIb3DQEJARYDdGEzMB4XDTM1
MDEwMTAxMDEwMVoXDTM1MDEwMjAxMDEwMVowdTELMAkGA1UEBhMCVVMxEzARBgNV
BAgMCkNhbGlmb3JuaWExFDASBgNVBAcMC1NhbnRhIENsYXJhMQ0wCwYDVQQKDARw
a2c1MRIwEAYDVQQDDAljaDEuNF90YTMxGDAWBgkqhkiG9w0BCQEWCWNoMS40X3Rh
MzCCASIwDQYJKoZIhvcNAQEBBQADggEPADCCAQoCggEBALcsc5OYySTAue0+/r0q
0amleep8LNpfMjKjwWmHmeQZErUqvPBGwGfEZrmyad9zoc3rYQBfUpEYkA7blP4J
Ur/B/4VRla0MO3HlXxwXiXxk2e1V3Qg5lcTWs0veTwsSHazdtTW4wsyxSpvODxHl
CsCUyposTzXz9KBn8fjgfGFQ9jBhg/TjwOCq1wfllgQuLcgXlxG/dgO1xeVTS3qP
yxJ18hTRN8f1FyQF5LVn3ZkpnmCZIIGPV+H7z/wMhllYwISHjX1YbWA4ZnKg46IM
0YZhJnrfxPUl/xJq+5HF6xs0wIcOzdM0z3s5XkrRurDJm940SSbB2KrbGWqyDviY
NM8CAwEAAaOB3DCB2TAdBgNVHQ4EFgQUzaGiYHq5/2HpKXMoLNp9FDAU6MwwgaYG
A1UdIwSBnjCBm4AUQ1QoGks8+ZGzywCouJDkt2+2Is2hbaRrMGkxCzAJBgNVBAYT
AlVTMRMwEQYDVQQIDApDYWxpZm9ybmlhMRQwEgYDVQQHDAtTYW50YSBDbGFyYTEN
MAsGA1UECgwEcGtnNTEMMAoGA1UEAwwDdGEzMRIwEAYJKoZIhvcNAQkBFgN0YTOC
FHTnErXw/dpJMes74et1ZbN5Lfz/MA8GA1UdEwEB/wQFMAMBAf8wDQYJKoZIhvcN
AQELBQADggEBAHSYV5yKt+0R546yuKAMCtfOYGZQov/+UkOaivDIBFGl2nJ2QWdJ
0Bwum321m6AXII45j6KBqyi1P29g8vq0VB+ZVh4GFwZgo8UdQ3VHPmslZfdvicwA
I8AWxDn1czwOV/wTR102YbxiHbM0eS/hPXA7ngLsnF0hgSlZ+htTTN8XfO74pxuc
Qn5mgeXZGFwVNUoj6OjPfspFwIw3MoeC2avB/yKG0+THYSQVsTtakh320pgZBWuD
InY35BkyQ9EGW5OVbZlmPfSWkJlskREH01jf0UktyPEN71hxYOatRXxxtIXP7FTS
sRNVZ6+vf5XhpR7oPPknZlJ/MKEcz+Fin3g=
-----END CERTIFICATE-----
