Certificate:
    Data:
        Version: 3 (0x2)
        Serial Number: 33 (0x21)
    Signature Algorithm: sha256WithRSAEncryption
        Issuer: C=US, ST=California, L=Santa Clara, O=pkg5, CN=ta3/emailAddress=ta3
        Validity
            Not Before: Jan  1 01:01:01 2035 GMT
            Not After : Jan  2 01:01:01 2035 GMT
        Subject: C=US, ST=California, L=Santa Clara, O=pkg5, CN=ch1.4_ta3/emailAddress=ch1.4_ta3
        Subject Public Key Info:
            Public Key Algorithm: rsaEncryption
                Public-Key: (2048 bit)
                Modulus:
                    00:c1:a0:1e:ec:bd:27:9e:d7:47:3d:4d:78:63:df:
                    b7:54:05:09:1b:22:65:15:de:2a:98:ef:b4:28:f0:
                    2a:92:87:2e:93:7f:0f:3d:ca:ce:d1:b5:23:26:8e:
                    65:4c:c2:57:82:3a:45:8c:5e:77:ac:68:ef:ce:e5:
                    1b:ba:b5:ba:f2:7d:73:04:d0:28:d8:27:74:bb:93:
                    ec:9d:2a:8c:a3:52:95:c0:4b:1a:76:e9:c1:6a:d4:
                    11:84:57:f2:9c:e9:4c:90:ba:7b:ac:cd:8b:a5:7f:
                    ed:43:d7:c3:a0:9e:7b:c6:07:f9:e2:10:46:b9:1e:
                    d6:87:aa:1c:e0:92:89:76:2c:ca:ab:5b:99:92:35:
                    b0:28:88:2d:08:76:99:ed:27:1b:e9:5f:ba:3a:ef:
                    fd:c5:09:43:74:ec:9d:7c:01:cf:db:37:43:3f:c8:
                    6b:9c:8f:f9:c9:04:cb:28:5a:70:ee:19:da:b0:f8:
                    65:5f:c1:d8:09:d0:9e:5e:94:e5:93:79:ad:25:ec:
                    73:1e:4c:43:30:e8:62:bf:a1:f5:ba:3a:21:10:d0:
                    5d:38:a8:fd:a0:4e:e8:b2:13:da:d3:da:b0:85:86:
                    94:36:be:13:4a:66:ad:89:ac:41:0e:e5:47:dc:d4:
                    bd:19:b2:9d:8b:58:27:e4:90:8c:77:09:62:c5:a9:
                    55:c9
                Exponent: 65537 (0x10001)
        X509v3 extensions:
            X509v3 Subject Key Identifier: 
                5F:F9:18:9C:13:FA:0C:6D:68:90:7F:A8:63:2E:5F:68:8D:27:9D:A5
            X509v3 Authority Key Identifier: 
                keyid:29:6E:FA:0C:C3:3A:D4:13:5F:93:39:0F:10:08:27:C7:BF:62:56:E5
                DirName:/C=US/ST=California/L=Santa Clara/O=pkg5/CN=ta3/emailAddress=ta3
                serial:8A:15:23:60:8D:FB:3E:84

            X509v3 Basic Constraints: critical
                CA:TRUE
    Signature Algorithm: sha256WithRSAEncryption
         24:b0:07:7a:c9:05:ad:8b:61:44:b4:79:c6:5e:3f:af:82:d8:
         ee:71:fb:a2:78:c8:40:aa:69:c0:66:76:31:20:62:e4:22:1e:
         7f:db:47:50:76:f5:0c:09:c2:ef:c7:5f:18:7d:2f:a8:37:4f:
         a8:aa:07:2c:5f:f1:e4:7d:6e:02:de:ae:6a:29:22:e5:d9:4e:
         b7:5b:5f:fa:9c:e2:86:f3:4e:89:46:95:8a:70:3a:a3:da:a7:
         5c:ad:c2:d0:35:cf:6b:8a:eb:8b:55:78:29:fe:c5:a8:71:fd:
         96:e2:7f:05:8f:1e:eb:7c:c2:dd:cb:4c:94:05:a2:76:11:fe:
         ed:d7:7a:df:92:13:7e:12:bb:e4:ff:11:19:b9:04:54:19:6f:
         f0:e3:42:f1:d4:48:d2:5c:0d:83:b8:7d:04:49:ec:c1:6f:a0:
         a7:41:68:8a:e8:78:2d:42:ad:58:b9:0e:0c:a9:14:5a:ce:2e:
         2c:ba:4a:18:98:87:65:d3:8f:cd:23:11:22:35:ea:76:7a:a3:
         33:74:a7:03:aa:84:df:6f:26:d5:e1:4a:e5:91:76:f8:79:2d:
         e0:4d:18:f3:8c:95:5c:6f:c8:f8:03:3a:ab:d6:59:55:17:2b:
         f8:6d:6d:1b:cd:e8:08:92:4c:ea:0d:98:f8:3f:e8:a8:12:fa:
         bb:cb:13:de
-----BEGIN CERTIFICATE-----
MIIEKzCCAxOgAwIBAgIBITANBgkqhkiG9w0BAQsFADBpMQswCQYDVQQGEwJVUzET
MBEGA1UECAwKQ2FsaWZvcm5pYTEUMBIGA1UEBwwLU2FudGEgQ2xhcmExDTALBgNV
BAoMBHBrZzUxDDAKBgNVBAMMA3RhMzESMBAGCSqGSIb3DQEJARYDdGEzMB4XDTM1
MDEwMTAxMDEwMVoXDTM1MDEwMjAxMDEwMVowdTELMAkGA1UEBhMCVVMxEzARBgNV
BAgMCkNhbGlmb3JuaWExFDASBgNVBAcMC1NhbnRhIENsYXJhMQ0wCwYDVQQKDARw
a2c1MRIwEAYDVQQDDAljaDEuNF90YTMxGDAWBgkqhkiG9w0BCQEWCWNoMS40X3Rh
MzCCASIwDQYJKoZIhvcNAQEBBQADggEPADCCAQoCggEBAMGgHuy9J57XRz1NeGPf
t1QFCRsiZRXeKpjvtCjwKpKHLpN/Dz3KztG1IyaOZUzCV4I6RYxed6xo787lG7q1
uvJ9cwTQKNgndLuT7J0qjKNSlcBLGnbpwWrUEYRX8pzpTJC6e6zNi6V/7UPXw6Ce
e8YH+eIQRrke1oeqHOCSiXYsyqtbmZI1sCiILQh2me0nG+lfujrv/cUJQ3TsnXwB
z9s3Qz/Ia5yP+ckEyyhacO4Z2rD4ZV/B2AnQnl6U5ZN5rSXscx5MQzDoYr+h9bo6
IRDQXTio/aBO6LIT2tPasIWGlDa+E0pmrYmsQQ7lR9zUvRmynYtYJ+SQjHcJYsWp
VckCAwEAAaOB0TCBzjAdBgNVHQ4EFgQUX/kYnBP6DG1okH+oYy5faI0nnaUwgZsG
A1UdIwSBkzCBkIAUKW76DMM61BNfkzkPEAgnx79iVuWhbaRrMGkxCzAJBgNVBAYT
AlVTMRMwEQYDVQQIDApDYWxpZm9ybmlhMRQwEgYDVQQHDAtTYW50YSBDbGFyYTEN
MAsGA1UECgwEcGtnNTEMMAoGA1UEAwwDdGEzMRIwEAYJKoZIhvcNAQkBFgN0YTOC
CQCKFSNgjfs+hDAPBgNVHRMBAf8EBTADAQH/MA0GCSqGSIb3DQEBCwUAA4IBAQAk
sAd6yQWti2FEtHnGXj+vgtjucfuieMhAqmnAZnYxIGLkIh5/20dQdvUMCcLvx18Y
fS+oN0+oqgcsX/HkfW4C3q5qKSLl2U63W1/6nOKG806JRpWKcDqj2qdcrcLQNc9r
iuuLVXgp/sWocf2W4n8Fjx7rfMLdy0yUBaJ2Ef7t13rfkhN+Ervk/xEZuQRUGW/w
40Lx1EjSXA2DuH0ESezBb6CnQWiK6HgtQq1YuQ4MqRRazi4sukoYmIdl04/NIxEi
Nep2eqMzdKcDqoTfbybV4UrlkXb4eS3gTRjzjJVcb8j4Azqr1llVFyv4bW0bzegI
kkzqDZj4P+ioEvq7yxPe
-----END CERTIFICATE-----
