Certificate:
    Data:
        Version: 3 (0x2)
        Serial Number: 34 (0x22)
    Signature Algorithm: sha256WithRSAEncryption
        Issuer: C=US, ST=California, L=Santa Clara, O=pkg5, CN=ta4/emailAddress=ta4
        Validity
            Not Before: Sep 22 05:33:30 2021 GMT
            Not After : Jun 18 05:33:30 2024 GMT
        Subject: C=US, ST=California, L=Santa Clara, O=pkg5, CN=ch1_ta4/emailAddress=ch1_ta4
        Subject Public Key Info:
            Public Key Algorithm: rsaEncryption
                Public-Key: (2048 bit)
                Modulus:
                    00:d5:e1:98:3d:79:66:2e:d3:b9:15:46:61:da:a8:
                    ef:8d:75:71:e9:c1:98:3c:03:54:24:c8:6f:3b:0e:
                    dc:a1:57:5a:6e:e0:c5:45:ae:ca:38:f9:9c:de:89:
                    7c:9e:13:85:64:20:f1:d7:65:d6:24:2c:cd:be:1e:
                    2e:dc:39:38:f9:b3:a7:fd:77:14:32:c9:96:0c:54:
                    89:23:68:53:a7:7b:6f:1f:2d:95:f1:77:0d:13:0d:
                    b5:4d:73:47:bc:c4:d4:93:a1:ee:e5:68:35:b1:00:
                    89:59:19:5e:b5:7b:55:32:29:45:d0:49:f9:ba:62:
                    8e:cd:a8:ba:fb:2a:19:1e:38:0a:16:69:ef:a6:2d:
                    e7:88:f1:14:f9:f5:65:26:95:85:1a:f7:17:df:5a:
                    51:c7:7e:ec:26:52:3d:66:d8:08:3a:73:88:ad:48:
                    37:9c:1c:99:bf:84:6c:b2:42:3b:4e:ef:c2:99:94:
                    03:ed:75:d4:48:4b:58:f0:38:af:92:a7:fa:5b:ca:
                    ff:9e:d4:92:86:cf:19:02:1a:d9:9a:b9:d2:1f:de:
                    d7:ba:ee:83:15:4b:b3:4a:dd:57:9b:b3:53:ce:2a:
                    b9:70:e4:82:76:fb:ae:61:7f:57:0e:85:f7:11:35:
                    13:3b:0a:b6:29:6c:cd:67:02:f3:c4:4c:9c:36:b7:
                    1a:2d
                Exponent: 65537 (0x10001)
        X509v3 extensions:
            X509v3 Subject Key Identifier: 
                E3:7C:EE:D8:69:24:F4:F6:A2:B5:52:49:4C:3B:10:57:03:DA:97:06
            X509v3 Authority Key Identifier: 
                keyid:CF:EA:49:E1:FB:55:EE:96:09:D9:06:92:5B:F6:F7:92:8D:0C:28:DA
                DirName:/C=US/ST=California/L=Santa Clara/O=pkg5/CN=ta4/emailAddress=ta4
                serial:E8:31:94:1B:90:49:00:D2

            X509v3 Basic Constraints: critical
                CA:TRUE
            X509v3 Key Usage: critical
                Certificate Sign, CRL Sign
    Signature Algorithm: sha256WithRSAEncryption
         33:70:7d:c7:97:ab:93:81:12:0e:49:88:5a:a5:92:ba:bb:91:
         97:62:a1:32:33:ba:67:99:fd:63:1e:c5:41:20:92:18:90:46:
         cf:7a:1e:03:73:d7:0a:47:91:55:2a:1a:5c:82:18:fe:03:21:
         d7:31:2f:76:99:79:65:99:25:9b:de:b7:de:87:32:16:f3:e9:
         56:c6:e4:94:c2:03:3c:a3:d6:e0:9f:fe:a8:91:58:c8:a2:88:
         43:1a:09:3d:7a:fd:ea:7d:cd:58:65:b9:81:64:7d:50:90:15:
         9b:65:85:fd:2f:48:76:a5:c6:0f:c4:01:c9:73:4b:fe:0f:49:
         5d:05:0c:7c:5e:c2:74:88:b2:76:d7:8a:1e:9e:10:2e:73:f1:
         c4:e2:59:7f:2c:20:6b:42:d1:a1:c1:3a:6b:92:bc:76:90:75:
         fc:a5:bd:cc:7b:db:bb:fe:9d:c2:1c:be:c8:f0:4c:2a:34:fd:
         4b:67:be:51:1a:1f:bc:c7:3d:ef:51:5b:aa:38:10:80:d2:03:
         a1:0f:37:cb:e9:db:50:b1:e6:7d:99:66:35:fe:f2:f5:df:52:
         88:c8:a6:b6:90:66:ed:f0:a1:35:9c:92:1f:d5:7c:08:ca:14:
         1c:6e:1a:90:5e:5b:17:27:54:49:b8:09:37:c0:f3:3e:e2:ab:
         b3:44:9e:16
-----BEGIN CERTIFICATE-----
MIIENzCCAx+gAwIBAgIBIjANBgkqhkiG9w0BAQsFADBpMQswCQYDVQQGEwJVUzET
MBEGA1UECAwKQ2FsaWZvcm5pYTEUMBIGA1UEBwwLU2FudGEgQ2xhcmExDTALBgNV
BAoMBHBrZzUxDDAKBgNVBAMMA3RhNDESMBAGCSqGSIb3DQEJARYDdGE0MB4XDTIx
MDkyMjA1MzMzMFoXDTI0MDYxODA1MzMzMFowcTELMAkGA1UEBhMCVVMxEzARBgNV
BAgMCkNhbGlmb3JuaWExFDASBgNVBAcMC1NhbnRhIENsYXJhMQ0wCwYDVQQKDARw
a2c1MRAwDgYDVQQDDAdjaDFfdGE0MRYwFAYJKoZIhvcNAQkBFgdjaDFfdGE0MIIB
IjANBgkqhkiG9w0BAQEFAAOCAQ8AMIIBCgKCAQEA1eGYPXlmLtO5FUZh2qjvjXVx
6cGYPANUJMhvOw7coVdabuDFRa7KOPmc3ol8nhOFZCDx12XWJCzNvh4u3Dk4+bOn
/XcUMsmWDFSJI2hTp3tvHy2V8XcNEw21TXNHvMTUk6Hu5Wg1sQCJWRletXtVMilF
0En5umKOzai6+yoZHjgKFmnvpi3niPEU+fVlJpWFGvcX31pRx37sJlI9ZtgIOnOI
rUg3nByZv4RsskI7Tu/CmZQD7XXUSEtY8Divkqf6W8r/ntSShs8ZAhrZmrnSH97X
uu6DFUuzSt1Xm7NTziq5cOSCdvuuYX9XDoX3ETUTOwq2KWzNZwLzxEycNrcaLQID
AQABo4HhMIHeMB0GA1UdDgQWBBTjfO7YaST09qK1UklMOxBXA9qXBjCBmwYDVR0j
BIGTMIGQgBTP6knh+1XulgnZBpJb9veSjQwo2qFtpGswaTELMAkGA1UEBhMCVVMx
EzARBgNVBAgMCkNhbGlmb3JuaWExFDASBgNVBAcMC1NhbnRhIENsYXJhMQ0wCwYD
VQQKDARwa2c1MQwwCgYDVQQDDAN0YTQxEjAQBgkqhkiG9w0BCQEWA3RhNIIJAOgx
lBuQSQDSMA8GA1UdEwEB/wQFMAMBAf8wDgYDVR0PAQH/BAQDAgEGMA0GCSqGSIb3
DQEBCwUAA4IBAQAzcH3Hl6uTgRIOSYhapZK6u5GXYqEyM7pnmf1jHsVBIJIYkEbP
eh4Dc9cKR5FVKhpcghj+AyHXMS92mXllmSWb3rfehzIW8+lWxuSUwgM8o9bgn/6o
kVjIoohDGgk9ev3qfc1YZbmBZH1QkBWbZYX9L0h2pcYPxAHJc0v+D0ldBQx8XsJ0
iLJ214oenhAuc/HE4ll/LCBrQtGhwTprkrx2kHX8pb3Me9u7/p3CHL7I8EwqNP1L
Z75RGh+8xz3vUVuqOBCA0gOhDzfL6dtQseZ9mWY1/vL131KIyKa2kGbt8KE1nJIf
1XwIyhQcbhqQXlsXJ1RJuAk3wPM+4quzRJ4W
-----END CERTIFICATE-----
