Certificate:
    Data:
        Version: 3 (0x2)
        Serial Number: 34 (0x22)
    Signature Algorithm: sha256WithRSAEncryption
        Issuer: C=US, ST=California, L=Santa Clara, O=pkg5, CN=ta4/emailAddress=ta4
        Validity
            Not Before: Jan 22 15:33:13 2019 GMT
            Not After : Oct 18 15:33:13 2021 GMT
        Subject: C=US, ST=California, L=Santa Clara, O=pkg5, CN=ch1_ta4/emailAddress=ch1_ta4
        Subject Public Key Info:
            Public Key Algorithm: rsaEncryption
                Public-Key: (2048 bit)
                Modulus:
                    00:a8:90:ad:0e:de:fc:ca:63:3a:4b:5d:d8:5a:18:
                    31:3d:d0:36:b1:7f:69:f8:d3:3e:87:c1:a4:ca:ab:
                    d9:ff:80:d1:25:e4:5e:56:e2:88:57:54:fc:74:2c:
                    ac:1d:08:86:4d:ef:be:58:c8:fd:0d:a9:ce:ee:0a:
                    db:fd:ee:b2:69:56:24:33:a4:d2:d4:4d:58:37:aa:
                    2c:ea:15:85:e5:08:cd:8f:55:85:63:82:39:c8:53:
                    d0:a3:01:e0:24:cb:f6:9a:60:ad:54:45:0f:4b:ed:
                    3e:6d:cc:d1:13:08:16:90:da:3c:14:b6:8b:2d:63:
                    ef:50:23:f6:f1:c9:22:9f:33:72:1d:a8:f9:6a:56:
                    14:ec:a3:3d:a1:da:cd:07:32:89:53:a2:7e:51:7b:
                    d7:62:f7:cc:3c:63:03:c2:b4:9f:12:8f:c4:10:59:
                    d4:9b:b1:67:2e:3d:91:93:d5:3b:64:36:e9:6f:1d:
                    61:15:f2:34:1c:51:1c:4d:18:b1:6a:c3:c3:27:b7:
                    db:c7:eb:44:7e:8c:4c:32:f1:37:85:7e:7e:31:9d:
                    68:80:9e:1c:c7:60:bb:dd:ea:5a:f6:91:0c:47:1d:
                    1a:be:f2:36:4c:62:e7:62:d9:17:07:a0:f8:a2:0b:
                    03:0e:3e:ff:fe:67:9c:8d:52:bd:f4:fd:a2:27:66:
                    e7:6d
                Exponent: 65537 (0x10001)
        X509v3 extensions:
            X509v3 Subject Key Identifier: 
                5B:89:13:79:3F:27:D8:77:12:6A:53:5F:0D:62:E0:B4:84:B0:F5:B9
            X509v3 Authority Key Identifier: 
                keyid:1F:94:7A:35:0B:E4:7C:8F:CA:58:E2:00:E6:0C:64:F3:5B:DD:04:AD
                DirName:/C=US/ST=California/L=Santa Clara/O=pkg5/CN=ta4/emailAddress=ta4
                serial:FF:36:9C:81:AD:98:A1:9E

            X509v3 Basic Constraints: critical
                CA:TRUE
            X509v3 Key Usage: critical
                Certificate Sign, CRL Sign
    Signature Algorithm: sha256WithRSAEncryption
         68:7d:5f:fd:04:81:64:f2:6a:ec:21:5e:2e:bb:4c:8f:7d:b4:
         cb:00:43:4d:45:8b:2a:3f:75:29:48:48:e4:b7:81:a3:09:ee:
         ca:fa:3a:f5:34:9d:92:81:f7:fe:60:03:fa:7d:c2:6e:48:1f:
         cc:9f:36:9a:52:d5:92:30:34:11:cd:92:95:ce:01:86:d8:7f:
         7e:5a:75:72:7e:87:e7:ad:76:ec:9d:45:44:19:0e:e9:02:53:
         73:46:bc:21:be:a1:86:3b:80:07:ce:47:35:5d:17:31:f6:d6:
         78:7a:e0:c0:ca:b9:69:1b:2b:d0:c0:c7:ef:a1:28:c6:52:ac:
         2a:79:df:31:ac:01:c3:b7:d2:c9:fa:31:b9:98:92:c2:d7:39:
         3e:22:33:94:37:6c:71:4a:30:d3:47:93:71:4e:76:4a:98:0d:
         b3:5d:6e:f3:29:63:ac:fb:a8:fd:87:f3:37:f9:f1:93:ff:fc:
         7e:09:b3:45:ec:84:9b:fa:d1:e1:88:30:9f:9e:5b:9c:3d:14:
         e8:ca:ec:e7:2d:4b:f4:fb:f4:f0:2e:06:dd:7b:b9:e3:b4:21:
         76:d6:c8:87:4e:8b:94:e2:a8:b4:a4:79:90:77:a6:44:c6:64:
         24:0a:75:10:f8:ab:cf:bf:66:d5:34:57:aa:ce:47:d7:ca:30:
         e0:76:56:ab
-----BEGIN CERTIFICATE-----
MIIENzCCAx+gAwIBAgIBIjANBgkqhkiG9w0BAQsFADBpMQswCQYDVQQGEwJVUzET
MBEGA1UECAwKQ2FsaWZvcm5pYTEUMBIGA1UEBwwLU2FudGEgQ2xhcmExDTALBgNV
BAoMBHBrZzUxDDAKBgNVBAMMA3RhNDESMBAGCSqGSIb3DQEJARYDdGE0MB4XDTE5
MDEyMjE1MzMxM1oXDTIxMTAxODE1MzMxM1owcTELMAkGA1UEBhMCVVMxEzARBgNV
BAgMCkNhbGlmb3JuaWExFDASBgNVBAcMC1NhbnRhIENsYXJhMQ0wCwYDVQQKDARw
a2c1MRAwDgYDVQQDDAdjaDFfdGE0MRYwFAYJKoZIhvcNAQkBFgdjaDFfdGE0MIIB
IjANBgkqhkiG9w0BAQEFAAOCAQ8AMIIBCgKCAQEAqJCtDt78ymM6S13YWhgxPdA2
sX9p+NM+h8GkyqvZ/4DRJeReVuKIV1T8dCysHQiGTe++WMj9DanO7grb/e6yaVYk
M6TS1E1YN6os6hWF5QjNj1WFY4I5yFPQowHgJMv2mmCtVEUPS+0+bczREwgWkNo8
FLaLLWPvUCP28ckinzNyHaj5alYU7KM9odrNBzKJU6J+UXvXYvfMPGMDwrSfEo/E
EFnUm7FnLj2Rk9U7ZDbpbx1hFfI0HFEcTRixasPDJ7fbx+tEfoxMMvE3hX5+MZ1o
gJ4cx2C73epa9pEMRx0avvI2TGLnYtkXB6D4ogsDDj7//mecjVK99P2iJ2bnbQID
AQABo4HhMIHeMB0GA1UdDgQWBBRbiRN5PyfYdxJqU18NYuC0hLD1uTCBmwYDVR0j
BIGTMIGQgBQflHo1C+R8j8pY4gDmDGTzW90EraFtpGswaTELMAkGA1UEBhMCVVMx
EzARBgNVBAgMCkNhbGlmb3JuaWExFDASBgNVBAcMC1NhbnRhIENsYXJhMQ0wCwYD
VQQKDARwa2c1MQwwCgYDVQQDDAN0YTQxEjAQBgkqhkiG9w0BCQEWA3RhNIIJAP82
nIGtmKGeMA8GA1UdEwEB/wQFMAMBAf8wDgYDVR0PAQH/BAQDAgEGMA0GCSqGSIb3
DQEBCwUAA4IBAQBofV/9BIFk8mrsIV4uu0yPfbTLAENNRYsqP3UpSEjkt4GjCe7K
+jr1NJ2Sgff+YAP6fcJuSB/MnzaaUtWSMDQRzZKVzgGG2H9+WnVyfofnrXbsnUVE
GQ7pAlNzRrwhvqGGO4AHzkc1XRcx9tZ4euDAyrlpGyvQwMfvoSjGUqwqed8xrAHD
t9LJ+jG5mJLC1zk+IjOUN2xxSjDTR5NxTnZKmA2zXW7zKWOs+6j9h/M3+fGT//x+
CbNF7ISb+tHhiDCfnlucPRToyuznLUv0+/TwLgbde7njtCF21siHTouU4qi0pHmQ
d6ZExmQkCnUQ+KvPv2bVNFeqzkfXyjDgdlar
-----END CERTIFICATE-----
