Certificate:
    Data:
        Version: 3 (0x2)
        Serial Number: 34 (0x22)
        Signature Algorithm: sha256WithRSAEncryption
        Issuer: C=US, ST=California, L=Santa Clara, O=pkg5, CN=ta4/emailAddress=ta4
        Validity
            Not Before: Mar 18 08:51:42 2026 GMT
            Not After : Dec 12 08:51:42 2028 GMT
        Subject: C=US, ST=California, L=Santa Clara, O=pkg5, CN=ch1_ta4/emailAddress=ch1_ta4
        Subject Public Key Info:
            Public Key Algorithm: rsaEncryption
                Public-Key: (2048 bit)
                Modulus:
                    00:e1:2e:8d:93:7a:91:9c:70:4f:30:72:eb:94:6d:
                    0b:bb:35:f0:33:8b:8c:a0:78:32:45:ac:e4:ef:16:
                    eb:f2:f5:de:8f:38:92:a7:08:11:7d:5b:bc:30:2f:
                    e0:93:05:4d:b4:a5:10:44:86:b5:52:52:37:7c:5f:
                    86:bd:a2:be:0b:95:ea:4a:c4:14:0a:a3:03:02:fd:
                    9d:ee:ac:ad:32:18:70:84:1b:ce:ad:3c:71:04:63:
                    04:69:1b:59:d0:bd:56:04:2d:48:fa:55:24:21:ab:
                    d8:96:c1:46:2d:83:49:33:32:1f:b7:2c:0c:42:8f:
                    99:b0:a5:c5:6b:a0:d1:fb:5e:2e:62:da:f4:e9:97:
                    91:5a:14:7d:42:ec:55:4c:73:80:e1:1d:db:e2:52:
                    22:00:ab:c7:d7:48:89:56:e2:f2:63:2e:1f:27:35:
                    e3:5a:f4:01:9f:08:cb:55:60:7b:39:a0:b3:20:09:
                    aa:fd:a6:8e:ca:bf:b6:3e:05:a8:23:68:6a:dc:82:
                    9e:20:26:af:a7:90:58:4c:ed:50:72:e5:28:60:97:
                    e3:98:a8:7d:e5:c4:53:3e:0b:ac:60:da:64:f3:95:
                    e9:8b:54:9d:87:4d:63:e8:61:8c:97:3a:db:ad:7e:
                    95:60:c1:f3:e7:a4:53:72:31:bf:72:2b:c9:52:ef:
                    4e:2f
                Exponent: 65537 (0x10001)
        X509v3 extensions:
            X509v3 Subject Key Identifier: 
                85:4B:6A:83:21:30:D9:83:25:BA:5C:5A:91:81:AE:95:B1:27:64:46
            X509v3 Authority Key Identifier: 
                keyid:64:B7:1E:F6:7E:73:91:48:B5:42:62:BA:40:F7:7C:7C:C4:53:BC:B6
                DirName:/C=US/ST=California/L=Santa Clara/O=pkg5/CN=ta4/emailAddress=ta4
                serial:0C:1D:83:9D:0B:8C:88:4F:15:33:AB:EF:C3:65:9E:ED:52:63:0E:F3
            X509v3 Basic Constraints: critical
                CA:TRUE
            X509v3 Key Usage: critical
                Certificate Sign, CRL Sign
    Signature Algorithm: sha256WithRSAEncryption
    Signature Value:
        55:92:8f:d5:a5:54:db:bd:b8:3d:f7:a3:c6:f0:34:99:ed:5a:
        c1:0e:42:db:0c:bb:63:76:3c:61:c4:17:fc:e9:1e:64:b4:ad:
        de:50:c2:0f:2e:f8:5f:d0:78:84:9a:64:05:24:87:a5:d5:5d:
        d6:c5:e1:df:2c:ea:a7:3b:fd:e6:ef:7e:41:be:66:3a:c6:7f:
        56:8d:30:cb:07:dc:14:f8:ff:e4:f3:c9:3c:b7:c3:c3:f8:d1:
        e0:ee:ef:1b:58:c9:12:05:77:a2:6f:8a:bb:b1:1a:c4:72:60:
        23:57:e9:f1:24:96:91:e2:12:8f:c2:58:5d:e4:4a:eb:f3:18:
        28:46:83:1a:ad:ba:c5:fc:27:3c:8b:a1:1d:ee:24:17:af:a9:
        1d:9d:7a:1a:56:3e:d6:9a:6c:be:bc:62:e2:30:ca:2e:1f:6a:
        3c:3f:aa:32:23:6d:c0:bc:34:2a:40:d0:b7:70:3f:da:17:43:
        e7:11:e6:f3:e9:c5:dd:9d:07:b0:20:ad:ea:93:56:7c:94:4f:
        37:98:78:c0:19:ad:4f:32:9c:9a:0b:80:35:72:2c:b1:8c:c0:
        91:24:9b:5a:a9:de:e7:dd:64:07:b2:53:70:69:f1:2f:7f:48:
        66:ee:e4:22:01:1c:9c:03:8d:84:84:cc:da:93:5f:21:f1:79:
        8c:07:af:45
-----BEGIN CERTIFICATE-----
MIIEQjCCAyqgAwIBAgIBIjANBgkqhkiG9w0BAQsFADBpMQswCQYDVQQGEwJVUzET
MBEGA1UECAwKQ2FsaWZvcm5pYTEUMBIGA1UEBwwLU2FudGEgQ2xhcmExDTALBgNV
BAoMBHBrZzUxDDAKBgNVBAMMA3RhNDESMBAGCSqGSIb3DQEJARYDdGE0MB4XDTI2
MDMxODA4NTE0MloXDTI4MTIxMjA4NTE0MlowcTELMAkGA1UEBhMCVVMxEzARBgNV
BAgMCkNhbGlmb3JuaWExFDASBgNVBAcMC1NhbnRhIENsYXJhMQ0wCwYDVQQKDARw
a2c1MRAwDgYDVQQDDAdjaDFfdGE0MRYwFAYJKoZIhvcNAQkBFgdjaDFfdGE0MIIB
IjANBgkqhkiG9w0BAQEFAAOCAQ8AMIIBCgKCAQEA4S6Nk3qRnHBPMHLrlG0LuzXw
M4uMoHgyRazk7xbr8vXejziSpwgRfVu8MC/gkwVNtKUQRIa1UlI3fF+GvaK+C5Xq
SsQUCqMDAv2d7qytMhhwhBvOrTxxBGMEaRtZ0L1WBC1I+lUkIavYlsFGLYNJMzIf
tywMQo+ZsKXFa6DR+14uYtr06ZeRWhR9QuxVTHOA4R3b4lIiAKvH10iJVuLyYy4f
JzXjWvQBnwjLVWB7OaCzIAmq/aaOyr+2PgWoI2hq3IKeICavp5BYTO1QcuUoYJfj
mKh95cRTPgusYNpk85Xpi1Sdh01j6GGMlzrbrX6VYMHz56RTcjG/civJUu9OLwID
AQABo4HsMIHpMB0GA1UdDgQWBBSFS2qDITDZgyW6XFqRga6VsSdkRjCBpgYDVR0j
BIGeMIGbgBRktx72fnORSLVCYrpA93x8xFO8tqFtpGswaTELMAkGA1UEBhMCVVMx
EzARBgNVBAgMCkNhbGlmb3JuaWExFDASBgNVBAcMC1NhbnRhIENsYXJhMQ0wCwYD
VQQKDARwa2c1MQwwCgYDVQQDDAN0YTQxEjAQBgkqhkiG9w0BCQEWA3RhNIIUDB2D
nQuMiE8VM6vvw2We7VJjDvMwDwYDVR0TAQH/BAUwAwEB/zAOBgNVHQ8BAf8EBAMC
AQYwDQYJKoZIhvcNAQELBQADggEBAFWSj9WlVNu9uD33o8bwNJntWsEOQtsMu2N2
PGHEF/zpHmS0rd5Qwg8u+F/QeISaZAUkh6XVXdbF4d8s6qc7/ebvfkG+ZjrGf1aN
MMsH3BT4/+TzyTy3w8P40eDu7xtYyRIFd6JviruxGsRyYCNX6fEklpHiEo/CWF3k
SuvzGChGgxqtusX8JzyLoR3uJBevqR2dehpWPtaabL68YuIwyi4fajw/qjIjbcC8
NCpA0LdwP9oXQ+cR5vPpxd2dB7AgreqTVnyUTzeYeMAZrU8ynJoLgDVyLLGMwJEk
m1qp3ufdZAeyU3Bp8S9/SGbu5CIBHJwDjYSEzNqTXyHxeYwHr0U=
-----END CERTIFICATE-----
