Certificate:
    Data:
        Version: 3 (0x2)
        Serial Number: 35 (0x23)
    Signature Algorithm: sha256WithRSAEncryption
        Issuer: C=US, ST=California, L=Santa Clara, O=pkg5, CN=ta4/emailAddress=ta4
        Validity
            Not Before: Jan 22 01:57:59 2016 GMT
            Not After : Oct 18 01:57:59 2018 GMT
        Subject: C=US, ST=California, L=Santa Clara, O=pkg5, CN=ch1_ta4/emailAddress=ch1_ta4
        Subject Public Key Info:
            Public Key Algorithm: rsaEncryption
                Public-Key: (2048 bit)
                Modulus:
                    00:bb:fd:5f:54:54:fb:49:01:62:e3:f9:cb:c6:a1:
                    e4:26:2c:7d:8e:44:0c:d3:2a:de:7c:6d:c0:e3:7e:
                    52:ac:7c:19:8e:6d:18:bd:76:2f:2c:89:d1:5b:e6:
                    e4:cb:58:b4:19:8d:d4:16:c9:23:83:f7:48:7f:dd:
                    4e:0f:8d:56:21:43:7b:69:3f:ec:13:dc:34:6e:f0:
                    28:e5:21:eb:45:2c:0f:50:c1:17:0d:f7:81:ee:bb:
                    6c:ee:f8:e7:3d:b9:62:d9:45:92:f1:52:f8:d3:e0:
                    0c:fc:cc:db:98:6a:21:15:71:7e:a4:11:45:e2:bb:
                    d5:bb:2a:6c:d2:ec:81:e0:92:59:e6:db:d9:c4:c2:
                    36:e1:55:73:73:94:cb:c3:b5:1f:a4:27:2e:a3:60:
                    a5:aa:52:3b:55:89:04:f8:f2:c8:4a:a0:04:c1:d1:
                    4b:cb:ea:d9:d0:78:b4:48:db:47:24:bb:45:5b:17:
                    6c:bd:70:0a:88:d7:0b:85:c0:3a:96:3d:ae:ac:da:
                    c7:95:4a:8b:02:1a:42:bf:b1:8d:0d:67:96:75:74:
                    d7:ea:58:4a:d7:f7:74:c2:38:19:94:18:95:a6:04:
                    38:d9:38:24:81:91:d2:07:e1:3e:51:f4:57:83:b0:
                    45:e2:34:e7:67:8e:0e:bd:d9:71:41:40:52:3b:7e:
                    6e:91
                Exponent: 65537 (0x10001)
        X509v3 extensions:
            X509v3 Subject Key Identifier: 
                59:7F:0E:5C:5B:04:78:41:DB:55:AC:9E:07:50:E4:FB:9E:26:28:C8
            X509v3 Authority Key Identifier: 
                keyid:B1:21:EA:DF:EB:EB:ED:BB:BE:BE:0F:FA:69:1D:B6:28:E9:6F:8F:45
                DirName:/C=US/ST=California/L=Santa Clara/O=pkg5/CN=ta4/emailAddress=ta4
                serial:98:F5:DE:E5:E8:5C:CD:26

            X509v3 Basic Constraints: critical
                CA:TRUE
            X509v3 Key Usage: critical
                Certificate Sign, CRL Sign
    Signature Algorithm: sha256WithRSAEncryption
         4b:d5:d6:af:df:60:18:e2:66:8c:5e:87:2c:bb:50:8d:4b:c0:
         85:63:c3:c4:6f:00:fb:3c:fa:5e:3f:8e:a6:b0:4c:91:ef:29:
         c7:30:82:e6:25:68:44:b5:a8:d0:8a:37:e1:50:e2:2a:ce:37:
         8d:d9:70:84:f0:90:c6:8f:2e:eb:09:f5:5a:5f:e6:4c:1c:24:
         8a:32:17:50:51:47:e5:23:bb:c0:47:47:71:58:36:3a:4e:91:
         79:06:0d:c8:00:e7:20:15:12:bb:28:e3:85:bd:55:dc:78:d5:
         10:79:f8:f0:fb:62:af:81:50:0f:3d:fe:d4:36:4c:60:92:54:
         3a:31:d0:6d:62:b4:29:dd:bd:33:c2:82:ba:00:5b:7a:b4:6d:
         12:d0:0b:fc:dc:65:68:98:d1:73:2a:f1:c0:36:cd:16:b2:e6:
         f5:8e:fc:b9:35:66:43:cb:2e:01:c7:73:4b:75:95:b8:4f:b4:
         58:8c:f7:44:7e:cc:3b:26:39:8f:ad:10:e5:ad:16:f1:8b:1b:
         17:bb:79:16:e6:c7:53:f5:7c:6b:4c:a8:fb:95:63:8f:69:ff:
         67:39:7a:a0:33:67:00:e3:8f:49:77:e5:90:61:1f:da:7d:d8:
         7f:f3:95:b6:74:fc:a0:36:5c:4d:99:39:d2:5f:62:2e:7b:78:
         46:89:76:1a
-----BEGIN CERTIFICATE-----
MIIENzCCAx+gAwIBAgIBIzANBgkqhkiG9w0BAQsFADBpMQswCQYDVQQGEwJVUzET
MBEGA1UECAwKQ2FsaWZvcm5pYTEUMBIGA1UEBwwLU2FudGEgQ2xhcmExDTALBgNV
BAoMBHBrZzUxDDAKBgNVBAMMA3RhNDESMBAGCSqGSIb3DQEJARYDdGE0MB4XDTE2
MDEyMjAxNTc1OVoXDTE4MTAxODAxNTc1OVowcTELMAkGA1UEBhMCVVMxEzARBgNV
BAgMCkNhbGlmb3JuaWExFDASBgNVBAcMC1NhbnRhIENsYXJhMQ0wCwYDVQQKDARw
a2c1MRAwDgYDVQQDDAdjaDFfdGE0MRYwFAYJKoZIhvcNAQkBFgdjaDFfdGE0MIIB
IjANBgkqhkiG9w0BAQEFAAOCAQ8AMIIBCgKCAQEAu/1fVFT7SQFi4/nLxqHkJix9
jkQM0yrefG3A435SrHwZjm0YvXYvLInRW+bky1i0GY3UFskjg/dIf91OD41WIUN7
aT/sE9w0bvAo5SHrRSwPUMEXDfeB7rts7vjnPbli2UWS8VL40+AM/MzbmGohFXF+
pBFF4rvVuyps0uyB4JJZ5tvZxMI24VVzc5TLw7UfpCcuo2ClqlI7VYkE+PLISqAE
wdFLy+rZ0Hi0SNtHJLtFWxdsvXAKiNcLhcA6lj2urNrHlUqLAhpCv7GNDWeWdXTX
6lhK1/d0wjgZlBiVpgQ42TgkgZHSB+E+UfRXg7BF4jTnZ44OvdlxQUBSO35ukQID
AQABo4HhMIHeMB0GA1UdDgQWBBRZfw5cWwR4QdtVrJ4HUOT7niYoyDCBmwYDVR0j
BIGTMIGQgBSxIerf6+vtu76+D/ppHbYo6W+PRaFtpGswaTELMAkGA1UEBhMCVVMx
EzARBgNVBAgMCkNhbGlmb3JuaWExFDASBgNVBAcMC1NhbnRhIENsYXJhMQ0wCwYD
VQQKDARwa2c1MQwwCgYDVQQDDAN0YTQxEjAQBgkqhkiG9w0BCQEWA3RhNIIJAJj1
3uXoXM0mMA8GA1UdEwEB/wQFMAMBAf8wDgYDVR0PAQH/BAQDAgEGMA0GCSqGSIb3
DQEBCwUAA4IBAQBL1dav32AY4maMXocsu1CNS8CFY8PEbwD7PPpeP46msEyR7ynH
MILmJWhEtajQijfhUOIqzjeN2XCE8JDGjy7rCfVaX+ZMHCSKMhdQUUflI7vAR0dx
WDY6TpF5Bg3IAOcgFRK7KOOFvVXceNUQefjw+2KvgVAPPf7UNkxgklQ6MdBtYrQp
3b0zwoK6AFt6tG0S0Av83GVomNFzKvHANs0Wsub1jvy5NWZDyy4Bx3NLdZW4T7RY
jPdEfsw7JjmPrRDlrRbxixsXu3kW5sdT9XxrTKj7lWOPaf9nOXqgM2cA449Jd+WQ
YR/afdh/85W2dPygNlxNmTnSX2Iue3hGiXYa
-----END CERTIFICATE-----
