Certificate:
    Data:
        Version: 3 (0x2)
        Serial Number: 38 (0x26)
    Signature Algorithm: sha256WithRSAEncryption
        Issuer: C=US, ST=California, L=Santa Clara, O=pkg5, CN=ta4/emailAddress=ta4
        Validity
            Not Before: Sep 22 05:33:32 2021 GMT
            Not After : Jun 18 05:33:32 2024 GMT
        Subject: C=US, ST=California, L=Santa Clara, O=pkg5, CN=ch1.1_ta4/emailAddress=ch1.1_ta4
        Subject Public Key Info:
            Public Key Algorithm: rsaEncryption
                Public-Key: (2048 bit)
                Modulus:
                    00:e6:ff:43:2e:d4:5e:97:ea:06:f4:92:63:20:06:
                    e4:6c:17:cf:f8:84:1e:c4:5e:e0:44:c6:51:33:26:
                    f3:9a:9d:68:dc:00:af:02:c5:33:7e:28:9c:00:5d:
                    08:69:4a:f5:ec:f5:da:3e:cb:e2:99:e3:1e:70:64:
                    28:30:f2:15:91:01:dc:eb:61:ed:51:df:e8:9f:c2:
                    e1:26:8e:bd:77:e2:45:32:bb:e2:0c:5e:b1:be:2f:
                    be:75:72:ed:d2:9a:69:ee:2e:96:38:5f:07:59:10:
                    2f:7c:14:24:0b:2a:78:43:3f:71:c8:f8:f2:aa:fe:
                    e2:18:1b:e9:38:f2:66:c0:c2:f8:2c:06:6e:40:b7:
                    8f:b9:2e:bf:b4:35:39:78:dd:b9:f9:e7:fd:0e:2a:
                    80:40:10:e2:46:00:f9:fd:5e:dd:c8:81:04:f5:44:
                    74:8c:4e:c4:b1:d5:b3:89:d8:be:d0:01:f3:fb:13:
                    70:4b:60:90:80:4f:af:df:91:9b:36:01:6e:8d:da:
                    3f:63:86:b0:65:0d:1f:d1:66:70:9f:fe:38:03:1c:
                    b6:e2:e2:10:86:2b:63:de:91:1e:57:9b:6c:df:1a:
                    92:cb:7d:5f:7a:a5:f9:a9:cc:17:fb:46:65:bc:f8:
                    09:8c:b7:11:2c:a6:d3:58:50:13:10:fa:48:92:70:
                    b5:29
                Exponent: 65537 (0x10001)
        X509v3 extensions:
            X509v3 Subject Key Identifier: 
                30:BA:13:5E:C2:73:34:3C:E6:F1:E4:5E:95:06:7E:8C:80:48:54:5B
            X509v3 Authority Key Identifier: 
                keyid:CF:EA:49:E1:FB:55:EE:96:09:D9:06:92:5B:F6:F7:92:8D:0C:28:DA
                DirName:/C=US/ST=California/L=Santa Clara/O=pkg5/CN=ta4/emailAddress=ta4
                serial:E8:31:94:1B:90:49:00:D2

            X509v3 Basic Constraints: critical
                CA:TRUE
            X509v3 Key Usage: critical
                Certificate Sign
    Signature Algorithm: sha256WithRSAEncryption
         0f:78:20:7c:a3:29:ff:e8:5d:71:fb:03:8d:bd:e2:a4:2c:64:
         19:38:f6:e0:37:c4:bf:f3:3e:ac:51:72:aa:87:f7:a9:98:e8:
         97:6a:4d:40:64:3b:05:09:1f:43:a8:f7:8b:ee:39:58:ae:58:
         0e:d7:c2:f9:c2:49:b4:9d:24:6a:a8:26:cb:24:8d:bf:42:ad:
         26:07:49:8f:e7:bd:9c:5a:e0:c6:b9:17:24:7b:37:e1:4b:db:
         80:29:38:a3:54:f2:bb:5a:13:ae:d6:d4:2a:17:76:d8:02:90:
         a4:9d:87:0c:6b:92:51:b3:19:ea:5d:78:3f:54:47:15:f5:ce:
         e0:5e:d1:80:92:37:03:ae:2d:9e:04:65:1e:8d:7c:0d:84:48:
         eb:f3:0a:c3:30:f3:6f:b3:38:75:17:08:2d:b8:b0:98:23:27:
         86:68:69:dd:e7:c8:24:c4:b8:c7:99:2b:79:f5:10:1b:93:5e:
         06:92:b5:88:5c:d1:3c:28:a1:23:5a:57:63:5d:13:1f:ba:54:
         b3:9d:34:04:9f:df:bc:fb:d3:cf:a9:94:09:1a:fa:e7:49:df:
         21:aa:c3:e3:c1:10:66:f7:1f:5c:4c:12:ff:57:72:c0:1a:ff:
         fd:ad:b6:19:52:fe:09:33:e5:76:f1:11:1c:7d:0c:82:eb:42:
         69:8a:92:41
-----BEGIN CERTIFICATE-----
MIIEOzCCAyOgAwIBAgIBJjANBgkqhkiG9w0BAQsFADBpMQswCQYDVQQGEwJVUzET
MBEGA1UECAwKQ2FsaWZvcm5pYTEUMBIGA1UEBwwLU2FudGEgQ2xhcmExDTALBgNV
BAoMBHBrZzUxDDAKBgNVBAMMA3RhNDESMBAGCSqGSIb3DQEJARYDdGE0MB4XDTIx
MDkyMjA1MzMzMloXDTI0MDYxODA1MzMzMlowdTELMAkGA1UEBhMCVVMxEzARBgNV
BAgMCkNhbGlmb3JuaWExFDASBgNVBAcMC1NhbnRhIENsYXJhMQ0wCwYDVQQKDARw
a2c1MRIwEAYDVQQDDAljaDEuMV90YTQxGDAWBgkqhkiG9w0BCQEWCWNoMS4xX3Rh
NDCCASIwDQYJKoZIhvcNAQEBBQADggEPADCCAQoCggEBAOb/Qy7UXpfqBvSSYyAG
5GwXz/iEHsRe4ETGUTMm85qdaNwArwLFM34onABdCGlK9ez12j7L4pnjHnBkKDDy
FZEB3Oth7VHf6J/C4SaOvXfiRTK74gxesb4vvnVy7dKaae4uljhfB1kQL3wUJAsq
eEM/ccj48qr+4hgb6TjyZsDC+CwGbkC3j7kuv7Q1OXjdufnn/Q4qgEAQ4kYA+f1e
3ciBBPVEdIxOxLHVs4nYvtAB8/sTcEtgkIBPr9+RmzYBbo3aP2OGsGUNH9FmcJ/+
OAMctuLiEIYrY96RHlebbN8akst9X3ql+anMF/tGZbz4CYy3ESym01hQExD6SJJw
tSkCAwEAAaOB4TCB3jAdBgNVHQ4EFgQUMLoTXsJzNDzm8eRelQZ+jIBIVFswgZsG
A1UdIwSBkzCBkIAUz+pJ4ftV7pYJ2QaSW/b3ko0MKNqhbaRrMGkxCzAJBgNVBAYT
AlVTMRMwEQYDVQQIDApDYWxpZm9ybmlhMRQwEgYDVQQHDAtTYW50YSBDbGFyYTEN
MAsGA1UECgwEcGtnNTEMMAoGA1UEAwwDdGE0MRIwEAYJKoZIhvcNAQkBFgN0YTSC
CQDoMZQbkEkA0jAPBgNVHRMBAf8EBTADAQH/MA4GA1UdDwEB/wQEAwICBDANBgkq
hkiG9w0BAQsFAAOCAQEAD3ggfKMp/+hdcfsDjb3ipCxkGTj24DfEv/M+rFFyqof3
qZjol2pNQGQ7BQkfQ6j3i+45WK5YDtfC+cJJtJ0kaqgmyySNv0KtJgdJj+e9nFrg
xrkXJHs34UvbgCk4o1Tyu1oTrtbUKhd22AKQpJ2HDGuSUbMZ6l14P1RHFfXO4F7R
gJI3A64tngRlHo18DYRI6/MKwzDzb7M4dRcILbiwmCMnhmhp3efIJMS4x5krefUQ
G5NeBpK1iFzRPCihI1pXY10TH7pUs500BJ/fvPvTz6mUCRr650nfIarD48EQZvcf
XEwS/1dywBr//a22GVL+CTPldvERHH0MgutCaYqSQQ==
-----END CERTIFICATE-----
