Certificate:
    Data:
        Version: 3 (0x2)
        Serial Number: 38 (0x26)
    Signature Algorithm: sha256WithRSAEncryption
        Issuer: C=US, ST=California, L=Santa Clara, O=pkg5, CN=ta4/emailAddress=ta4
        Validity
            Not Before: Jan 22 15:33:14 2019 GMT
            Not After : Oct 18 15:33:14 2021 GMT
        Subject: C=US, ST=California, L=Santa Clara, O=pkg5, CN=ch1.1_ta4/emailAddress=ch1.1_ta4
        Subject Public Key Info:
            Public Key Algorithm: rsaEncryption
                Public-Key: (2048 bit)
                Modulus:
                    00:c9:8c:20:14:e3:1e:c7:c5:6f:e3:35:4d:72:06:
                    e7:ef:71:4e:6f:78:77:fe:83:2d:0e:c8:e1:0d:36:
                    fb:21:b9:9a:fe:af:83:ac:e3:fc:be:29:03:63:b2:
                    c9:77:96:4c:9f:f8:36:03:89:a0:b4:cd:e8:2c:c6:
                    87:05:11:a1:74:3b:6c:cc:ec:ca:8a:a3:f5:90:83:
                    bf:a0:95:32:b0:7e:06:ca:c9:17:10:0f:5e:a5:32:
                    cd:30:8c:f7:e8:60:e7:b8:51:b6:be:61:a0:ad:88:
                    69:a2:8f:dd:a8:13:75:b0:d3:e5:6a:c1:64:cc:81:
                    ac:df:b3:d8:7d:4a:1f:0e:0f:5d:7f:6d:43:a5:bf:
                    46:7d:e7:ed:62:26:dc:be:fe:84:07:9c:b8:fc:25:
                    42:6c:ab:55:ab:55:c4:78:5c:49:25:67:d0:6c:b2:
                    4a:c5:63:b8:d9:f5:d5:a0:e2:a4:17:5b:38:9b:5e:
                    e2:85:7f:fd:be:11:d2:92:19:62:f6:5f:fb:2e:a7:
                    23:96:d3:2c:c7:b6:1e:db:c0:b9:83:00:b5:c3:b0:
                    00:54:c8:9f:df:22:34:bb:1c:7a:dc:37:32:29:60:
                    29:99:64:ad:55:b4:21:a7:fe:da:64:21:da:0a:0f:
                    1d:ac:68:c7:16:15:4a:46:e3:c2:b6:e6:6f:40:37:
                    d9:37
                Exponent: 65537 (0x10001)
        X509v3 extensions:
            X509v3 Subject Key Identifier: 
                B8:1B:8C:7A:29:F0:E0:FF:BF:1B:A4:C3:D3:43:30:9E:2A:62:24:FE
            X509v3 Authority Key Identifier: 
                keyid:1F:94:7A:35:0B:E4:7C:8F:CA:58:E2:00:E6:0C:64:F3:5B:DD:04:AD
                DirName:/C=US/ST=California/L=Santa Clara/O=pkg5/CN=ta4/emailAddress=ta4
                serial:FF:36:9C:81:AD:98:A1:9E

            X509v3 Basic Constraints: critical
                CA:TRUE
            X509v3 Key Usage: critical
                Certificate Sign
    Signature Algorithm: sha256WithRSAEncryption
         15:10:14:12:cc:1c:03:88:35:18:bd:55:cb:15:e7:ae:b1:b8:
         b7:20:c6:e7:1c:29:18:18:81:77:04:28:f5:ad:63:1c:a6:9e:
         0e:ee:83:76:77:06:ab:e9:f8:3b:5c:0c:99:92:6c:3f:77:41:
         03:51:a2:b5:a2:1a:ad:19:30:56:55:da:b4:73:7b:df:ef:b6:
         61:44:d9:3b:93:81:c6:1d:84:49:a0:a5:0c:65:44:07:61:78:
         00:fe:6c:c7:c4:a0:3c:68:14:8c:11:af:c2:06:7c:c7:4f:9f:
         75:8f:25:d8:90:ff:db:71:82:ce:dd:69:4c:26:44:f6:91:69:
         18:eb:fb:c5:5f:f0:ab:1c:e6:3f:96:25:e7:0a:9d:53:a2:8a:
         22:74:61:01:5f:0b:18:1a:76:ac:77:5f:b2:45:9c:54:aa:c6:
         0f:41:51:9a:92:39:ce:3e:ba:ae:93:7b:1f:e5:b9:37:b3:33:
         ed:bc:cf:cb:30:dc:5a:20:3f:28:2e:a7:3b:ae:b8:46:dc:22:
         10:fe:8f:de:bb:0d:ee:8b:9d:fd:f7:51:59:fd:89:f0:bd:4f:
         2d:9e:1c:e3:97:3b:5f:c1:f2:db:85:9d:73:3b:65:f1:fa:8e:
         3f:40:c1:1f:47:08:bc:6a:5e:01:ad:51:a9:4e:c6:eb:df:a0:
         3f:3e:b7:d4
-----BEGIN CERTIFICATE-----
MIIEOzCCAyOgAwIBAgIBJjANBgkqhkiG9w0BAQsFADBpMQswCQYDVQQGEwJVUzET
MBEGA1UECAwKQ2FsaWZvcm5pYTEUMBIGA1UEBwwLU2FudGEgQ2xhcmExDTALBgNV
BAoMBHBrZzUxDDAKBgNVBAMMA3RhNDESMBAGCSqGSIb3DQEJARYDdGE0MB4XDTE5
MDEyMjE1MzMxNFoXDTIxMTAxODE1MzMxNFowdTELMAkGA1UEBhMCVVMxEzARBgNV
BAgMCkNhbGlmb3JuaWExFDASBgNVBAcMC1NhbnRhIENsYXJhMQ0wCwYDVQQKDARw
a2c1MRIwEAYDVQQDDAljaDEuMV90YTQxGDAWBgkqhkiG9w0BCQEWCWNoMS4xX3Rh
NDCCASIwDQYJKoZIhvcNAQEBBQADggEPADCCAQoCggEBAMmMIBTjHsfFb+M1TXIG
5+9xTm94d/6DLQ7I4Q02+yG5mv6vg6zj/L4pA2OyyXeWTJ/4NgOJoLTN6CzGhwUR
oXQ7bMzsyoqj9ZCDv6CVMrB+BsrJFxAPXqUyzTCM9+hg57hRtr5hoK2IaaKP3agT
dbDT5WrBZMyBrN+z2H1KHw4PXX9tQ6W/Rn3n7WIm3L7+hAecuPwlQmyrVatVxHhc
SSVn0GyySsVjuNn11aDipBdbOJte4oV//b4R0pIZYvZf+y6nI5bTLMe2HtvAuYMA
tcOwAFTIn98iNLscetw3MilgKZlkrVW0Iaf+2mQh2goPHaxoxxYVSkbjwrbmb0A3
2TcCAwEAAaOB4TCB3jAdBgNVHQ4EFgQUuBuMeinw4P+/G6TD00MwnipiJP4wgZsG
A1UdIwSBkzCBkIAUH5R6NQvkfI/KWOIA5gxk81vdBK2hbaRrMGkxCzAJBgNVBAYT
AlVTMRMwEQYDVQQIDApDYWxpZm9ybmlhMRQwEgYDVQQHDAtTYW50YSBDbGFyYTEN
MAsGA1UECgwEcGtnNTEMMAoGA1UEAwwDdGE0MRIwEAYJKoZIhvcNAQkBFgN0YTSC
CQD/NpyBrZihnjAPBgNVHRMBAf8EBTADAQH/MA4GA1UdDwEB/wQEAwICBDANBgkq
hkiG9w0BAQsFAAOCAQEAFRAUEswcA4g1GL1VyxXnrrG4tyDG5xwpGBiBdwQo9a1j
HKaeDu6DdncGq+n4O1wMmZJsP3dBA1GitaIarRkwVlXatHN73++2YUTZO5OBxh2E
SaClDGVEB2F4AP5sx8SgPGgUjBGvwgZ8x0+fdY8l2JD/23GCzt1pTCZE9pFpGOv7
xV/wqxzmP5Yl5wqdU6KKInRhAV8LGBp2rHdfskWcVKrGD0FRmpI5zj66rpN7H+W5
N7Mz7bzPyzDcWiA/KC6nO664RtwiEP6P3rsN7oud/fdRWf2J8L1PLZ4c45c7X8Hy
24Wdcztl8fqOP0DBH0cIvGpeAa1RqU7G69+gPz631A==
-----END CERTIFICATE-----
