Certificate:
    Data:
        Version: 3 (0x2)
        Serial Number: 38 (0x26)
        Signature Algorithm: sha256WithRSAEncryption
        Issuer: C=US, ST=California, L=Menlo Park, O=pkg5, CN=ta4/emailAddress=ta4
        Validity
            Not Before: Mar 21 00:49:33 2011 GMT
            Not After : Dec 15 00:49:33 2013 GMT
        Subject: C=US, ST=California, L=Menlo Park, O=pkg5, CN=ch1.1_ta4/emailAddress=ch1.1_ta4
        Subject Public Key Info:
            Public Key Algorithm: rsaEncryption
            RSA Public Key: (1024 bit)
                Modulus (1024 bit):
                    00:cb:56:c6:1b:db:76:5c:37:f8:f4:b3:8c:10:c3:
                    0b:41:85:cb:be:cb:05:4c:1b:6a:26:d3:05:4a:9c:
                    34:ca:5d:18:de:64:ad:77:29:ae:80:ab:d6:60:45:
                    62:4f:99:ad:d8:e4:55:40:fc:fd:9d:73:36:67:eb:
                    8e:71:ff:5c:08:41:c7:d2:37:4a:91:55:e3:eb:0d:
                    4c:b2:66:7f:35:f2:0b:ad:2b:d1:ad:cc:9d:0d:67:
                    cd:d2:96:c0:71:89:8b:71:34:2a:47:50:15:84:45:
                    8a:0c:c7:f3:48:b2:de:59:d6:e7:a1:ec:ab:89:32:
                    c4:3d:08:7c:00:21:46:d3:07
                Exponent: 65537 (0x10001)
        X509v3 extensions:
            X509v3 Subject Key Identifier: 
                7A:68:F2:3A:FB:F5:1C:A2:2C:1F:9D:CF:22:ED:77:F0:BE:A9:AC:80
            X509v3 Authority Key Identifier: 
                keyid:0A:1C:BA:A6:5B:C6:83:32:60:E5:9B:00:85:37:74:D1:8D:30:BA:8A
                DirName:/C=US/ST=California/L=Menlo Park/O=pkg5/CN=ta4/emailAddress=ta4
                serial:C5:19:14:97:E3:27:2E:9B

            X509v3 Basic Constraints: critical
                CA:TRUE
            X509v3 Key Usage: critical
                Certificate Sign
    Signature Algorithm: sha256WithRSAEncryption
        b0:8b:36:e9:f5:39:51:a6:a4:2e:d3:68:d6:10:0b:0c:8e:64:
        23:6f:44:5f:be:6c:53:bb:b8:de:2a:36:cd:e5:82:6e:12:da:
        3d:5b:9b:3f:ff:9f:a3:8e:f5:b1:5e:29:a9:ea:b6:ac:1c:ae:
        75:54:a8:f4:26:21:ae:47:f5:54:72:71:5d:4a:f8:4e:20:25:
        ae:e4:f2:9f:5f:5b:2e:df:71:dd:58:b5:a2:37:41:f2:4c:c9:
        24:06:fe:e6:c0:f4:39:1e:32:da:99:12:53:b0:30:6d:c1:63:
        66:11:58:79:fa:40:f1:75:5b:37:01:1a:0b:20:b7:25:a0:a9:
        9e:9f
-----BEGIN CERTIFICATE-----
MIIDMzCCApygAwIBAgIBJjANBgkqhkiG9w0BAQsFADBoMQswCQYDVQQGEwJVUzET
MBEGA1UECBMKQ2FsaWZvcm5pYTETMBEGA1UEBxMKTWVubG8gUGFyazENMAsGA1UE
ChMEcGtnNTEMMAoGA1UEAxMDdGE0MRIwEAYJKoZIhvcNAQkBFgN0YTQwHhcNMTEw
MzIxMDA0OTMzWhcNMTMxMjE1MDA0OTMzWjB0MQswCQYDVQQGEwJVUzETMBEGA1UE
CBMKQ2FsaWZvcm5pYTETMBEGA1UEBxMKTWVubG8gUGFyazENMAsGA1UEChMEcGtn
NTESMBAGA1UEAxQJY2gxLjFfdGE0MRgwFgYJKoZIhvcNAQkBFgljaDEuMV90YTQw
gZ8wDQYJKoZIhvcNAQEBBQADgY0AMIGJAoGBAMtWxhvbdlw3+PSzjBDDC0GFy77L
BUwbaibTBUqcNMpdGN5krXcproCr1mBFYk+ZrdjkVUD8/Z1zNmfrjnH/XAhBx9I3
SpFV4+sNTLJmfzXyC60r0a3MnQ1nzdKWwHGJi3E0KkdQFYRFigzH80iy3lnW56Hs
q4kyxD0IfAAhRtMHAgMBAAGjgeAwgd0wHQYDVR0OBBYEFHpo8jr79RyiLB+dzyLt
d/C+qayAMIGaBgNVHSMEgZIwgY+AFAocuqZbxoMyYOWbAIU3dNGNMLqKoWykajBo
MQswCQYDVQQGEwJVUzETMBEGA1UECBMKQ2FsaWZvcm5pYTETMBEGA1UEBxMKTWVu
bG8gUGFyazENMAsGA1UEChMEcGtnNTEMMAoGA1UEAxMDdGE0MRIwEAYJKoZIhvcN
AQkBFgN0YTSCCQDFGRSX4ycumzAPBgNVHRMBAf8EBTADAQH/MA4GA1UdDwEB/wQE
AwICBDANBgkqhkiG9w0BAQsFAAOBgQCwizbp9TlRpqQu02jWEAsMjmQjb0RfvmxT
u7jeKjbN5YJuEto9W5s//5+jjvWxXimp6rasHK51VKj0JiGuR/VUcnFdSvhOICWu
5PKfX1su33HdWLWiN0HyTMkkBv7mwPQ5HjLamRJTsDBtwWNmEVh5+kDxdVs3ARoL
ILcloKmenw==
-----END CERTIFICATE-----
