Certificate:
    Data:
        Version: 3 (0x2)
        Serial Number: 38 (0x26)
        Signature Algorithm: sha256WithRSAEncryption
        Issuer: C=US, ST=California, L=Santa Clara, O=pkg5, CN=ta4/emailAddress=ta4
        Validity
            Not Before: Mar 18 08:51:43 2026 GMT
            Not After : Dec 12 08:51:43 2028 GMT
        Subject: C=US, ST=California, L=Santa Clara, O=pkg5, CN=ch1.1_ta4/emailAddress=ch1.1_ta4
        Subject Public Key Info:
            Public Key Algorithm: rsaEncryption
                Public-Key: (2048 bit)
                Modulus:
                    00:db:ae:6f:71:4e:50:41:99:7c:e5:dc:e4:46:93:
                    60:ce:b5:eb:2a:31:9b:4c:a9:5b:2f:33:41:34:fc:
                    f0:e2:81:7f:c2:50:4e:45:b9:fd:8d:3f:45:62:8f:
                    8e:22:4f:66:43:a5:88:a6:36:c4:d8:6a:b2:f5:d1:
                    c5:95:0a:a9:b3:fb:e2:a3:c3:e0:d8:7f:e2:08:aa:
                    32:95:30:16:dc:8f:25:87:58:a1:b3:3a:07:56:24:
                    68:8d:f9:37:30:a0:87:18:66:34:ca:25:84:6b:0a:
                    2c:0e:37:59:47:32:01:4b:60:e8:63:48:9b:1b:db:
                    7c:0f:b6:72:df:cb:ff:6e:fa:28:21:78:a6:df:1d:
                    8d:e0:3f:cc:6f:ed:68:ba:52:3e:fc:44:90:f8:35:
                    e9:6b:3e:5e:8f:6e:6b:70:13:7a:fe:a8:37:5f:f4:
                    31:07:0c:99:2b:ec:89:c0:ef:0d:0c:84:5c:b5:e3:
                    66:24:0a:dc:36:92:1a:c8:ce:88:78:b0:44:fb:f9:
                    2b:65:a4:5d:8c:04:73:e1:4e:fd:42:95:2c:29:bb:
                    76:ba:d8:3b:8f:46:7e:84:91:e5:9e:bd:df:23:da:
                    fb:11:c0:a3:cc:be:e0:d3:7c:76:0a:c9:a5:a6:48:
                    2b:f8:0e:3e:26:50:5d:59:b3:d9:30:0b:67:2d:1e:
                    17:39
                Exponent: 65537 (0x10001)
        X509v3 extensions:
            X509v3 Subject Key Identifier: 
                FE:2A:2B:D0:1D:45:49:A3:0C:90:22:64:54:88:B3:52:45:FC:44:A2
            X509v3 Authority Key Identifier: 
                keyid:64:B7:1E:F6:7E:73:91:48:B5:42:62:BA:40:F7:7C:7C:C4:53:BC:B6
                DirName:/C=US/ST=California/L=Santa Clara/O=pkg5/CN=ta4/emailAddress=ta4
                serial:0C:1D:83:9D:0B:8C:88:4F:15:33:AB:EF:C3:65:9E:ED:52:63:0E:F3
            X509v3 Basic Constraints: critical
                CA:TRUE
            X509v3 Key Usage: critical
                Certificate Sign
    Signature Algorithm: sha256WithRSAEncryption
    Signature Value:
        ba:a2:ff:03:5f:76:0c:56:50:61:15:49:cd:01:4e:4d:ea:d9:
        f9:73:b3:a2:19:9d:af:4a:bd:4a:21:ae:d5:a2:2f:16:43:97:
        03:0e:6a:e5:70:a2:f6:a9:e1:3e:dc:93:c9:6d:e6:41:9d:41:
        18:4f:84:09:88:22:92:7a:fb:30:a0:fe:71:81:93:12:98:7f:
        46:b1:cc:74:de:d1:d1:1f:de:88:87:63:1f:cd:6b:54:55:04:
        3c:f0:25:c5:76:71:80:16:ce:28:01:bb:4a:64:d5:02:a4:4c:
        b6:e8:8f:00:f7:c0:9f:31:e3:ba:64:de:d3:44:0c:02:ac:57:
        33:e3:54:0a:d9:dd:51:cb:4d:5f:5b:3e:33:16:1c:ec:ac:18:
        64:6b:58:7f:bd:f0:ee:ba:d8:8e:6b:a3:a0:f2:a6:46:bf:68:
        d3:83:74:2f:57:14:4b:11:63:b4:70:f3:3d:6e:f0:fb:a2:34:
        f1:29:b8:f6:67:d3:aa:df:4e:27:7e:95:22:84:7b:0c:08:61:
        55:e4:db:82:0f:ec:ff:bd:43:33:50:ba:f1:c4:32:11:d0:bd:
        fd:ca:13:29:93:e6:f6:02:a3:a6:26:0f:00:c5:63:a1:68:c9:
        7c:e1:f0:bc:a9:b9:50:c6:e5:aa:e8:00:d9:dc:f2:d6:03:30:
        78:f6:10:2d
-----BEGIN CERTIFICATE-----
MIIERjCCAy6gAwIBAgIBJjANBgkqhkiG9w0BAQsFADBpMQswCQYDVQQGEwJVUzET
MBEGA1UECAwKQ2FsaWZvcm5pYTEUMBIGA1UEBwwLU2FudGEgQ2xhcmExDTALBgNV
BAoMBHBrZzUxDDAKBgNVBAMMA3RhNDESMBAGCSqGSIb3DQEJARYDdGE0MB4XDTI2
MDMxODA4NTE0M1oXDTI4MTIxMjA4NTE0M1owdTELMAkGA1UEBhMCVVMxEzARBgNV
BAgMCkNhbGlmb3JuaWExFDASBgNVBAcMC1NhbnRhIENsYXJhMQ0wCwYDVQQKDARw
a2c1MRIwEAYDVQQDDAljaDEuMV90YTQxGDAWBgkqhkiG9w0BCQEWCWNoMS4xX3Rh
NDCCASIwDQYJKoZIhvcNAQEBBQADggEPADCCAQoCggEBANuub3FOUEGZfOXc5EaT
YM616yoxm0ypWy8zQTT88OKBf8JQTkW5/Y0/RWKPjiJPZkOliKY2xNhqsvXRxZUK
qbP74qPD4Nh/4giqMpUwFtyPJYdYobM6B1YkaI35NzCghxhmNMolhGsKLA43WUcy
AUtg6GNImxvbfA+2ct/L/276KCF4pt8djeA/zG/taLpSPvxEkPg16Ws+Xo9ua3AT
ev6oN1/0MQcMmSvsicDvDQyEXLXjZiQK3DaSGsjOiHiwRPv5K2WkXYwEc+FO/UKV
LCm7drrYO49GfoSR5Z693yPa+xHAo8y+4NN8dgrJpaZIK/gOPiZQXVmz2TALZy0e
FzkCAwEAAaOB7DCB6TAdBgNVHQ4EFgQU/ior0B1FSaMMkCJkVIizUkX8RKIwgaYG
A1UdIwSBnjCBm4AUZLce9n5zkUi1QmK6QPd8fMRTvLahbaRrMGkxCzAJBgNVBAYT
AlVTMRMwEQYDVQQIDApDYWxpZm9ybmlhMRQwEgYDVQQHDAtTYW50YSBDbGFyYTEN
MAsGA1UECgwEcGtnNTEMMAoGA1UEAwwDdGE0MRIwEAYJKoZIhvcNAQkBFgN0YTSC
FAwdg50LjIhPFTOr78Nlnu1SYw7zMA8GA1UdEwEB/wQFMAMBAf8wDgYDVR0PAQH/
BAQDAgIEMA0GCSqGSIb3DQEBCwUAA4IBAQC6ov8DX3YMVlBhFUnNAU5N6tn5c7Oi
GZ2vSr1KIa7Voi8WQ5cDDmrlcKL2qeE+3JPJbeZBnUEYT4QJiCKSevswoP5xgZMS
mH9Gscx03tHRH96Ih2MfzWtUVQQ88CXFdnGAFs4oAbtKZNUCpEy26I8A98CfMeO6
ZN7TRAwCrFcz41QK2d1Ry01fWz4zFhzsrBhka1h/vfDuutiOa6Og8qZGv2jTg3Qv
VxRLEWO0cPM9bvD7ojTxKbj2Z9Oq304nfpUihHsMCGFV5NuCD+z/vUMzULrxxDIR
0L39yhMpk+b2AqOmJg8AxWOhaMl84fC8qblQxuWq6ADZ3PLWAzB49hAt
-----END CERTIFICATE-----
