Certificate:
    Data:
        Version: 3 (0x2)
        Serial Number: 38 (0x26)
    Signature Algorithm: sha256WithRSAEncryption
        Issuer: C=US, ST=California, L=Santa Clara, O=pkg5, CN=ta4/emailAddress=ta4
        Validity
            Not Before: Jul 19 11:35:50 2023 GMT
            Not After : Apr 14 11:35:50 2026 GMT
        Subject: C=US, ST=California, L=Santa Clara, O=pkg5, CN=ch1.1_ta4/emailAddress=ch1.1_ta4
        Subject Public Key Info:
            Public Key Algorithm: rsaEncryption
                Public-Key: (2048 bit)
                Modulus:
                    00:bc:6e:10:88:bd:6d:0f:2c:9c:9a:43:26:5d:3a:
                    f9:ef:b7:5d:6b:20:83:75:70:0d:72:25:12:96:39:
                    92:68:d7:73:32:45:af:b9:1a:c1:4b:cc:fd:c1:03:
                    07:ec:49:15:cb:71:c4:63:a0:6d:9a:07:78:9c:92:
                    3f:c5:39:e1:c9:ca:b2:83:c0:42:f1:08:e5:d7:09:
                    7e:ac:57:15:76:57:d3:24:c8:e4:50:15:9a:8d:ae:
                    4a:99:b6:1a:3d:b7:e3:5f:2f:2b:c6:4f:19:82:d4:
                    02:6b:68:7b:b1:67:cc:87:40:e9:70:d6:50:68:c9:
                    a5:6b:1d:60:20:71:d9:d7:02:ea:87:e7:42:2a:38:
                    df:35:b5:20:9e:8f:37:b5:6d:3c:ac:0f:29:b0:f4:
                    58:3c:fc:1b:25:e1:ee:d5:2e:68:40:58:e8:f6:8f:
                    64:cc:29:15:95:e9:53:0c:10:ff:ad:15:1b:ba:10:
                    64:31:5b:ef:ca:86:d0:4d:8e:26:11:52:a5:30:f8:
                    3e:28:92:44:5f:bd:cc:9c:06:79:3e:e7:18:4f:92:
                    09:c0:d6:21:78:e8:9a:5e:81:f5:a0:52:78:8b:c9:
                    5b:88:e1:4d:0a:17:4d:41:34:41:90:cc:f1:dc:ef:
                    82:f6:0d:5b:75:70:95:0f:2b:02:73:04:4a:af:77:
                    eb:8f
                Exponent: 65537 (0x10001)
        X509v3 extensions:
            X509v3 Subject Key Identifier: 
                B6:D6:15:45:EE:7C:33:30:78:A9:D1:57:68:3C:69:F2:EB:B5:EB:46
            X509v3 Authority Key Identifier: 
                keyid:C7:F9:33:32:3E:5A:3A:94:13:F4:B9:F2:DC:1F:5F:19:A3:34:3B:41
                DirName:/C=US/ST=California/L=Santa Clara/O=pkg5/CN=ta4/emailAddress=ta4
                serial:F7:FF:21:62:21:AE:E0:5A

            X509v3 Basic Constraints: critical
                CA:TRUE
            X509v3 Key Usage: critical
                Certificate Sign
    Signature Algorithm: sha256WithRSAEncryption
         3e:d2:63:56:61:fd:95:92:a0:6c:4b:eb:67:40:2a:79:7b:3b:
         9d:d8:46:29:ab:85:fd:14:b7:39:ca:1f:c0:c2:5a:cd:6b:d2:
         15:4c:29:83:5b:fe:29:22:e8:1b:7b:c5:4a:f7:f1:03:34:b2:
         75:3b:2e:b2:09:00:35:1f:b2:97:b9:2d:0f:1e:9c:ac:75:e0:
         f7:33:62:6d:93:d6:e3:e4:30:45:6f:5a:32:bc:79:00:dd:e5:
         8d:af:3b:ed:ab:e9:ef:01:d7:d0:2d:12:38:ad:98:73:7a:70:
         c7:8b:41:7d:d7:2e:ab:95:0e:6d:b2:1e:15:bb:94:59:de:6a:
         12:25:fc:76:c2:af:de:e3:2b:e9:85:d3:c2:d2:1e:7a:56:d6:
         74:04:35:d0:40:b9:9c:b2:c8:22:0b:2a:82:bc:7a:27:81:cb:
         98:ac:0d:22:4c:01:95:da:43:07:96:ad:67:3c:d8:d6:4c:79:
         b3:96:a8:8d:62:0d:b3:13:08:50:fe:a4:90:a6:7b:14:6f:fc:
         e8:cb:79:6a:de:f5:f8:5e:5a:96:6d:00:cf:e6:5f:c4:50:ff:
         e8:2c:27:25:ff:d3:5d:6c:8e:c7:22:90:18:ef:d7:f8:f7:27:
         0b:5d:90:f4:4f:3a:d7:1a:50:01:47:2f:b4:8e:53:2c:bb:5a:
         5e:53:67:2a
-----BEGIN CERTIFICATE-----
MIIEOzCCAyOgAwIBAgIBJjANBgkqhkiG9w0BAQsFADBpMQswCQYDVQQGEwJVUzET
MBEGA1UECAwKQ2FsaWZvcm5pYTEUMBIGA1UEBwwLU2FudGEgQ2xhcmExDTALBgNV
BAoMBHBrZzUxDDAKBgNVBAMMA3RhNDESMBAGCSqGSIb3DQEJARYDdGE0MB4XDTIz
MDcxOTExMzU1MFoXDTI2MDQxNDExMzU1MFowdTELMAkGA1UEBhMCVVMxEzARBgNV
BAgMCkNhbGlmb3JuaWExFDASBgNVBAcMC1NhbnRhIENsYXJhMQ0wCwYDVQQKDARw
a2c1MRIwEAYDVQQDDAljaDEuMV90YTQxGDAWBgkqhkiG9w0BCQEWCWNoMS4xX3Rh
NDCCASIwDQYJKoZIhvcNAQEBBQADggEPADCCAQoCggEBALxuEIi9bQ8snJpDJl06
+e+3XWsgg3VwDXIlEpY5kmjXczJFr7kawUvM/cEDB+xJFctxxGOgbZoHeJySP8U5
4cnKsoPAQvEI5dcJfqxXFXZX0yTI5FAVmo2uSpm2Gj23418vK8ZPGYLUAmtoe7Fn
zIdA6XDWUGjJpWsdYCBx2dcC6ofnQio43zW1IJ6PN7VtPKwPKbD0WDz8GyXh7tUu
aEBY6PaPZMwpFZXpUwwQ/60VG7oQZDFb78qG0E2OJhFSpTD4PiiSRF+9zJwGeT7n
GE+SCcDWIXjoml6B9aBSeIvJW4jhTQoXTUE0QZDM8dzvgvYNW3VwlQ8rAnMESq93
648CAwEAAaOB4TCB3jAdBgNVHQ4EFgQUttYVRe58MzB4qdFXaDxp8uu160YwgZsG
A1UdIwSBkzCBkIAUx/kzMj5aOpQT9Lny3B9fGaM0O0GhbaRrMGkxCzAJBgNVBAYT
AlVTMRMwEQYDVQQIDApDYWxpZm9ybmlhMRQwEgYDVQQHDAtTYW50YSBDbGFyYTEN
MAsGA1UECgwEcGtnNTEMMAoGA1UEAwwDdGE0MRIwEAYJKoZIhvcNAQkBFgN0YTSC
CQD3/yFiIa7gWjAPBgNVHRMBAf8EBTADAQH/MA4GA1UdDwEB/wQEAwICBDANBgkq
hkiG9w0BAQsFAAOCAQEAPtJjVmH9lZKgbEvrZ0AqeXs7ndhGKauF/RS3OcofwMJa
zWvSFUwpg1v+KSLoG3vFSvfxAzSydTsusgkANR+yl7ktDx6crHXg9zNibZPW4+Qw
RW9aMrx5AN3lja877avp7wHX0C0SOK2Yc3pwx4tBfdcuq5UObbIeFbuUWd5qEiX8
dsKv3uMr6YXTwtIeelbWdAQ10EC5nLLIIgsqgrx6J4HLmKwNIkwBldpDB5atZzzY
1kx5s5aojWINsxMIUP6kkKZ7FG/86Mt5at71+F5alm0Az+ZfxFD/6CwnJf/TXWyO
xyKQGO/X+PcnC12Q9E861xpQAUcvtI5TLLtaXlNnKg==
-----END CERTIFICATE-----
