Certificate:
    Data:
        Version: 3 (0x2)
        Serial Number: 38 (0x26)
        Signature Algorithm: sha256WithRSAEncryption
        Issuer: C=US, ST=California, L=Menlo Park, O=pkg5, CN=ta4/emailAddress=ta4
        Validity
            Not Before: Apr 11 22:37:51 2011 GMT
            Not After : Jan  5 22:37:51 2014 GMT
        Subject: C=US, ST=California, L=Menlo Park, O=pkg5, CN=ch1.1_ta4/emailAddress=ch1.1_ta4
        Subject Public Key Info:
            Public Key Algorithm: rsaEncryption
            RSA Public Key: (1024 bit)
                Modulus (1024 bit):
                    00:b8:6a:e3:b5:bf:65:66:f4:b3:32:73:a9:64:b7:
                    dd:a0:4a:e9:70:d3:7b:5c:1b:5b:76:e7:56:a3:72:
                    0e:9d:fa:9f:b2:a5:47:eb:3f:db:9a:7b:45:d2:17:
                    77:ca:05:b3:95:22:15:78:9e:ab:f3:4b:fa:83:89:
                    e6:19:54:22:69:18:67:ba:bb:37:2a:b4:93:5a:bb:
                    9c:68:5b:ec:b1:7e:ac:01:7b:b3:d9:91:57:93:eb:
                    43:e6:a6:35:e1:b5:c2:2d:ca:bb:63:af:35:d6:b4:
                    16:9a:a3:7a:1c:ad:e1:f4:fb:63:4a:fd:3d:57:99:
                    33:b8:1e:41:e9:f9:42:80:33
                Exponent: 65537 (0x10001)
        X509v3 extensions:
            X509v3 Subject Key Identifier: 
                C9:2D:8D:6C:97:26:48:F8:6F:14:66:05:ED:06:D8:BF:21:8A:6F:FD
            X509v3 Authority Key Identifier: 
                keyid:3E:5F:64:E9:63:CB:9C:10:D0:91:F4:45:61:F2:F1:EA:42:69:EC:A5
                DirName:/C=US/ST=California/L=Menlo Park/O=pkg5/CN=ta4/emailAddress=ta4
                serial:BA:06:FD:EC:89:18:B5:7F

            X509v3 Basic Constraints: critical
                CA:TRUE
            X509v3 Key Usage: critical
                Certificate Sign
    Signature Algorithm: sha256WithRSAEncryption
        8e:ea:a2:87:02:69:a4:9f:44:22:c3:62:83:9c:fb:e2:3f:59:
        d0:09:0f:57:81:8f:59:37:21:c5:59:81:36:8d:9c:4e:c0:0f:
        4b:40:e6:db:ba:9f:d4:b8:86:2f:1b:1b:fd:2d:5d:4e:df:1b:
        d4:b4:04:d0:07:b8:ad:25:52:1c:0b:ec:07:6c:21:b7:1d:65:
        d3:a2:dc:a0:96:03:9d:2e:13:7a:a7:8a:29:55:95:5a:dc:ff:
        6a:a4:4b:7a:26:7f:eb:ad:88:e9:80:5d:53:5e:0f:48:6a:21:
        18:c9:89:be:83:38:51:40:b6:ad:5d:71:b2:2e:45:60:b3:1d:
        69:9b
-----BEGIN CERTIFICATE-----
MIIDMzCCApygAwIBAgIBJjANBgkqhkiG9w0BAQsFADBoMQswCQYDVQQGEwJVUzET
MBEGA1UECBMKQ2FsaWZvcm5pYTETMBEGA1UEBxMKTWVubG8gUGFyazENMAsGA1UE
ChMEcGtnNTEMMAoGA1UEAxMDdGE0MRIwEAYJKoZIhvcNAQkBFgN0YTQwHhcNMTEw
NDExMjIzNzUxWhcNMTQwMTA1MjIzNzUxWjB0MQswCQYDVQQGEwJVUzETMBEGA1UE
CBMKQ2FsaWZvcm5pYTETMBEGA1UEBxMKTWVubG8gUGFyazENMAsGA1UEChMEcGtn
NTESMBAGA1UEAxQJY2gxLjFfdGE0MRgwFgYJKoZIhvcNAQkBFgljaDEuMV90YTQw
gZ8wDQYJKoZIhvcNAQEBBQADgY0AMIGJAoGBALhq47W/ZWb0szJzqWS33aBK6XDT
e1wbW3bnVqNyDp36n7KlR+s/25p7RdIXd8oFs5UiFXieq/NL+oOJ5hlUImkYZ7q7
Nyq0k1q7nGhb7LF+rAF7s9mRV5PrQ+amNeG1wi3Ku2OvNda0Fpqjehyt4fT7Y0r9
PVeZM7geQen5QoAzAgMBAAGjgeAwgd0wHQYDVR0OBBYEFMktjWyXJkj4bxRmBe0G
2L8him/9MIGaBgNVHSMEgZIwgY+AFD5fZOljy5wQ0JH0RWHy8epCaeyloWykajBo
MQswCQYDVQQGEwJVUzETMBEGA1UECBMKQ2FsaWZvcm5pYTETMBEGA1UEBxMKTWVu
bG8gUGFyazENMAsGA1UEChMEcGtnNTEMMAoGA1UEAxMDdGE0MRIwEAYJKoZIhvcN
AQkBFgN0YTSCCQC6Bv3siRi1fzAPBgNVHRMBAf8EBTADAQH/MA4GA1UdDwEB/wQE
AwICBDANBgkqhkiG9w0BAQsFAAOBgQCO6qKHAmmkn0Qiw2KDnPviP1nQCQ9XgY9Z
NyHFWYE2jZxOwA9LQObbup/UuIYvGxv9LV1O3xvUtATQB7itJVIcC+wHbCG3HWXT
otyglgOdLhN6p4opVZVa3P9qpEt6Jn/rrYjpgF1TXg9IaiEYyYm+gzhRQLatXXGy
LkVgsx1pmw==
-----END CERTIFICATE-----
