Certificate:
    Data:
        Version: 3 (0x2)
        Serial Number: 40 (0x28)
        Signature Algorithm: sha256WithRSAEncryption
        Issuer: C=US, ST=California, L=Menlo Park, O=pkg5, CN=ta5/emailAddress=ta5
        Validity
            Not Before: Apr 11 22:37:52 2011 GMT
            Not After : Jan  5 22:37:52 2014 GMT
        Subject: C=US, ST=California, L=Menlo Park, O=pkg5, CN=ch1_ta5/emailAddress=ch1_ta5
        Subject Public Key Info:
            Public Key Algorithm: rsaEncryption
            RSA Public Key: (1024 bit)
                Modulus (1024 bit):
                    00:e7:14:d9:dc:4c:60:0f:ad:49:9f:14:f8:2f:d9:
                    0e:65:93:a4:c4:e5:6b:13:93:c1:79:40:14:4f:19:
                    56:d7:88:07:9b:de:45:40:ce:24:91:44:b0:14:6b:
                    8b:4d:f5:d1:b2:75:cc:5c:d7:ed:73:2c:d2:75:aa:
                    50:6f:94:00:8d:0e:bb:15:8c:ef:a1:5d:2c:23:73:
                    95:f7:48:b5:4a:3b:de:2a:a1:7c:03:aa:28:17:f0:
                    a7:46:b9:86:f3:98:a7:31:ff:e1:75:b4:28:b4:11:
                    b4:4b:ca:64:e4:cd:2a:f7:d8:6f:6b:73:64:ab:55:
                    0b:5b:60:76:5f:ea:86:57:1f
                Exponent: 65537 (0x10001)
        X509v3 extensions:
            X509v3 Subject Key Identifier: 
                59:7D:00:A7:48:7C:5E:D9:A2:26:D0:9A:83:3F:D0:03:9C:36:D5:50
            X509v3 Authority Key Identifier: 
                keyid:E7:E6:72:5B:A0:5F:2C:A6:40:45:1A:66:E4:45:A5:0F:1D:67:5D:93
                DirName:/C=US/ST=California/L=Menlo Park/O=pkg5/CN=ta5/emailAddress=ta5
                serial:9C:19:39:11:06:1A:55:91

            X509v3 Basic Constraints: critical
                CA:TRUE
            X509v3 CRL Distribution Points: 
                URI:http://localhost:12001/file/0/ta5_crl.pem

            X509v3 Key Usage: critical
                Certificate Sign, CRL Sign
    Signature Algorithm: sha256WithRSAEncryption
        a0:48:28:f4:94:07:dd:08:f2:c6:74:0d:a9:31:10:71:64:f8:
        b5:c3:fb:82:8e:46:9d:30:fb:fd:9d:4b:c9:92:5b:c4:06:d2:
        d0:5e:aa:91:f5:19:7c:c3:11:b2:26:ef:e6:01:cf:3e:ea:07:
        d6:d2:f8:22:e6:a0:50:86:40:53:cc:ed:81:73:33:b1:a8:2b:
        92:1a:10:f9:fc:30:43:84:4b:ca:ef:8c:d3:be:0a:63:f0:40:
        99:be:80:88:c9:8f:2b:9a:82:9f:7b:56:9a:f1:08:e1:67:88:
        30:fa:a1:12:bc:c8:ea:22:60:64:0f:91:80:48:cd:2a:5d:05:
        ca:f7
-----BEGIN CERTIFICATE-----
MIIDbTCCAtagAwIBAgIBKDANBgkqhkiG9w0BAQsFADBoMQswCQYDVQQGEwJVUzET
MBEGA1UECBMKQ2FsaWZvcm5pYTETMBEGA1UEBxMKTWVubG8gUGFyazENMAsGA1UE
ChMEcGtnNTEMMAoGA1UEAxMDdGE1MRIwEAYJKoZIhvcNAQkBFgN0YTUwHhcNMTEw
NDExMjIzNzUyWhcNMTQwMTA1MjIzNzUyWjBwMQswCQYDVQQGEwJVUzETMBEGA1UE
CBMKQ2FsaWZvcm5pYTETMBEGA1UEBxMKTWVubG8gUGFyazENMAsGA1UEChMEcGtn
NTEQMA4GA1UEAxQHY2gxX3RhNTEWMBQGCSqGSIb3DQEJARYHY2gxX3RhNTCBnzAN
BgkqhkiG9w0BAQEFAAOBjQAwgYkCgYEA5xTZ3ExgD61JnxT4L9kOZZOkxOVrE5PB
eUAUTxlW14gHm95FQM4kkUSwFGuLTfXRsnXMXNftcyzSdapQb5QAjQ67FYzvoV0s
I3OV90i1SjveKqF8A6ooF/CnRrmG85inMf/hdbQotBG0S8pk5M0q99hva3Nkq1UL
W2B2X+qGVx8CAwEAAaOCAR0wggEZMB0GA1UdDgQWBBRZfQCnSHxe2aIm0JqDP9AD
nDbVUDCBmgYDVR0jBIGSMIGPgBTn5nJboF8spkBFGmbkRaUPHWddk6FspGowaDEL
MAkGA1UEBhMCVVMxEzARBgNVBAgTCkNhbGlmb3JuaWExEzARBgNVBAcTCk1lbmxv
IFBhcmsxDTALBgNVBAoTBHBrZzUxDDAKBgNVBAMTA3RhNTESMBAGCSqGSIb3DQEJ
ARYDdGE1ggkAnBk5EQYaVZEwDwYDVR0TAQH/BAUwAwEB/zA6BgNVHR8EMzAxMC+g
LaArhilodHRwOi8vbG9jYWxob3N0OjEyMDAxL2ZpbGUvMC90YTVfY3JsLnBlbTAO
BgNVHQ8BAf8EBAMCAQYwDQYJKoZIhvcNAQELBQADgYEAoEgo9JQH3QjyxnQNqTEQ
cWT4tcP7go5GnTD7/Z1LyZJbxAbS0F6qkfUZfMMRsibv5gHPPuoH1tL4IuagUIZA
U8ztgXMzsagrkhoQ+fwwQ4RLyu+M074KY/BAmb6AiMmPK5qCn3tWmvEI4WeIMPqh
ErzI6iJgZA+RgEjNKl0Fyvc=
-----END CERTIFICATE-----
