Certificate:
    Data:
        Version: 3 (0x2)
        Serial Number: 40 (0x28)
        Signature Algorithm: sha256WithRSAEncryption
        Issuer: C=US, ST=California, L=Santa Clara, O=pkg5, CN=ta5/emailAddress=ta5
        Validity
            Not Before: Mar 18 08:51:45 2026 GMT
            Not After : Dec 12 08:51:45 2028 GMT
        Subject: C=US, ST=California, L=Santa Clara, O=pkg5, CN=ch1_ta5/emailAddress=ch1_ta5
        Subject Public Key Info:
            Public Key Algorithm: rsaEncryption
                Public-Key: (2048 bit)
                Modulus:
                    00:87:c6:e0:8a:19:15:d0:8d:fc:dd:26:f3:3f:23:
                    1e:0f:74:ea:e5:3b:fe:e0:d4:52:2c:2f:bd:a4:a3:
                    fb:0d:2f:65:35:3f:72:ef:3f:db:40:73:f5:fa:d9:
                    e1:a4:92:8c:1e:72:a4:47:11:b1:77:62:c3:41:ca:
                    5c:1e:9d:ef:0d:16:6b:7f:78:50:c4:84:c1:d7:71:
                    b1:84:9e:cd:c2:04:05:87:b0:48:da:f9:07:02:e0:
                    db:1f:0a:79:17:f3:8f:3d:10:60:7a:3c:32:9a:73:
                    e0:6d:b5:0f:7b:b5:fa:88:d0:11:87:d3:91:88:bc:
                    7f:63:bb:b3:02:77:68:e2:84:85:53:c4:25:df:61:
                    7b:19:d4:65:40:aa:07:ed:06:58:e2:da:7a:b6:1d:
                    64:73:e1:cd:19:3d:74:83:f5:df:60:e0:b3:0f:76:
                    f6:a0:47:f1:37:16:49:cc:00:85:b6:e3:e5:97:af:
                    7b:fe:36:56:08:b0:be:95:35:1c:da:cc:2c:c5:fa:
                    ae:c7:86:06:08:64:68:42:f7:2e:60:9b:bc:b8:a6:
                    0c:3b:c3:6b:8f:6d:de:40:96:ff:51:0a:dd:8f:7d:
                    65:aa:72:8b:85:80:ff:7a:17:8a:85:28:c8:c1:41:
                    bf:14:b5:da:23:f2:3b:73:c0:98:69:77:27:57:eb:
                    ac:a5
                Exponent: 65537 (0x10001)
        X509v3 extensions:
            X509v3 Subject Key Identifier: 
                1E:28:20:C5:C3:0A:70:76:1D:D5:C5:22:8D:B5:27:B7:79:14:6C:7A
            X509v3 Authority Key Identifier: 
                keyid:DB:89:BF:4E:E5:6A:61:78:61:3A:ED:F3:A3:80:AC:AB:A9:7C:2A:DA
                DirName:/C=US/ST=California/L=Santa Clara/O=pkg5/CN=ta5/emailAddress=ta5
                serial:1B:23:D1:58:30:58:05:14:5D:78:D0:9D:EA:4D:D6:3D:18:37:4B:23
            X509v3 Basic Constraints: critical
                CA:TRUE
            X509v3 CRL Distribution Points: 
                Full Name:
                  URI:http://localhost:12001/file/0/ta5_crl.pem
            X509v3 Key Usage: critical
                Certificate Sign, CRL Sign
    Signature Algorithm: sha256WithRSAEncryption
    Signature Value:
        38:6f:b6:96:42:68:00:03:0f:80:7c:bd:79:b7:7c:9d:82:6b:
        cb:90:84:e6:02:a2:93:66:2a:bc:8f:6c:1e:13:65:a2:eb:5f:
        7f:5b:8e:60:bb:35:06:e2:6f:29:54:e3:ea:1f:e1:56:d6:b4:
        6d:59:bc:63:5a:f0:b1:24:1d:82:49:d4:ee:05:cc:a1:37:35:
        2a:eb:5f:00:90:55:cd:9d:f9:dd:57:d1:73:52:60:34:cc:59:
        57:c6:28:90:7c:15:5a:d1:b5:0e:12:00:0d:26:0c:60:ef:64:
        da:71:41:d8:27:23:2d:54:3a:94:51:39:78:50:5e:e6:87:c9:
        b9:b5:40:18:08:4e:1b:32:16:61:b9:1c:01:a3:d2:ae:4a:7f:
        32:bc:81:ac:a1:67:4a:f9:04:50:d8:da:3c:27:7e:05:1b:c5:
        2a:ab:a9:c3:0e:39:84:76:9d:57:a7:de:94:b9:a8:b2:c7:43:
        bb:c1:80:6d:d5:2b:38:ee:6a:73:d7:e6:cf:9d:1b:0a:ca:76:
        3e:dc:25:4d:c7:d5:bd:1e:e4:6f:4f:e0:33:7f:6f:d0:a6:ab:
        78:3a:65:7c:5c:cb:44:5e:0d:6b:54:aa:84:a9:fa:82:e7:26:
        ba:2d:53:d7:79:74:06:e7:f0:b6:24:5b:24:85:9c:8d:a5:f1:
        06:a9:b9:d9
-----BEGIN CERTIFICATE-----
MIIEgDCCA2igAwIBAgIBKDANBgkqhkiG9w0BAQsFADBpMQswCQYDVQQGEwJVUzET
MBEGA1UECAwKQ2FsaWZvcm5pYTEUMBIGA1UEBwwLU2FudGEgQ2xhcmExDTALBgNV
BAoMBHBrZzUxDDAKBgNVBAMMA3RhNTESMBAGCSqGSIb3DQEJARYDdGE1MB4XDTI2
MDMxODA4NTE0NVoXDTI4MTIxMjA4NTE0NVowcTELMAkGA1UEBhMCVVMxEzARBgNV
BAgMCkNhbGlmb3JuaWExFDASBgNVBAcMC1NhbnRhIENsYXJhMQ0wCwYDVQQKDARw
a2c1MRAwDgYDVQQDDAdjaDFfdGE1MRYwFAYJKoZIhvcNAQkBFgdjaDFfdGE1MIIB
IjANBgkqhkiG9w0BAQEFAAOCAQ8AMIIBCgKCAQEAh8bgihkV0I383SbzPyMeD3Tq
5Tv+4NRSLC+9pKP7DS9lNT9y7z/bQHP1+tnhpJKMHnKkRxGxd2LDQcpcHp3vDRZr
f3hQxITB13GxhJ7NwgQFh7BI2vkHAuDbHwp5F/OPPRBgejwymnPgbbUPe7X6iNAR
h9ORiLx/Y7uzAndo4oSFU8Ql32F7GdRlQKoH7QZY4tp6th1kc+HNGT10g/XfYOCz
D3b2oEfxNxZJzACFtuPll697/jZWCLC+lTUc2swsxfqux4YGCGRoQvcuYJu8uKYM
O8Nrj23eQJb/UQrdj31lqnKLhYD/eheKhSjIwUG/FLXaI/I7c8CYaXcnV+uspQID
AQABo4IBKTCCASUwHQYDVR0OBBYEFB4oIMXDCnB2HdXFIo21J7d5FGx6MIGmBgNV
HSMEgZ4wgZuAFNuJv07lamF4YTrt86OArKupfCraoW2kazBpMQswCQYDVQQGEwJV
UzETMBEGA1UECAwKQ2FsaWZvcm5pYTEUMBIGA1UEBwwLU2FudGEgQ2xhcmExDTAL
BgNVBAoMBHBrZzUxDDAKBgNVBAMMA3RhNTESMBAGCSqGSIb3DQEJARYDdGE1ghQb
I9FYMFgFFF140J3qTdY9GDdLIzAPBgNVHRMBAf8EBTADAQH/MDoGA1UdHwQzMDEw
L6AtoCuGKWh0dHA6Ly9sb2NhbGhvc3Q6MTIwMDEvZmlsZS8wL3RhNV9jcmwucGVt
MA4GA1UdDwEB/wQEAwIBBjANBgkqhkiG9w0BAQsFAAOCAQEAOG+2lkJoAAMPgHy9
ebd8nYJry5CE5gKik2YqvI9sHhNloutff1uOYLs1BuJvKVTj6h/hVta0bVm8Y1rw
sSQdgknU7gXMoTc1KutfAJBVzZ353VfRc1JgNMxZV8YokHwVWtG1DhIADSYMYO9k
2nFB2CcjLVQ6lFE5eFBe5ofJubVAGAhOGzIWYbkcAaPSrkp/MryBrKFnSvkEUNja
PCd+BRvFKqupww45hHadV6felLmossdDu8GAbdUrOO5qc9fmz50bCsp2PtwlTcfV
vR7kb0/gM39v0KareDplfFzLRF4Na1SqhKn6gucmui1T13l0BufwtiRbJIWcjaXx
Bqm52Q==
-----END CERTIFICATE-----
