Certificate:
    Data:
        Version: 3 (0x2)
        Serial Number: 40 (0x28)
    Signature Algorithm: sha256WithRSAEncryption
        Issuer: C=US, ST=California, L=Santa Clara, O=pkg5, CN=ta5/emailAddress=ta5
        Validity
            Not Before: Jan 22 15:33:14 2019 GMT
            Not After : Oct 18 15:33:14 2021 GMT
        Subject: C=US, ST=California, L=Santa Clara, O=pkg5, CN=ch1_ta5/emailAddress=ch1_ta5
        Subject Public Key Info:
            Public Key Algorithm: rsaEncryption
                Public-Key: (2048 bit)
                Modulus:
                    00:dc:a8:00:30:d5:a4:19:ab:b5:ea:d5:b5:e7:ff:
                    53:02:73:fd:de:2b:b3:20:af:fa:09:37:13:74:71:
                    c5:62:b2:9a:d0:e3:69:b3:b7:86:4e:1d:d0:04:dc:
                    48:b6:bf:cc:06:b1:a3:e9:01:bc:c5:0a:e5:10:66:
                    fa:44:69:5c:ce:14:79:0a:a9:06:90:8d:2c:61:c1:
                    ed:ce:28:2f:ea:e9:6e:fe:97:3e:17:d7:13:8e:06:
                    9c:da:40:e8:ab:5a:ac:b4:55:da:91:6b:ff:ad:26:
                    8f:ee:6d:79:ac:e0:e5:4c:7a:19:5b:7b:40:9c:6e:
                    84:2c:c2:2a:4e:53:c2:f2:0a:34:64:b0:7a:68:cd:
                    11:4e:5c:6b:8b:f5:56:2d:4a:94:54:e7:52:5c:75:
                    45:7d:89:f3:23:df:d7:17:8e:05:16:12:d2:49:3c:
                    e1:ac:66:7e:b7:3f:bc:e5:5d:ec:e3:c9:ee:29:bd:
                    7e:52:5b:89:99:05:2f:c8:ce:84:b4:78:7e:9f:39:
                    64:6a:0b:8c:d5:d2:02:e2:26:c7:c3:a6:02:93:88:
                    97:c2:43:3a:8d:7c:73:92:92:8d:a8:05:5f:72:9b:
                    7a:fc:d5:28:78:e2:05:de:7c:c2:64:61:d9:44:30:
                    ce:5d:47:d5:a1:42:f4:f9:5d:f4:95:dd:3e:5d:c3:
                    d2:23
                Exponent: 65537 (0x10001)
        X509v3 extensions:
            X509v3 Subject Key Identifier: 
                42:B7:52:62:38:78:76:A4:24:66:AC:19:4D:C8:D2:5B:DD:9F:D0:B2
            X509v3 Authority Key Identifier: 
                keyid:57:98:80:77:D2:C5:CC:99:02:C3:DA:37:83:DA:01:73:FD:C4:41:64
                DirName:/C=US/ST=California/L=Santa Clara/O=pkg5/CN=ta5/emailAddress=ta5
                serial:A9:35:B7:58:6E:2E:7E:8C

            X509v3 Basic Constraints: critical
                CA:TRUE
            X509v3 CRL Distribution Points: 

                Full Name:
                  URI:http://localhost:12001/file/0/ta5_crl.pem

            X509v3 Key Usage: critical
                Certificate Sign, CRL Sign
    Signature Algorithm: sha256WithRSAEncryption
         b2:4f:75:9f:6f:0c:a4:1f:ad:c9:de:38:c4:28:da:37:8b:a4:
         18:32:fc:62:57:ee:fd:92:c6:31:bc:a5:0d:1c:d5:23:3c:12:
         03:36:db:c9:7e:31:16:6e:bb:f4:52:89:e9:46:e9:4d:1e:9a:
         38:8b:a6:4e:2e:4a:64:79:ef:23:76:4e:d6:b0:ad:d2:66:e3:
         ad:71:cb:a3:58:4f:b4:b5:99:6c:f6:43:c1:41:c5:a7:5f:6f:
         3c:bc:cb:f9:f2:08:de:33:a8:52:08:c7:15:09:5e:8b:84:db:
         9a:ca:a8:c7:fb:d6:d6:28:59:b0:db:00:ce:ae:45:99:4f:03:
         de:eb:72:86:8f:d6:60:e0:3e:45:d9:d2:8c:31:68:3a:99:d9:
         af:80:fe:17:28:3e:dd:55:d1:4f:d2:8f:3f:0e:50:61:1d:74:
         5a:87:1f:0b:32:b7:c1:b8:15:f0:fe:10:9d:53:0f:1c:eb:5b:
         30:20:d7:38:ef:7b:1f:59:8d:90:89:57:5b:f9:5a:65:c2:79:
         45:04:49:ed:9c:d1:97:a7:cd:98:4d:26:46:c8:50:c8:79:50:
         7c:5c:20:5f:22:46:2d:31:b1:10:0b:76:6b:01:39:41:10:43:
         0d:75:2d:11:e4:67:6b:57:a7:67:9f:cd:dc:e5:e8:a4:2b:99:
         c5:bc:5e:f8
-----BEGIN CERTIFICATE-----
MIIEdTCCA12gAwIBAgIBKDANBgkqhkiG9w0BAQsFADBpMQswCQYDVQQGEwJVUzET
MBEGA1UECAwKQ2FsaWZvcm5pYTEUMBIGA1UEBwwLU2FudGEgQ2xhcmExDTALBgNV
BAoMBHBrZzUxDDAKBgNVBAMMA3RhNTESMBAGCSqGSIb3DQEJARYDdGE1MB4XDTE5
MDEyMjE1MzMxNFoXDTIxMTAxODE1MzMxNFowcTELMAkGA1UEBhMCVVMxEzARBgNV
BAgMCkNhbGlmb3JuaWExFDASBgNVBAcMC1NhbnRhIENsYXJhMQ0wCwYDVQQKDARw
a2c1MRAwDgYDVQQDDAdjaDFfdGE1MRYwFAYJKoZIhvcNAQkBFgdjaDFfdGE1MIIB
IjANBgkqhkiG9w0BAQEFAAOCAQ8AMIIBCgKCAQEA3KgAMNWkGau16tW15/9TAnP9
3iuzIK/6CTcTdHHFYrKa0ONps7eGTh3QBNxItr/MBrGj6QG8xQrlEGb6RGlczhR5
CqkGkI0sYcHtzigv6ulu/pc+F9cTjgac2kDoq1qstFXakWv/rSaP7m15rODlTHoZ
W3tAnG6ELMIqTlPC8go0ZLB6aM0RTlxri/VWLUqUVOdSXHVFfYnzI9/XF44FFhLS
STzhrGZ+tz+85V3s48nuKb1+UluJmQUvyM6EtHh+nzlkaguM1dIC4ibHw6YCk4iX
wkM6jXxzkpKNqAVfcpt6/NUoeOIF3nzCZGHZRDDOXUfVoUL0+V30ld0+XcPSIwID
AQABo4IBHjCCARowHQYDVR0OBBYEFEK3UmI4eHakJGasGU3I0lvdn9CyMIGbBgNV
HSMEgZMwgZCAFFeYgHfSxcyZAsPaN4PaAXP9xEFkoW2kazBpMQswCQYDVQQGEwJV
UzETMBEGA1UECAwKQ2FsaWZvcm5pYTEUMBIGA1UEBwwLU2FudGEgQ2xhcmExDTAL
BgNVBAoMBHBrZzUxDDAKBgNVBAMMA3RhNTESMBAGCSqGSIb3DQEJARYDdGE1ggkA
qTW3WG4ufowwDwYDVR0TAQH/BAUwAwEB/zA6BgNVHR8EMzAxMC+gLaArhilodHRw
Oi8vbG9jYWxob3N0OjEyMDAxL2ZpbGUvMC90YTVfY3JsLnBlbTAOBgNVHQ8BAf8E
BAMCAQYwDQYJKoZIhvcNAQELBQADggEBALJPdZ9vDKQfrcneOMQo2jeLpBgy/GJX
7v2SxjG8pQ0c1SM8EgM228l+MRZuu/RSielG6U0emjiLpk4uSmR57yN2TtawrdJm
461xy6NYT7S1mWz2Q8FBxadfbzy8y/nyCN4zqFIIxxUJXouE25rKqMf71tYoWbDb
AM6uRZlPA97rcoaP1mDgPkXZ0owxaDqZ2a+A/hcoPt1V0U/Sjz8OUGEddFqHHwsy
t8G4FfD+EJ1TDxzrWzAg1zjvex9ZjZCJV1v5WmXCeUUESe2c0ZenzZhNJkbIUMh5
UHxcIF8iRi0xsRALdmsBOUEQQw11LRHkZ2tXp2efzdzl6KQrmcW8Xvg=
-----END CERTIFICATE-----
