Certificate:
    Data:
        Version: 3 (0x2)
        Serial Number: 41 (0x29)
    Signature Algorithm: sha256WithRSAEncryption
        Issuer: C=US, ST=California, L=Santa Clara, O=pkg5, CN=ta5/emailAddress=ta5
        Validity
            Not Before: Jan 22 01:57:59 2016 GMT
            Not After : Oct 18 01:57:59 2018 GMT
        Subject: C=US, ST=California, L=Santa Clara, O=pkg5, CN=ch1_ta5/emailAddress=ch1_ta5
        Subject Public Key Info:
            Public Key Algorithm: rsaEncryption
                Public-Key: (2048 bit)
                Modulus:
                    00:c4:30:ef:b0:77:4e:44:58:ca:72:ac:ea:37:5e:
                    8d:4e:a1:89:7b:b1:ff:ee:da:e1:fb:3a:3c:b7:44:
                    37:af:79:c9:ae:21:c6:d2:6d:27:68:a8:ac:b3:77:
                    4f:9a:b9:51:af:f9:47:bf:49:6c:f6:21:f9:b9:78:
                    2e:b4:a5:29:db:96:06:6a:2c:c6:25:6e:e9:eb:59:
                    01:c1:c6:34:ef:1d:61:8f:5f:55:d8:fc:42:ac:12:
                    5f:8c:b1:51:da:f6:82:7a:49:f4:2a:72:15:b0:1a:
                    2c:7e:e5:4a:33:64:ca:ad:a2:7b:37:aa:7e:9a:ab:
                    ce:e6:18:de:93:58:47:33:be:e7:48:da:c5:95:aa:
                    fc:ff:83:b9:00:74:39:dd:21:b8:d3:5b:3d:e3:28:
                    ef:11:59:65:9b:96:59:a5:fe:08:ab:8e:80:ba:32:
                    09:38:1c:a1:b1:99:db:3e:90:0e:e6:cd:51:d4:4f:
                    75:98:67:c3:42:71:76:0a:b4:e1:fb:44:c0:8a:35:
                    d9:a2:d3:7b:e0:0c:4d:4b:67:06:ee:5c:06:72:81:
                    25:bd:b1:5c:db:19:55:e3:9a:ee:ae:58:46:60:5c:
                    a2:df:f5:89:09:48:3f:cd:7f:9b:20:0e:84:ef:8c:
                    5a:ea:5e:99:59:4b:91:af:18:5d:0a:08:c3:0c:38:
                    87:6f
                Exponent: 65537 (0x10001)
        X509v3 extensions:
            X509v3 Subject Key Identifier: 
                AB:85:31:3F:5E:AA:BD:C0:59:AC:A2:04:AA:D7:29:E8:19:AE:FB:F4
            X509v3 Authority Key Identifier: 
                keyid:DC:66:15:EE:AB:F6:53:B7:63:E5:B0:CB:B8:F0:D4:61:B5:27:94:3F
                DirName:/C=US/ST=California/L=Santa Clara/O=pkg5/CN=ta5/emailAddress=ta5
                serial:A9:DD:14:32:D5:19:7A:EA

            X509v3 Basic Constraints: critical
                CA:TRUE
            X509v3 CRL Distribution Points: 

                Full Name:
                  URI:http://localhost:12001/file/0/ta5_crl.pem

            X509v3 Key Usage: critical
                Certificate Sign, CRL Sign
    Signature Algorithm: sha256WithRSAEncryption
         13:bc:5b:b0:af:1c:17:88:8d:4f:2b:ee:1c:3b:b2:fd:2f:b9:
         c3:18:d6:08:1d:3f:46:31:56:ca:97:ec:d6:96:18:b4:f0:9e:
         9a:c6:c9:52:bc:b3:e9:f2:6c:27:a9:29:54:33:fa:15:59:16:
         b7:e8:0c:d7:4a:a9:34:02:19:72:43:56:c0:ad:d2:b4:c0:61:
         be:22:e5:e5:cf:68:8a:5c:50:b1:ee:5d:38:3d:83:65:27:58:
         a6:10:ee:46:17:54:94:85:da:5e:da:1c:a4:0c:5a:31:78:47:
         07:37:c1:c7:fa:49:84:84:5e:a5:e3:67:83:66:55:b1:9b:06:
         c2:4f:75:83:19:4a:1f:86:33:14:08:10:90:fa:6a:5d:a8:d0:
         69:8c:8b:9b:36:9a:80:2e:bc:f8:ec:8f:12:22:75:78:b9:eb:
         ff:02:90:d3:77:32:16:ab:78:c8:62:46:22:78:c6:c1:22:30:
         8e:a0:7a:78:1d:9f:14:fe:bf:39:f3:d2:d3:4f:65:32:5d:26:
         8c:02:c1:9d:55:94:dd:ec:e1:b8:ab:0a:08:ff:7f:9f:ba:55:
         88:23:72:d5:79:1d:e7:b0:54:9c:a6:bf:fa:7f:73:bc:19:ac:
         b3:38:ab:d0:00:33:c2:dd:cb:30:69:98:4b:d5:5b:a6:f8:cd:
         00:19:9c:dd
-----BEGIN CERTIFICATE-----
MIIEdTCCA12gAwIBAgIBKTANBgkqhkiG9w0BAQsFADBpMQswCQYDVQQGEwJVUzET
MBEGA1UECAwKQ2FsaWZvcm5pYTEUMBIGA1UEBwwLU2FudGEgQ2xhcmExDTALBgNV
BAoMBHBrZzUxDDAKBgNVBAMMA3RhNTESMBAGCSqGSIb3DQEJARYDdGE1MB4XDTE2
MDEyMjAxNTc1OVoXDTE4MTAxODAxNTc1OVowcTELMAkGA1UEBhMCVVMxEzARBgNV
BAgMCkNhbGlmb3JuaWExFDASBgNVBAcMC1NhbnRhIENsYXJhMQ0wCwYDVQQKDARw
a2c1MRAwDgYDVQQDDAdjaDFfdGE1MRYwFAYJKoZIhvcNAQkBFgdjaDFfdGE1MIIB
IjANBgkqhkiG9w0BAQEFAAOCAQ8AMIIBCgKCAQEAxDDvsHdORFjKcqzqN16NTqGJ
e7H/7trh+zo8t0Q3r3nJriHG0m0naKiss3dPmrlRr/lHv0ls9iH5uXgutKUp25YG
aizGJW7p61kBwcY07x1hj19V2PxCrBJfjLFR2vaCekn0KnIVsBosfuVKM2TKraJ7
N6p+mqvO5hjek1hHM77nSNrFlar8/4O5AHQ53SG401s94yjvEVllm5ZZpf4Iq46A
ujIJOByhsZnbPpAO5s1R1E91mGfDQnF2CrTh+0TAijXZotN74AxNS2cG7lwGcoEl
vbFc2xlV45rurlhGYFyi3/WJCUg/zX+bIA6E74xa6l6ZWUuRrxhdCgjDDDiHbwID
AQABo4IBHjCCARowHQYDVR0OBBYEFKuFMT9eqr3AWayiBKrXKegZrvv0MIGbBgNV
HSMEgZMwgZCAFNxmFe6r9lO3Y+Wwy7jw1GG1J5Q/oW2kazBpMQswCQYDVQQGEwJV
UzETMBEGA1UECAwKQ2FsaWZvcm5pYTEUMBIGA1UEBwwLU2FudGEgQ2xhcmExDTAL
BgNVBAoMBHBrZzUxDDAKBgNVBAMMA3RhNTESMBAGCSqGSIb3DQEJARYDdGE1ggkA
qd0UMtUZeuowDwYDVR0TAQH/BAUwAwEB/zA6BgNVHR8EMzAxMC+gLaArhilodHRw
Oi8vbG9jYWxob3N0OjEyMDAxL2ZpbGUvMC90YTVfY3JsLnBlbTAOBgNVHQ8BAf8E
BAMCAQYwDQYJKoZIhvcNAQELBQADggEBABO8W7CvHBeIjU8r7hw7sv0vucMY1ggd
P0YxVsqX7NaWGLTwnprGyVK8s+nybCepKVQz+hVZFrfoDNdKqTQCGXJDVsCt0rTA
Yb4i5eXPaIpcULHuXTg9g2UnWKYQ7kYXVJSF2l7aHKQMWjF4Rwc3wcf6SYSEXqXj
Z4NmVbGbBsJPdYMZSh+GMxQIEJD6al2o0GmMi5s2moAuvPjsjxIidXi56/8CkNN3
MhareMhiRiJ4xsEiMI6gengdnxT+vznz0tNPZTJdJowCwZ1VlN3s4birCgj/f5+6
VYgjctV5HeewVJymv/p/c7wZrLM4q9AAM8LdyzBpmEvVW6b4zQAZnN0=
-----END CERTIFICATE-----
