Certificate:
    Data:
        Version: 3 (0x2)
        Serial Number: 28 (0x1c)
    Signature Algorithm: sha256WithRSAEncryption
        Issuer: C=US, ST=California, L=Santa Clara, O=pkg5, CN=ta3/emailAddress=ta3
        Validity
            Not Before: Jan  1 01:01:01 2009 GMT
            Not After : Jan  2 01:01:01 2009 GMT
        Subject: C=US, ST=California, L=Santa Clara, O=pkg5, CN=ch1.2_ta3/emailAddress=ch1.2_ta3
        Subject Public Key Info:
            Public Key Algorithm: rsaEncryption
                Public-Key: (2048 bit)
                Modulus:
                    00:c1:0d:b7:ed:52:86:06:cb:d8:19:a7:e0:b5:7b:
                    af:bf:d1:0d:79:3a:50:85:eb:6c:bc:e2:14:4e:a8:
                    9d:c2:32:20:4d:e6:73:b4:3d:5e:e6:0f:ae:78:b0:
                    bb:ec:e3:d7:33:90:fc:4f:87:38:ac:19:9c:9b:36:
                    ba:3f:5c:ff:06:c8:89:81:a3:a7:13:52:43:c5:a3:
                    af:02:6a:a0:4a:01:83:21:c9:82:6e:1e:7b:4c:d3:
                    60:94:6f:d5:ef:f2:0a:8f:9a:4c:b5:cf:12:5a:21:
                    1d:88:c5:3c:d8:1c:64:ec:41:ea:d1:6f:d4:f4:3a:
                    00:2a:64:1d:26:19:51:86:40:61:04:d1:db:cf:f1:
                    d9:1e:ab:6b:c9:06:29:91:90:11:ea:e6:24:ff:86:
                    1e:69:b9:c8:01:af:12:3a:25:82:d9:e8:71:5b:07:
                    f9:e7:7c:fd:50:60:61:79:9b:4e:6c:32:fb:5d:40:
                    7f:59:a7:dd:08:49:19:91:da:b7:40:9b:b1:13:7c:
                    49:1e:2c:15:18:68:2d:e1:2f:70:53:78:74:a2:a8:
                    a1:ab:a7:09:c5:6b:c2:6c:30:92:9c:d3:df:31:de:
                    16:60:79:f5:0e:9d:48:87:61:87:64:ab:05:5c:ef:
                    a5:28:19:7c:77:94:ea:69:0f:67:b3:0d:ff:33:f1:
                    ac:57
                Exponent: 65537 (0x10001)
        X509v3 extensions:
            X509v3 Subject Key Identifier: 
                E4:41:A6:A9:47:2A:7E:09:37:C6:B1:61:84:26:27:68:71:DC:75:C0
            X509v3 Authority Key Identifier: 
                keyid:F1:FE:91:A7:14:72:15:61:A7:C6:93:C7:91:B2:B7:F8:10:65:AA:16
                DirName:/C=US/ST=California/L=Santa Clara/O=pkg5/CN=ta3/emailAddress=ta3
                serial:B8:59:05:26:1A:C6:94:CC

            X509v3 Basic Constraints: critical
                CA:TRUE
            X509v3 Key Usage: critical
                Certificate Sign, CRL Sign
    Signature Algorithm: sha256WithRSAEncryption
         c0:3a:1f:c8:9d:90:78:c1:f7:f0:2a:28:79:73:f5:07:53:1f:
         43:b2:f2:31:a1:07:47:b1:3f:37:82:94:47:33:82:42:80:3e:
         c9:85:d9:9c:2c:b3:69:b3:f8:50:5d:c1:55:f6:9d:5e:b7:20:
         16:51:14:05:4a:89:0d:a4:45:ee:e4:cb:aa:35:cb:cd:2a:1a:
         ef:e7:6b:65:25:72:05:85:47:c5:05:62:38:67:23:ec:97:bf:
         ef:64:71:45:45:75:7c:03:52:2e:33:d4:00:48:f2:a4:fa:34:
         36:4c:2d:d3:e9:55:d5:c5:dd:d2:32:f8:2f:c5:6c:e1:56:8f:
         21:dc:59:7d:b2:62:b8:12:85:96:0a:65:2f:e2:6a:e8:ca:96:
         1f:9b:16:90:35:7a:04:83:39:20:03:d6:b5:80:8a:1d:2f:7d:
         4d:41:f0:8a:f3:01:44:55:7f:bb:d3:b7:a4:c5:5e:db:ed:47:
         fd:3c:ef:b1:05:3c:ad:e7:1a:94:7b:28:20:4b:91:b0:78:e2:
         e3:47:c4:3e:c5:f0:e2:29:39:71:a3:01:f5:3c:58:14:19:f5:
         77:f6:0c:86:50:9b:94:bc:37:a4:21:e1:37:99:63:77:d1:28:
         9e:65:23:07:1a:3d:c5:ab:85:d8:c8:b4:05:65:98:13:15:b5:
         74:52:f1:b0
-----BEGIN CERTIFICATE-----
MIIEOzCCAyOgAwIBAgIBHDANBgkqhkiG9w0BAQsFADBpMQswCQYDVQQGEwJVUzET
MBEGA1UECAwKQ2FsaWZvcm5pYTEUMBIGA1UEBwwLU2FudGEgQ2xhcmExDTALBgNV
BAoMBHBrZzUxDDAKBgNVBAMMA3RhMzESMBAGCSqGSIb3DQEJARYDdGEzMB4XDTA5
MDEwMTAxMDEwMVoXDTA5MDEwMjAxMDEwMVowdTELMAkGA1UEBhMCVVMxEzARBgNV
BAgMCkNhbGlmb3JuaWExFDASBgNVBAcMC1NhbnRhIENsYXJhMQ0wCwYDVQQKDARw
a2c1MRIwEAYDVQQDDAljaDEuMl90YTMxGDAWBgkqhkiG9w0BCQEWCWNoMS4yX3Rh
MzCCASIwDQYJKoZIhvcNAQEBBQADggEPADCCAQoCggEBAMENt+1ShgbL2Bmn4LV7
r7/RDXk6UIXrbLziFE6oncIyIE3mc7Q9XuYPrniwu+zj1zOQ/E+HOKwZnJs2uj9c
/wbIiYGjpxNSQ8WjrwJqoEoBgyHJgm4ee0zTYJRv1e/yCo+aTLXPElohHYjFPNgc
ZOxB6tFv1PQ6ACpkHSYZUYZAYQTR28/x2R6ra8kGKZGQEermJP+GHmm5yAGvEjol
gtnocVsH+ed8/VBgYXmbTmwy+11Af1mn3QhJGZHat0CbsRN8SR4sFRhoLeEvcFN4
dKKooaunCcVrwmwwkpzT3zHeFmB59Q6dSIdhh2SrBVzvpSgZfHeU6mkPZ7MN/zPx
rFcCAwEAAaOB4TCB3jAdBgNVHQ4EFgQU5EGmqUcqfgk3xrFhhCYnaHHcdcAwgZsG
A1UdIwSBkzCBkIAU8f6RpxRyFWGnxpPHkbK3+BBlqhahbaRrMGkxCzAJBgNVBAYT
AlVTMRMwEQYDVQQIDApDYWxpZm9ybmlhMRQwEgYDVQQHDAtTYW50YSBDbGFyYTEN
MAsGA1UECgwEcGtnNTEMMAoGA1UEAwwDdGEzMRIwEAYJKoZIhvcNAQkBFgN0YTOC
CQC4WQUmGsaUzDAPBgNVHRMBAf8EBTADAQH/MA4GA1UdDwEB/wQEAwIBBjANBgkq
hkiG9w0BAQsFAAOCAQEAwDofyJ2QeMH38CooeXP1B1MfQ7LyMaEHR7E/N4KURzOC
QoA+yYXZnCyzabP4UF3BVfadXrcgFlEUBUqJDaRF7uTLqjXLzSoa7+drZSVyBYVH
xQViOGcj7Je/72RxRUV1fANSLjPUAEjypPo0Nkwt0+lV1cXd0jL4L8Vs4VaPIdxZ
fbJiuBKFlgplL+Jq6MqWH5sWkDV6BIM5IAPWtYCKHS99TUHwivMBRFV/u9O3pMVe
2+1H/TzvsQU8recalHsoIEuRsHji40fEPsXw4ik5caMB9TxYFBn1d/YMhlCblLw3
pCHhN5ljd9EonmUjBxo9xauF2Mi0BWWYExW1dFLxsA==
-----END CERTIFICATE-----
