Certificate:
    Data:
        Version: 3 (0x2)
        Serial Number: 28 (0x1c)
        Signature Algorithm: sha256WithRSAEncryption
        Issuer: C=US, ST=California, L=Menlo Park, O=pkg5, CN=ta3/emailAddress=ta3
        Validity
            Not Before: Jan  1 01:01:01 2009 GMT
            Not After : Jan  2 01:01:01 2009 GMT
        Subject: C=US, ST=California, L=Menlo Park, O=pkg5, CN=ch1.2_ta3/emailAddress=ch1.2_ta3
        Subject Public Key Info:
            Public Key Algorithm: rsaEncryption
            RSA Public Key: (1024 bit)
                Modulus (1024 bit):
                    00:c7:97:bd:7a:78:72:f6:bb:6f:5b:ca:07:34:d8:
                    70:93:94:39:d6:9c:73:b2:58:c6:fa:10:eb:8e:c7:
                    54:39:fd:9a:35:f5:2c:a4:ae:e6:ca:a2:9c:07:0c:
                    57:05:78:cc:8b:98:2e:39:e8:74:73:28:bf:f7:bf:
                    d1:fb:5d:10:9d:f0:19:75:9d:35:fe:50:97:76:70:
                    6d:00:79:66:1a:2f:af:c6:12:45:16:45:ea:3e:f0:
                    90:3b:56:9d:ed:f7:70:ba:de:f7:ec:55:2b:ee:b1:
                    9b:fb:1d:55:46:65:86:c3:1b:9e:50:b9:8c:b9:d3:
                    02:73:aa:e6:1e:4d:11:2b:bf
                Exponent: 65537 (0x10001)
        X509v3 extensions:
            X509v3 Subject Key Identifier: 
                5A:E6:5A:C4:85:7D:C2:25:75:F9:C2:6A:93:15:18:69:7F:57:47:7C
            X509v3 Authority Key Identifier: 
                keyid:7A:F6:51:7A:7F:9B:AB:37:3D:4E:93:03:90:6D:6A:84:09:7C:3A:DD
                DirName:/C=US/ST=California/L=Menlo Park/O=pkg5/CN=ta3/emailAddress=ta3
                serial:F4:58:54:6A:83:22:66:E9

            X509v3 Basic Constraints: critical
                CA:TRUE
            X509v3 Key Usage: critical
                Certificate Sign, CRL Sign
    Signature Algorithm: sha256WithRSAEncryption
        23:82:0a:78:02:e9:9f:de:a1:62:2d:47:42:8d:f8:88:26:cf:
        3b:31:64:91:56:e1:50:eb:46:12:61:6b:e4:bd:97:43:f5:f7:
        33:b4:92:34:62:31:8b:df:7c:13:44:ed:04:24:73:4a:35:17:
        98:15:ad:75:3f:33:bf:86:84:e2:29:34:7e:de:90:a1:99:f5:
        8a:37:85:98:7d:8e:71:64:6a:1d:aa:47:57:9d:ad:e3:07:90:
        0a:06:7c:08:e2:97:25:20:38:c9:41:62:d5:96:fb:fe:0e:b4:
        1c:e1:20:75:7d:6a:f3:62:1d:cc:72:90:a6:13:58:48:af:e4:
        c9:b1
-----BEGIN CERTIFICATE-----
MIIDMzCCApygAwIBAgIBHDANBgkqhkiG9w0BAQsFADBoMQswCQYDVQQGEwJVUzET
MBEGA1UECBMKQ2FsaWZvcm5pYTETMBEGA1UEBxMKTWVubG8gUGFyazENMAsGA1UE
ChMEcGtnNTEMMAoGA1UEAxMDdGEzMRIwEAYJKoZIhvcNAQkBFgN0YTMwHhcNMDkw
MTAxMDEwMTAxWhcNMDkwMTAyMDEwMTAxWjB0MQswCQYDVQQGEwJVUzETMBEGA1UE
CBMKQ2FsaWZvcm5pYTETMBEGA1UEBxMKTWVubG8gUGFyazENMAsGA1UEChMEcGtn
NTESMBAGA1UEAxQJY2gxLjJfdGEzMRgwFgYJKoZIhvcNAQkBFgljaDEuMl90YTMw
gZ8wDQYJKoZIhvcNAQEBBQADgY0AMIGJAoGBAMeXvXp4cva7b1vKBzTYcJOUOdac
c7JYxvoQ647HVDn9mjX1LKSu5sqinAcMVwV4zIuYLjnodHMov/e/0ftdEJ3wGXWd
Nf5Ql3ZwbQB5Zhovr8YSRRZF6j7wkDtWne33cLre9+xVK+6xm/sdVUZlhsMbnlC5
jLnTAnOq5h5NESu/AgMBAAGjgeAwgd0wHQYDVR0OBBYEFFrmWsSFfcIldfnCapMV
GGl/V0d8MIGaBgNVHSMEgZIwgY+AFHr2UXp/m6s3PU6TA5BtaoQJfDrdoWykajBo
MQswCQYDVQQGEwJVUzETMBEGA1UECBMKQ2FsaWZvcm5pYTETMBEGA1UEBxMKTWVu
bG8gUGFyazENMAsGA1UEChMEcGtnNTEMMAoGA1UEAxMDdGEzMRIwEAYJKoZIhvcN
AQkBFgN0YTOCCQD0WFRqgyJm6TAPBgNVHRMBAf8EBTADAQH/MA4GA1UdDwEB/wQE
AwIBBjANBgkqhkiG9w0BAQsFAAOBgQAjggp4Aumf3qFiLUdCjfiIJs87MWSRVuFQ
60YSYWvkvZdD9fcztJI0YjGL33wTRO0EJHNKNReYFa11PzO/hoTiKTR+3pChmfWK
N4WYfY5xZGodqkdXna3jB5AKBnwI4pclIDjJQWLVlvv+DrQc4SB1fWrzYh3McpCm
E1hIr+TJsQ==
-----END CERTIFICATE-----
