Certificate:
    Data:
        Version: 3 (0x2)
        Serial Number: 32 (0x20)
        Signature Algorithm: sha256WithRSAEncryption
        Issuer: C=US, ST=California, L=Menlo Park, O=pkg5, CN=ta3/emailAddress=ta3
        Validity
            Not Before: Jan  1 01:01:01 2035 GMT
            Not After : Jan  2 01:01:01 2035 GMT
        Subject: C=US, ST=California, L=Menlo Park, O=pkg5, CN=ch1.4_ta3/emailAddress=ch1.4_ta3
        Subject Public Key Info:
            Public Key Algorithm: rsaEncryption
            RSA Public Key: (1024 bit)
                Modulus (1024 bit):
                    00:cc:54:a0:55:75:b1:69:33:96:b6:97:29:82:06:
                    06:46:f2:43:2f:19:57:bf:92:f0:4e:b5:01:65:d3:
                    dc:e3:cf:5e:a9:f5:99:8e:91:e9:ad:88:15:8b:25:
                    5e:92:c6:fd:d6:9e:e5:27:56:59:4a:09:e0:84:b8:
                    86:af:bb:9d:e9:d2:99:f9:84:48:d6:b6:35:e8:aa:
                    e0:b3:ac:94:09:7f:b8:67:53:75:26:65:16:b7:cf:
                    92:52:be:5f:07:da:dd:f8:b1:1c:7c:54:37:7f:66:
                    f7:dc:97:cd:d2:0d:fa:58:a4:2e:96:b8:83:fe:e2:
                    3d:b6:fb:c5:08:46:ba:1b:47
                Exponent: 65537 (0x10001)
        X509v3 extensions:
            X509v3 Subject Key Identifier: 
                F8:0C:60:C6:C6:4D:79:11:F2:CD:D2:91:28:DF:F6:26:6C:BB:B0:ED
            X509v3 Authority Key Identifier: 
                keyid:7A:F6:51:7A:7F:9B:AB:37:3D:4E:93:03:90:6D:6A:84:09:7C:3A:DD
                DirName:/C=US/ST=California/L=Menlo Park/O=pkg5/CN=ta3/emailAddress=ta3
                serial:F4:58:54:6A:83:22:66:E9

            X509v3 Basic Constraints: critical
                CA:TRUE
    Signature Algorithm: sha256WithRSAEncryption
        c8:ba:31:b9:ed:17:ae:ac:ca:cd:4d:48:f6:b6:66:1c:17:c5:
        8a:18:96:e8:9b:47:de:b3:7e:23:21:78:cc:f9:63:09:4e:56:
        64:a1:de:33:16:8b:6a:94:c1:68:0a:72:dd:8e:b6:8c:dd:61:
        cf:05:07:12:e3:4f:41:52:bc:73:33:a5:3e:94:ca:40:53:74:
        a7:9c:46:f2:73:5b:b7:7f:df:18:7f:60:2f:2d:4b:41:8c:78:
        c4:5f:4c:a8:85:a4:2c:84:91:b3:ab:60:61:ca:93:67:1b:2a:
        0e:9a:e1:e8:a5:dc:5e:78:18:a3:b3:4b:86:4d:03:08:78:9b:
        70:bc
-----BEGIN CERTIFICATE-----
MIIDIzCCAoygAwIBAgIBIDANBgkqhkiG9w0BAQsFADBoMQswCQYDVQQGEwJVUzET
MBEGA1UECBMKQ2FsaWZvcm5pYTETMBEGA1UEBxMKTWVubG8gUGFyazENMAsGA1UE
ChMEcGtnNTEMMAoGA1UEAxMDdGEzMRIwEAYJKoZIhvcNAQkBFgN0YTMwHhcNMzUw
MTAxMDEwMTAxWhcNMzUwMTAyMDEwMTAxWjB0MQswCQYDVQQGEwJVUzETMBEGA1UE
CBMKQ2FsaWZvcm5pYTETMBEGA1UEBxMKTWVubG8gUGFyazENMAsGA1UEChMEcGtn
NTESMBAGA1UEAxQJY2gxLjRfdGEzMRgwFgYJKoZIhvcNAQkBFgljaDEuNF90YTMw
gZ8wDQYJKoZIhvcNAQEBBQADgY0AMIGJAoGBAMxUoFV1sWkzlraXKYIGBkbyQy8Z
V7+S8E61AWXT3OPPXqn1mY6R6a2IFYslXpLG/dae5SdWWUoJ4IS4hq+7nenSmfmE
SNa2Neiq4LOslAl/uGdTdSZlFrfPklK+Xwfa3fixHHxUN39m99yXzdIN+likLpa4
g/7iPbb7xQhGuhtHAgMBAAGjgdAwgc0wHQYDVR0OBBYEFPgMYMbGTXkR8s3SkSjf
9iZsu7DtMIGaBgNVHSMEgZIwgY+AFHr2UXp/m6s3PU6TA5BtaoQJfDrdoWykajBo
MQswCQYDVQQGEwJVUzETMBEGA1UECBMKQ2FsaWZvcm5pYTETMBEGA1UEBxMKTWVu
bG8gUGFyazENMAsGA1UEChMEcGtnNTEMMAoGA1UEAxMDdGEzMRIwEAYJKoZIhvcN
AQkBFgN0YTOCCQD0WFRqgyJm6TAPBgNVHRMBAf8EBTADAQH/MA0GCSqGSIb3DQEB
CwUAA4GBAMi6MbntF66sys1NSPa2ZhwXxYoYluibR96zfiMheMz5YwlOVmSh3jMW
i2qUwWgKct2OtozdYc8FBxLjT0FSvHMzpT6UykBTdKecRvJzW7d/3xh/YC8tS0GM
eMRfTKiFpCyEkbOrYGHKk2cbKg6a4eil3F54GKOzS4ZNAwh4m3C8
-----END CERTIFICATE-----
