Certificate:
    Data:
        Version: 3 (0x2)
        Serial Number: 30 (0x1e)
    Signature Algorithm: sha256WithRSAEncryption
        Issuer: C=US, ST=California, L=Santa Clara, O=pkg5, CN=ta3/emailAddress=ta3
        Validity
            Not Before: Jan  1 01:01:01 2035 GMT
            Not After : Jan  2 01:01:01 2035 GMT
        Subject: C=US, ST=California, L=Santa Clara, O=pkg5, CN=ch1.3_ta3/emailAddress=ch1.3_ta3
        Subject Public Key Info:
            Public Key Algorithm: rsaEncryption
                Public-Key: (2048 bit)
                Modulus:
                    00:cf:71:86:bb:b2:ac:d0:bd:e9:3a:de:9a:99:3f:
                    28:2d:bd:33:b4:d8:f3:bd:0a:01:ce:87:48:f0:dc:
                    8a:d1:9c:ff:31:f3:f9:95:a2:74:8e:f9:01:5f:52:
                    66:2b:9d:ed:36:d3:4c:15:4f:89:70:bb:4c:f0:b4:
                    41:44:19:16:8e:14:5b:e0:5d:2d:bc:17:ad:46:44:
                    98:6d:bb:79:b7:03:d6:25:1e:15:49:29:e6:be:c1:
                    ab:ea:27:21:6f:dc:bc:99:ab:c2:1d:b9:9c:de:40:
                    b2:e1:4d:de:62:0a:be:b9:57:e1:63:21:20:cb:a6:
                    26:93:da:62:44:73:7d:c8:c1:8e:30:94:06:e9:a0:
                    43:8d:ff:4f:0c:2a:4d:2d:de:9f:d6:d0:41:61:51:
                    f7:11:d6:29:a5:c6:34:72:62:85:ef:1b:3a:40:ac:
                    40:98:3a:0f:31:f8:96:31:e5:a7:62:c0:c3:b5:41:
                    dd:a4:27:40:1c:dc:1c:95:d3:ec:27:65:17:4c:2b:
                    e2:01:f8:2c:7a:c6:00:87:18:e4:cc:d7:45:87:6b:
                    df:ca:cd:0f:20:fd:fd:a5:81:0e:76:8d:2e:1f:e1:
                    4c:bb:35:46:35:b2:a9:8a:62:bf:57:6d:06:6a:21:
                    17:5f:a1:4c:4b:28:75:f2:5d:dd:b8:f6:f4:bd:69:
                    5a:dd
                Exponent: 65537 (0x10001)
        X509v3 extensions:
            X509v3 Subject Key Identifier: 
                E2:2B:B3:C1:71:2B:04:44:84:92:2F:95:CE:12:B5:0D:58:6F:53:52
            X509v3 Authority Key Identifier: 
                keyid:CB:9F:D9:B5:D9:C8:81:12:9B:8E:95:9D:97:1F:DB:47:09:05:39:09
                DirName:/C=US/ST=California/L=Santa Clara/O=pkg5/CN=ta3/emailAddress=ta3
                serial:F3:7D:D2:B8:8F:C0:94:19

            X509v3 Basic Constraints: critical
                CA:TRUE
            X509v3 Key Usage: critical
                Certificate Sign, CRL Sign
    Signature Algorithm: sha256WithRSAEncryption
         17:9b:55:76:79:6e:c5:71:85:02:df:31:4b:02:6f:66:9f:15:
         e6:0e:71:a8:16:17:9d:4b:3e:26:d1:41:43:14:d2:3f:ae:cb:
         bc:db:2e:6c:0b:7c:9c:99:8b:76:65:36:2e:0c:b2:85:bc:7c:
         01:42:36:46:94:3a:45:80:b8:c5:c5:ea:94:0f:78:d8:77:91:
         0b:19:db:08:5a:71:d9:ec:1b:c4:8b:5d:6f:41:db:dd:65:a2:
         65:d8:da:9d:cd:e0:f3:7a:65:27:e4:dd:15:53:8a:3a:7e:74:
         f8:9f:62:10:bb:b0:97:d1:07:27:f2:8d:79:bb:5a:1e:3a:b0:
         30:4b:63:96:08:a0:57:b2:15:c8:0e:46:be:fd:0c:f3:94:0c:
         49:bc:a2:5f:0d:25:fe:3a:cf:33:58:c5:bd:c2:5b:52:d2:8e:
         3c:70:f2:6c:0b:40:ea:29:bd:64:9b:55:73:b0:e4:9c:b4:7f:
         9e:36:80:dd:46:8d:4d:69:91:85:46:0e:34:6c:a2:ee:17:49:
         3e:34:3b:2a:b9:42:e7:68:17:ea:25:1c:66:37:6d:4b:a2:3d:
         10:18:53:bb:32:bf:e0:e3:8c:a1:bd:32:78:eb:2d:49:03:56:
         43:14:bf:62:0f:a6:a0:e3:e9:af:8e:09:e2:27:e9:9c:c1:19:
         95:5a:b1:1a
-----BEGIN CERTIFICATE-----
MIIEOzCCAyOgAwIBAgIBHjANBgkqhkiG9w0BAQsFADBpMQswCQYDVQQGEwJVUzET
MBEGA1UECAwKQ2FsaWZvcm5pYTEUMBIGA1UEBwwLU2FudGEgQ2xhcmExDTALBgNV
BAoMBHBrZzUxDDAKBgNVBAMMA3RhMzESMBAGCSqGSIb3DQEJARYDdGEzMB4XDTM1
MDEwMTAxMDEwMVoXDTM1MDEwMjAxMDEwMVowdTELMAkGA1UEBhMCVVMxEzARBgNV
BAgMCkNhbGlmb3JuaWExFDASBgNVBAcMC1NhbnRhIENsYXJhMQ0wCwYDVQQKDARw
a2c1MRIwEAYDVQQDDAljaDEuM190YTMxGDAWBgkqhkiG9w0BCQEWCWNoMS4zX3Rh
MzCCASIwDQYJKoZIhvcNAQEBBQADggEPADCCAQoCggEBAM9xhruyrNC96Trempk/
KC29M7TY870KAc6HSPDcitGc/zHz+ZWidI75AV9SZiud7TbTTBVPiXC7TPC0QUQZ
Fo4UW+BdLbwXrUZEmG27ebcD1iUeFUkp5r7Bq+onIW/cvJmrwh25nN5AsuFN3mIK
vrlX4WMhIMumJpPaYkRzfcjBjjCUBumgQ43/TwwqTS3en9bQQWFR9xHWKaXGNHJi
he8bOkCsQJg6DzH4ljHlp2LAw7VB3aQnQBzcHJXT7CdlF0wr4gH4LHrGAIcY5MzX
RYdr38rNDyD9/aWBDnaNLh/hTLs1RjWyqYpiv1dtBmohF1+hTEsodfJd3bj29L1p
Wt0CAwEAAaOB4TCB3jAdBgNVHQ4EFgQU4iuzwXErBESEki+VzhK1DVhvU1IwgZsG
A1UdIwSBkzCBkIAUy5/ZtdnIgRKbjpWdlx/bRwkFOQmhbaRrMGkxCzAJBgNVBAYT
AlVTMRMwEQYDVQQIDApDYWxpZm9ybmlhMRQwEgYDVQQHDAtTYW50YSBDbGFyYTEN
MAsGA1UECgwEcGtnNTEMMAoGA1UEAwwDdGEzMRIwEAYJKoZIhvcNAQkBFgN0YTOC
CQDzfdK4j8CUGTAPBgNVHRMBAf8EBTADAQH/MA4GA1UdDwEB/wQEAwIBBjANBgkq
hkiG9w0BAQsFAAOCAQEAF5tVdnluxXGFAt8xSwJvZp8V5g5xqBYXnUs+JtFBQxTS
P67LvNsubAt8nJmLdmU2Lgyyhbx8AUI2RpQ6RYC4xcXqlA942HeRCxnbCFpx2ewb
xItdb0Hb3WWiZdjanc3g83plJ+TdFVOKOn50+J9iELuwl9EHJ/KNebtaHjqwMEtj
lgigV7IVyA5Gvv0M85QMSbyiXw0l/jrPM1jFvcJbUtKOPHDybAtA6im9ZJtVc7Dk
nLR/njaA3UaNTWmRhUYONGyi7hdJPjQ7KrlC52gX6iUcZjdtS6I9EBhTuzK/4OOM
ob0yeOstSQNWQxS/Yg+moOPpr44J4ifpnMEZlVqxGg==
-----END CERTIFICATE-----
