Certificate:
    Data:
        Version: 3 (0x2)
        Serial Number: 26 (0x1a)
        Signature Algorithm: sha256WithRSAEncryption
        Issuer: C=US, ST=California, L=Santa Clara, O=pkg5, CN=ta3/emailAddress=ta3
        Validity
            Not Before: Mar 18 08:51:38 2026 GMT
            Not After : Dec 12 08:51:38 2028 GMT
        Subject: C=US, ST=California, L=Santa Clara, O=pkg5, CN=ch1.1_ta3/emailAddress=ch1.1_ta3
        Subject Public Key Info:
            Public Key Algorithm: rsaEncryption
                Public-Key: (2048 bit)
                Modulus:
                    00:bc:0b:cd:f5:d1:85:9e:7d:5c:5d:5c:15:96:a8:
                    2b:0d:90:a6:47:a7:c0:3b:00:5e:f7:7f:58:3d:13:
                    0e:06:60:f0:1b:38:33:23:d7:20:48:3d:e0:98:65:
                    82:11:06:9d:0f:7e:29:4b:fd:b1:1f:47:4e:6e:7a:
                    bd:67:5e:4f:e6:54:c7:ac:44:08:60:12:48:ba:4e:
                    82:dc:4f:53:86:fb:d0:d9:7d:be:67:fe:2b:30:98:
                    a3:58:94:f7:fc:72:8b:9d:ac:d6:15:f3:a1:85:f2:
                    e1:f0:b1:17:92:69:dd:3c:a7:8d:dd:8d:9f:4c:68:
                    6e:1a:88:81:d9:b2:0a:f0:f8:79:09:8d:d3:d3:c5:
                    a0:c2:7e:87:c9:4a:bd:c2:ce:91:35:b2:be:eb:0f:
                    cd:c7:ea:8b:bd:c1:0e:3a:84:3c:05:88:5e:2f:b4:
                    46:6f:92:47:5a:f9:14:d6:dd:12:f6:73:19:3f:38:
                    fb:7e:73:ae:c5:35:59:46:e9:4d:42:94:d9:35:ad:
                    ff:f6:1f:b7:77:05:87:eb:d6:cc:80:dc:63:89:3a:
                    13:24:45:eb:b6:9d:74:e1:1b:ed:0f:04:63:b2:2a:
                    b0:c4:66:9e:bd:ad:00:36:af:51:e8:32:7b:1c:0b:
                    96:aa:aa:42:12:5c:67:9c:3a:fe:0b:a2:5e:e9:5f:
                    b5:6d
                Exponent: 65537 (0x10001)
        X509v3 extensions:
            X509v3 Basic Constraints: critical
                CA:TRUE
            X509v3 Issuer Alternative Name: critical
                <EMPTY>

            X509v3 Subject Key Identifier: 
                E8:99:C4:9E:0C:BF:1A:B0:CD:0E:00:69:23:55:F9:FE:1A:E6:93:03
            X509v3 Authority Key Identifier: 
                43:54:28:1A:4B:3C:F9:91:B3:CB:00:A8:B8:90:E4:B7:6F:B6:22:CD
    Signature Algorithm: sha256WithRSAEncryption
    Signature Value:
        38:ea:a0:98:bc:67:9b:53:57:6e:8f:3d:8a:eb:45:6b:52:63:
        8c:09:25:51:41:cf:9e:e8:e1:c4:f9:30:22:5b:c8:a0:98:b9:
        97:f6:1e:7d:c3:de:f4:60:90:91:0e:ab:00:a0:13:29:55:3d:
        e1:5c:f7:e4:c7:96:b7:6b:95:8a:d3:92:08:5d:53:5d:90:a2:
        2e:05:d1:f6:be:3e:80:9e:31:8b:66:7b:0f:ef:ec:8e:aa:e2:
        e2:1c:5f:ff:bc:1f:d5:f6:8b:64:9d:71:6a:14:8d:1b:f6:37:
        69:91:3f:c6:63:25:f8:00:e8:0e:73:06:d9:7e:88:a5:9d:6b:
        8a:c2:5d:eb:ad:ef:e2:81:ed:6f:84:0b:40:31:20:94:43:3c:
        4c:d6:a6:d4:32:c3:32:4d:d2:15:78:52:d0:19:69:1e:53:32:
        ad:55:93:1f:64:31:59:29:a2:f5:e7:04:eb:d6:b4:7d:ed:b5:
        a3:a1:2d:0c:d3:eb:71:7b:8f:a4:40:82:36:37:ce:f3:75:bd:
        ec:ca:f4:ec:78:7a:32:25:0b:4a:8a:ea:40:24:0a:24:54:cf:
        97:5d:c3:61:1f:55:fa:b8:33:0a:b6:1a:3f:e7:43:2f:b9:17:
        26:bb:d1:4c:ee:94:5a:5b:75:8d:ab:b6:7e:17:b2:0a:71:bf:
        18:ce:8b:20
-----BEGIN CERTIFICATE-----
MIIDujCCAqKgAwIBAgIBGjANBgkqhkiG9w0BAQsFADBpMQswCQYDVQQGEwJVUzET
MBEGA1UECAwKQ2FsaWZvcm5pYTEUMBIGA1UEBwwLU2FudGEgQ2xhcmExDTALBgNV
BAoMBHBrZzUxDDAKBgNVBAMMA3RhMzESMBAGCSqGSIb3DQEJARYDdGEzMB4XDTI2
MDMxODA4NTEzOFoXDTI4MTIxMjA4NTEzOFowdTELMAkGA1UEBhMCVVMxEzARBgNV
BAgMCkNhbGlmb3JuaWExFDASBgNVBAcMC1NhbnRhIENsYXJhMQ0wCwYDVQQKDARw
a2c1MRIwEAYDVQQDDAljaDEuMV90YTMxGDAWBgkqhkiG9w0BCQEWCWNoMS4xX3Rh
MzCCASIwDQYJKoZIhvcNAQEBBQADggEPADCCAQoCggEBALwLzfXRhZ59XF1cFZao
Kw2QpkenwDsAXvd/WD0TDgZg8Bs4MyPXIEg94JhlghEGnQ9+KUv9sR9HTm56vWde
T+ZUx6xECGASSLpOgtxPU4b70Nl9vmf+KzCYo1iU9/xyi52s1hXzoYXy4fCxF5Jp
3Tynjd2Nn0xobhqIgdmyCvD4eQmN09PFoMJ+h8lKvcLOkTWyvusPzcfqi73BDjqE
PAWIXi+0Rm+SR1r5FNbdEvZzGT84+35zrsU1WUbpTUKU2TWt//Yft3cFh+vWzIDc
Y4k6EyRF67addOEb7Q8EY7IqsMRmnr2tADavUegyexwLlqqqQhJcZ5w6/guiXulf
tW0CAwEAAaNhMF8wDwYDVR0TAQH/BAUwAwEB/zAMBgNVHRIBAf8EAjAAMB0GA1Ud
DgQWBBTomcSeDL8asM0OAGkjVfn+GuaTAzAfBgNVHSMEGDAWgBRDVCgaSzz5kbPL
AKi4kOS3b7YizTANBgkqhkiG9w0BAQsFAAOCAQEAOOqgmLxnm1NXbo89iutFa1Jj
jAklUUHPnujhxPkwIlvIoJi5l/YefcPe9GCQkQ6rAKATKVU94Vz35MeWt2uVitOS
CF1TXZCiLgXR9r4+gJ4xi2Z7D+/sjqri4hxf/7wf1faLZJ1xahSNG/Y3aZE/xmMl
+ADoDnMG2X6IpZ1risJd663v4oHtb4QLQDEglEM8TNam1DLDMk3SFXhS0BlpHlMy
rVWTH2QxWSmi9ecE69a0fe21o6EtDNPrcXuPpECCNjfO83W97Mr07Hh6MiULSorq
QCQKJFTPl13DYR9V+rgzCrYaP+dDL7kXJrvRTO6UWlt1jau2fheyCnG/GM6LIA==
-----END CERTIFICATE-----
