Certificate:
    Data:
        Version: 3 (0x2)
        Serial Number: 32 (0x20)
    Signature Algorithm: sha256WithRSAEncryption
        Issuer: C=US, ST=California, L=Santa Clara, O=pkg5, CN=ta3/emailAddress=ta3
        Validity
            Not Before: Jan  1 01:01:01 2035 GMT
            Not After : Jan  2 01:01:01 2035 GMT
        Subject: C=US, ST=California, L=Santa Clara, O=pkg5, CN=ch1.4_ta3/emailAddress=ch1.4_ta3
        Subject Public Key Info:
            Public Key Algorithm: rsaEncryption
                Public-Key: (2048 bit)
                Modulus:
                    00:e0:dc:b9:05:8a:ba:2a:75:2e:b5:eb:73:b5:d3:
                    be:0f:3a:83:f4:c9:ac:03:93:d8:59:4f:7d:e4:81:
                    10:ac:3c:02:46:70:5d:9f:36:9d:ed:b6:51:3d:f4:
                    d8:b6:69:46:18:dc:b9:17:54:3e:1c:3e:7e:8c:0c:
                    9f:c3:30:d7:7e:41:85:48:01:67:19:3a:c1:25:64:
                    21:f3:90:e1:fc:68:64:94:7c:3b:e0:5f:1f:c7:42:
                    09:0a:62:41:97:0d:97:ba:ab:5f:43:cd:bf:9c:8a:
                    e3:8e:2b:4e:d7:7d:06:02:20:c3:78:1b:60:76:c8:
                    dd:b8:9b:ba:f6:10:57:f3:34:30:f9:25:5c:59:39:
                    8e:ad:72:60:a8:7c:77:99:d5:42:47:0f:d0:08:18:
                    7f:28:cf:95:a0:1a:be:e7:15:37:52:7b:f1:bd:27:
                    b0:22:80:6a:4d:02:c6:b1:4b:ad:c8:aa:9f:7f:6e:
                    30:54:d8:bf:f7:97:44:d7:2e:d5:3f:78:98:cf:fd:
                    9a:0f:f2:82:9a:c2:06:e5:fe:bf:12:ab:c4:5b:63:
                    02:79:0f:73:1d:0f:37:ed:61:ce:32:7f:6e:e2:fa:
                    58:1c:42:ec:6c:12:c1:1d:ed:2e:fb:c5:07:b6:fd:
                    68:7f:0a:59:06:59:03:36:27:e8:b3:1b:f5:ef:fc:
                    62:e9
                Exponent: 65537 (0x10001)
        X509v3 extensions:
            X509v3 Subject Key Identifier: 
                4D:EB:30:A0:E5:63:9C:E2:9B:19:46:8B:2A:AE:DE:DC:7F:8F:70:6A
            X509v3 Authority Key Identifier: 
                keyid:CB:9F:D9:B5:D9:C8:81:12:9B:8E:95:9D:97:1F:DB:47:09:05:39:09
                DirName:/C=US/ST=California/L=Santa Clara/O=pkg5/CN=ta3/emailAddress=ta3
                serial:F3:7D:D2:B8:8F:C0:94:19

            X509v3 Basic Constraints: critical
                CA:TRUE
    Signature Algorithm: sha256WithRSAEncryption
         28:d7:e0:d8:27:17:1a:64:c9:b2:0b:9f:6b:fd:69:ec:ad:7b:
         1a:39:d4:e9:70:82:83:d1:ce:c1:ac:26:03:4e:29:d3:01:90:
         2d:88:95:3e:1b:4f:11:a2:09:18:c9:a5:fb:1e:27:ce:b9:83:
         93:36:97:91:3a:f4:12:25:bb:80:3c:e6:09:ba:de:8d:7d:1f:
         ae:43:95:cb:13:8c:c7:c7:5d:45:66:40:fe:0c:58:46:f6:11:
         4a:a1:83:5e:13:f0:a6:65:21:47:3a:fe:e1:7c:f6:33:75:60:
         7c:af:19:df:8e:92:14:dc:c7:31:64:5f:e5:a8:fd:c3:c8:77:
         3a:c1:17:11:f4:34:28:dd:bb:50:e3:d1:67:1d:94:99:75:fb:
         6c:ed:a9:97:c2:64:16:4c:61:92:f8:04:1b:05:bf:ab:ef:e2:
         ca:37:ae:41:55:af:54:e1:f1:94:46:fd:1b:c7:2d:3b:c7:d9:
         b5:4b:75:de:23:a7:97:5f:37:8a:44:50:15:32:b6:d3:d5:49:
         7c:34:6a:8c:2e:88:79:bb:40:5d:57:fd:30:a1:eb:c8:1f:66:
         3c:60:ba:ce:1b:31:fd:a8:b3:e6:87:0b:c1:e8:0f:5c:86:3f:
         3c:35:44:ae:4c:8d:55:dd:0b:36:3d:f0:7d:1a:ed:f8:15:89:
         59:48:c3:f2
-----BEGIN CERTIFICATE-----
MIIEKzCCAxOgAwIBAgIBIDANBgkqhkiG9w0BAQsFADBpMQswCQYDVQQGEwJVUzET
MBEGA1UECAwKQ2FsaWZvcm5pYTEUMBIGA1UEBwwLU2FudGEgQ2xhcmExDTALBgNV
BAoMBHBrZzUxDDAKBgNVBAMMA3RhMzESMBAGCSqGSIb3DQEJARYDdGEzMB4XDTM1
MDEwMTAxMDEwMVoXDTM1MDEwMjAxMDEwMVowdTELMAkGA1UEBhMCVVMxEzARBgNV
BAgMCkNhbGlmb3JuaWExFDASBgNVBAcMC1NhbnRhIENsYXJhMQ0wCwYDVQQKDARw
a2c1MRIwEAYDVQQDDAljaDEuNF90YTMxGDAWBgkqhkiG9w0BCQEWCWNoMS40X3Rh
MzCCASIwDQYJKoZIhvcNAQEBBQADggEPADCCAQoCggEBAODcuQWKuip1LrXrc7XT
vg86g/TJrAOT2FlPfeSBEKw8AkZwXZ82ne22UT302LZpRhjcuRdUPhw+fowMn8Mw
135BhUgBZxk6wSVkIfOQ4fxoZJR8O+BfH8dCCQpiQZcNl7qrX0PNv5yK444rTtd9
BgIgw3gbYHbI3bibuvYQV/M0MPklXFk5jq1yYKh8d5nVQkcP0AgYfyjPlaAavucV
N1J78b0nsCKAak0CxrFLrciqn39uMFTYv/eXRNcu1T94mM/9mg/ygprCBuX+vxKr
xFtjAnkPcx0PN+1hzjJ/buL6WBxC7GwSwR3tLvvFB7b9aH8KWQZZAzYn6LMb9e/8
YukCAwEAAaOB0TCBzjAdBgNVHQ4EFgQUTeswoOVjnOKbGUaLKq7e3H+PcGowgZsG
A1UdIwSBkzCBkIAUy5/ZtdnIgRKbjpWdlx/bRwkFOQmhbaRrMGkxCzAJBgNVBAYT
AlVTMRMwEQYDVQQIDApDYWxpZm9ybmlhMRQwEgYDVQQHDAtTYW50YSBDbGFyYTEN
MAsGA1UECgwEcGtnNTEMMAoGA1UEAwwDdGEzMRIwEAYJKoZIhvcNAQkBFgN0YTOC
CQDzfdK4j8CUGTAPBgNVHRMBAf8EBTADAQH/MA0GCSqGSIb3DQEBCwUAA4IBAQAo
1+DYJxcaZMmyC59r/WnsrXsaOdTpcIKD0c7BrCYDTinTAZAtiJU+G08RogkYyaX7
HifOuYOTNpeROvQSJbuAPOYJut6NfR+uQ5XLE4zHx11FZkD+DFhG9hFKoYNeE/Cm
ZSFHOv7hfPYzdWB8rxnfjpIU3McxZF/lqP3DyHc6wRcR9DQo3btQ49FnHZSZdfts
7amXwmQWTGGS+AQbBb+r7+LKN65BVa9U4fGURv0bxy07x9m1S3XeI6eXXzeKRFAV
MrbT1Ul8NGqMLoh5u0BdV/0woevIH2Y8YLrOGzH9qLPmhwvB6A9chj88NUSuTI1V
3Qs2PfB9Gu34FYlZSMPy
-----END CERTIFICATE-----
