Certificate:
    Data:
        Version: 3 (0x2)
        Serial Number: 32 (0x20)
    Signature Algorithm: sha256WithRSAEncryption
        Issuer: C=US, ST=California, L=Santa Clara, O=pkg5, CN=ta3/emailAddress=ta3
        Validity
            Not Before: Jan  1 01:01:01 2035 GMT
            Not After : Jan  2 01:01:01 2035 GMT
        Subject: C=US, ST=California, L=Santa Clara, O=pkg5, CN=ch1.4_ta3/emailAddress=ch1.4_ta3
        Subject Public Key Info:
            Public Key Algorithm: rsaEncryption
                Public-Key: (2048 bit)
                Modulus:
                    00:a8:cf:70:5f:05:9d:44:f6:f2:38:9a:a6:c2:ad:
                    d1:ff:44:e0:93:b5:ae:e8:c9:23:42:91:71:0e:dc:
                    e5:a7:f1:88:5e:a9:a0:80:26:8e:cc:2b:a8:0c:87:
                    7a:56:dd:99:b6:ba:80:a4:dc:34:35:75:ca:ff:e8:
                    7f:82:d0:f4:2d:36:bf:4d:be:c0:a0:64:9b:a4:43:
                    e2:17:63:26:4c:1b:d1:3f:b3:78:3d:aa:4a:73:5f:
                    51:dc:87:dd:ae:74:cc:a9:d2:cc:64:43:f2:01:6e:
                    77:a2:b4:de:c7:c8:7b:77:40:ad:31:79:26:69:88:
                    65:b9:a8:0a:af:e4:b9:95:03:57:f1:71:4f:3d:1b:
                    dd:b4:8f:12:b7:f5:44:12:35:4b:45:ba:f3:fb:b7:
                    20:27:5f:00:a5:11:7a:1f:8c:c6:1e:8e:e8:2f:f1:
                    86:b3:82:51:89:23:51:aa:dd:0e:ff:6b:ae:e2:54:
                    17:2f:be:d7:02:3d:cd:b7:1b:72:6d:83:31:c5:56:
                    25:c2:38:f5:ff:a5:87:29:a7:26:83:6b:3f:51:34:
                    fb:72:1f:fb:68:4f:cb:10:de:58:cc:2c:a7:7f:a4:
                    17:ff:27:2b:5f:1c:a0:76:62:30:69:38:25:d1:ed:
                    c1:a2:c6:16:92:55:24:c3:13:cc:db:f7:f5:4b:ee:
                    f6:85
                Exponent: 65537 (0x10001)
        X509v3 extensions:
            X509v3 Subject Key Identifier: 
                48:08:68:03:FA:74:04:DB:1F:10:65:70:48:46:F0:D1:56:D1:12:60
            X509v3 Authority Key Identifier: 
                keyid:F8:FC:1B:17:AF:A0:B5:3C:20:B8:72:93:D2:EA:04:A7:52:B6:29:60
                DirName:/C=US/ST=California/L=Santa Clara/O=pkg5/CN=ta3/emailAddress=ta3
                serial:86:89:BA:18:66:F8:F6:2F

            X509v3 Basic Constraints: critical
                CA:TRUE
    Signature Algorithm: sha256WithRSAEncryption
         40:c8:23:3e:ef:70:02:75:2c:82:e1:02:38:dd:27:3b:a2:03:
         5c:65:be:1c:d0:51:9d:d1:ae:87:00:df:4d:59:8a:f8:02:fe:
         52:0d:8e:d0:f0:b6:7d:6a:50:77:2e:c5:ce:89:b1:09:92:07:
         66:6d:e1:15:1c:31:e1:6f:6a:3c:56:af:6e:d9:67:86:e3:fb:
         33:25:7b:ad:76:59:52:45:dc:63:d5:3e:4a:59:63:7c:64:75:
         9f:5b:e7:12:96:c1:2e:85:ad:90:dc:1a:b2:fd:0f:52:e1:40:
         00:ef:5f:91:db:73:24:7b:77:41:fc:9f:99:24:22:b7:24:cd:
         f0:44:85:d2:87:e1:b6:1c:0f:e3:fe:9e:88:fd:5c:59:be:47:
         dd:49:a3:64:67:8a:56:eb:72:f4:1e:38:d0:2c:18:58:11:6a:
         41:0e:24:bc:7d:a1:4d:1a:a1:6e:53:ca:3e:19:cb:e2:bc:a8:
         0e:34:b2:c3:f6:37:fe:f9:2d:e5:c7:6d:96:d9:3c:f4:74:4b:
         9c:d6:fb:f2:49:71:3d:0c:16:d4:72:fc:31:a3:1c:b1:04:05:
         21:ad:75:bf:16:0a:97:c2:f9:d2:01:f9:c8:62:b7:50:5f:45:
         d9:a8:95:ab:83:4d:9e:bb:3a:df:c0:e1:e1:1f:8d:13:10:fb:
         da:89:ec:32
-----BEGIN CERTIFICATE-----
MIIEKzCCAxOgAwIBAgIBIDANBgkqhkiG9w0BAQsFADBpMQswCQYDVQQGEwJVUzET
MBEGA1UECAwKQ2FsaWZvcm5pYTEUMBIGA1UEBwwLU2FudGEgQ2xhcmExDTALBgNV
BAoMBHBrZzUxDDAKBgNVBAMMA3RhMzESMBAGCSqGSIb3DQEJARYDdGEzMB4XDTM1
MDEwMTAxMDEwMVoXDTM1MDEwMjAxMDEwMVowdTELMAkGA1UEBhMCVVMxEzARBgNV
BAgMCkNhbGlmb3JuaWExFDASBgNVBAcMC1NhbnRhIENsYXJhMQ0wCwYDVQQKDARw
a2c1MRIwEAYDVQQDDAljaDEuNF90YTMxGDAWBgkqhkiG9w0BCQEWCWNoMS40X3Rh
MzCCASIwDQYJKoZIhvcNAQEBBQADggEPADCCAQoCggEBAKjPcF8FnUT28jiapsKt
0f9E4JO1rujJI0KRcQ7c5afxiF6poIAmjswrqAyHelbdmba6gKTcNDV1yv/of4LQ
9C02v02+wKBkm6RD4hdjJkwb0T+zeD2qSnNfUdyH3a50zKnSzGRD8gFud6K03sfI
e3dArTF5JmmIZbmoCq/kuZUDV/FxTz0b3bSPErf1RBI1S0W68/u3ICdfAKUReh+M
xh6O6C/xhrOCUYkjUardDv9rruJUFy++1wI9zbcbcm2DMcVWJcI49f+lhymnJoNr
P1E0+3If+2hPyxDeWMwsp3+kF/8nK18coHZiMGk4JdHtwaLGFpJVJMMTzNv39Uvu
9oUCAwEAAaOB0TCBzjAdBgNVHQ4EFgQUSAhoA/p0BNsfEGVwSEbw0VbREmAwgZsG
A1UdIwSBkzCBkIAU+PwbF6+gtTwguHKT0uoEp1K2KWChbaRrMGkxCzAJBgNVBAYT
AlVTMRMwEQYDVQQIDApDYWxpZm9ybmlhMRQwEgYDVQQHDAtTYW50YSBDbGFyYTEN
MAsGA1UECgwEcGtnNTEMMAoGA1UEAwwDdGEzMRIwEAYJKoZIhvcNAQkBFgN0YTOC
CQCGiboYZvj2LzAPBgNVHRMBAf8EBTADAQH/MA0GCSqGSIb3DQEBCwUAA4IBAQBA
yCM+73ACdSyC4QI43Sc7ogNcZb4c0FGd0a6HAN9NWYr4Av5SDY7Q8LZ9alB3LsXO
ibEJkgdmbeEVHDHhb2o8Vq9u2WeG4/szJXutdllSRdxj1T5KWWN8ZHWfW+cSlsEu
ha2Q3Bqy/Q9S4UAA71+R23Mke3dB/J+ZJCK3JM3wRIXSh+G2HA/j/p6I/VxZvkfd
SaNkZ4pW63L0HjjQLBhYEWpBDiS8faFNGqFuU8o+GcvivKgONLLD9jf++S3lx22W
2Tz0dEuc1vvySXE9DBbUcvwxoxyxBAUhrXW/FgqXwvnSAfnIYrdQX0XZqJWrg02e
uzrfwOHhH40TEPvaiewy
-----END CERTIFICATE-----
