Certificate:
    Data:
        Version: 3 (0x2)
        Serial Number: 28 (0x1c)
        Signature Algorithm: sha256WithRSAEncryption
        Issuer: C=US, ST=California, L=Menlo Park, O=pkg5, CN=ta3/emailAddress=ta3
        Validity
            Not Before: Jan  1 01:01:01 2009 GMT
            Not After : Jan  2 01:01:01 2009 GMT
        Subject: C=US, ST=California, L=Menlo Park, O=pkg5, CN=ch1.2_ta3/emailAddress=ch1.2_ta3
        Subject Public Key Info:
            Public Key Algorithm: rsaEncryption
            RSA Public Key: (1024 bit)
                Modulus (1024 bit):
                    00:c1:e1:d0:e9:31:7d:20:8f:e8:b6:4e:1c:d2:8a:
                    1f:b7:70:52:97:50:b5:ea:04:27:50:5f:69:40:42:
                    b9:85:30:ca:ff:d5:b6:c5:c3:fb:c0:58:43:fd:15:
                    ab:3a:0b:a1:21:e5:dc:ef:64:4d:ba:f4:4a:27:ed:
                    31:dc:be:2f:53:9d:01:7b:72:b3:f4:94:37:8d:45:
                    88:16:58:4d:dd:83:cd:45:d2:12:41:f0:9a:fb:ab:
                    ae:a5:8e:d2:94:1b:0b:7c:84:f2:a4:9b:de:92:48:
                    1d:11:44:5f:53:d9:8e:73:a7:6e:03:b8:ed:3d:d5:
                    30:ee:8b:45:8e:ef:33:06:6b
                Exponent: 65537 (0x10001)
        X509v3 extensions:
            X509v3 Subject Key Identifier: 
                3E:1B:50:98:42:E7:84:35:1D:A0:3A:DE:FE:61:87:FF:3D:5A:44:BD
            X509v3 Authority Key Identifier: 
                keyid:E2:9E:A1:8B:D7:D3:B0:F1:C3:E9:77:A4:49:5D:6A:4E:AB:73:AC:5D
                DirName:/C=US/ST=California/L=Menlo Park/O=pkg5/CN=ta3/emailAddress=ta3
                serial:EE:77:7E:6A:C1:1E:57:ED

            X509v3 Basic Constraints: critical
                CA:TRUE
            X509v3 Key Usage: critical
                Certificate Sign, CRL Sign
    Signature Algorithm: sha256WithRSAEncryption
        3f:59:fa:c1:b5:d6:f4:05:31:0c:ac:e3:c2:a6:fd:df:da:01:
        6d:70:e9:f2:23:8c:e6:79:57:53:f9:37:50:93:b1:82:0b:4d:
        e3:73:1d:ba:4e:f5:b7:de:8a:a0:84:65:ee:de:c0:ae:5d:34:
        ed:9b:79:07:3f:8e:9f:82:4b:10:00:d6:67:98:ae:86:6c:47:
        8a:7a:81:4e:bc:96:85:23:e5:a4:a8:80:4e:24:82:b2:3b:3b:
        0e:a0:79:bd:96:52:4b:85:55:4c:5e:fd:86:85:ce:e2:85:bc:
        fb:25:4a:7d:74:dc:8e:aa:93:d3:bd:23:b9:34:50:fb:4d:2d:
        57:38
-----BEGIN CERTIFICATE-----
MIIDMzCCApygAwIBAgIBHDANBgkqhkiG9w0BAQsFADBoMQswCQYDVQQGEwJVUzET
MBEGA1UECBMKQ2FsaWZvcm5pYTETMBEGA1UEBxMKTWVubG8gUGFyazENMAsGA1UE
ChMEcGtnNTEMMAoGA1UEAxMDdGEzMRIwEAYJKoZIhvcNAQkBFgN0YTMwHhcNMDkw
MTAxMDEwMTAxWhcNMDkwMTAyMDEwMTAxWjB0MQswCQYDVQQGEwJVUzETMBEGA1UE
CBMKQ2FsaWZvcm5pYTETMBEGA1UEBxMKTWVubG8gUGFyazENMAsGA1UEChMEcGtn
NTESMBAGA1UEAxQJY2gxLjJfdGEzMRgwFgYJKoZIhvcNAQkBFgljaDEuMl90YTMw
gZ8wDQYJKoZIhvcNAQEBBQADgY0AMIGJAoGBAMHh0OkxfSCP6LZOHNKKH7dwUpdQ
teoEJ1BfaUBCuYUwyv/VtsXD+8BYQ/0VqzoLoSHl3O9kTbr0SiftMdy+L1OdAXty
s/SUN41FiBZYTd2DzUXSEkHwmvurrqWO0pQbC3yE8qSb3pJIHRFEX1PZjnOnbgO4
7T3VMO6LRY7vMwZrAgMBAAGjgeAwgd0wHQYDVR0OBBYEFD4bUJhC54Q1HaA63v5h
h/89WkS9MIGaBgNVHSMEgZIwgY+AFOKeoYvX07Dxw+l3pEldak6rc6xdoWykajBo
MQswCQYDVQQGEwJVUzETMBEGA1UECBMKQ2FsaWZvcm5pYTETMBEGA1UEBxMKTWVu
bG8gUGFyazENMAsGA1UEChMEcGtnNTEMMAoGA1UEAxMDdGEzMRIwEAYJKoZIhvcN
AQkBFgN0YTOCCQDud35qwR5X7TAPBgNVHRMBAf8EBTADAQH/MA4GA1UdDwEB/wQE
AwIBBjANBgkqhkiG9w0BAQsFAAOBgQA/WfrBtdb0BTEMrOPCpv3f2gFtcOnyI4zm
eVdT+TdQk7GCC03jcx26TvW33oqghGXu3sCuXTTtm3kHP46fgksQANZnmK6GbEeK
eoFOvJaFI+WkqIBOJIKyOzsOoHm9llJLhVVMXv2Ghc7ihbz7JUp9dNyOqpPTvSO5
NFD7TS1XOA==
-----END CERTIFICATE-----
