Certificate:
    Data:
        Version: 3 (0x2)
        Serial Number: 32 (0x20)
    Signature Algorithm: sha256WithRSAEncryption
        Issuer: C=US, ST=California, L=Santa Clara, O=pkg5, CN=ta3/emailAddress=ta3
        Validity
            Not Before: Jan  1 01:01:01 2035 GMT
            Not After : Jan  2 01:01:01 2035 GMT
        Subject: C=US, ST=California, L=Santa Clara, O=pkg5, CN=ch1.4_ta3/emailAddress=ch1.4_ta3
        Subject Public Key Info:
            Public Key Algorithm: rsaEncryption
                Public-Key: (1024 bit)
                Modulus:
                    00:e9:3c:28:6e:b8:7a:e3:7a:f2:ee:5e:69:7a:71:
                    b8:bb:97:d5:d3:c4:77:3e:90:f3:29:69:b8:51:ba:
                    8b:27:4d:3f:b2:10:76:86:6e:38:4a:49:be:ce:01:
                    c5:d2:0e:6e:0e:a9:51:e9:94:57:ce:67:4b:99:ca:
                    84:93:a9:f9:e6:35:1c:0f:d6:3d:b1:c1:c7:00:d7:
                    fa:2c:05:a0:20:0d:86:6d:32:c0:54:0f:e8:b9:6e:
                    b5:dd:1a:00:4c:89:bf:d4:6d:79:0e:e7:4e:10:d2:
                    fb:75:2c:03:da:75:c8:e1:b7:dc:2e:42:c5:9b:ec:
                    b2:f1:15:6d:db:56:f9:20:a3
                Exponent: 65537 (0x10001)
        X509v3 extensions:
            X509v3 Subject Key Identifier: 
                33:65:69:5E:6D:D8:12:02:E9:68:A2:6C:7D:77:F1:38:D8:7B:97:E6
            X509v3 Authority Key Identifier: 
                keyid:B4:D4:36:9F:F8:CB:A2:5F:50:89:DA:21:E3:27:C4:91:F7:84:88:45
                DirName:/C=US/ST=California/L=Santa Clara/O=pkg5/CN=ta3/emailAddress=ta3
                serial:C0:C4:B4:7D:88:D6:E3:3E

            X509v3 Basic Constraints: critical
                CA:TRUE
    Signature Algorithm: sha256WithRSAEncryption
         5c:06:87:8e:6c:26:b3:5d:7c:94:c0:e3:7d:9e:8c:7c:bf:86:
         e0:07:8a:65:95:af:8f:93:0c:a6:72:e5:cb:36:a5:69:03:95:
         03:7f:e0:18:c8:f2:da:ce:99:b8:54:7a:49:75:f2:61:00:d4:
         f4:63:e1:5c:cc:f0:91:e7:85:92:0d:7e:91:4b:3a:8b:76:e6:
         a0:c8:51:28:06:44:d2:c8:a8:4c:da:be:7e:78:88:45:d3:f7:
         07:92:90:fc:96:4d:7d:ce:5a:c9:9a:21:d9:66:98:3e:9b:5d:
         18:9a:0c:b8:c4:10:86:4d:06:15:d9:ea:19:9b:e7:f7:e2:74:
         25:eb
-----BEGIN CERTIFICATE-----
MIIDJjCCAo+gAwIBAgIBIDANBgkqhkiG9w0BAQsFADBpMQswCQYDVQQGEwJVUzET
MBEGA1UECAwKQ2FsaWZvcm5pYTEUMBIGA1UEBwwLU2FudGEgQ2xhcmExDTALBgNV
BAoMBHBrZzUxDDAKBgNVBAMMA3RhMzESMBAGCSqGSIb3DQEJARYDdGEzMB4XDTM1
MDEwMTAxMDEwMVoXDTM1MDEwMjAxMDEwMVowdTELMAkGA1UEBhMCVVMxEzARBgNV
BAgMCkNhbGlmb3JuaWExFDASBgNVBAcMC1NhbnRhIENsYXJhMQ0wCwYDVQQKDARw
a2c1MRIwEAYDVQQDDAljaDEuNF90YTMxGDAWBgkqhkiG9w0BCQEWCWNoMS40X3Rh
MzCBnzANBgkqhkiG9w0BAQEFAAOBjQAwgYkCgYEA6Twobrh643ry7l5penG4u5fV
08R3PpDzKWm4UbqLJ00/shB2hm44Skm+zgHF0g5uDqlR6ZRXzmdLmcqEk6n55jUc
D9Y9scHHANf6LAWgIA2GbTLAVA/ouW613RoATIm/1G15DudOENL7dSwD2nXI4bfc
LkLFm+yy8RVt21b5IKMCAwEAAaOB0TCBzjAdBgNVHQ4EFgQUM2VpXm3YEgLpaKJs
fXfxONh7l+YwgZsGA1UdIwSBkzCBkIAUtNQ2n/jLol9Qidoh4yfEkfeEiEWhbaRr
MGkxCzAJBgNVBAYTAlVTMRMwEQYDVQQIDApDYWxpZm9ybmlhMRQwEgYDVQQHDAtT
YW50YSBDbGFyYTENMAsGA1UECgwEcGtnNTEMMAoGA1UEAwwDdGEzMRIwEAYJKoZI
hvcNAQkBFgN0YTOCCQDAxLR9iNbjPjAPBgNVHRMBAf8EBTADAQH/MA0GCSqGSIb3
DQEBCwUAA4GBAFwGh45sJrNdfJTA432ejHy/huAHimWVr4+TDKZy5cs2pWkDlQN/
4BjI8trOmbhUekl18mEA1PRj4VzM8JHnhZINfpFLOot25qDIUSgGRNLIqEzavn54
iEXT9weSkPyWTX3OWsmaIdlmmD6bXRiaDLjEEIZNBhXZ6hmb5/fidCXr
-----END CERTIFICATE-----
