Certificate:
    Data:
        Version: 3 (0x2)
        Serial Number: 26 (0x1a)
    Signature Algorithm: sha256WithRSAEncryption
        Issuer: C=US, ST=California, L=Santa Clara, O=pkg5, CN=ta3/emailAddress=ta3
        Validity
            Not Before: Mar 18 23:38:21 2016 GMT
            Not After : Dec 13 23:38:21 2018 GMT
        Subject: C=US, ST=California, L=Santa Clara, O=pkg5, CN=ch1.1_ta3/emailAddress=ch1.1_ta3
        Subject Public Key Info:
            Public Key Algorithm: rsaEncryption
                Public-Key: (2048 bit)
                Modulus:
                    00:b3:7b:39:dd:a2:af:47:bc:85:42:f7:b9:02:52:
                    97:a0:0c:1a:ef:0d:ec:54:b1:7f:2b:d4:f6:1f:40:
                    9e:6d:13:98:81:3a:53:e9:ed:82:11:a3:c8:81:b3:
                    bd:38:20:3e:00:b8:be:0b:fb:d5:ce:a3:ea:b3:5b:
                    04:24:c1:a4:87:ab:ee:22:4f:18:13:72:78:ce:94:
                    5f:67:91:76:58:b6:f2:df:e4:1d:68:7a:b9:61:76:
                    a5:c3:5d:f3:e0:8f:15:23:87:00:c7:1a:23:98:7b:
                    d9:f0:bc:a0:f7:21:07:aa:9d:52:d7:04:58:40:0a:
                    68:0c:1e:ad:2a:c3:7c:5d:c9:7c:77:4a:86:d6:db:
                    31:d7:36:b2:7c:05:6e:6f:89:3d:cb:6a:82:8d:ef:
                    ce:e5:d5:3a:a2:5f:f4:3c:f1:b5:56:c7:ae:56:9c:
                    d5:2f:c9:af:db:87:68:5d:8c:67:0f:3c:bd:37:18:
                    37:1f:05:0e:f7:8b:7f:3b:cc:39:0f:0a:9f:60:87:
                    ae:25:9f:29:a4:40:23:3a:42:97:33:bd:da:09:a3:
                    10:0c:b8:f8:a3:66:05:fc:89:92:53:45:b7:ac:26:
                    12:ba:39:22:fc:fb:a1:5c:b2:b4:11:07:14:1f:32:
                    fc:a1:9b:b4:fd:42:8f:e9:9c:24:5c:b1:3c:c9:ac:
                    2c:89
                Exponent: 65537 (0x10001)
        X509v3 extensions:
            X509v3 Basic Constraints: critical
                CA:TRUE
            X509v3 Issuer Alternative Name: critical
                <EMPTY>

    Signature Algorithm: sha256WithRSAEncryption
         6d:d2:d7:c3:28:4e:86:92:1b:fa:fc:9d:c3:05:d4:ac:c3:57:
         6a:eb:93:ea:64:85:01:0f:33:de:80:e1:0b:9e:86:40:9e:51:
         d7:d7:85:b9:b4:c4:55:bd:c3:a2:64:73:c5:0e:00:c6:30:66:
         91:c2:f9:15:fb:f6:6d:c7:ed:c6:48:98:27:43:40:74:a2:76:
         b6:ae:e1:73:ea:ca:39:2f:4f:1a:9d:c7:14:54:20:a9:89:a4:
         d2:95:7a:c4:0c:ee:d7:76:f9:c1:f3:65:da:08:22:ac:08:7a:
         eb:d4:3e:80:66:c8:94:c8:82:93:db:48:2a:29:9c:91:2e:fd:
         94:ee:86:51:8c:b2:32:d2:da:0f:30:5b:f1:b8:bd:b4:11:92:
         d4:71:31:72:97:89:d3:2a:a9:11:99:19:78:d0:90:17:69:b5:
         e8:d1:71:20:ab:8e:2e:b5:f9:3a:fb:17:17:14:ac:28:a0:bd:
         7e:81:d3:99:0a:3b:57:d0:9b:b7:a4:d0:bc:11:de:a9:8a:66:
         47:4a:6a:93:73:22:d8:d4:cd:cb:08:6e:4a:bc:02:71:75:a4:
         cd:f6:06:d1:bf:a7:fb:53:7a:81:25:87:97:65:45:09:ed:6f:
         95:03:56:06:a2:95:17:77:6d:76:ea:34:91:df:ba:b7:2c:c5:
         15:31:ea:85
-----BEGIN CERTIFICATE-----
MIIDejCCAmKgAwIBAgIBGjANBgkqhkiG9w0BAQsFADBpMQswCQYDVQQGEwJVUzET
MBEGA1UECAwKQ2FsaWZvcm5pYTEUMBIGA1UEBwwLU2FudGEgQ2xhcmExDTALBgNV
BAoMBHBrZzUxDDAKBgNVBAMMA3RhMzESMBAGCSqGSIb3DQEJARYDdGEzMB4XDTE2
MDMxODIzMzgyMVoXDTE4MTIxMzIzMzgyMVowdTELMAkGA1UEBhMCVVMxEzARBgNV
BAgMCkNhbGlmb3JuaWExFDASBgNVBAcMC1NhbnRhIENsYXJhMQ0wCwYDVQQKDARw
a2c1MRIwEAYDVQQDDAljaDEuMV90YTMxGDAWBgkqhkiG9w0BCQEWCWNoMS4xX3Rh
MzCCASIwDQYJKoZIhvcNAQEBBQADggEPADCCAQoCggEBALN7Od2ir0e8hUL3uQJS
l6AMGu8N7FSxfyvU9h9Anm0TmIE6U+ntghGjyIGzvTggPgC4vgv71c6j6rNbBCTB
pIer7iJPGBNyeM6UX2eRdli28t/kHWh6uWF2pcNd8+CPFSOHAMcaI5h72fC8oPch
B6qdUtcEWEAKaAwerSrDfF3JfHdKhtbbMdc2snwFbm+JPctqgo3vzuXVOqJf9Dzx
tVbHrlac1S/Jr9uHaF2MZw88vTcYNx8FDveLfzvMOQ8Kn2CHriWfKaRAIzpClzO9
2gmjEAy4+KNmBfyJklNFt6wmEro5Ivz7oVyytBEHFB8y/KGbtP1Cj+mcJFyxPMms
LIkCAwEAAaMhMB8wDwYDVR0TAQH/BAUwAwEB/zAMBgNVHRIBAf8EAjAAMA0GCSqG
SIb3DQEBCwUAA4IBAQBt0tfDKE6Gkhv6/J3DBdSsw1dq65PqZIUBDzPegOELnoZA
nlHX14W5tMRVvcOiZHPFDgDGMGaRwvkV+/Ztx+3GSJgnQ0B0ona2ruFz6so5L08a
nccUVCCpiaTSlXrEDO7XdvnB82XaCCKsCHrr1D6AZsiUyIKT20gqKZyRLv2U7oZR
jLIy0toPMFvxuL20EZLUcTFyl4nTKqkRmRl40JAXabXo0XEgq44utfk6+xcXFKwo
oL1+gdOZCjtX0Ju3pNC8Ed6pimZHSmqTcyLY1M3LCG5KvAJxdaTN9gbRv6f7U3qB
JYeXZUUJ7W+VA1YGopUXd2126jSR37q3LMUVMeqF
-----END CERTIFICATE-----
