Certificate:
    Data:
        Version: 3 (0x2)
        Serial Number: 39 (0x27)
    Signature Algorithm: sha256WithRSAEncryption
        Issuer: C=US, ST=California, L=Santa Clara, O=pkg5, CN=ta4/emailAddress=ta4
        Validity
            Not Before: Jan 22 01:57:59 2016 GMT
            Not After : Oct 18 01:57:59 2018 GMT
        Subject: C=US, ST=California, L=Santa Clara, O=pkg5, CN=ch1.1_ta4/emailAddress=ch1.1_ta4
        Subject Public Key Info:
            Public Key Algorithm: rsaEncryption
                Public-Key: (2048 bit)
                Modulus:
                    00:c7:65:56:1d:48:8d:ff:08:42:35:57:38:6b:5a:
                    12:0f:c8:73:a8:13:df:96:ce:9e:7c:bc:d7:09:1f:
                    3e:31:7d:56:4b:0b:e8:51:5c:69:64:a2:43:96:6d:
                    6a:96:d9:2c:6c:68:73:2e:40:5a:f6:51:5a:6b:e6:
                    e4:78:4d:fd:5e:82:53:b8:98:0b:ce:66:37:14:8e:
                    6b:6d:8d:53:a9:9b:cc:88:08:b5:77:c9:48:d9:b5:
                    9d:9f:05:b9:2e:97:77:96:c5:f3:c5:a1:65:d0:f1:
                    77:b2:98:d1:ee:6b:56:16:ab:23:65:11:ad:2c:16:
                    6a:cb:eb:d8:87:5e:8e:f2:37:27:f0:9f:1f:ae:73:
                    9b:0f:b0:06:1c:cf:da:9d:ac:c7:76:dd:30:94:69:
                    7d:27:ce:62:d8:18:64:30:59:8c:1c:54:aa:74:c9:
                    8c:a3:11:b0:04:3c:50:c5:27:1a:eb:51:fa:b8:92:
                    10:ed:51:4a:65:e6:73:c7:97:4e:5a:6e:76:e2:61:
                    cc:26:61:f1:c9:d6:4f:db:81:cb:69:6a:d0:91:16:
                    c3:dd:70:9c:6a:8d:75:ea:a1:39:65:9f:86:16:ed:
                    fa:c8:f1:f9:58:79:1e:4d:27:51:29:68:90:af:0a:
                    08:54:1b:3c:4b:96:21:33:6f:a1:80:ed:b0:01:ff:
                    92:19
                Exponent: 65537 (0x10001)
        X509v3 extensions:
            X509v3 Subject Key Identifier: 
                74:B1:C8:A0:9B:91:9E:DB:63:C3:A6:D4:AC:15:76:3A:16:50:A7:AF
            X509v3 Authority Key Identifier: 
                keyid:B1:21:EA:DF:EB:EB:ED:BB:BE:BE:0F:FA:69:1D:B6:28:E9:6F:8F:45
                DirName:/C=US/ST=California/L=Santa Clara/O=pkg5/CN=ta4/emailAddress=ta4
                serial:98:F5:DE:E5:E8:5C:CD:26

            X509v3 Basic Constraints: critical
                CA:TRUE
            X509v3 Key Usage: critical
                Certificate Sign
    Signature Algorithm: sha256WithRSAEncryption
         8c:be:94:6b:34:4c:b7:a7:c0:a6:33:3e:44:ea:88:43:16:71:
         80:af:85:38:5f:5d:89:f0:bb:ca:3b:1a:48:75:ec:86:48:7b:
         e7:c6:18:01:87:43:ee:26:22:a9:66:1a:af:d0:c5:4e:c3:f9:
         b8:b6:30:34:c4:47:5c:75:fd:b4:b1:0a:95:52:87:3a:9c:bf:
         7f:8e:94:b7:52:69:d5:cc:20:cd:0f:ab:fb:39:8a:5b:c0:94:
         43:08:e1:ff:57:43:f1:73:82:2c:66:e5:8d:18:0d:69:1f:d4:
         f8:04:40:df:46:81:58:e3:1f:8d:e1:ee:9b:35:39:89:16:ca:
         d3:41:f6:6d:91:a5:18:bb:c3:59:a0:c2:58:e6:a5:d5:ca:3b:
         8e:25:f2:ca:4d:81:7e:e3:0e:9b:98:22:ec:8f:15:19:fa:36:
         66:76:52:b0:f3:37:87:0b:17:45:5a:0f:ad:40:63:4a:4c:59:
         0d:3e:44:16:50:8f:42:ed:5d:16:be:41:c3:75:cc:bb:73:f3:
         18:ad:25:37:c1:58:2f:53:b0:aa:14:f7:d9:e1:8d:ba:a5:f9:
         28:fb:04:57:4a:41:13:7f:cb:bc:d6:f5:69:85:d9:f4:ed:8c:
         95:ff:57:24:d5:3e:4b:84:7e:40:05:c1:1d:53:fa:ce:6b:5e:
         05:e5:f1:10
-----BEGIN CERTIFICATE-----
MIIEOzCCAyOgAwIBAgIBJzANBgkqhkiG9w0BAQsFADBpMQswCQYDVQQGEwJVUzET
MBEGA1UECAwKQ2FsaWZvcm5pYTEUMBIGA1UEBwwLU2FudGEgQ2xhcmExDTALBgNV
BAoMBHBrZzUxDDAKBgNVBAMMA3RhNDESMBAGCSqGSIb3DQEJARYDdGE0MB4XDTE2
MDEyMjAxNTc1OVoXDTE4MTAxODAxNTc1OVowdTELMAkGA1UEBhMCVVMxEzARBgNV
BAgMCkNhbGlmb3JuaWExFDASBgNVBAcMC1NhbnRhIENsYXJhMQ0wCwYDVQQKDARw
a2c1MRIwEAYDVQQDDAljaDEuMV90YTQxGDAWBgkqhkiG9w0BCQEWCWNoMS4xX3Rh
NDCCASIwDQYJKoZIhvcNAQEBBQADggEPADCCAQoCggEBAMdlVh1Ijf8IQjVXOGta
Eg/Ic6gT35bOnny81wkfPjF9VksL6FFcaWSiQ5ZtapbZLGxocy5AWvZRWmvm5HhN
/V6CU7iYC85mNxSOa22NU6mbzIgItXfJSNm1nZ8FuS6Xd5bF88WhZdDxd7KY0e5r
VharI2URrSwWasvr2IdejvI3J/CfH65zmw+wBhzP2p2sx3bdMJRpfSfOYtgYZDBZ
jBxUqnTJjKMRsAQ8UMUnGutR+riSEO1RSmXmc8eXTlpuduJhzCZh8cnWT9uBy2lq
0JEWw91wnGqNdeqhOWWfhhbt+sjx+Vh5Hk0nUSlokK8KCFQbPEuWITNvoYDtsAH/
khkCAwEAAaOB4TCB3jAdBgNVHQ4EFgQUdLHIoJuRnttjw6bUrBV2OhZQp68wgZsG
A1UdIwSBkzCBkIAUsSHq3+vr7bu+vg/6aR22KOlvj0WhbaRrMGkxCzAJBgNVBAYT
AlVTMRMwEQYDVQQIDApDYWxpZm9ybmlhMRQwEgYDVQQHDAtTYW50YSBDbGFyYTEN
MAsGA1UECgwEcGtnNTEMMAoGA1UEAwwDdGE0MRIwEAYJKoZIhvcNAQkBFgN0YTSC
CQCY9d7l6FzNJjAPBgNVHRMBAf8EBTADAQH/MA4GA1UdDwEB/wQEAwICBDANBgkq
hkiG9w0BAQsFAAOCAQEAjL6UazRMt6fApjM+ROqIQxZxgK+FOF9difC7yjsaSHXs
hkh758YYAYdD7iYiqWYar9DFTsP5uLYwNMRHXHX9tLEKlVKHOpy/f46Ut1Jp1cwg
zQ+r+zmKW8CUQwjh/1dD8XOCLGbljRgNaR/U+ARA30aBWOMfjeHumzU5iRbK00H2
bZGlGLvDWaDCWOal1co7jiXyyk2BfuMOm5gi7I8VGfo2ZnZSsPM3hwsXRVoPrUBj
SkxZDT5EFlCPQu1dFr5Bw3XMu3PzGK0lN8FYL1OwqhT32eGNuqX5KPsEV0pBE3/L
vNb1aYXZ9O2Mlf9XJNU+S4R+QAXBHVP6zmteBeXxEA==
-----END CERTIFICATE-----
