Certificate:
    Data:
        Version: 3 (0x2)
        Serial Number: 30 (0x1e)
    Signature Algorithm: sha256WithRSAEncryption
        Issuer: C=US, ST=California, L=Santa Clara, O=pkg5, CN=ta3/emailAddress=ta3
        Validity
            Not Before: Jan  1 01:01:01 2035 GMT
            Not After : Jan  2 01:01:01 2035 GMT
        Subject: C=US, ST=California, L=Santa Clara, O=pkg5, CN=ch1.3_ta3/emailAddress=ch1.3_ta3
        Subject Public Key Info:
            Public Key Algorithm: rsaEncryption
                Public-Key: (2048 bit)
                Modulus:
                    00:b9:fa:ee:0b:f9:fc:0f:e6:e2:9e:50:53:cb:08:
                    60:d7:8d:ee:c0:af:54:41:ce:0c:bf:d8:ad:93:22:
                    46:f4:a9:13:4c:63:34:62:81:aa:77:0a:aa:d6:ed:
                    d0:4a:38:88:b0:1e:54:c7:c9:3c:88:55:06:8d:10:
                    9e:e3:f9:78:0e:0b:40:16:ea:bf:00:0f:58:70:28:
                    af:86:c4:ba:8c:fa:84:01:c6:bf:f9:a6:c9:33:d9:
                    c5:2b:81:e3:4e:a8:d1:46:e2:0f:c0:61:ae:e6:b0:
                    76:5b:85:a4:45:cc:78:73:c5:b3:df:86:fe:60:81:
                    a4:d1:d8:93:bb:b7:38:d4:55:ec:83:f1:67:2a:76:
                    31:a4:82:1b:2d:b2:25:f2:37:d9:1d:c5:a1:f9:e4:
                    f0:6d:bb:91:c4:b4:7f:26:83:7c:38:1c:09:bb:cd:
                    ba:8b:88:1e:2a:17:11:dd:00:f6:fb:86:8e:96:76:
                    24:3e:e2:97:c8:54:01:4f:24:f2:45:08:39:65:62:
                    3e:0c:67:9b:26:67:39:dd:d1:38:1a:e2:f0:e4:e8:
                    98:44:7b:e2:a6:1d:c4:82:c8:3c:3e:a2:92:0b:32:
                    44:83:6f:52:b2:90:a6:35:aa:de:b8:fc:ac:10:07:
                    03:b1:ad:ab:d0:4e:ec:56:09:b0:c3:d3:5d:b4:72:
                    59:c9
                Exponent: 65537 (0x10001)
        X509v3 extensions:
            X509v3 Subject Key Identifier: 
                D6:C3:8C:63:0C:98:78:73:16:FC:44:01:89:7E:ED:5F:53:AA:81:67
            X509v3 Authority Key Identifier: 
                keyid:F1:FE:91:A7:14:72:15:61:A7:C6:93:C7:91:B2:B7:F8:10:65:AA:16
                DirName:/C=US/ST=California/L=Santa Clara/O=pkg5/CN=ta3/emailAddress=ta3
                serial:B8:59:05:26:1A:C6:94:CC

            X509v3 Basic Constraints: critical
                CA:TRUE
            X509v3 Key Usage: critical
                Certificate Sign, CRL Sign
    Signature Algorithm: sha256WithRSAEncryption
         be:1d:83:53:d4:39:8b:e4:5d:6e:fc:5d:79:ec:7f:36:0f:c2:
         12:49:4a:4e:c6:a0:00:bd:ab:46:4a:67:0b:6f:fb:16:04:93:
         2e:4e:34:14:12:ed:e0:8e:d2:50:2c:fc:33:a2:b6:0f:0e:3e:
         f8:1a:82:ae:88:19:40:44:8c:b8:ff:72:63:e9:d9:f7:1e:c2:
         cd:06:89:f8:01:a3:97:12:89:76:ed:4d:cd:b8:f0:ab:6f:8f:
         24:39:b5:b2:cf:03:a4:93:8d:04:a3:2c:91:2a:79:51:b5:30:
         96:26:df:d0:76:29:b6:05:8a:b0:d1:fa:15:a5:66:f1:70:80:
         df:ac:26:66:04:82:c2:64:f9:9c:9a:ed:48:7f:24:21:dc:4a:
         69:6b:dd:a2:71:40:6a:ac:00:88:38:18:ab:ed:fd:6b:68:4f:
         bb:f7:02:ed:c6:89:cf:59:39:c6:55:da:e5:e4:a6:45:05:dd:
         71:86:05:8a:d0:bc:43:9b:03:68:fb:23:2a:f4:63:40:dd:48:
         51:d4:24:45:55:e6:6d:d0:80:7d:b8:db:e4:fe:fa:e7:25:da:
         c7:1e:ac:ea:d9:1a:06:4a:66:41:fe:d6:46:2e:3a:52:51:85:
         07:c3:9b:ad:3d:b2:be:7f:1e:45:62:7d:bf:e7:40:d3:11:c4:
         52:9c:b7:5a
-----BEGIN CERTIFICATE-----
MIIEOzCCAyOgAwIBAgIBHjANBgkqhkiG9w0BAQsFADBpMQswCQYDVQQGEwJVUzET
MBEGA1UECAwKQ2FsaWZvcm5pYTEUMBIGA1UEBwwLU2FudGEgQ2xhcmExDTALBgNV
BAoMBHBrZzUxDDAKBgNVBAMMA3RhMzESMBAGCSqGSIb3DQEJARYDdGEzMB4XDTM1
MDEwMTAxMDEwMVoXDTM1MDEwMjAxMDEwMVowdTELMAkGA1UEBhMCVVMxEzARBgNV
BAgMCkNhbGlmb3JuaWExFDASBgNVBAcMC1NhbnRhIENsYXJhMQ0wCwYDVQQKDARw
a2c1MRIwEAYDVQQDDAljaDEuM190YTMxGDAWBgkqhkiG9w0BCQEWCWNoMS4zX3Rh
MzCCASIwDQYJKoZIhvcNAQEBBQADggEPADCCAQoCggEBALn67gv5/A/m4p5QU8sI
YNeN7sCvVEHODL/YrZMiRvSpE0xjNGKBqncKqtbt0Eo4iLAeVMfJPIhVBo0QnuP5
eA4LQBbqvwAPWHAor4bEuoz6hAHGv/mmyTPZxSuB406o0UbiD8BhruawdluFpEXM
eHPFs9+G/mCBpNHYk7u3ONRV7IPxZyp2MaSCGy2yJfI32R3Fofnk8G27kcS0fyaD
fDgcCbvNuouIHioXEd0A9vuGjpZ2JD7il8hUAU8k8kUIOWViPgxnmyZnOd3ROBri
8OTomER74qYdxILIPD6ikgsyRINvUrKQpjWq3rj8rBAHA7Gtq9BO7FYJsMPTXbRy
WckCAwEAAaOB4TCB3jAdBgNVHQ4EFgQU1sOMYwyYeHMW/EQBiX7tX1OqgWcwgZsG
A1UdIwSBkzCBkIAU8f6RpxRyFWGnxpPHkbK3+BBlqhahbaRrMGkxCzAJBgNVBAYT
AlVTMRMwEQYDVQQIDApDYWxpZm9ybmlhMRQwEgYDVQQHDAtTYW50YSBDbGFyYTEN
MAsGA1UECgwEcGtnNTEMMAoGA1UEAwwDdGEzMRIwEAYJKoZIhvcNAQkBFgN0YTOC
CQC4WQUmGsaUzDAPBgNVHRMBAf8EBTADAQH/MA4GA1UdDwEB/wQEAwIBBjANBgkq
hkiG9w0BAQsFAAOCAQEAvh2DU9Q5i+Rdbvxdeex/Ng/CEklKTsagAL2rRkpnC2/7
FgSTLk40FBLt4I7SUCz8M6K2Dw4++BqCrogZQESMuP9yY+nZ9x7CzQaJ+AGjlxKJ
du1Nzbjwq2+PJDm1ss8DpJONBKMskSp5UbUwlibf0HYptgWKsNH6FaVm8XCA36wm
ZgSCwmT5nJrtSH8kIdxKaWvdonFAaqwAiDgYq+39a2hPu/cC7caJz1k5xlXa5eSm
RQXdcYYFitC8Q5sDaPsjKvRjQN1IUdQkRVXmbdCAfbjb5P765yXaxx6s6tkaBkpm
Qf7WRi46UlGFB8ObrT2yvn8eRWJ9v+dA0xHEUpy3Wg==
-----END CERTIFICATE-----
