Certificate:
    Data:
        Version: 3 (0x2)
        Serial Number: 38 (0x26)
    Signature Algorithm: sha256WithRSAEncryption
        Issuer: C=US, ST=California, L=Santa Clara, O=pkg5, CN=ta4/emailAddress=ta4
        Validity
            Not Before: Dec 13 00:13:37 2013 GMT
            Not After : Sep  8 00:13:37 2016 GMT
        Subject: C=US, ST=California, L=Santa Clara, O=pkg5, CN=ch1.1_ta4/emailAddress=ch1.1_ta4
        Subject Public Key Info:
            Public Key Algorithm: rsaEncryption
                Public-Key: (1024 bit)
                Modulus:
                    00:ba:40:be:7e:1b:2f:92:11:cc:dc:44:14:76:87:
                    8a:6a:94:b6:28:4e:87:5b:bc:57:46:75:63:38:4d:
                    90:3e:7a:46:0e:87:e9:a9:04:1a:7d:e5:20:dc:81:
                    9a:79:7e:1b:ab:ce:50:ce:47:54:04:98:16:d5:a6:
                    6d:16:3c:52:ef:ed:43:c5:9b:d3:c8:48:cb:47:5d:
                    08:1d:d1:44:fd:7c:c7:54:41:11:3b:3e:ae:bb:7f:
                    94:a6:13:8f:89:6c:24:b3:a8:5e:e2:5d:20:40:85:
                    2b:a0:ac:ed:a3:a8:b2:15:59:fc:ad:e8:5d:72:ee:
                    64:eb:9c:30:8c:0a:97:32:f9
                Exponent: 65537 (0x10001)
        X509v3 extensions:
            X509v3 Subject Key Identifier: 
                D1:74:80:71:CE:2E:24:57:71:C0:CA:50:42:8B:B3:99:0C:C7:6B:AD
            X509v3 Authority Key Identifier: 
                keyid:84:46:29:88:74:31:EF:A6:CC:3C:E3:58:29:DE:BE:FD:1B:F4:59:98
                DirName:/C=US/ST=California/L=Santa Clara/O=pkg5/CN=ta4/emailAddress=ta4
                serial:E8:F7:8D:38:FA:4B:55:DD

            X509v3 Basic Constraints: critical
                CA:TRUE
            X509v3 Key Usage: critical
                Certificate Sign
    Signature Algorithm: sha256WithRSAEncryption
         25:f7:af:7c:b8:de:50:02:c2:31:ed:50:89:5e:85:bc:e5:f4:
         a0:03:7e:35:85:d5:2c:4c:bb:62:39:45:e9:50:9b:db:7a:4b:
         91:e1:dd:e7:dc:b6:da:36:69:d7:2d:68:5c:96:a9:7b:e8:33:
         17:4c:28:75:c2:6c:53:a8:11:8f:8f:23:89:59:25:8b:26:75:
         4c:ee:9a:13:eb:78:28:52:dc:b2:fd:96:04:73:a8:78:9e:24:
         b2:b2:85:88:84:10:ec:83:42:65:22:f1:b5:15:76:14:db:5c:
         28:43:a4:62:df:27:4a:c5:4b:00:d5:44:83:24:37:f5:c5:4d:
         b0:4a
-----BEGIN CERTIFICATE-----
MIIDNjCCAp+gAwIBAgIBJjANBgkqhkiG9w0BAQsFADBpMQswCQYDVQQGEwJVUzET
MBEGA1UECAwKQ2FsaWZvcm5pYTEUMBIGA1UEBwwLU2FudGEgQ2xhcmExDTALBgNV
BAoMBHBrZzUxDDAKBgNVBAMMA3RhNDESMBAGCSqGSIb3DQEJARYDdGE0MB4XDTEz
MTIxMzAwMTMzN1oXDTE2MDkwODAwMTMzN1owdTELMAkGA1UEBhMCVVMxEzARBgNV
BAgMCkNhbGlmb3JuaWExFDASBgNVBAcMC1NhbnRhIENsYXJhMQ0wCwYDVQQKDARw
a2c1MRIwEAYDVQQDDAljaDEuMV90YTQxGDAWBgkqhkiG9w0BCQEWCWNoMS4xX3Rh
NDCBnzANBgkqhkiG9w0BAQEFAAOBjQAwgYkCgYEAukC+fhsvkhHM3EQUdoeKapS2
KE6HW7xXRnVjOE2QPnpGDofpqQQafeUg3IGaeX4bq85QzkdUBJgW1aZtFjxS7+1D
xZvTyEjLR10IHdFE/XzHVEEROz6uu3+UphOPiWwks6he4l0gQIUroKzto6iyFVn8
rehdcu5k65wwjAqXMvkCAwEAAaOB4TCB3jAdBgNVHQ4EFgQU0XSAcc4uJFdxwMpQ
QouzmQzHa60wgZsGA1UdIwSBkzCBkIAUhEYpiHQx76bMPONYKd6+/Rv0WZihbaRr
MGkxCzAJBgNVBAYTAlVTMRMwEQYDVQQIDApDYWxpZm9ybmlhMRQwEgYDVQQHDAtT
YW50YSBDbGFyYTENMAsGA1UECgwEcGtnNTEMMAoGA1UEAwwDdGE0MRIwEAYJKoZI
hvcNAQkBFgN0YTSCCQDo9404+ktV3TAPBgNVHRMBAf8EBTADAQH/MA4GA1UdDwEB
/wQEAwICBDANBgkqhkiG9w0BAQsFAAOBgQAl9698uN5QAsIx7VCJXoW85fSgA341
hdUsTLtiOUXpUJvbekuR4d3n3LbaNmnXLWhclql76DMXTCh1wmxTqBGPjyOJWSWL
JnVM7poT63goUtyy/ZYEc6h4niSysoWIhBDsg0JlIvG1FXYU21woQ6Ri3ydKxUsA
1USDJDf1xU2wSg==
-----END CERTIFICATE-----
