Certificate:
    Data:
        Version: 3 (0x2)
        Serial Number: 26 (0x1a)
    Signature Algorithm: sha256WithRSAEncryption
        Issuer: C=US, ST=California, L=Santa Clara, O=pkg5, CN=ta3/emailAddress=ta3
        Validity
            Not Before: Sep 22 05:33:26 2021 GMT
            Not After : Jun 18 05:33:26 2024 GMT
        Subject: C=US, ST=California, L=Santa Clara, O=pkg5, CN=ch1.1_ta3/emailAddress=ch1.1_ta3
        Subject Public Key Info:
            Public Key Algorithm: rsaEncryption
                Public-Key: (2048 bit)
                Modulus:
                    00:d1:49:7f:27:71:fd:79:56:c8:87:0b:c1:cb:de:
                    34:69:d3:a4:9c:68:e0:e0:96:b9:e1:db:1b:4d:14:
                    2b:c3:f5:6d:80:8c:9b:62:ec:64:77:68:d9:74:a9:
                    f1:95:f0:cb:05:c5:1b:5e:d9:83:1c:90:e8:07:35:
                    19:31:c5:27:ab:c8:61:c9:21:51:86:53:ab:ed:73:
                    4a:d5:bc:1e:48:b9:aa:10:1b:62:d0:db:a8:46:7e:
                    a4:b8:c4:78:c6:36:5f:f5:7b:3b:e5:94:0f:6c:62:
                    91:99:72:59:ff:75:ac:1f:ce:7e:9b:db:eb:ce:87:
                    d7:40:0c:e5:b5:09:ae:92:37:ef:8b:f3:cf:c4:f3:
                    4c:32:ea:4c:16:28:49:c9:33:1d:a8:78:ee:bc:ab:
                    dc:c6:82:44:cc:25:ed:40:f8:78:16:38:ac:6e:61:
                    86:6a:c9:0e:98:b1:62:e4:05:3e:08:b6:55:76:b9:
                    ea:33:f0:14:ef:7a:c7:46:75:bc:75:5a:eb:17:5a:
                    1e:a6:cf:9c:84:36:fa:b7:96:ce:8f:63:77:29:4e:
                    4d:3d:a2:82:14:24:59:a2:a5:c8:e6:f0:20:ef:c5:
                    98:36:aa:ac:a9:e9:77:67:10:5f:af:63:f1:22:1a:
                    af:7c:b6:11:eb:7f:53:2a:2c:f6:3b:2d:ff:10:0d:
                    f0:13
                Exponent: 65537 (0x10001)
        X509v3 extensions:
            X509v3 Basic Constraints: critical
                CA:TRUE
            X509v3 Issuer Alternative Name: critical
                <EMPTY>

    Signature Algorithm: sha256WithRSAEncryption
         a9:02:15:e7:fd:3c:47:0a:b5:0d:86:81:05:2c:0c:22:84:b9:
         4b:34:6a:64:63:3e:e9:3b:67:a2:d9:ad:cc:80:67:74:b2:b5:
         c3:47:fb:8f:22:c8:c4:ee:1d:68:9f:04:97:c6:ea:ea:48:29:
         ff:0f:2e:61:db:55:60:5f:98:7b:d2:3e:08:8b:18:46:2f:41:
         d0:5f:97:02:3a:f5:14:ba:cf:3f:d6:d9:b0:1f:5d:bc:cf:9e:
         15:90:5b:5a:a3:ad:28:15:3e:1f:e1:c3:2e:d6:ad:f5:9a:77:
         ba:a5:e2:d8:8d:f2:b2:9b:74:30:66:6d:0b:04:6e:1a:7d:a0:
         3a:bb:0c:2f:1a:cf:86:b8:36:7b:e3:6d:1c:97:c9:67:f6:dd:
         34:1b:8f:ba:1c:40:68:48:55:f5:41:a2:37:14:64:fd:f7:b7:
         f2:fc:02:9b:69:88:e1:74:18:78:97:27:0f:3d:46:12:6a:8e:
         62:fa:1a:ee:ad:74:71:bd:9e:cd:aa:ca:2b:3b:e4:d1:06:d8:
         17:16:41:68:dd:0e:98:ee:14:cb:0b:b7:17:b1:8a:bd:62:27:
         96:07:63:9d:b3:44:24:a0:46:9c:04:15:25:cb:93:9c:35:7a:
         47:fe:80:bc:56:9a:5e:94:fa:34:10:ad:7d:62:13:7b:b5:41:
         8d:c2:b5:e7
-----BEGIN CERTIFICATE-----
MIIDejCCAmKgAwIBAgIBGjANBgkqhkiG9w0BAQsFADBpMQswCQYDVQQGEwJVUzET
MBEGA1UECAwKQ2FsaWZvcm5pYTEUMBIGA1UEBwwLU2FudGEgQ2xhcmExDTALBgNV
BAoMBHBrZzUxDDAKBgNVBAMMA3RhMzESMBAGCSqGSIb3DQEJARYDdGEzMB4XDTIx
MDkyMjA1MzMyNloXDTI0MDYxODA1MzMyNlowdTELMAkGA1UEBhMCVVMxEzARBgNV
BAgMCkNhbGlmb3JuaWExFDASBgNVBAcMC1NhbnRhIENsYXJhMQ0wCwYDVQQKDARw
a2c1MRIwEAYDVQQDDAljaDEuMV90YTMxGDAWBgkqhkiG9w0BCQEWCWNoMS4xX3Rh
MzCCASIwDQYJKoZIhvcNAQEBBQADggEPADCCAQoCggEBANFJfydx/XlWyIcLwcve
NGnTpJxo4OCWueHbG00UK8P1bYCMm2LsZHdo2XSp8ZXwywXFG17ZgxyQ6Ac1GTHF
J6vIYckhUYZTq+1zStW8Hki5qhAbYtDbqEZ+pLjEeMY2X/V7O+WUD2xikZlyWf91
rB/Ofpvb686H10AM5bUJrpI374vzz8TzTDLqTBYoSckzHah47ryr3MaCRMwl7UD4
eBY4rG5hhmrJDpixYuQFPgi2VXa56jPwFO96x0Z1vHVa6xdaHqbPnIQ2+reWzo9j
dylOTT2ighQkWaKlyObwIO/FmDaqrKnpd2cQX69j8SIar3y2Eet/Uyos9jst/xAN
8BMCAwEAAaMhMB8wDwYDVR0TAQH/BAUwAwEB/zAMBgNVHRIBAf8EAjAAMA0GCSqG
SIb3DQEBCwUAA4IBAQCpAhXn/TxHCrUNhoEFLAwihLlLNGpkYz7pO2ei2a3MgGd0
srXDR/uPIsjE7h1onwSXxurqSCn/Dy5h21VgX5h70j4IixhGL0HQX5cCOvUUus8/
1tmwH128z54VkFtao60oFT4f4cMu1q31mne6peLYjfKym3QwZm0LBG4afaA6uwwv
Gs+GuDZ7420cl8ln9t00G4+6HEBoSFX1QaI3FGT997fy/AKbaYjhdBh4lycPPUYS
ao5i+hrurXRxvZ7NqsorO+TRBtgXFkFo3Q6Y7hTLC7cXsYq9YieWB2Ods0QkoEac
BBUly5OcNXpH/oC8VppelPo0EK19YhN7tUGNwrXn
-----END CERTIFICATE-----
