Certificate:
    Data:
        Version: 3 (0x2)
        Serial Number: 30 (0x1e)
        Signature Algorithm: sha256WithRSAEncryption
        Issuer: C=US, ST=California, L=Santa Clara, O=pkg5, CN=ta3/emailAddress=ta3
        Validity
            Not Before: Jan  1 01:01:01 2035 GMT
            Not After : Jan  2 01:01:01 2035 GMT
        Subject: C=US, ST=California, L=Santa Clara, O=pkg5, CN=ch1.3_ta3/emailAddress=ch1.3_ta3
        Subject Public Key Info:
            Public Key Algorithm: rsaEncryption
                Public-Key: (2048 bit)
                Modulus:
                    00:b5:3d:4c:c9:77:8f:16:9f:d7:95:95:55:d1:b3:
                    be:13:eb:df:e4:a5:f9:3f:ce:d3:b0:af:ce:7b:1f:
                    f1:e0:83:1a:99:36:7e:8b:ba:c9:92:84:2e:6a:96:
                    d5:6a:b0:76:1f:9d:a3:f6:ef:cc:48:dd:23:83:6a:
                    2d:9c:22:b1:71:6d:18:45:89:26:ea:74:c1:ed:2b:
                    af:6b:e5:33:e5:52:9b:c9:75:2e:c8:75:76:02:8b:
                    4f:4f:60:45:a0:ef:25:c4:a6:f2:af:6e:25:6d:b7:
                    98:dc:cc:f6:f9:42:20:04:23:ad:be:47:d3:a6:bb:
                    c4:c1:a8:72:71:dd:93:f4:27:d1:f8:52:bf:f9:07:
                    34:b6:17:85:4b:5d:0e:55:a2:77:46:17:bb:e0:83:
                    e8:d8:d0:6f:ea:cf:d1:7b:5b:f5:9a:17:93:3a:e5:
                    75:bb:5c:a2:25:0d:fc:6a:56:ca:85:2e:1e:e3:ca:
                    2b:62:4c:0b:42:13:c7:23:70:52:fe:39:c2:f5:cd:
                    9f:1f:59:c6:c6:d7:ee:17:40:e1:87:fa:b3:ba:37:
                    5f:b0:d2:63:6c:9d:8a:72:94:52:3e:84:7c:b5:0d:
                    96:18:6f:70:9a:3b:6b:3c:2c:0a:27:de:c9:ad:db:
                    d9:f3:53:33:69:65:76:18:c4:9d:8e:70:ce:96:d2:
                    67:f5
                Exponent: 65537 (0x10001)
        X509v3 extensions:
            X509v3 Subject Key Identifier: 
                11:34:B4:0D:40:C9:78:3E:38:B3:97:FC:8B:BF:ED:DF:C9:EB:9A:49
            X509v3 Authority Key Identifier: 
                keyid:43:54:28:1A:4B:3C:F9:91:B3:CB:00:A8:B8:90:E4:B7:6F:B6:22:CD
                DirName:/C=US/ST=California/L=Santa Clara/O=pkg5/CN=ta3/emailAddress=ta3
                serial:74:E7:12:B5:F0:FD:DA:49:31:EB:3B:E1:EB:75:65:B3:79:2D:FC:FF
            X509v3 Basic Constraints: critical
                CA:TRUE
            X509v3 Key Usage: critical
                Certificate Sign, CRL Sign
    Signature Algorithm: sha256WithRSAEncryption
    Signature Value:
        77:ef:6d:73:a7:1e:bb:e6:9e:fb:af:ec:88:e9:b1:32:2d:d7:
        19:98:d5:d3:91:55:2f:5a:fb:d6:f6:14:7d:9d:1e:15:f7:43:
        66:84:3f:18:ac:41:9b:49:e9:e1:44:0d:1a:22:d1:b3:55:8a:
        94:0d:53:3b:e2:6f:83:82:41:31:a2:d1:60:e7:68:80:02:d1:
        5c:0e:d3:1e:82:b0:44:79:a5:64:f2:b7:3a:f6:a6:76:7f:71:
        4f:09:8d:83:1d:5d:0a:98:bb:fd:f9:c8:b4:be:09:85:f2:e7:
        24:17:d7:9b:0e:e8:55:31:70:ae:76:a1:c5:a2:58:a8:d3:c4:
        94:57:49:d5:a7:82:7e:ea:f4:ea:ba:5d:85:fe:f5:de:c8:2e:
        91:0f:6e:41:fc:1d:9c:0b:43:04:e1:22:e7:9c:b3:fd:d9:f1:
        ad:c3:b0:3e:e5:0d:44:51:49:18:d7:92:9b:c3:b1:02:f1:85:
        c1:aa:ec:78:f0:aa:ea:59:7b:9c:0f:23:44:27:24:21:e5:b5:
        df:29:f7:9d:02:cf:c4:44:f2:8c:c4:f8:95:97:55:1e:47:bc:
        09:d1:83:30:17:45:ec:91:71:6a:5f:87:ee:78:f1:54:ed:4a:
        4a:9c:ec:12:a4:38:55:8a:41:d8:a8:a1:f4:b7:53:99:94:e0:
        16:33:5a:c9
-----BEGIN CERTIFICATE-----
MIIERjCCAy6gAwIBAgIBHjANBgkqhkiG9w0BAQsFADBpMQswCQYDVQQGEwJVUzET
MBEGA1UECAwKQ2FsaWZvcm5pYTEUMBIGA1UEBwwLU2FudGEgQ2xhcmExDTALBgNV
BAoMBHBrZzUxDDAKBgNVBAMMA3RhMzESMBAGCSqGSIb3DQEJARYDdGEzMB4XDTM1
MDEwMTAxMDEwMVoXDTM1MDEwMjAxMDEwMVowdTELMAkGA1UEBhMCVVMxEzARBgNV
BAgMCkNhbGlmb3JuaWExFDASBgNVBAcMC1NhbnRhIENsYXJhMQ0wCwYDVQQKDARw
a2c1MRIwEAYDVQQDDAljaDEuM190YTMxGDAWBgkqhkiG9w0BCQEWCWNoMS4zX3Rh
MzCCASIwDQYJKoZIhvcNAQEBBQADggEPADCCAQoCggEBALU9TMl3jxaf15WVVdGz
vhPr3+Sl+T/O07Cvznsf8eCDGpk2fou6yZKELmqW1Wqwdh+do/bvzEjdI4NqLZwi
sXFtGEWJJup0we0rr2vlM+VSm8l1Lsh1dgKLT09gRaDvJcSm8q9uJW23mNzM9vlC
IAQjrb5H06a7xMGocnHdk/Qn0fhSv/kHNLYXhUtdDlWid0YXu+CD6NjQb+rP0Xtb
9ZoXkzrldbtcoiUN/GpWyoUuHuPKK2JMC0ITxyNwUv45wvXNnx9ZxsbX7hdA4Yf6
s7o3X7DSY2ydinKUUj6EfLUNlhhvcJo7azwsCifeya3b2fNTM2lldhjEnY5wzpbS
Z/UCAwEAAaOB7DCB6TAdBgNVHQ4EFgQUETS0DUDJeD44s5f8i7/t38nrmkkwgaYG
A1UdIwSBnjCBm4AUQ1QoGks8+ZGzywCouJDkt2+2Is2hbaRrMGkxCzAJBgNVBAYT
AlVTMRMwEQYDVQQIDApDYWxpZm9ybmlhMRQwEgYDVQQHDAtTYW50YSBDbGFyYTEN
MAsGA1UECgwEcGtnNTEMMAoGA1UEAwwDdGEzMRIwEAYJKoZIhvcNAQkBFgN0YTOC
FHTnErXw/dpJMes74et1ZbN5Lfz/MA8GA1UdEwEB/wQFMAMBAf8wDgYDVR0PAQH/
BAQDAgEGMA0GCSqGSIb3DQEBCwUAA4IBAQB3721zpx675p77r+yI6bEyLdcZmNXT
kVUvWvvW9hR9nR4V90NmhD8YrEGbSenhRA0aItGzVYqUDVM74m+DgkExotFg52iA
AtFcDtMegrBEeaVk8rc69qZ2f3FPCY2DHV0KmLv9+ci0vgmF8uckF9ebDuhVMXCu
dqHFolio08SUV0nVp4J+6vTqul2F/vXeyC6RD25B/B2cC0ME4SLnnLP92fGtw7A+
5Q1EUUkY15Kbw7EC8YXBqux48KrqWXucDyNEJyQh5bXfKfedAs/ERPKMxPiVl1Ue
R7wJ0YMwF0XskXFqX4fuePFU7UpKnOwSpDhVikHYqKH0t1OZlOAWM1rJ
-----END CERTIFICATE-----
