Certificate:
    Data:
        Version: 3 (0x2)
        Serial Number: 32 (0x20)
    Signature Algorithm: sha256WithRSAEncryption
        Issuer: C=US, ST=California, L=Santa Clara, O=pkg5, CN=ta3/emailAddress=ta3
        Validity
            Not Before: Jan  1 01:01:01 2035 GMT
            Not After : Jan  2 01:01:01 2035 GMT
        Subject: C=US, ST=California, L=Santa Clara, O=pkg5, CN=ch1.4_ta3/emailAddress=ch1.4_ta3
        Subject Public Key Info:
            Public Key Algorithm: rsaEncryption
                Public-Key: (2048 bit)
                Modulus:
                    00:a0:71:e6:05:d2:e9:57:76:3f:dc:9a:55:e7:b1:
                    24:a2:8c:e2:06:d3:bb:d4:32:77:12:81:13:31:99:
                    10:22:b7:f8:0a:59:26:21:e8:65:e6:fb:3e:91:ed:
                    ca:2b:48:87:36:90:03:8c:4b:bf:26:e5:97:1c:dd:
                    6b:d2:d9:d0:fd:32:8b:32:93:ab:41:b1:6a:bd:c4:
                    91:63:5a:38:86:ea:40:d7:54:81:09:bd:9a:79:05:
                    c7:02:ce:97:07:5c:be:d3:5b:97:6c:6e:59:f8:c6:
                    45:54:39:5e:2e:8a:0f:ec:d2:65:d9:0a:44:de:04:
                    46:fd:d2:20:2e:ec:92:23:39:c1:e7:28:c1:5c:1f:
                    02:55:b1:06:f8:77:3f:11:13:73:f7:98:d6:57:25:
                    95:e0:1e:ea:bf:68:8c:7e:11:5d:24:f3:c1:fb:63:
                    0e:2d:e7:54:94:19:38:40:12:97:e2:0b:15:d9:a7:
                    df:28:56:7c:21:94:d9:c8:58:c8:8d:15:03:12:b3:
                    21:3d:f9:d9:f4:d0:71:22:82:24:5a:89:03:eb:0c:
                    ed:1d:6f:ea:32:03:7b:ee:53:56:82:fb:84:2c:db:
                    4f:69:8a:3c:32:9e:de:68:c4:09:42:4b:6a:f1:65:
                    ff:40:0f:24:46:8a:ed:81:e0:9f:c7:d7:11:1e:37:
                    61:db
                Exponent: 65537 (0x10001)
        X509v3 extensions:
            X509v3 Subject Key Identifier: 
                39:DA:53:BC:17:30:10:FC:C0:2C:B9:39:A9:20:A0:69:1A:1D:9C:03
            X509v3 Authority Key Identifier: 
                keyid:F1:FE:91:A7:14:72:15:61:A7:C6:93:C7:91:B2:B7:F8:10:65:AA:16
                DirName:/C=US/ST=California/L=Santa Clara/O=pkg5/CN=ta3/emailAddress=ta3
                serial:B8:59:05:26:1A:C6:94:CC

            X509v3 Basic Constraints: critical
                CA:TRUE
    Signature Algorithm: sha256WithRSAEncryption
         40:85:7f:63:0c:a1:15:4d:22:b8:df:3f:a8:15:3e:95:06:2c:
         d9:df:82:a5:05:83:56:b4:ec:c4:df:f7:be:29:2d:b9:96:dc:
         43:13:17:41:65:1f:7f:2b:7d:cc:b1:9d:4e:8f:cd:eb:20:38:
         c6:d8:08:68:69:85:6c:57:0e:bb:20:b2:f7:4a:9e:50:86:24:
         23:78:f0:d5:98:ea:9d:b8:53:c2:44:00:b7:5c:c4:f9:18:ce:
         2e:fd:4d:97:d8:f3:e7:aa:f5:72:0a:5e:a6:c4:2f:9f:7d:d7:
         5d:0b:db:ae:ac:c7:e2:83:ca:1b:b5:b3:7f:34:41:e8:60:de:
         3b:41:8c:4b:fd:a2:cc:84:11:4d:87:05:13:2e:f9:f9:17:d2:
         54:2f:4b:a0:a4:1f:76:ad:44:68:dd:0b:84:41:1a:68:18:b1:
         71:b8:e1:7d:2f:f9:71:6f:c6:c9:ab:b1:39:54:7f:b4:9a:42:
         17:93:99:f1:ef:d4:60:2c:de:0c:23:a6:43:63:c2:45:1b:cf:
         72:22:6a:49:93:c6:df:d9:98:57:75:3d:b8:f3:8a:2e:42:70:
         29:de:ac:7f:52:04:8e:04:ed:d5:71:e5:f7:54:81:62:7a:40:
         df:46:45:11:12:79:93:e7:f9:b5:b8:2f:29:3e:78:3d:4f:5c:
         be:a8:64:ac
-----BEGIN CERTIFICATE-----
MIIEKzCCAxOgAwIBAgIBIDANBgkqhkiG9w0BAQsFADBpMQswCQYDVQQGEwJVUzET
MBEGA1UECAwKQ2FsaWZvcm5pYTEUMBIGA1UEBwwLU2FudGEgQ2xhcmExDTALBgNV
BAoMBHBrZzUxDDAKBgNVBAMMA3RhMzESMBAGCSqGSIb3DQEJARYDdGEzMB4XDTM1
MDEwMTAxMDEwMVoXDTM1MDEwMjAxMDEwMVowdTELMAkGA1UEBhMCVVMxEzARBgNV
BAgMCkNhbGlmb3JuaWExFDASBgNVBAcMC1NhbnRhIENsYXJhMQ0wCwYDVQQKDARw
a2c1MRIwEAYDVQQDDAljaDEuNF90YTMxGDAWBgkqhkiG9w0BCQEWCWNoMS40X3Rh
MzCCASIwDQYJKoZIhvcNAQEBBQADggEPADCCAQoCggEBAKBx5gXS6Vd2P9yaVeex
JKKM4gbTu9QydxKBEzGZECK3+ApZJiHoZeb7PpHtyitIhzaQA4xLvybllxzda9LZ
0P0yizKTq0Gxar3EkWNaOIbqQNdUgQm9mnkFxwLOlwdcvtNbl2xuWfjGRVQ5Xi6K
D+zSZdkKRN4ERv3SIC7skiM5wecowVwfAlWxBvh3PxETc/eY1lclleAe6r9ojH4R
XSTzwftjDi3nVJQZOEASl+ILFdmn3yhWfCGU2chYyI0VAxKzIT352fTQcSKCJFqJ
A+sM7R1v6jIDe+5TVoL7hCzbT2mKPDKe3mjECUJLavFl/0APJEaK7YHgn8fXER43
YdsCAwEAAaOB0TCBzjAdBgNVHQ4EFgQUOdpTvBcwEPzALLk5qSCgaRodnAMwgZsG
A1UdIwSBkzCBkIAU8f6RpxRyFWGnxpPHkbK3+BBlqhahbaRrMGkxCzAJBgNVBAYT
AlVTMRMwEQYDVQQIDApDYWxpZm9ybmlhMRQwEgYDVQQHDAtTYW50YSBDbGFyYTEN
MAsGA1UECgwEcGtnNTEMMAoGA1UEAwwDdGEzMRIwEAYJKoZIhvcNAQkBFgN0YTOC
CQC4WQUmGsaUzDAPBgNVHRMBAf8EBTADAQH/MA0GCSqGSIb3DQEBCwUAA4IBAQBA
hX9jDKEVTSK43z+oFT6VBizZ34KlBYNWtOzE3/e+KS25ltxDExdBZR9/K33MsZ1O
j83rIDjG2AhoaYVsVw67ILL3Sp5QhiQjePDVmOqduFPCRAC3XMT5GM4u/U2X2PPn
qvVyCl6mxC+ffdddC9uurMfig8obtbN/NEHoYN47QYxL/aLMhBFNhwUTLvn5F9JU
L0ugpB92rURo3QuEQRpoGLFxuOF9L/lxb8bJq7E5VH+0mkIXk5nx79RgLN4MI6ZD
Y8JFG89yImpJk8bf2ZhXdT2484ouQnAp3qx/UgSOBO3VceX3VIFiekDfRkUREnmT
5/m1uC8pPng9T1y+qGSs
-----END CERTIFICATE-----
