Certificate:
    Data:
        Version: 3 (0x2)
        Serial Number: 1 (0x1)
    Signature Algorithm: sha256WithRSAEncryption
        Issuer: C=US, ST=California, L=Santa Clara, O=pkg5, CN=ta1/emailAddress=ta1
        Validity
            Not Before: Jan 22 15:33:05 2019 GMT
            Not After : Oct 18 15:33:05 2021 GMT
        Subject: C=US, ST=California, L=Santa Clara, O=pkg5, CN=ch1_ta1/emailAddress=ch1_ta1
        Subject Public Key Info:
            Public Key Algorithm: rsaEncryption
                Public-Key: (2048 bit)
                Modulus:
                    00:ec:a5:ff:28:d7:43:eb:46:71:88:60:eb:b4:e6:
                    1e:2a:cc:77:b9:ae:78:7d:af:4c:cd:a9:81:47:7f:
                    ad:00:2e:23:9b:a2:f1:a8:5b:5a:ea:e8:69:c4:7b:
                    0e:9a:91:cf:48:87:69:f8:10:fc:7a:7f:a2:0b:d9:
                    ec:e4:64:4a:39:28:45:99:89:0c:b4:25:8d:a0:ab:
                    20:a6:5a:7a:55:5b:37:ad:ea:72:ac:0a:6e:87:c2:
                    28:93:50:e7:e3:85:e7:1b:c2:8c:4e:73:ca:a8:04:
                    be:22:78:a5:6b:a4:fc:d3:4c:c0:8b:24:3b:b0:86:
                    53:97:2a:51:34:77:73:31:4b:59:62:47:db:8d:72:
                    d8:f8:44:56:fc:32:90:3e:88:06:b9:53:bd:14:28:
                    27:c0:25:14:89:07:f8:39:4e:9c:8e:61:0b:5c:29:
                    9a:65:cf:1f:30:00:10:bb:6e:54:52:4e:fc:2c:75:
                    e4:53:58:75:12:ac:3c:2f:9e:65:4e:c4:06:f1:a4:
                    2c:34:67:77:99:95:1a:86:0e:c7:8e:7d:cd:bd:75:
                    72:66:bd:4a:6c:23:b5:5e:66:a1:7b:f2:f2:a9:d3:
                    dd:95:72:46:0e:4b:d9:fa:14:2c:4f:75:65:29:5d:
                    69:10:70:fc:16:64:18:21:cd:51:de:e3:3b:86:09:
                    2b:d5
                Exponent: 65537 (0x10001)
        X509v3 extensions:
            X509v3 Subject Key Identifier: 
                9F:68:CE:D3:BE:58:61:D2:24:E5:73:16:40:D1:E8:A5:F7:64:14:BD
            X509v3 Authority Key Identifier: 
                keyid:AC:4B:88:18:9E:55:AA:15:1B:8F:35:B4:96:55:5B:7C:27:F9:99:C7
                DirName:/C=US/ST=California/L=Santa Clara/O=pkg5/CN=ta1/emailAddress=ta1
                serial:E7:9E:2C:BD:E7:36:F4:D0

            X509v3 Basic Constraints: critical
                CA:TRUE, pathlen:4
            X509v3 Key Usage: critical
                Certificate Sign, CRL Sign
    Signature Algorithm: sha256WithRSAEncryption
         67:3c:f1:c6:2b:11:9f:64:fb:7d:67:15:b1:73:18:f4:93:ea:
         62:91:d5:cc:5a:08:39:96:e1:74:06:01:c3:c8:9a:10:ad:a7:
         1e:45:13:76:1e:12:31:08:b8:f0:45:1c:3e:b0:6b:10:0f:69:
         a4:46:6e:38:7f:73:8d:66:60:6a:a9:58:8b:b8:09:89:d6:e3:
         b3:b8:77:92:aa:1b:62:d2:cf:e3:92:7d:1f:59:e2:70:cc:9c:
         34:66:fa:cf:35:f6:d5:1a:f7:85:93:87:66:15:b4:ae:57:43:
         6b:72:08:31:16:4b:61:1d:3f:38:c2:3a:d3:a9:37:a5:a4:e5:
         c5:6a:89:7b:b7:9a:c3:5c:8f:21:73:89:28:28:fe:b7:8d:25:
         2d:dd:49:51:6d:72:ad:2b:6f:3c:e8:a2:d6:2e:52:c1:c3:28:
         b9:f5:87:e3:99:6c:60:c0:43:63:ee:3e:37:7c:5a:31:10:86:
         f9:df:73:f2:c0:24:52:d1:ed:73:bb:a9:85:3f:2c:9e:0a:da:
         ff:45:d1:66:6f:5c:41:ac:4e:bf:cf:99:5a:e6:ed:d7:54:f3:
         7b:b9:95:8f:23:09:a8:62:1a:1e:ae:35:ce:f5:9f:2c:2f:d7:
         ba:83:e5:e9:4f:41:6d:4c:ed:1c:a3:e1:33:77:2f:36:65:d7:
         91:77:91:f5
-----BEGIN CERTIFICATE-----
MIIEOjCCAyKgAwIBAgIBATANBgkqhkiG9w0BAQsFADBpMQswCQYDVQQGEwJVUzET
MBEGA1UECAwKQ2FsaWZvcm5pYTEUMBIGA1UEBwwLU2FudGEgQ2xhcmExDTALBgNV
BAoMBHBrZzUxDDAKBgNVBAMMA3RhMTESMBAGCSqGSIb3DQEJARYDdGExMB4XDTE5
MDEyMjE1MzMwNVoXDTIxMTAxODE1MzMwNVowcTELMAkGA1UEBhMCVVMxEzARBgNV
BAgMCkNhbGlmb3JuaWExFDASBgNVBAcMC1NhbnRhIENsYXJhMQ0wCwYDVQQKDARw
a2c1MRAwDgYDVQQDDAdjaDFfdGExMRYwFAYJKoZIhvcNAQkBFgdjaDFfdGExMIIB
IjANBgkqhkiG9w0BAQEFAAOCAQ8AMIIBCgKCAQEA7KX/KNdD60ZxiGDrtOYeKsx3
ua54fa9MzamBR3+tAC4jm6LxqFta6uhpxHsOmpHPSIdp+BD8en+iC9ns5GRKOShF
mYkMtCWNoKsgplp6VVs3repyrApuh8Iok1Dn44XnG8KMTnPKqAS+Inila6T800zA
iyQ7sIZTlypRNHdzMUtZYkfbjXLY+ERW/DKQPogGuVO9FCgnwCUUiQf4OU6cjmEL
XCmaZc8fMAAQu25UUk78LHXkU1h1Eqw8L55lTsQG8aQsNGd3mZUahg7Hjn3NvXVy
Zr1KbCO1Xmahe/LyqdPdlXJGDkvZ+hQsT3VlKV1pEHD8FmQYIc1R3uM7hgkr1QID
AQABo4HkMIHhMB0GA1UdDgQWBBSfaM7Tvlhh0iTlcxZA0eil92QUvTCBmwYDVR0j
BIGTMIGQgBSsS4gYnlWqFRuPNbSWVVt8J/mZx6FtpGswaTELMAkGA1UEBhMCVVMx
EzARBgNVBAgMCkNhbGlmb3JuaWExFDASBgNVBAcMC1NhbnRhIENsYXJhMQ0wCwYD
VQQKDARwa2c1MQwwCgYDVQQDDAN0YTExEjAQBgkqhkiG9w0BCQEWA3RhMYIJAOee
LL3nNvTQMBIGA1UdEwEB/wQIMAYBAf8CAQQwDgYDVR0PAQH/BAQDAgEGMA0GCSqG
SIb3DQEBCwUAA4IBAQBnPPHGKxGfZPt9ZxWxcxj0k+pikdXMWgg5luF0BgHDyJoQ
raceRRN2HhIxCLjwRRw+sGsQD2mkRm44f3ONZmBqqViLuAmJ1uOzuHeSqhti0s/j
kn0fWeJwzJw0ZvrPNfbVGveFk4dmFbSuV0NrcggxFkthHT84wjrTqTelpOXFaol7
t5rDXI8hc4koKP63jSUt3UlRbXKtK2886KLWLlLBwyi59YfjmWxgwENj7j43fFox
EIb533PywCRS0e1zu6mFPyyeCtr/RdFmb1xBrE6/z5la5u3XVPN7uZWPIwmoYhoe
rjXO9Z8sL9e6g+XpT0FtTO0co+Ezdy82ZdeRd5H1
-----END CERTIFICATE-----
