Certificate:
    Data:
        Version: 3 (0x2)
        Serial Number: 40 (0x28)
    Signature Algorithm: sha256WithRSAEncryption
        Issuer: C=US, ST=California, L=Santa Clara, O=pkg5, CN=ta5/emailAddress=ta5
        Validity
            Not Before: Dec 13 00:13:38 2013 GMT
            Not After : Sep  8 00:13:38 2016 GMT
        Subject: C=US, ST=California, L=Santa Clara, O=pkg5, CN=ch1_ta5/emailAddress=ch1_ta5
        Subject Public Key Info:
            Public Key Algorithm: rsaEncryption
                Public-Key: (1024 bit)
                Modulus:
                    00:c6:67:76:93:23:82:9f:2f:70:27:4f:64:9e:c3:
                    80:4d:e3:9d:bb:f9:ea:2e:f1:02:e1:e1:a8:5b:f6:
                    dc:c9:7b:ef:be:5a:41:11:bd:c4:51:e1:d8:74:6a:
                    16:89:83:f7:3a:fd:0b:cc:9b:e6:96:d8:13:e3:ef:
                    78:65:97:ff:81:90:97:e8:77:fd:ed:9c:56:2e:c7:
                    a4:ec:f7:2c:fc:a0:f6:de:ab:ec:d6:e7:9e:35:e6:
                    b7:dc:65:1b:c8:e4:5a:a2:9d:d8:5b:b9:fa:26:8c:
                    8d:00:66:c4:05:28:9c:a8:3c:b1:81:c7:75:0a:51:
                    ed:4f:49:d7:96:b5:8b:34:f9
                Exponent: 65537 (0x10001)
        X509v3 extensions:
            X509v3 Subject Key Identifier: 
                8E:29:B3:96:C1:67:FE:34:F3:55:99:68:C4:DA:2A:C0:24:8A:19:C6
            X509v3 Authority Key Identifier: 
                keyid:29:DA:B1:46:E3:61:51:AC:3C:3E:F6:78:5B:95:7B:6D:B2:F9:17:21
                DirName:/C=US/ST=California/L=Santa Clara/O=pkg5/CN=ta5/emailAddress=ta5
                serial:A7:8F:F0:5E:6B:64:C2:46

            X509v3 Basic Constraints: critical
                CA:TRUE
            X509v3 CRL Distribution Points: 

                Full Name:
                  URI:http://localhost:12001/file/0/ta5_crl.pem

            X509v3 Key Usage: critical
                Certificate Sign, CRL Sign
    Signature Algorithm: sha256WithRSAEncryption
         9d:32:27:d7:4e:4e:8b:e4:9f:d0:0d:11:f3:e5:be:5f:7f:7e:
         cf:ef:98:41:33:ba:04:ba:d9:7a:11:88:b8:13:66:74:44:1c:
         fb:1e:f3:fa:d4:18:85:cd:ed:f0:f8:c2:be:ab:75:cf:65:da:
         1a:77:01:0e:aa:49:ea:af:a7:db:39:84:f2:01:1d:28:e7:df:
         22:a9:59:5a:21:f9:f9:30:84:64:52:50:01:9b:b2:bf:ca:8a:
         b4:8b:36:96:e3:1a:ea:51:53:36:82:ba:88:8f:15:8c:e6:79:
         59:aa:71:9b:4c:58:a2:68:f0:43:36:15:af:69:af:32:ed:49:
         c8:9c
-----BEGIN CERTIFICATE-----
MIIDcDCCAtmgAwIBAgIBKDANBgkqhkiG9w0BAQsFADBpMQswCQYDVQQGEwJVUzET
MBEGA1UECAwKQ2FsaWZvcm5pYTEUMBIGA1UEBwwLU2FudGEgQ2xhcmExDTALBgNV
BAoMBHBrZzUxDDAKBgNVBAMMA3RhNTESMBAGCSqGSIb3DQEJARYDdGE1MB4XDTEz
MTIxMzAwMTMzOFoXDTE2MDkwODAwMTMzOFowcTELMAkGA1UEBhMCVVMxEzARBgNV
BAgMCkNhbGlmb3JuaWExFDASBgNVBAcMC1NhbnRhIENsYXJhMQ0wCwYDVQQKDARw
a2c1MRAwDgYDVQQDDAdjaDFfdGE1MRYwFAYJKoZIhvcNAQkBFgdjaDFfdGE1MIGf
MA0GCSqGSIb3DQEBAQUAA4GNADCBiQKBgQDGZ3aTI4KfL3AnT2Sew4BN4527+eou
8QLh4ahb9tzJe+++WkERvcRR4dh0ahaJg/c6/QvMm+aW2BPj73hll/+BkJfod/3t
nFYux6Ts9yz8oPbeq+zW55415rfcZRvI5FqindhbufomjI0AZsQFKJyoPLGBx3UK
Ue1PSdeWtYs0+QIDAQABo4IBHjCCARowHQYDVR0OBBYEFI4ps5bBZ/4081WZaMTa
KsAkihnGMIGbBgNVHSMEgZMwgZCAFCnasUbjYVGsPD72eFuVe22y+RchoW2kazBp
MQswCQYDVQQGEwJVUzETMBEGA1UECAwKQ2FsaWZvcm5pYTEUMBIGA1UEBwwLU2Fu
dGEgQ2xhcmExDTALBgNVBAoMBHBrZzUxDDAKBgNVBAMMA3RhNTESMBAGCSqGSIb3
DQEJARYDdGE1ggkAp4/wXmtkwkYwDwYDVR0TAQH/BAUwAwEB/zA6BgNVHR8EMzAx
MC+gLaArhilodHRwOi8vbG9jYWxob3N0OjEyMDAxL2ZpbGUvMC90YTVfY3JsLnBl
bTAOBgNVHQ8BAf8EBAMCAQYwDQYJKoZIhvcNAQELBQADgYEAnTIn105Oi+Sf0A0R
8+W+X39+z++YQTO6BLrZehGIuBNmdEQc+x7z+tQYhc3t8PjCvqt1z2XaGncBDqpJ
6q+n2zmE8gEdKOffIqlZWiH5+TCEZFJQAZuyv8qKtIs2luMa6lFTNoK6iI8VjOZ5
Wapxm0xYomjwQzYVr2mvMu1JyJw=
-----END CERTIFICATE-----
