Certificate:
    Data:
        Version: 3 (0x2)
        Serial Number: 16 (0x10)
    Signature Algorithm: sha256WithRSAEncryption
        Issuer: C=US, ST=California, L=Santa Clara, O=pkg5, CN=ta3/emailAddress=ta3
        Validity
            Not Before: Sep 22 05:33:21 2021 GMT
            Not After : Jun 18 05:33:21 2024 GMT
        Subject: C=US, ST=California, L=Santa Clara, O=pkg5, CN=ch1_ta3/emailAddress=ch1_ta3
        Subject Public Key Info:
            Public Key Algorithm: rsaEncryption
                Public-Key: (2048 bit)
                Modulus:
                    00:c8:63:5c:34:00:cc:8d:90:84:2b:08:1d:31:87:
                    af:d2:de:f7:83:82:3f:5a:a1:54:6f:1f:a0:3d:c4:
                    32:9b:fc:a5:2f:93:ff:66:0f:5e:98:b7:1d:ee:fe:
                    ff:32:e9:60:5d:56:de:91:d8:e4:b6:05:a4:9d:b3:
                    8c:a3:20:9c:dc:49:ef:92:87:20:e4:c7:d6:4c:1e:
                    c8:07:5d:27:57:11:30:2d:4b:5a:47:a0:e5:42:c1:
                    ff:d6:8c:35:4f:97:9b:13:fa:12:2b:03:5b:b2:29:
                    18:de:34:e6:7d:9b:7e:e4:ac:a4:da:21:60:69:10:
                    4f:96:c7:1c:b9:ff:f8:34:1b:10:50:e1:34:e4:43:
                    57:0c:86:94:62:c1:e6:86:8c:73:3b:56:a6:49:33:
                    78:82:4f:dd:a0:a3:39:87:24:e1:ce:91:ff:f4:2d:
                    f2:82:a6:13:9f:57:00:47:7b:c1:ca:9f:c1:17:84:
                    cb:bc:b7:e4:05:47:af:25:c0:d1:ab:02:8c:e3:08:
                    20:5d:65:76:c9:f7:e2:f1:40:e6:e0:91:ff:cd:cd:
                    49:11:8b:23:e5:61:bd:99:0b:68:a1:70:28:c5:df:
                    2e:4b:18:62:fc:b7:6e:97:d9:1d:c2:e2:81:17:94:
                    db:67:99:a3:90:2a:6a:7f:a3:9e:40:b2:1d:76:88:
                    3f:57
                Exponent: 65537 (0x10001)
        X509v3 extensions:
            X509v3 Subject Key Identifier: 
                FF:27:2A:75:75:4B:10:82:78:6B:2C:F9:1A:D7:3A:3C:0D:F3:92:C3
            X509v3 Authority Key Identifier: 
                keyid:CB:9F:D9:B5:D9:C8:81:12:9B:8E:95:9D:97:1F:DB:47:09:05:39:09
                DirName:/C=US/ST=California/L=Santa Clara/O=pkg5/CN=ta3/emailAddress=ta3
                serial:F3:7D:D2:B8:8F:C0:94:19

            X509v3 Basic Constraints: critical
                CA:TRUE
            X509v3 Key Usage: critical
                Certificate Sign, CRL Sign
    Signature Algorithm: sha256WithRSAEncryption
         83:66:29:69:b2:d8:1c:bc:1d:d3:fe:c2:45:4c:03:a4:29:52:
         8c:a9:db:ac:ff:bc:29:20:c5:1e:66:57:fa:f2:0c:a1:c6:30:
         0d:34:38:ee:be:47:e4:14:04:d4:7e:2c:38:97:4d:5d:de:45:
         9b:92:61:fd:8b:05:3a:12:22:b5:2a:76:68:a4:7c:8c:24:d2:
         b1:03:7f:85:0a:3b:c1:b3:9d:fa:82:e0:b0:a5:1e:4d:92:74:
         70:69:77:08:43:80:8b:6c:57:84:37:26:aa:6f:fe:bc:c6:fc:
         a0:2e:1d:00:ef:06:28:d9:5f:44:57:86:0b:b5:83:9b:33:c9:
         3d:de:27:66:c7:c1:10:c5:61:eb:b9:18:7f:d3:bc:b3:de:45:
         ca:1d:7a:8f:63:2d:f7:bd:0a:ad:b3:f9:8f:fd:ad:6f:02:3e:
         e5:76:b6:44:f8:d4:98:55:fc:fc:74:bb:71:c3:0d:4a:f8:71:
         1b:cd:53:6d:b5:27:5c:2f:a5:00:a6:5d:0c:0a:b1:e2:31:d2:
         d8:29:cf:ab:d4:0c:8b:be:f1:c7:42:8a:aa:3d:43:cc:98:d6:
         d3:37:f9:62:95:43:0f:a6:c3:6c:28:c8:46:c7:e9:e6:d5:f6:
         79:fc:9e:78:db:96:80:a1:79:59:1c:85:6e:29:cf:66:25:e2:
         e1:3d:5b:12
-----BEGIN CERTIFICATE-----
MIIENzCCAx+gAwIBAgIBEDANBgkqhkiG9w0BAQsFADBpMQswCQYDVQQGEwJVUzET
MBEGA1UECAwKQ2FsaWZvcm5pYTEUMBIGA1UEBwwLU2FudGEgQ2xhcmExDTALBgNV
BAoMBHBrZzUxDDAKBgNVBAMMA3RhMzESMBAGCSqGSIb3DQEJARYDdGEzMB4XDTIx
MDkyMjA1MzMyMVoXDTI0MDYxODA1MzMyMVowcTELMAkGA1UEBhMCVVMxEzARBgNV
BAgMCkNhbGlmb3JuaWExFDASBgNVBAcMC1NhbnRhIENsYXJhMQ0wCwYDVQQKDARw
a2c1MRAwDgYDVQQDDAdjaDFfdGEzMRYwFAYJKoZIhvcNAQkBFgdjaDFfdGEzMIIB
IjANBgkqhkiG9w0BAQEFAAOCAQ8AMIIBCgKCAQEAyGNcNADMjZCEKwgdMYev0t73
g4I/WqFUbx+gPcQym/ylL5P/Zg9emLcd7v7/MulgXVbekdjktgWknbOMoyCc3Env
kocg5MfWTB7IB10nVxEwLUtaR6DlQsH/1ow1T5ebE/oSKwNbsikY3jTmfZt+5Kyk
2iFgaRBPlsccuf/4NBsQUOE05ENXDIaUYsHmhoxzO1amSTN4gk/doKM5hyThzpH/
9C3ygqYTn1cAR3vByp/BF4TLvLfkBUevJcDRqwKM4wggXWV2yffi8UDm4JH/zc1J
EYsj5WG9mQtooXAoxd8uSxhi/Ldul9kdwuKBF5TbZ5mjkCpqf6OeQLIddog/VwID
AQABo4HhMIHeMB0GA1UdDgQWBBT/Jyp1dUsQgnhrLPka1zo8DfOSwzCBmwYDVR0j
BIGTMIGQgBTLn9m12ciBEpuOlZ2XH9tHCQU5CaFtpGswaTELMAkGA1UEBhMCVVMx
EzARBgNVBAgMCkNhbGlmb3JuaWExFDASBgNVBAcMC1NhbnRhIENsYXJhMQ0wCwYD
VQQKDARwa2c1MQwwCgYDVQQDDAN0YTMxEjAQBgkqhkiG9w0BCQEWA3RhM4IJAPN9
0riPwJQZMA8GA1UdEwEB/wQFMAMBAf8wDgYDVR0PAQH/BAQDAgEGMA0GCSqGSIb3
DQEBCwUAA4IBAQCDZilpstgcvB3T/sJFTAOkKVKMqdus/7wpIMUeZlf68gyhxjAN
NDjuvkfkFATUfiw4l01d3kWbkmH9iwU6EiK1KnZopHyMJNKxA3+FCjvBs536guCw
pR5NknRwaXcIQ4CLbFeENyaqb/68xvygLh0A7wYo2V9EV4YLtYObM8k93idmx8EQ
xWHruRh/07yz3kXKHXqPYy33vQqts/mP/a1vAj7ldrZE+NSYVfz8dLtxww1K+HEb
zVNttSdcL6UApl0MCrHiMdLYKc+r1AyLvvHHQoqqPUPMmNbTN/lilUMPpsNsKMhG
x+nm1fZ5/J5425aAoXlZHIVuKc9mJeLhPVsS
-----END CERTIFICATE-----
