Certificate:
    Data:
        Version: 3 (0x2)
        Serial Number: 16 (0x10)
        Signature Algorithm: sha256WithRSAEncryption
        Issuer: C=US, ST=California, L=Menlo Park, O=pkg5, CN=ta3/emailAddress=ta3
        Validity
            Not Before: Mar 21 00:49:27 2011 GMT
            Not After : Dec 15 00:49:27 2013 GMT
        Subject: C=US, ST=California, L=Menlo Park, O=pkg5, CN=ch1_ta3/emailAddress=ch1_ta3
        Subject Public Key Info:
            Public Key Algorithm: rsaEncryption
            RSA Public Key: (1024 bit)
                Modulus (1024 bit):
                    00:ce:60:c2:15:27:ff:ef:55:03:7a:1a:95:17:7f:
                    93:80:b9:a8:64:3f:96:0f:5e:b2:b6:0b:c0:85:02:
                    7a:25:96:e0:e7:31:07:f7:4a:b9:8b:a7:87:7c:34:
                    65:9b:08:b3:26:05:13:c4:d3:2e:88:e7:a7:d8:c7:
                    05:56:a4:8b:57:b6:12:2e:c4:68:6f:7c:b6:5d:38:
                    7d:a2:93:6f:30:9f:ef:bf:db:81:ee:7b:7f:3a:2e:
                    19:7e:b9:0d:9d:e2:0a:e3:56:36:8d:cb:54:d9:c3:
                    fd:67:59:58:19:8b:60:65:1d:9c:70:e8:c3:18:ae:
                    ec:af:56:ef:19:26:e6:94:fd
                Exponent: 65537 (0x10001)
        X509v3 extensions:
            X509v3 Subject Key Identifier: 
                0A:B2:12:2B:7E:04:40:9E:1A:C1:B4:A8:96:B9:C3:A1:0A:83:6D:3B
            X509v3 Authority Key Identifier: 
                keyid:E2:9E:A1:8B:D7:D3:B0:F1:C3:E9:77:A4:49:5D:6A:4E:AB:73:AC:5D
                DirName:/C=US/ST=California/L=Menlo Park/O=pkg5/CN=ta3/emailAddress=ta3
                serial:EE:77:7E:6A:C1:1E:57:ED

            X509v3 Basic Constraints: critical
                CA:TRUE
            X509v3 Key Usage: critical
                Certificate Sign, CRL Sign
    Signature Algorithm: sha256WithRSAEncryption
        35:2f:59:d9:6d:8f:bd:bc:f0:1a:f9:40:91:f3:f9:d7:4e:29:
        e5:cc:44:92:d1:13:cd:f7:e1:cb:a2:06:d3:ba:f2:c5:cf:c2:
        4c:ad:5c:3b:91:a6:2a:35:ed:ae:cb:fc:b9:78:90:fb:6b:8b:
        fd:20:ef:0a:69:61:5e:76:49:07:3b:11:fe:29:8f:fd:14:4d:
        be:72:79:aa:49:68:47:22:3e:88:56:71:58:f2:e7:3a:6c:52:
        66:73:98:28:41:e4:32:39:a6:c9:3e:40:12:de:4f:9a:fa:b1:
        9d:b8:75:5b:c3:05:0b:bc:da:33:a1:a4:6d:c6:4c:21:e6:74:
        87:36
-----BEGIN CERTIFICATE-----
MIIDLzCCApigAwIBAgIBEDANBgkqhkiG9w0BAQsFADBoMQswCQYDVQQGEwJVUzET
MBEGA1UECBMKQ2FsaWZvcm5pYTETMBEGA1UEBxMKTWVubG8gUGFyazENMAsGA1UE
ChMEcGtnNTEMMAoGA1UEAxMDdGEzMRIwEAYJKoZIhvcNAQkBFgN0YTMwHhcNMTEw
MzIxMDA0OTI3WhcNMTMxMjE1MDA0OTI3WjBwMQswCQYDVQQGEwJVUzETMBEGA1UE
CBMKQ2FsaWZvcm5pYTETMBEGA1UEBxMKTWVubG8gUGFyazENMAsGA1UEChMEcGtn
NTEQMA4GA1UEAxQHY2gxX3RhMzEWMBQGCSqGSIb3DQEJARYHY2gxX3RhMzCBnzAN
BgkqhkiG9w0BAQEFAAOBjQAwgYkCgYEAzmDCFSf/71UDehqVF3+TgLmoZD+WD16y
tgvAhQJ6JZbg5zEH90q5i6eHfDRlmwizJgUTxNMuiOen2McFVqSLV7YSLsRob3y2
XTh9opNvMJ/vv9uB7nt/Oi4ZfrkNneIK41Y2jctU2cP9Z1lYGYtgZR2ccOjDGK7s
r1bvGSbmlP0CAwEAAaOB4DCB3TAdBgNVHQ4EFgQUCrISK34EQJ4awbSolrnDoQqD
bTswgZoGA1UdIwSBkjCBj4AU4p6hi9fTsPHD6XekSV1qTqtzrF2hbKRqMGgxCzAJ
BgNVBAYTAlVTMRMwEQYDVQQIEwpDYWxpZm9ybmlhMRMwEQYDVQQHEwpNZW5sbyBQ
YXJrMQ0wCwYDVQQKEwRwa2c1MQwwCgYDVQQDEwN0YTMxEjAQBgkqhkiG9w0BCQEW
A3RhM4IJAO53fmrBHlftMA8GA1UdEwEB/wQFMAMBAf8wDgYDVR0PAQH/BAQDAgEG
MA0GCSqGSIb3DQEBCwUAA4GBADUvWdltj7288Br5QJHz+ddOKeXMRJLRE8334cui
BtO68sXPwkytXDuRpio17a7L/Ll4kPtri/0g7wppYV52SQc7Ef4pj/0UTb5yeapJ
aEciPohWcVjy5zpsUmZzmChB5DI5psk+QBLeT5r6sZ24dVvDBQu82jOhpG3GTCHm
dIc2
-----END CERTIFICATE-----
