Certificate:
    Data:
        Version: 3 (0x2)
        Serial Number: 40 (0x28)
        Signature Algorithm: sha256WithRSAEncryption
        Issuer: C=US, ST=California, L=Menlo Park, O=pkg5, CN=ta5/emailAddress=ta5
        Validity
            Not Before: Mar 21 00:49:34 2011 GMT
            Not After : Dec 15 00:49:34 2013 GMT
        Subject: C=US, ST=California, L=Menlo Park, O=pkg5, CN=ch1_ta5/emailAddress=ch1_ta5
        Subject Public Key Info:
            Public Key Algorithm: rsaEncryption
            RSA Public Key: (1024 bit)
                Modulus (1024 bit):
                    00:d2:0e:3e:0c:53:ef:ad:91:13:5e:b6:01:7f:c6:
                    16:4e:da:7d:c8:26:1b:85:38:e0:98:d4:b2:61:0b:
                    43:bb:2e:92:d5:9a:0e:db:ab:ad:8f:6e:9d:c8:25:
                    36:e2:db:ca:fa:ab:4b:5a:25:91:46:c9:66:11:0d:
                    66:9e:f7:11:82:02:e1:2e:ef:df:f4:ed:9f:0f:a4:
                    6f:60:41:20:32:8c:10:90:4c:9c:ad:55:cc:40:03:
                    89:f5:15:53:13:7d:ab:be:53:8b:14:44:88:f8:54:
                    50:db:31:f5:ae:5c:0d:78:68:aa:3f:9b:4a:fa:1a:
                    b1:47:53:bf:72:1d:89:f9:43
                Exponent: 65537 (0x10001)
        X509v3 extensions:
            X509v3 Subject Key Identifier: 
                08:00:AB:E5:4A:60:83:0C:49:32:88:DC:48:8D:79:30:7A:72:E4:A3
            X509v3 Authority Key Identifier: 
                keyid:8A:83:E9:51:D7:32:B4:6F:3B:85:AF:1A:11:94:5C:B6:21:E5:5D:0F
                DirName:/C=US/ST=California/L=Menlo Park/O=pkg5/CN=ta5/emailAddress=ta5
                serial:EC:86:C3:65:F9:7F:14:08

            X509v3 Basic Constraints: critical
                CA:TRUE
            X509v3 CRL Distribution Points: 
                URI:http://localhost:12001/file/0/ta5_crl.pem

            X509v3 Key Usage: critical
                Certificate Sign, CRL Sign
    Signature Algorithm: sha256WithRSAEncryption
        1e:0c:b3:a3:63:49:b5:3d:0e:4d:ed:d1:31:fc:06:39:8c:30:
        8d:f8:f1:0f:2e:ae:27:f2:57:d4:64:ff:ac:05:cc:2d:3d:0d:
        de:b3:e6:be:9c:51:9b:1a:08:b1:e7:9f:6d:3e:a6:af:c0:9c:
        d0:e6:57:de:d3:61:9c:0f:a9:c9:bc:0d:59:03:e2:d4:4d:f4:
        0d:48:49:ad:64:a2:33:71:3e:07:2f:61:a5:02:46:61:1c:c0:
        b5:f0:3c:f8:4f:42:ff:72:3c:7a:63:5a:16:68:7d:2b:08:aa:
        3b:bd:e5:25:9f:19:3e:22:42:cd:4b:e7:0f:17:c3:a9:1d:d6:
        9e:53
-----BEGIN CERTIFICATE-----
MIIDbTCCAtagAwIBAgIBKDANBgkqhkiG9w0BAQsFADBoMQswCQYDVQQGEwJVUzET
MBEGA1UECBMKQ2FsaWZvcm5pYTETMBEGA1UEBxMKTWVubG8gUGFyazENMAsGA1UE
ChMEcGtnNTEMMAoGA1UEAxMDdGE1MRIwEAYJKoZIhvcNAQkBFgN0YTUwHhcNMTEw
MzIxMDA0OTM0WhcNMTMxMjE1MDA0OTM0WjBwMQswCQYDVQQGEwJVUzETMBEGA1UE
CBMKQ2FsaWZvcm5pYTETMBEGA1UEBxMKTWVubG8gUGFyazENMAsGA1UEChMEcGtn
NTEQMA4GA1UEAxQHY2gxX3RhNTEWMBQGCSqGSIb3DQEJARYHY2gxX3RhNTCBnzAN
BgkqhkiG9w0BAQEFAAOBjQAwgYkCgYEA0g4+DFPvrZETXrYBf8YWTtp9yCYbhTjg
mNSyYQtDuy6S1ZoO26utj26dyCU24tvK+qtLWiWRRslmEQ1mnvcRggLhLu/f9O2f
D6RvYEEgMowQkEycrVXMQAOJ9RVTE32rvlOLFESI+FRQ2zH1rlwNeGiqP5tK+hqx
R1O/ch2J+UMCAwEAAaOCAR0wggEZMB0GA1UdDgQWBBQIAKvlSmCDDEkyiNxIjXkw
enLkozCBmgYDVR0jBIGSMIGPgBSKg+lR1zK0bzuFrxoRlFy2IeVdD6FspGowaDEL
MAkGA1UEBhMCVVMxEzARBgNVBAgTCkNhbGlmb3JuaWExEzARBgNVBAcTCk1lbmxv
IFBhcmsxDTALBgNVBAoTBHBrZzUxDDAKBgNVBAMTA3RhNTESMBAGCSqGSIb3DQEJ
ARYDdGE1ggkA7IbDZfl/FAgwDwYDVR0TAQH/BAUwAwEB/zA6BgNVHR8EMzAxMC+g
LaArhilodHRwOi8vbG9jYWxob3N0OjEyMDAxL2ZpbGUvMC90YTVfY3JsLnBlbTAO
BgNVHQ8BAf8EBAMCAQYwDQYJKoZIhvcNAQELBQADgYEAHgyzo2NJtT0OTe3RMfwG
OYwwjfjxDy6uJ/JX1GT/rAXMLT0N3rPmvpxRmxoIseefbT6mr8Cc0OZX3tNhnA+p
ybwNWQPi1E30DUhJrWSiM3E+By9hpQJGYRzAtfA8+E9C/3I8emNaFmh9KwiqO73l
JZ8ZPiJCzUvnDxfDqR3WnlM=
-----END CERTIFICATE-----
