Certificate:
    Data:
        Version: 3 (0x2)
        Serial Number: 34 (0x22)
        Signature Algorithm: sha256WithRSAEncryption
        Issuer: C=US, ST=California, L=Menlo Park, O=pkg5, CN=ta4/emailAddress=ta4
        Validity
            Not Before: Mar 21 00:49:32 2011 GMT
            Not After : Dec 15 00:49:32 2013 GMT
        Subject: C=US, ST=California, L=Menlo Park, O=pkg5, CN=ch1_ta4/emailAddress=ch1_ta4
        Subject Public Key Info:
            Public Key Algorithm: rsaEncryption
            RSA Public Key: (1024 bit)
                Modulus (1024 bit):
                    00:ad:9c:0a:58:1d:2c:e7:a7:fd:de:8c:0e:99:5d:
                    d0:b2:67:ff:59:40:86:7a:d5:13:cc:5e:a5:e4:81:
                    95:45:b5:6b:ad:2b:d5:26:bc:b2:53:03:94:57:61:
                    16:5d:60:df:2e:6a:15:3a:04:88:77:3f:cb:01:20:
                    10:20:e0:ab:49:6d:44:58:d9:c6:9b:44:73:ed:d9:
                    1a:f3:eb:ca:74:de:90:06:ff:cb:18:9c:43:f7:4e:
                    e0:cb:06:af:fe:4e:2c:9b:bf:6a:c2:ae:50:c3:e7:
                    fd:d9:c1:f1:18:ad:b7:ae:f7:56:8a:50:f6:13:1b:
                    47:0d:c2:cf:c4:3f:31:f1:2b
                Exponent: 65537 (0x10001)
        X509v3 extensions:
            X509v3 Subject Key Identifier: 
                AB:0B:EF:CE:AA:F0:43:97:3A:CD:58:D0:D9:C2:F9:C4:EB:8D:7C:FF
            X509v3 Authority Key Identifier: 
                keyid:0A:1C:BA:A6:5B:C6:83:32:60:E5:9B:00:85:37:74:D1:8D:30:BA:8A
                DirName:/C=US/ST=California/L=Menlo Park/O=pkg5/CN=ta4/emailAddress=ta4
                serial:C5:19:14:97:E3:27:2E:9B

            X509v3 Basic Constraints: critical
                CA:TRUE
            X509v3 Key Usage: critical
                Certificate Sign, CRL Sign
    Signature Algorithm: sha256WithRSAEncryption
        00:09:60:76:36:5d:a6:ae:0b:a0:94:ad:78:be:a0:18:7c:96:
        13:6c:8b:04:2c:bc:29:d8:f0:93:d8:86:d9:07:71:fb:0f:05:
        72:65:fe:ed:e3:1c:ac:bf:22:c2:db:03:c5:2e:3f:f2:cf:98:
        00:7b:ee:de:96:11:90:bf:22:03:7a:c3:c3:22:dc:1a:ea:7e:
        f5:7e:a7:64:70:18:e2:13:be:b0:3e:d8:57:a6:de:28:5b:06:
        4e:90:c6:22:e0:3a:e9:2c:9a:de:f4:bf:d8:b7:da:b7:e3:24:
        f6:11:69:18:e5:64:fd:94:22:7b:b5:ef:e4:4d:6c:1a:eb:8f:
        5c:7d
-----BEGIN CERTIFICATE-----
MIIDLzCCApigAwIBAgIBIjANBgkqhkiG9w0BAQsFADBoMQswCQYDVQQGEwJVUzET
MBEGA1UECBMKQ2FsaWZvcm5pYTETMBEGA1UEBxMKTWVubG8gUGFyazENMAsGA1UE
ChMEcGtnNTEMMAoGA1UEAxMDdGE0MRIwEAYJKoZIhvcNAQkBFgN0YTQwHhcNMTEw
MzIxMDA0OTMyWhcNMTMxMjE1MDA0OTMyWjBwMQswCQYDVQQGEwJVUzETMBEGA1UE
CBMKQ2FsaWZvcm5pYTETMBEGA1UEBxMKTWVubG8gUGFyazENMAsGA1UEChMEcGtn
NTEQMA4GA1UEAxQHY2gxX3RhNDEWMBQGCSqGSIb3DQEJARYHY2gxX3RhNDCBnzAN
BgkqhkiG9w0BAQEFAAOBjQAwgYkCgYEArZwKWB0s56f93owOmV3Qsmf/WUCGetUT
zF6l5IGVRbVrrSvVJryyUwOUV2EWXWDfLmoVOgSIdz/LASAQIOCrSW1EWNnGm0Rz
7dka8+vKdN6QBv/LGJxD907gywav/k4sm79qwq5Qw+f92cHxGK23rvdWilD2ExtH
DcLPxD8x8SsCAwEAAaOB4DCB3TAdBgNVHQ4EFgQUqwvvzqrwQ5c6zVjQ2cL5xOuN
fP8wgZoGA1UdIwSBkjCBj4AUChy6plvGgzJg5ZsAhTd00Y0wuoqhbKRqMGgxCzAJ
BgNVBAYTAlVTMRMwEQYDVQQIEwpDYWxpZm9ybmlhMRMwEQYDVQQHEwpNZW5sbyBQ
YXJrMQ0wCwYDVQQKEwRwa2c1MQwwCgYDVQQDEwN0YTQxEjAQBgkqhkiG9w0BCQEW
A3RhNIIJAMUZFJfjJy6bMA8GA1UdEwEB/wQFMAMBAf8wDgYDVR0PAQH/BAQDAgEG
MA0GCSqGSIb3DQEBCwUAA4GBAAAJYHY2XaauC6CUrXi+oBh8lhNsiwQsvCnY8JPY
htkHcfsPBXJl/u3jHKy/IsLbA8UuP/LPmAB77t6WEZC/IgN6w8Mi3BrqfvV+p2Rw
GOITvrA+2Fem3ihbBk6QxiLgOuksmt70v9i32rfjJPYRaRjlZP2UInu17+RNbBrr
j1x9
-----END CERTIFICATE-----
