Certificate:
    Data:
        Version: 3 (0x2)
        Serial Number: 1 (0x1)
    Signature Algorithm: sha256WithRSAEncryption
        Issuer: C=US, ST=California, L=Santa Clara, O=pkg5, CN=ta1/emailAddress=ta1
        Validity
            Not Before: Jan 22 01:57:53 2016 GMT
            Not After : Oct 18 01:57:53 2018 GMT
        Subject: C=US, ST=California, L=Santa Clara, O=pkg5, CN=ch1_ta1/emailAddress=ch1_ta1
        Subject Public Key Info:
            Public Key Algorithm: rsaEncryption
                Public-Key: (2048 bit)
                Modulus:
                    00:ef:e4:87:59:74:82:97:b8:fa:7e:12:4a:e8:48:
                    fe:95:28:15:6a:c7:07:ac:10:27:fb:58:9e:2c:9a:
                    43:84:2b:1d:e4:04:68:e1:64:cd:3d:be:97:4a:f1:
                    c0:e5:3f:b9:04:70:eb:02:7f:e2:f4:3c:23:44:80:
                    b0:9f:ab:02:09:37:10:c6:25:53:f2:9b:24:d8:7e:
                    c6:0a:71:56:95:72:71:e9:97:d6:70:5f:76:2b:bf:
                    f4:c4:43:93:9c:62:ad:60:3c:27:3a:19:e6:64:db:
                    1d:56:60:a5:32:8c:91:61:15:b9:9a:ef:89:4e:bf:
                    4b:ca:90:7b:01:05:1c:1f:51:ec:33:43:66:f2:eb:
                    45:17:e9:dc:fa:f3:d3:73:82:ae:9b:cc:fb:c8:44:
                    29:3a:c8:24:5c:b7:52:d2:fa:30:0d:42:7a:8c:e1:
                    0a:4c:5a:0c:6e:57:7b:0f:9f:e3:ae:84:bd:1b:10:
                    ee:63:f2:5e:0d:91:bd:9a:b6:e4:f6:a6:85:92:e8:
                    bc:3c:b4:da:13:6e:0b:9b:f9:6f:4b:1d:61:57:44:
                    23:a7:78:35:72:ef:51:a8:98:14:2a:78:d0:55:da:
                    fe:f1:93:e0:fd:6c:e6:42:6b:3b:eb:4f:f8:b1:ac:
                    dd:78:9b:9f:f8:c1:51:28:fe:04:aa:8b:c8:40:f7:
                    f6:73
                Exponent: 65537 (0x10001)
        X509v3 extensions:
            X509v3 Subject Key Identifier: 
                2E:B3:14:E2:95:4C:93:07:05:A4:87:64:EA:C4:57:2D:52:3B:8C:F9
            X509v3 Authority Key Identifier: 
                keyid:D6:A2:C9:8F:BE:AC:C1:F3:E7:8A:8D:01:1C:0A:7D:C1:EE:88:E5:A6
                DirName:/C=US/ST=California/L=Santa Clara/O=pkg5/CN=ta1/emailAddress=ta1
                serial:B8:ED:CE:51:42:C8:90:81

            X509v3 Basic Constraints: critical
                CA:TRUE, pathlen:4
            X509v3 Key Usage: critical
                Certificate Sign, CRL Sign
    Signature Algorithm: sha256WithRSAEncryption
         32:8d:c5:57:e8:49:29:70:35:e7:5a:4f:c7:78:70:ad:9e:6e:
         2d:27:e2:a6:95:eb:30:a8:b5:71:6b:0e:5b:de:ca:9b:3e:be:
         8d:34:d4:98:68:67:2f:8a:63:50:66:71:5b:3b:5b:1e:b4:37:
         6b:6b:df:7c:1e:9e:24:01:8d:0a:ea:b0:e5:1f:31:1e:d1:ed:
         68:cf:73:00:56:36:cc:e5:83:3f:c4:c0:00:d5:3f:3c:f8:2f:
         dd:4e:c6:68:08:b5:80:ef:d0:ab:4c:55:a1:7b:4a:1e:67:02:
         5d:fb:56:68:88:f2:49:2f:e5:f5:4c:3a:2d:54:b7:9a:79:38:
         f1:87:b4:d9:8d:b6:0c:88:ec:a1:ce:00:e0:9a:13:3b:57:d6:
         80:17:a0:e8:1b:3e:e6:25:d8:bd:8e:1d:bb:45:36:9f:4b:a7:
         4e:3e:f5:fb:60:73:85:2e:4e:35:10:9a:a8:44:ea:22:8f:6f:
         27:84:3f:e8:02:05:7c:fd:57:61:76:1b:6b:52:6b:b9:c4:6c:
         9b:84:e3:c5:91:16:14:03:a0:80:e8:80:35:bc:92:97:35:13:
         e5:d9:1b:4e:4b:0c:ba:15:cf:d8:5f:c9:86:fd:44:74:88:34:
         76:12:85:90:a1:d9:3a:cf:d3:63:3f:be:91:d1:66:04:fc:5b:
         84:8d:f8:a7
-----BEGIN CERTIFICATE-----
MIIEOjCCAyKgAwIBAgIBATANBgkqhkiG9w0BAQsFADBpMQswCQYDVQQGEwJVUzET
MBEGA1UECAwKQ2FsaWZvcm5pYTEUMBIGA1UEBwwLU2FudGEgQ2xhcmExDTALBgNV
BAoMBHBrZzUxDDAKBgNVBAMMA3RhMTESMBAGCSqGSIb3DQEJARYDdGExMB4XDTE2
MDEyMjAxNTc1M1oXDTE4MTAxODAxNTc1M1owcTELMAkGA1UEBhMCVVMxEzARBgNV
BAgMCkNhbGlmb3JuaWExFDASBgNVBAcMC1NhbnRhIENsYXJhMQ0wCwYDVQQKDARw
a2c1MRAwDgYDVQQDDAdjaDFfdGExMRYwFAYJKoZIhvcNAQkBFgdjaDFfdGExMIIB
IjANBgkqhkiG9w0BAQEFAAOCAQ8AMIIBCgKCAQEA7+SHWXSCl7j6fhJK6Ej+lSgV
ascHrBAn+1ieLJpDhCsd5ARo4WTNPb6XSvHA5T+5BHDrAn/i9DwjRICwn6sCCTcQ
xiVT8psk2H7GCnFWlXJx6ZfWcF92K7/0xEOTnGKtYDwnOhnmZNsdVmClMoyRYRW5
mu+JTr9LypB7AQUcH1HsM0Nm8utFF+nc+vPTc4Kum8z7yEQpOsgkXLdS0vowDUJ6
jOEKTFoMbld7D5/jroS9GxDuY/JeDZG9mrbk9qaFkui8PLTaE24Lm/lvSx1hV0Qj
p3g1cu9RqJgUKnjQVdr+8ZPg/WzmQms760/4sazdeJuf+MFRKP4EqovIQPf2cwID
AQABo4HkMIHhMB0GA1UdDgQWBBQusxTilUyTBwWkh2TqxFctUjuM+TCBmwYDVR0j
BIGTMIGQgBTWosmPvqzB8+eKjQEcCn3B7ojlpqFtpGswaTELMAkGA1UEBhMCVVMx
EzARBgNVBAgMCkNhbGlmb3JuaWExFDASBgNVBAcMC1NhbnRhIENsYXJhMQ0wCwYD
VQQKDARwa2c1MQwwCgYDVQQDDAN0YTExEjAQBgkqhkiG9w0BCQEWA3RhMYIJALjt
zlFCyJCBMBIGA1UdEwEB/wQIMAYBAf8CAQQwDgYDVR0PAQH/BAQDAgEGMA0GCSqG
SIb3DQEBCwUAA4IBAQAyjcVX6EkpcDXnWk/HeHCtnm4tJ+KmleswqLVxaw5b3sqb
Pr6NNNSYaGcvimNQZnFbO1setDdra998Hp4kAY0K6rDlHzEe0e1oz3MAVjbM5YM/
xMAA1T88+C/dTsZoCLWA79CrTFWhe0oeZwJd+1ZoiPJJL+X1TDotVLeaeTjxh7TZ
jbYMiOyhzgDgmhM7V9aAF6DoGz7mJdi9jh27RTafS6dOPvX7YHOFLk41EJqoROoi
j28nhD/oAgV8/VdhdhtrUmu5xGybhOPFkRYUA6CA6IA1vJKXNRPl2RtOSwy6Fc/Y
X8mG/UR0iDR2EoWQodk6z9NjP76R0WYE/FuEjfin
-----END CERTIFICATE-----
