Certificate:
    Data:
        Version: 3 (0x2)
        Serial Number: 1 (0x1)
        Signature Algorithm: sha256WithRSAEncryption
        Issuer: C=US, ST=California, L=Menlo Park, O=pkg5, CN=ta1/emailAddress=ta1
        Validity
            Not Before: Mar 21 00:49:23 2011 GMT
            Not After : Dec 15 00:49:23 2013 GMT
        Subject: C=US, ST=California, L=Menlo Park, O=pkg5, CN=ch1_ta1/emailAddress=ch1_ta1
        Subject Public Key Info:
            Public Key Algorithm: rsaEncryption
            RSA Public Key: (1024 bit)
                Modulus (1024 bit):
                    00:ac:0e:d4:ba:18:4f:d2:22:6d:1e:0e:c5:31:18:
                    76:c2:cd:70:f7:ab:97:60:94:39:69:c9:d5:98:d8:
                    c9:84:a6:1c:93:92:00:e0:fd:79:d2:ee:84:95:b5:
                    a1:38:3a:c0:76:61:fe:fe:be:44:9b:77:a0:bf:17:
                    d1:45:91:1d:ba:a0:7b:e6:7c:5d:3b:ad:50:2c:e7:
                    b9:41:08:d9:c5:ad:09:91:65:d1:72:57:42:2f:fb:
                    1d:a0:d3:60:39:8c:7f:d2:91:59:d0:9b:0b:0b:85:
                    77:7c:7a:4e:e3:de:f8:c2:1b:9d:29:19:a6:e4:7b:
                    e3:08:d8:c3:ee:fd:c0:13:1b
                Exponent: 65537 (0x10001)
        X509v3 extensions:
            X509v3 Subject Key Identifier: 
                DE:23:2E:B1:97:E8:21:FB:05:0A:EB:ED:50:A7:96:15:27:BE:77:92
            X509v3 Authority Key Identifier: 
                keyid:06:D0:C0:FB:C5:79:67:F9:F9:10:92:CA:81:5B:5F:92:D8:D8:9F:A6
                DirName:/C=US/ST=California/L=Menlo Park/O=pkg5/CN=ta1/emailAddress=ta1
                serial:DE:88:28:EC:1B:64:08:9C

            X509v3 Basic Constraints: critical
                CA:TRUE, pathlen:4
            X509v3 Key Usage: critical
                Certificate Sign, CRL Sign
    Signature Algorithm: sha256WithRSAEncryption
        58:36:94:f1:3b:54:9f:0d:3b:90:64:d6:b9:f4:6f:3f:60:85:
        13:a1:80:f3:6e:2b:1a:3a:4f:9a:08:e2:d9:da:14:9f:e2:3f:
        9b:10:75:0b:7e:c7:bc:c5:91:78:1d:8d:51:b4:7e:4a:ea:d4:
        9f:e9:20:1e:59:8b:8f:13:30:a6:90:fd:be:18:bc:07:39:89:
        bb:66:65:4a:2a:4a:97:ae:bf:91:32:b6:4c:9d:9e:2d:5d:40:
        d7:d0:28:f9:f2:89:ee:40:0a:a7:99:d2:ac:08:8b:54:9c:8d:
        3a:8c:94:71:76:22:f9:0d:7b:0a:96:31:f5:7d:7c:3b:17:d1:
        d9:a7
-----BEGIN CERTIFICATE-----
MIIDMjCCApugAwIBAgIBATANBgkqhkiG9w0BAQsFADBoMQswCQYDVQQGEwJVUzET
MBEGA1UECBMKQ2FsaWZvcm5pYTETMBEGA1UEBxMKTWVubG8gUGFyazENMAsGA1UE
ChMEcGtnNTEMMAoGA1UEAxMDdGExMRIwEAYJKoZIhvcNAQkBFgN0YTEwHhcNMTEw
MzIxMDA0OTIzWhcNMTMxMjE1MDA0OTIzWjBwMQswCQYDVQQGEwJVUzETMBEGA1UE
CBMKQ2FsaWZvcm5pYTETMBEGA1UEBxMKTWVubG8gUGFyazENMAsGA1UEChMEcGtn
NTEQMA4GA1UEAxQHY2gxX3RhMTEWMBQGCSqGSIb3DQEJARYHY2gxX3RhMTCBnzAN
BgkqhkiG9w0BAQEFAAOBjQAwgYkCgYEArA7UuhhP0iJtHg7FMRh2ws1w96uXYJQ5
acnVmNjJhKYck5IA4P150u6ElbWhODrAdmH+/r5Em3egvxfRRZEduqB75nxdO61Q
LOe5QQjZxa0JkWXRcldCL/sdoNNgOYx/0pFZ0JsLC4V3fHpO4974whudKRmm5Hvj
CNjD7v3AExsCAwEAAaOB4zCB4DAdBgNVHQ4EFgQU3iMusZfoIfsFCuvtUKeWFSe+
d5IwgZoGA1UdIwSBkjCBj4AUBtDA+8V5Z/n5EJLKgVtfktjYn6ahbKRqMGgxCzAJ
BgNVBAYTAlVTMRMwEQYDVQQIEwpDYWxpZm9ybmlhMRMwEQYDVQQHEwpNZW5sbyBQ
YXJrMQ0wCwYDVQQKEwRwa2c1MQwwCgYDVQQDEwN0YTExEjAQBgkqhkiG9w0BCQEW
A3RhMYIJAN6IKOwbZAicMBIGA1UdEwEB/wQIMAYBAf8CAQQwDgYDVR0PAQH/BAQD
AgEGMA0GCSqGSIb3DQEBCwUAA4GBAFg2lPE7VJ8NO5Bk1rn0bz9ghROhgPNuKxo6
T5oI4tnaFJ/iP5sQdQt+x7zFkXgdjVG0fkrq1J/pIB5Zi48TMKaQ/b4YvAc5ibtm
ZUoqSpeuv5Eytkydni1dQNfQKPnyie5ACqeZ0qwIi1ScjTqMlHF2IvkNewqWMfV9
fDsX0dmn
-----END CERTIFICATE-----
