Certificate:
    Data:
        Version: 3 (0x2)
        Serial Number: 34 (0x22)
    Signature Algorithm: sha256WithRSAEncryption
        Issuer: C=US, ST=California, L=Santa Clara, O=pkg5, CN=ta4/emailAddress=ta4
        Validity
            Not Before: Jul 19 11:35:50 2023 GMT
            Not After : Apr 14 11:35:50 2026 GMT
        Subject: C=US, ST=California, L=Santa Clara, O=pkg5, CN=ch1_ta4/emailAddress=ch1_ta4
        Subject Public Key Info:
            Public Key Algorithm: rsaEncryption
                Public-Key: (2048 bit)
                Modulus:
                    00:af:0a:63:90:a5:a5:aa:bb:db:50:a3:f8:26:c1:
                    ef:09:b7:66:33:0a:c7:84:51:75:42:1b:ba:89:00:
                    1e:85:73:42:ae:5d:f6:88:41:1c:24:0c:c4:08:53:
                    d5:ca:b5:a2:e3:d2:32:6e:79:6a:16:d8:6a:cd:c0:
                    21:34:f6:64:61:2b:c5:da:4a:cc:a7:0b:4f:f8:1b:
                    80:4e:8c:6b:d5:7c:74:6a:77:ce:04:62:21:6e:7f:
                    6b:d1:e6:6e:fc:7d:94:88:a4:0c:8a:39:f7:46:1a:
                    f9:5c:e6:a5:40:eb:b6:14:89:66:86:a6:b0:5c:b2:
                    13:8f:74:96:f3:0b:2e:6a:fb:51:ed:49:53:55:56:
                    77:07:b4:79:ff:ea:ad:58:9f:82:8e:82:7f:6b:ea:
                    30:96:27:bd:5f:fb:2d:e7:27:c2:58:ad:43:c3:0c:
                    d1:a7:c2:5b:99:de:d6:43:11:b1:8d:39:ee:a4:92:
                    d9:e3:83:97:b6:43:e4:ae:d1:1d:8c:04:9a:c9:17:
                    16:bf:24:81:a5:69:35:c2:72:bc:da:cb:90:cd:65:
                    7c:a8:09:65:9b:28:a4:ea:75:64:9e:ee:a8:c6:c8:
                    6b:45:a4:e1:14:4b:54:79:67:d9:5d:27:8c:1a:57:
                    f6:9b:cb:a3:7d:7e:0e:10:e4:a1:78:a7:8d:48:f5:
                    56:fb
                Exponent: 65537 (0x10001)
        X509v3 extensions:
            X509v3 Subject Key Identifier: 
                CB:18:2F:57:88:8E:4D:15:81:27:6F:0F:8E:CF:86:45:3C:41:CC:EE
            X509v3 Authority Key Identifier: 
                keyid:C7:F9:33:32:3E:5A:3A:94:13:F4:B9:F2:DC:1F:5F:19:A3:34:3B:41
                DirName:/C=US/ST=California/L=Santa Clara/O=pkg5/CN=ta4/emailAddress=ta4
                serial:F7:FF:21:62:21:AE:E0:5A

            X509v3 Basic Constraints: critical
                CA:TRUE
            X509v3 Key Usage: critical
                Certificate Sign, CRL Sign
    Signature Algorithm: sha256WithRSAEncryption
         30:44:d1:ae:e6:e5:78:b6:f1:4e:3c:50:ad:5f:1e:dc:c6:31:
         23:16:de:b1:43:00:01:d0:68:29:7c:55:a3:c8:2f:2a:85:6b:
         be:99:74:15:ab:09:46:05:c1:38:a3:c7:ab:54:76:bd:a2:39:
         d7:bd:8d:dd:6c:58:03:1a:84:26:cd:98:f5:40:c1:b2:a2:95:
         ee:4a:da:3f:a9:c1:ba:d6:a3:3c:66:54:98:cb:64:96:25:61:
         ed:56:1c:3c:b9:77:3b:5c:da:af:00:39:d0:33:20:10:a2:d9:
         8a:d6:62:a4:fb:e5:1b:09:65:5c:74:64:47:b7:a7:c1:4b:e1:
         40:86:97:3b:11:37:2f:39:a9:36:4f:b3:e4:c3:22:7a:4c:c9:
         43:0c:7e:03:60:66:37:d2:7d:6d:a7:ce:fb:e6:3d:2e:54:bc:
         15:c0:04:fe:c1:e0:fd:70:cc:bc:63:c7:49:f0:65:a6:bf:81:
         e1:0a:2b:36:15:62:e1:38:76:ae:00:d2:cd:f6:18:20:cd:c1:
         e3:0f:a2:d2:2b:bf:4a:a8:24:ad:df:ac:d2:74:b2:f8:84:2a:
         18:a2:ec:cf:5b:a3:19:0b:3e:33:50:8a:66:88:b6:86:2a:16:
         bc:63:97:01:30:55:64:66:2f:b9:73:82:0a:4c:11:3e:60:97:
         51:96:c3:0a
-----BEGIN CERTIFICATE-----
MIIENzCCAx+gAwIBAgIBIjANBgkqhkiG9w0BAQsFADBpMQswCQYDVQQGEwJVUzET
MBEGA1UECAwKQ2FsaWZvcm5pYTEUMBIGA1UEBwwLU2FudGEgQ2xhcmExDTALBgNV
BAoMBHBrZzUxDDAKBgNVBAMMA3RhNDESMBAGCSqGSIb3DQEJARYDdGE0MB4XDTIz
MDcxOTExMzU1MFoXDTI2MDQxNDExMzU1MFowcTELMAkGA1UEBhMCVVMxEzARBgNV
BAgMCkNhbGlmb3JuaWExFDASBgNVBAcMC1NhbnRhIENsYXJhMQ0wCwYDVQQKDARw
a2c1MRAwDgYDVQQDDAdjaDFfdGE0MRYwFAYJKoZIhvcNAQkBFgdjaDFfdGE0MIIB
IjANBgkqhkiG9w0BAQEFAAOCAQ8AMIIBCgKCAQEArwpjkKWlqrvbUKP4JsHvCbdm
MwrHhFF1Qhu6iQAehXNCrl32iEEcJAzECFPVyrWi49IybnlqFthqzcAhNPZkYSvF
2krMpwtP+BuAToxr1Xx0anfOBGIhbn9r0eZu/H2UiKQMijn3Rhr5XOalQOu2FIlm
hqawXLITj3SW8wsuavtR7UlTVVZ3B7R5/+qtWJ+CjoJ/a+owlie9X/st5yfCWK1D
wwzRp8Jbmd7WQxGxjTnupJLZ44OXtkPkrtEdjASayRcWvySBpWk1wnK82suQzWV8
qAllmyik6nVknu6oxshrRaThFEtUeWfZXSeMGlf2m8ujfX4OEOSheKeNSPVW+wID
AQABo4HhMIHeMB0GA1UdDgQWBBTLGC9XiI5NFYEnbw+Oz4ZFPEHM7jCBmwYDVR0j
BIGTMIGQgBTH+TMyPlo6lBP0ufLcH18ZozQ7QaFtpGswaTELMAkGA1UEBhMCVVMx
EzARBgNVBAgMCkNhbGlmb3JuaWExFDASBgNVBAcMC1NhbnRhIENsYXJhMQ0wCwYD
VQQKDARwa2c1MQwwCgYDVQQDDAN0YTQxEjAQBgkqhkiG9w0BCQEWA3RhNIIJAPf/
IWIhruBaMA8GA1UdEwEB/wQFMAMBAf8wDgYDVR0PAQH/BAQDAgEGMA0GCSqGSIb3
DQEBCwUAA4IBAQAwRNGu5uV4tvFOPFCtXx7cxjEjFt6xQwAB0GgpfFWjyC8qhWu+
mXQVqwlGBcE4o8erVHa9ojnXvY3dbFgDGoQmzZj1QMGyopXuSto/qcG61qM8ZlSY
y2SWJWHtVhw8uXc7XNqvADnQMyAQotmK1mKk++UbCWVcdGRHt6fBS+FAhpc7ETcv
Oak2T7PkwyJ6TMlDDH4DYGY30n1tp8775j0uVLwVwAT+weD9cMy8Y8dJ8GWmv4Hh
Cis2FWLhOHauANLN9hggzcHjD6LSK79KqCSt36zSdLL4hCoYouzPW6MZCz4zUIpm
iLaGKha8Y5cBMFVkZi+5c4IKTBE+YJdRlsMK
-----END CERTIFICATE-----
