Certificate:
    Data:
        Version: 3 (0x2)
        Serial Number: 40 (0x28)
    Signature Algorithm: sha256WithRSAEncryption
        Issuer: C=US, ST=California, L=Santa Clara, O=pkg5, CN=ta5/emailAddress=ta5
        Validity
            Not Before: Jul 19 11:35:51 2023 GMT
            Not After : Apr 14 11:35:51 2026 GMT
        Subject: C=US, ST=California, L=Santa Clara, O=pkg5, CN=ch1_ta5/emailAddress=ch1_ta5
        Subject Public Key Info:
            Public Key Algorithm: rsaEncryption
                Public-Key: (2048 bit)
                Modulus:
                    00:bd:9b:5a:67:54:b4:01:3f:65:a4:5b:e6:90:2e:
                    db:cc:b8:30:b9:75:c5:b6:62:06:30:f2:2c:85:5f:
                    3d:c3:f3:74:00:de:44:bd:21:53:00:7f:a1:ca:ca:
                    a6:db:ef:fc:0b:0f:52:e1:29:1c:71:29:c1:67:dd:
                    79:29:4c:66:55:64:93:33:a0:be:43:30:be:2c:96:
                    37:c5:37:72:20:c2:80:4e:23:b8:8f:0a:e3:77:73:
                    b9:6f:07:74:2e:92:0c:66:f9:92:64:90:1f:df:a9:
                    1d:db:fc:2d:af:3c:f1:40:df:f9:4d:f2:9e:8a:3f:
                    58:9c:40:a2:ae:e1:15:95:b7:cd:8c:f4:66:0d:1f:
                    9d:1e:86:18:7b:1d:f9:8e:89:d5:f2:ec:c2:ed:fb:
                    16:25:2c:80:39:f0:c4:f4:0b:01:7b:a6:f3:f5:79:
                    a8:69:54:e2:b8:ea:8b:f7:d2:c9:98:74:ee:d2:76:
                    7b:41:6d:04:d5:da:37:14:a7:b6:e2:58:92:cf:97:
                    8b:53:e6:ea:e4:6a:64:50:54:cf:c6:ea:fb:91:0c:
                    11:f0:35:52:ae:72:0a:6f:01:f4:76:8a:18:22:63:
                    cf:fd:c9:4e:52:a6:bc:a4:72:c8:d1:2e:88:fb:1d:
                    08:17:fe:56:4a:4c:04:b1:3d:1b:47:55:18:31:00:
                    34:3b
                Exponent: 65537 (0x10001)
        X509v3 extensions:
            X509v3 Subject Key Identifier: 
                6B:E5:FA:6C:05:7C:2F:65:A8:DF:7F:80:54:FB:61:A2:5E:1E:12:E1
            X509v3 Authority Key Identifier: 
                keyid:AD:A6:93:C3:29:9D:84:C4:AE:A7:10:46:CF:E5:CD:5A:68:AA:60:A8
                DirName:/C=US/ST=California/L=Santa Clara/O=pkg5/CN=ta5/emailAddress=ta5
                serial:DC:6B:80:25:5F:C8:03:D6

            X509v3 Basic Constraints: critical
                CA:TRUE
            X509v3 CRL Distribution Points: 

                Full Name:
                  URI:http://localhost:12001/file/0/ta5_crl.pem

            X509v3 Key Usage: critical
                Certificate Sign, CRL Sign
    Signature Algorithm: sha256WithRSAEncryption
         9b:fb:34:6d:b8:7e:a8:ca:f3:0d:d5:18:53:15:75:36:ca:c0:
         87:18:c4:74:6b:59:02:fe:f6:54:dd:5a:4a:50:96:5a:77:67:
         b8:a3:89:01:ca:87:cd:08:1a:12:a3:d5:5a:29:dd:6f:02:67:
         c0:1a:29:cb:8e:d2:6b:b7:52:d1:d5:f8:af:fb:17:cc:45:9a:
         7c:49:7b:7b:e8:be:29:40:9b:89:d6:a0:bc:8d:87:85:85:0b:
         d9:b8:d0:1f:e2:f9:78:78:b9:f7:f0:7e:23:3d:f1:c0:0b:ce:
         b3:c5:99:cd:78:53:b9:94:80:47:c4:69:eb:44:0c:8c:c5:e3:
         3e:02:c5:81:fb:0a:a9:a7:eb:1c:8d:a9:8a:62:f6:bf:6f:33:
         1f:11:d3:5f:cf:f2:33:b2:e6:f5:c7:7d:ed:8e:41:e1:b7:18:
         1b:ce:44:69:57:52:d1:19:3e:4b:b2:96:e7:52:20:b6:d9:7e:
         29:13:15:0b:7f:22:37:74:91:45:c4:f7:f0:a0:08:5f:83:ec:
         8a:a0:60:6a:38:be:42:f7:d7:b1:e2:12:f8:56:ce:d0:60:e3:
         5b:a0:51:66:0d:12:37:7e:d7:f2:e8:41:63:00:93:00:f2:2b:
         da:fd:a3:3e:d1:92:34:73:5a:39:f3:05:e6:1f:97:b2:12:e4:
         37:db:73:78
-----BEGIN CERTIFICATE-----
MIIEdTCCA12gAwIBAgIBKDANBgkqhkiG9w0BAQsFADBpMQswCQYDVQQGEwJVUzET
MBEGA1UECAwKQ2FsaWZvcm5pYTEUMBIGA1UEBwwLU2FudGEgQ2xhcmExDTALBgNV
BAoMBHBrZzUxDDAKBgNVBAMMA3RhNTESMBAGCSqGSIb3DQEJARYDdGE1MB4XDTIz
MDcxOTExMzU1MVoXDTI2MDQxNDExMzU1MVowcTELMAkGA1UEBhMCVVMxEzARBgNV
BAgMCkNhbGlmb3JuaWExFDASBgNVBAcMC1NhbnRhIENsYXJhMQ0wCwYDVQQKDARw
a2c1MRAwDgYDVQQDDAdjaDFfdGE1MRYwFAYJKoZIhvcNAQkBFgdjaDFfdGE1MIIB
IjANBgkqhkiG9w0BAQEFAAOCAQ8AMIIBCgKCAQEAvZtaZ1S0AT9lpFvmkC7bzLgw
uXXFtmIGMPIshV89w/N0AN5EvSFTAH+hysqm2+/8Cw9S4SkccSnBZ915KUxmVWST
M6C+QzC+LJY3xTdyIMKATiO4jwrjd3O5bwd0LpIMZvmSZJAf36kd2/wtrzzxQN/5
TfKeij9YnECiruEVlbfNjPRmDR+dHoYYex35jonV8uzC7fsWJSyAOfDE9AsBe6bz
9XmoaVTiuOqL99LJmHTu0nZ7QW0E1do3FKe24liSz5eLU+bq5GpkUFTPxur7kQwR
8DVSrnIKbwH0dooYImPP/clOUqa8pHLI0S6I+x0IF/5WSkwEsT0bR1UYMQA0OwID
AQABo4IBHjCCARowHQYDVR0OBBYEFGvl+mwFfC9lqN9/gFT7YaJeHhLhMIGbBgNV
HSMEgZMwgZCAFK2mk8MpnYTErqcQRs/lzVpoqmCooW2kazBpMQswCQYDVQQGEwJV
UzETMBEGA1UECAwKQ2FsaWZvcm5pYTEUMBIGA1UEBwwLU2FudGEgQ2xhcmExDTAL
BgNVBAoMBHBrZzUxDDAKBgNVBAMMA3RhNTESMBAGCSqGSIb3DQEJARYDdGE1ggkA
3GuAJV/IA9YwDwYDVR0TAQH/BAUwAwEB/zA6BgNVHR8EMzAxMC+gLaArhilodHRw
Oi8vbG9jYWxob3N0OjEyMDAxL2ZpbGUvMC90YTVfY3JsLnBlbTAOBgNVHQ8BAf8E
BAMCAQYwDQYJKoZIhvcNAQELBQADggEBAJv7NG24fqjK8w3VGFMVdTbKwIcYxHRr
WQL+9lTdWkpQllp3Z7ijiQHKh80IGhKj1Vop3W8CZ8AaKcuO0mu3UtHV+K/7F8xF
mnxJe3vovilAm4nWoLyNh4WFC9m40B/i+Xh4uffwfiM98cALzrPFmc14U7mUgEfE
aetEDIzF4z4CxYH7Cqmn6xyNqYpi9r9vMx8R01/P8jOy5vXHfe2OQeG3GBvORGlX
UtEZPkuyludSILbZfikTFQt/Ijd0kUXE9/CgCF+D7IqgYGo4vkL317HiEvhWztBg
41ugUWYNEjd+1/LoQWMAkwDyK9r9oz7RkjRzWjnzBeYfl7IS5Dfbc3g=
-----END CERTIFICATE-----
