Certificate:
    Data:
        Version: 3 (0x2)
        Serial Number: 34 (0x22)
        Signature Algorithm: sha256WithRSAEncryption
        Issuer: C=US, ST=California, L=Menlo Park, O=pkg5, CN=ta4/emailAddress=ta4
        Validity
            Not Before: Apr 11 22:37:49 2011 GMT
            Not After : Jan  5 22:37:49 2014 GMT
        Subject: C=US, ST=California, L=Menlo Park, O=pkg5, CN=ch1_ta4/emailAddress=ch1_ta4
        Subject Public Key Info:
            Public Key Algorithm: rsaEncryption
            RSA Public Key: (1024 bit)
                Modulus (1024 bit):
                    00:b6:ab:16:bb:1d:ee:25:5a:2f:58:e7:db:d8:0a:
                    e7:36:63:d5:ca:de:60:b5:90:c2:82:e3:ec:7d:49:
                    0c:a9:b6:95:c8:a1:ab:04:0c:a9:09:e1:93:a6:be:
                    43:36:7e:1b:61:28:1b:38:03:a2:06:19:88:72:a9:
                    b9:a2:71:ff:db:e1:3c:85:98:01:b2:5f:93:a0:4a:
                    b8:e7:36:ad:8f:50:8c:d6:a1:14:29:b0:ee:ec:e2:
                    08:3f:7d:34:a1:c4:5f:3a:e9:4f:b0:c0:d6:5f:f2:
                    10:78:2b:ae:f4:ee:28:c8:29:21:9f:ce:70:d5:fb:
                    ea:33:fc:e2:5a:5c:e2:1b:d9
                Exponent: 65537 (0x10001)
        X509v3 extensions:
            X509v3 Subject Key Identifier: 
                2A:94:C1:FF:E0:11:A0:91:F1:71:46:35:9A:37:3C:BC:C4:21:4A:8F
            X509v3 Authority Key Identifier: 
                keyid:3E:5F:64:E9:63:CB:9C:10:D0:91:F4:45:61:F2:F1:EA:42:69:EC:A5
                DirName:/C=US/ST=California/L=Menlo Park/O=pkg5/CN=ta4/emailAddress=ta4
                serial:BA:06:FD:EC:89:18:B5:7F

            X509v3 Basic Constraints: critical
                CA:TRUE
            X509v3 Key Usage: critical
                Certificate Sign, CRL Sign
    Signature Algorithm: sha256WithRSAEncryption
        9d:2d:ff:a2:d2:42:31:72:9e:6f:8d:45:2c:21:9b:15:cf:89:
        06:70:3b:5f:3e:2c:73:b9:08:d9:be:48:d8:6b:dc:23:86:3a:
        ab:3c:16:80:13:62:a4:12:f8:ee:e7:6f:d6:e8:4f:ad:36:eb:
        1e:81:c8:03:1c:65:ba:be:55:6d:07:8f:bc:fa:ba:d2:14:90:
        1d:02:35:bd:5d:bd:0b:fb:48:57:94:6d:fe:71:85:ce:9f:65:
        9c:31:80:13:56:b2:6f:2a:03:b6:1d:7f:5a:4a:dd:50:63:7a:
        46:40:4b:1d:c3:71:5d:72:72:f0:50:f8:db:60:56:97:c8:cd:
        73:83
-----BEGIN CERTIFICATE-----
MIIDLzCCApigAwIBAgIBIjANBgkqhkiG9w0BAQsFADBoMQswCQYDVQQGEwJVUzET
MBEGA1UECBMKQ2FsaWZvcm5pYTETMBEGA1UEBxMKTWVubG8gUGFyazENMAsGA1UE
ChMEcGtnNTEMMAoGA1UEAxMDdGE0MRIwEAYJKoZIhvcNAQkBFgN0YTQwHhcNMTEw
NDExMjIzNzQ5WhcNMTQwMTA1MjIzNzQ5WjBwMQswCQYDVQQGEwJVUzETMBEGA1UE
CBMKQ2FsaWZvcm5pYTETMBEGA1UEBxMKTWVubG8gUGFyazENMAsGA1UEChMEcGtn
NTEQMA4GA1UEAxQHY2gxX3RhNDEWMBQGCSqGSIb3DQEJARYHY2gxX3RhNDCBnzAN
BgkqhkiG9w0BAQEFAAOBjQAwgYkCgYEAtqsWux3uJVovWOfb2ArnNmPVyt5gtZDC
guPsfUkMqbaVyKGrBAypCeGTpr5DNn4bYSgbOAOiBhmIcqm5onH/2+E8hZgBsl+T
oEq45zatj1CM1qEUKbDu7OIIP300ocRfOulPsMDWX/IQeCuu9O4oyCkhn85w1fvq
M/ziWlziG9kCAwEAAaOB4DCB3TAdBgNVHQ4EFgQUKpTB/+ARoJHxcUY1mjc8vMQh
So8wgZoGA1UdIwSBkjCBj4AUPl9k6WPLnBDQkfRFYfLx6kJp7KWhbKRqMGgxCzAJ
BgNVBAYTAlVTMRMwEQYDVQQIEwpDYWxpZm9ybmlhMRMwEQYDVQQHEwpNZW5sbyBQ
YXJrMQ0wCwYDVQQKEwRwa2c1MQwwCgYDVQQDEwN0YTQxEjAQBgkqhkiG9w0BCQEW
A3RhNIIJALoG/eyJGLV/MA8GA1UdEwEB/wQFMAMBAf8wDgYDVR0PAQH/BAQDAgEG
MA0GCSqGSIb3DQEBCwUAA4GBAJ0t/6LSQjFynm+NRSwhmxXPiQZwO18+LHO5CNm+
SNhr3COGOqs8FoATYqQS+O7nb9boT6026x6ByAMcZbq+VW0Hj7z6utIUkB0CNb1d
vQv7SFeUbf5xhc6fZZwxgBNWsm8qA7Ydf1pK3VBjekZASx3DcV1ycvBQ+NtgVpfI
zXOD
-----END CERTIFICATE-----
