Certificate:
    Data:
        Version: 3 (0x2)
        Serial Number: 40 (0x28)
    Signature Algorithm: sha256WithRSAEncryption
        Issuer: C=US, ST=California, L=Santa Clara, O=pkg5, CN=ta5/emailAddress=ta5
        Validity
            Not Before: Sep 22 05:33:34 2021 GMT
            Not After : Jun 18 05:33:34 2024 GMT
        Subject: C=US, ST=California, L=Santa Clara, O=pkg5, CN=ch1_ta5/emailAddress=ch1_ta5
        Subject Public Key Info:
            Public Key Algorithm: rsaEncryption
                Public-Key: (2048 bit)
                Modulus:
                    00:c2:e7:1f:dd:23:71:b7:12:9a:f4:a7:71:0f:ce:
                    10:46:fa:7b:e5:06:6b:f6:93:19:f8:99:e8:1a:14:
                    af:7e:1e:8d:3c:73:10:c9:d5:22:28:79:ca:73:c4:
                    32:f7:1e:46:ea:ae:8e:5c:00:c8:25:df:0b:05:e9:
                    ed:19:e5:3d:84:4c:85:82:b7:d2:54:2d:b5:52:ae:
                    bf:24:ca:c7:e9:9c:4f:5e:7b:ce:c8:18:c1:8b:d2:
                    1a:0e:5a:e5:6c:0e:3f:46:9d:17:bc:6c:93:ad:d5:
                    b8:d7:33:a5:1b:ad:a3:b4:61:53:89:d2:1f:b7:8c:
                    75:3c:24:f4:ff:a0:4e:d3:6e:aa:dd:03:3a:31:b7:
                    4f:31:72:c7:0e:e0:61:c6:3c:e0:79:dd:a3:03:ef:
                    3d:5b:6a:58:3d:a1:d8:2e:19:fb:07:60:dc:46:e5:
                    62:1a:cd:17:46:5e:67:3e:3f:62:1c:f6:ce:1c:a6:
                    ae:5e:fa:77:7f:d9:43:f4:7f:28:b5:64:38:29:75:
                    16:6d:b5:c6:b3:4a:ec:4b:e0:60:99:54:3d:cb:29:
                    21:b9:a9:3a:01:05:b5:69:4c:93:59:04:32:35:50:
                    a4:b1:ba:30:f6:f1:59:a1:0d:d3:db:96:64:93:f2:
                    71:5f:0d:47:a6:2d:8b:df:c4:ab:b6:1b:59:76:1b:
                    b2:0b
                Exponent: 65537 (0x10001)
        X509v3 extensions:
            X509v3 Subject Key Identifier: 
                27:7E:2F:8C:C8:74:CF:95:DF:6C:95:6B:63:44:01:EE:D4:4A:4B:63
            X509v3 Authority Key Identifier: 
                keyid:2D:19:D3:0C:83:98:EF:18:A5:A5:79:DC:00:80:B6:59:21:9F:F3:23
                DirName:/C=US/ST=California/L=Santa Clara/O=pkg5/CN=ta5/emailAddress=ta5
                serial:90:F3:1A:81:94:C1:2A:2B

            X509v3 Basic Constraints: critical
                CA:TRUE
            X509v3 CRL Distribution Points: 

                Full Name:
                  URI:http://localhost:12001/file/0/ta5_crl.pem

            X509v3 Key Usage: critical
                Certificate Sign, CRL Sign
    Signature Algorithm: sha256WithRSAEncryption
         3b:c9:47:1b:ae:fe:e0:00:91:48:50:58:f0:af:88:85:2d:62:
         8a:73:6b:40:7a:79:05:62:b8:bd:2d:52:84:f6:c9:21:83:70:
         bf:a8:d4:75:3b:07:1b:66:93:91:21:f8:76:6b:c1:7d:04:9d:
         08:c1:b8:91:65:92:4d:15:b3:90:a4:54:42:c5:b7:67:73:c6:
         6e:f2:2d:17:ab:39:b6:2d:3c:20:15:f8:b2:e9:3a:67:e7:82:
         b0:56:43:08:b5:d9:be:8e:3d:0f:95:3e:d0:6c:a8:18:2b:91:
         43:56:3f:62:a1:fe:71:10:b8:92:ec:c1:c9:dd:96:ff:24:f2:
         86:6e:21:6f:54:11:8e:fe:13:b5:39:b4:59:bb:09:71:10:e5:
         15:59:05:6b:0a:82:d1:76:a7:b7:cc:3b:f4:c7:75:bf:68:dc:
         d5:ca:6c:3f:cd:ef:c4:8e:66:61:36:47:0a:fd:9d:f2:be:50:
         d6:c5:30:29:51:c0:ae:54:09:89:f0:e9:d7:93:57:72:72:37:
         d8:d8:c6:93:cd:87:aa:7f:f7:85:f7:8a:62:7c:23:f5:0e:c6:
         ac:7a:2f:97:c4:74:06:37:19:da:d3:7e:a1:1b:74:dd:9f:61:
         d3:34:43:76:d1:f6:4c:bb:f4:c7:27:a1:2d:d3:6f:7f:e3:ac:
         24:fd:28:af
-----BEGIN CERTIFICATE-----
MIIEdTCCA12gAwIBAgIBKDANBgkqhkiG9w0BAQsFADBpMQswCQYDVQQGEwJVUzET
MBEGA1UECAwKQ2FsaWZvcm5pYTEUMBIGA1UEBwwLU2FudGEgQ2xhcmExDTALBgNV
BAoMBHBrZzUxDDAKBgNVBAMMA3RhNTESMBAGCSqGSIb3DQEJARYDdGE1MB4XDTIx
MDkyMjA1MzMzNFoXDTI0MDYxODA1MzMzNFowcTELMAkGA1UEBhMCVVMxEzARBgNV
BAgMCkNhbGlmb3JuaWExFDASBgNVBAcMC1NhbnRhIENsYXJhMQ0wCwYDVQQKDARw
a2c1MRAwDgYDVQQDDAdjaDFfdGE1MRYwFAYJKoZIhvcNAQkBFgdjaDFfdGE1MIIB
IjANBgkqhkiG9w0BAQEFAAOCAQ8AMIIBCgKCAQEAwucf3SNxtxKa9KdxD84QRvp7
5QZr9pMZ+JnoGhSvfh6NPHMQydUiKHnKc8Qy9x5G6q6OXADIJd8LBentGeU9hEyF
grfSVC21Uq6/JMrH6ZxPXnvOyBjBi9IaDlrlbA4/Rp0XvGyTrdW41zOlG62jtGFT
idIft4x1PCT0/6BO026q3QM6MbdPMXLHDuBhxjzged2jA+89W2pYPaHYLhn7B2Dc
RuViGs0XRl5nPj9iHPbOHKauXvp3f9lD9H8otWQ4KXUWbbXGs0rsS+BgmVQ9yykh
uak6AQW1aUyTWQQyNVCksbow9vFZoQ3T25Zkk/JxXw1Hpi2L38SrthtZdhuyCwID
AQABo4IBHjCCARowHQYDVR0OBBYEFCd+L4zIdM+V32yVa2NEAe7USktjMIGbBgNV
HSMEgZMwgZCAFC0Z0wyDmO8YpaV53ACAtlkhn/MjoW2kazBpMQswCQYDVQQGEwJV
UzETMBEGA1UECAwKQ2FsaWZvcm5pYTEUMBIGA1UEBwwLU2FudGEgQ2xhcmExDTAL
BgNVBAoMBHBrZzUxDDAKBgNVBAMMA3RhNTESMBAGCSqGSIb3DQEJARYDdGE1ggkA
kPMagZTBKiswDwYDVR0TAQH/BAUwAwEB/zA6BgNVHR8EMzAxMC+gLaArhilodHRw
Oi8vbG9jYWxob3N0OjEyMDAxL2ZpbGUvMC90YTVfY3JsLnBlbTAOBgNVHQ8BAf8E
BAMCAQYwDQYJKoZIhvcNAQELBQADggEBADvJRxuu/uAAkUhQWPCviIUtYopza0B6
eQViuL0tUoT2ySGDcL+o1HU7Bxtmk5Eh+HZrwX0EnQjBuJFlkk0Vs5CkVELFt2dz
xm7yLRerObYtPCAV+LLpOmfngrBWQwi12b6OPQ+VPtBsqBgrkUNWP2Kh/nEQuJLs
wcndlv8k8oZuIW9UEY7+E7U5tFm7CXEQ5RVZBWsKgtF2p7fMO/THdb9o3NXKbD/N
78SOZmE2Rwr9nfK+UNbFMClRwK5UCYnw6deTV3JyN9jYxpPNh6p/94X3imJ8I/UO
xqx6L5fEdAY3GdrTfqEbdN2fYdM0Q3bR9ky79McnoS3Tb3/jrCT9KK8=
-----END CERTIFICATE-----
