Certificate:
    Data:
        Version: 3 (0x2)
        Serial Number: 1 (0x1)
        Signature Algorithm: sha256WithRSAEncryption
        Issuer: C=US, ST=California, L=Santa Clara, O=pkg5, CN=ta1/emailAddress=ta1
        Validity
            Not Before: Mar 18 08:51:27 2026 GMT
            Not After : Dec 12 08:51:27 2028 GMT
        Subject: C=US, ST=California, L=Santa Clara, O=pkg5, CN=ch1_ta1/emailAddress=ch1_ta1
        Subject Public Key Info:
            Public Key Algorithm: rsaEncryption
                Public-Key: (2048 bit)
                Modulus:
                    00:a3:81:a3:ea:3f:95:70:22:72:ed:28:ac:10:70:
                    f8:07:4f:8e:2c:2a:8a:76:d7:1d:be:bd:97:67:44:
                    81:ce:82:1a:71:6a:0b:20:3f:23:83:e7:e5:ac:3d:
                    88:9f:4d:47:84:e2:af:1b:bd:bf:02:d1:be:0f:9a:
                    26:48:c9:fb:be:0f:48:38:4a:39:b1:1d:87:b5:61:
                    2d:e9:51:c8:1a:e7:ab:63:aa:28:68:db:a8:c8:97:
                    6e:83:6c:54:66:19:4c:aa:ff:f8:59:6f:8f:dc:98:
                    63:40:44:fd:7b:10:c8:26:50:c6:3c:95:ff:62:43:
                    dd:26:e8:a5:a5:9e:f5:4a:f3:50:b7:96:be:db:bc:
                    40:af:0e:21:4c:8c:bb:3c:30:09:c2:24:5e:96:22:
                    63:23:7e:77:62:73:d6:98:60:e8:e9:47:db:72:e9:
                    44:ed:fa:15:f3:22:2e:7f:a6:00:94:d4:6f:5e:22:
                    a7:6c:86:c5:4b:ab:e6:54:68:a4:a2:7e:bd:5d:c4:
                    73:c3:15:5b:59:18:0c:65:b7:7b:9c:34:50:f5:b3:
                    bc:b7:a1:ec:45:83:01:2b:56:04:ad:ee:82:5c:0a:
                    0c:4d:c1:fe:e6:aa:c0:8d:d9:2e:c6:4a:e7:95:91:
                    1a:54:ab:b8:9e:1f:29:37:43:f7:f8:a2:3e:e5:66:
                    0a:15
                Exponent: 65537 (0x10001)
        X509v3 extensions:
            X509v3 Subject Key Identifier: 
                4F:B7:D2:BD:71:9E:29:94:FD:64:75:00:9B:27:FB:B5:DF:72:87:94
            X509v3 Authority Key Identifier: 
                keyid:ED:3C:77:CC:47:08:93:9A:61:D1:AA:28:9F:34:EB:11:67:36:30:18
                DirName:/C=US/ST=California/L=Santa Clara/O=pkg5/CN=ta1/emailAddress=ta1
                serial:6B:AA:7F:7A:BD:26:F2:39:5D:67:7C:EA:87:ED:02:A7:90:45:CB:BC
            X509v3 Basic Constraints: critical
                CA:TRUE, pathlen:4
            X509v3 Key Usage: critical
                Certificate Sign, CRL Sign
    Signature Algorithm: sha256WithRSAEncryption
    Signature Value:
        80:96:44:46:40:b1:e2:30:e3:de:97:13:97:06:9c:b9:63:bb:
        bb:c1:46:7c:bd:82:83:96:2e:73:fd:3a:5b:31:3b:cd:61:37:
        8f:68:91:7f:98:ef:32:7e:53:d4:8e:fb:c5:85:2a:2c:c9:e5:
        56:0c:5b:e3:ca:41:f1:57:de:ae:38:ea:1d:2f:68:ad:4b:86:
        8f:03:45:68:6e:91:3e:10:23:e7:54:2c:72:ad:83:c9:6c:84:
        64:ee:c9:ab:88:6b:5e:40:96:f8:6b:af:7e:53:71:c4:07:3f:
        2d:88:4a:e0:56:34:5f:d0:82:51:7f:33:4f:22:5f:2c:a9:b8:
        02:99:f0:bf:47:b9:96:59:5c:4e:be:7a:55:17:80:b4:eb:4c:
        77:c8:a9:18:13:d5:5e:29:d4:97:c5:27:a7:ed:a9:85:38:d0:
        19:ff:36:43:e7:7c:8d:10:2f:dd:fb:a7:9a:8e:ff:07:1f:c4:
        39:d4:d4:e3:8a:ba:f9:ff:21:f0:41:13:36:d3:89:99:93:94:
        80:14:a4:0c:f4:e3:97:18:7e:98:2f:c5:31:21:c0:27:b0:95:
        af:ca:17:ea:0e:1c:83:fa:1a:f2:85:35:bc:a7:ef:80:c4:93:
        36:d1:19:24:f6:e7:e1:b2:f3:35:d6:d1:1e:a3:c8:7b:2f:f0:
        14:8c:da:e3
-----BEGIN CERTIFICATE-----
MIIERTCCAy2gAwIBAgIBATANBgkqhkiG9w0BAQsFADBpMQswCQYDVQQGEwJVUzET
MBEGA1UECAwKQ2FsaWZvcm5pYTEUMBIGA1UEBwwLU2FudGEgQ2xhcmExDTALBgNV
BAoMBHBrZzUxDDAKBgNVBAMMA3RhMTESMBAGCSqGSIb3DQEJARYDdGExMB4XDTI2
MDMxODA4NTEyN1oXDTI4MTIxMjA4NTEyN1owcTELMAkGA1UEBhMCVVMxEzARBgNV
BAgMCkNhbGlmb3JuaWExFDASBgNVBAcMC1NhbnRhIENsYXJhMQ0wCwYDVQQKDARw
a2c1MRAwDgYDVQQDDAdjaDFfdGExMRYwFAYJKoZIhvcNAQkBFgdjaDFfdGExMIIB
IjANBgkqhkiG9w0BAQEFAAOCAQ8AMIIBCgKCAQEAo4Gj6j+VcCJy7SisEHD4B0+O
LCqKdtcdvr2XZ0SBzoIacWoLID8jg+flrD2In01HhOKvG72/AtG+D5omSMn7vg9I
OEo5sR2HtWEt6VHIGuerY6ooaNuoyJdug2xUZhlMqv/4WW+P3JhjQET9exDIJlDG
PJX/YkPdJuilpZ71SvNQt5a+27xArw4hTIy7PDAJwiReliJjI353YnPWmGDo6Ufb
culE7foV8yIuf6YAlNRvXiKnbIbFS6vmVGikon69XcRzwxVbWRgMZbd7nDRQ9bO8
t6HsRYMBK1YEre6CXAoMTcH+5qrAjdkuxkrnlZEaVKu4nh8pN0P3+KI+5WYKFQID
AQABo4HvMIHsMB0GA1UdDgQWBBRPt9K9cZ4plP1kdQCbJ/u133KHlDCBpgYDVR0j
BIGeMIGbgBTtPHfMRwiTmmHRqiifNOsRZzYwGKFtpGswaTELMAkGA1UEBhMCVVMx
EzARBgNVBAgMCkNhbGlmb3JuaWExFDASBgNVBAcMC1NhbnRhIENsYXJhMQ0wCwYD
VQQKDARwa2c1MQwwCgYDVQQDDAN0YTExEjAQBgkqhkiG9w0BCQEWA3RhMYIUa6p/
er0m8jldZ3zqh+0Cp5BFy7wwEgYDVR0TAQH/BAgwBgEB/wIBBDAOBgNVHQ8BAf8E
BAMCAQYwDQYJKoZIhvcNAQELBQADggEBAICWREZAseIw496XE5cGnLlju7vBRny9
goOWLnP9OlsxO81hN49okX+Y7zJ+U9SO+8WFKizJ5VYMW+PKQfFX3q446h0vaK1L
ho8DRWhukT4QI+dULHKtg8lshGTuyauIa15Alvhrr35TccQHPy2ISuBWNF/QglF/
M08iXyypuAKZ8L9HuZZZXE6+elUXgLTrTHfIqRgT1V4p1JfFJ6ftqYU40Bn/NkPn
fI0QL937p5qO/wcfxDnU1OOKuvn/IfBBEzbTiZmTlIAUpAz045cYfpgvxTEhwCew
la/KF+oOHIP6GvKFNbyn74DEkzbRGST25+Gy8zXW0R6jyHsv8BSM2uM=
-----END CERTIFICATE-----
