Certificate:
    Data:
        Version: 3 (0x2)
        Serial Number: 16 (0x10)
    Signature Algorithm: sha256WithRSAEncryption
        Issuer: C=US, ST=California, L=Santa Clara, O=pkg5, CN=ta3/emailAddress=ta3
        Validity
            Not Before: Mar 18 23:38:20 2016 GMT
            Not After : Dec 13 23:38:20 2018 GMT
        Subject: C=US, ST=California, L=Santa Clara, O=pkg5, CN=ch1_ta3/emailAddress=ch1_ta3
        Subject Public Key Info:
            Public Key Algorithm: rsaEncryption
                Public-Key: (2048 bit)
                Modulus:
                    00:ab:ab:19:c6:da:1a:f8:63:8f:4d:de:c3:38:fe:
                    a2:f8:2b:b1:ff:e4:a9:67:dc:f4:f0:b8:51:d1:20:
                    59:a8:df:8a:15:4f:0f:b5:18:a7:65:e4:9b:e6:19:
                    da:09:f4:fa:21:df:10:54:64:c6:e6:c9:42:62:85:
                    b2:c4:6b:75:5f:4c:3b:5d:c6:5d:51:95:09:bc:f0:
                    59:7e:60:de:49:73:cd:02:04:7e:4b:00:e0:03:0f:
                    d1:8d:90:b8:b5:75:33:4c:e2:85:d7:0e:a4:28:d7:
                    6c:0f:ca:86:16:29:44:fe:74:e5:b4:70:42:0d:eb:
                    c4:9b:a4:99:a4:a7:d0:fb:0f:87:75:72:45:56:aa:
                    99:2f:b1:f3:b0:24:ee:7f:c7:24:52:5b:b9:ff:f6:
                    52:d2:94:72:a2:8f:5e:d6:36:90:5b:21:d3:fd:83:
                    fe:73:e9:da:d8:d5:16:4a:f9:3c:05:ef:ac:41:ac:
                    ae:c4:af:6d:f0:2b:1f:04:e2:3e:94:cd:c8:3f:c2:
                    2b:88:37:58:db:e5:c8:60:0d:68:5b:72:b5:af:e2:
                    3a:24:cb:1a:a2:95:04:a4:1f:60:c2:f4:cd:ed:64:
                    de:04:92:02:8f:83:d1:f3:d2:8a:34:22:67:40:b8:
                    c0:48:1b:2f:fd:94:bd:41:82:33:8c:ee:fc:bd:b3:
                    5a:cd
                Exponent: 65537 (0x10001)
        X509v3 extensions:
            X509v3 Subject Key Identifier: 
                88:1F:78:4A:E7:56:B8:41:45:D8:AE:20:91:EF:20:E4:02:DA:E7:2C
            X509v3 Authority Key Identifier: 
                keyid:F1:FE:91:A7:14:72:15:61:A7:C6:93:C7:91:B2:B7:F8:10:65:AA:16
                DirName:/C=US/ST=California/L=Santa Clara/O=pkg5/CN=ta3/emailAddress=ta3
                serial:B8:59:05:26:1A:C6:94:CC

            X509v3 Basic Constraints: critical
                CA:TRUE
            X509v3 Key Usage: critical
                Certificate Sign, CRL Sign
    Signature Algorithm: sha256WithRSAEncryption
         8e:84:c8:8f:50:dd:4d:10:87:a0:ab:cf:e1:57:f0:c8:fa:97:
         d2:3f:96:11:59:d9:18:6c:00:c3:ab:7b:51:a1:67:73:77:98:
         03:8d:b9:18:22:20:39:48:9f:e4:83:28:eb:6a:07:d3:2f:05:
         75:32:be:38:ea:c0:8d:27:99:c2:3a:9f:31:2b:f5:1d:0d:06:
         91:b0:11:e7:21:07:d2:92:92:2b:fe:ac:fd:05:6a:8b:f6:0c:
         28:18:84:c9:c9:bf:12:71:6e:96:e1:e8:1e:2d:15:9a:ff:28:
         85:0b:07:4a:8d:34:12:dd:f8:db:4a:f3:0d:ca:55:c4:55:b3:
         06:58:10:41:6f:86:23:1d:c8:27:97:46:4c:17:d7:7b:e9:43:
         b3:7d:9d:21:04:db:4f:b5:83:61:5d:b4:31:2c:16:91:c9:a3:
         49:8e:43:69:0e:41:e2:ce:cf:a4:57:e3:10:fd:12:4d:ae:7e:
         50:a7:95:46:c8:0e:c8:40:eb:c1:01:2f:8b:2b:2b:23:8c:2b:
         6a:6b:b8:a3:cf:cb:e1:37:0b:79:6b:63:60:29:7c:77:53:52:
         af:8a:24:95:34:c1:9d:50:35:bd:3c:54:de:bb:79:89:87:ab:
         c7:12:6e:bf:86:12:2c:e4:58:5a:7e:2c:b0:68:1c:05:06:83:
         4e:cd:49:a4
-----BEGIN CERTIFICATE-----
MIIENzCCAx+gAwIBAgIBEDANBgkqhkiG9w0BAQsFADBpMQswCQYDVQQGEwJVUzET
MBEGA1UECAwKQ2FsaWZvcm5pYTEUMBIGA1UEBwwLU2FudGEgQ2xhcmExDTALBgNV
BAoMBHBrZzUxDDAKBgNVBAMMA3RhMzESMBAGCSqGSIb3DQEJARYDdGEzMB4XDTE2
MDMxODIzMzgyMFoXDTE4MTIxMzIzMzgyMFowcTELMAkGA1UEBhMCVVMxEzARBgNV
BAgMCkNhbGlmb3JuaWExFDASBgNVBAcMC1NhbnRhIENsYXJhMQ0wCwYDVQQKDARw
a2c1MRAwDgYDVQQDDAdjaDFfdGEzMRYwFAYJKoZIhvcNAQkBFgdjaDFfdGEzMIIB
IjANBgkqhkiG9w0BAQEFAAOCAQ8AMIIBCgKCAQEAq6sZxtoa+GOPTd7DOP6i+Cux
/+SpZ9z08LhR0SBZqN+KFU8PtRinZeSb5hnaCfT6Id8QVGTG5slCYoWyxGt1X0w7
XcZdUZUJvPBZfmDeSXPNAgR+SwDgAw/RjZC4tXUzTOKF1w6kKNdsD8qGFilE/nTl
tHBCDevEm6SZpKfQ+w+HdXJFVqqZL7HzsCTuf8ckUlu5//ZS0pRyoo9e1jaQWyHT
/YP+c+na2NUWSvk8Be+sQayuxK9t8CsfBOI+lM3IP8IriDdY2+XIYA1oW3K1r+I6
JMsaopUEpB9gwvTN7WTeBJICj4PR89KKNCJnQLjASBsv/ZS9QYIzjO78vbNazQID
AQABo4HhMIHeMB0GA1UdDgQWBBSIH3hK51a4QUXYriCR7yDkAtrnLDCBmwYDVR0j
BIGTMIGQgBTx/pGnFHIVYafGk8eRsrf4EGWqFqFtpGswaTELMAkGA1UEBhMCVVMx
EzARBgNVBAgMCkNhbGlmb3JuaWExFDASBgNVBAcMC1NhbnRhIENsYXJhMQ0wCwYD
VQQKDARwa2c1MQwwCgYDVQQDDAN0YTMxEjAQBgkqhkiG9w0BCQEWA3RhM4IJALhZ
BSYaxpTMMA8GA1UdEwEB/wQFMAMBAf8wDgYDVR0PAQH/BAQDAgEGMA0GCSqGSIb3
DQEBCwUAA4IBAQCOhMiPUN1NEIegq8/hV/DI+pfSP5YRWdkYbADDq3tRoWdzd5gD
jbkYIiA5SJ/kgyjragfTLwV1Mr446sCNJ5nCOp8xK/UdDQaRsBHnIQfSkpIr/qz9
BWqL9gwoGITJyb8ScW6W4egeLRWa/yiFCwdKjTQS3fjbSvMNylXEVbMGWBBBb4Yj
Hcgnl0ZMF9d76UOzfZ0hBNtPtYNhXbQxLBaRyaNJjkNpDkHizs+kV+MQ/RJNrn5Q
p5VGyA7IQOvBAS+LKysjjCtqa7ijz8vhNwt5a2NgKXx3U1KviiSVNMGdUDW9PFTe
u3mJh6vHEm6/hhIs5FhafiywaBwFBoNOzUmk
-----END CERTIFICATE-----
