Certificate:
    Data:
        Version: 3 (0x2)
        Serial Number: 1 (0x1)
        Signature Algorithm: sha256WithRSAEncryption
        Issuer: C=US, ST=California, L=Menlo Park, O=pkg5, CN=ta1/emailAddress=ta1
        Validity
            Not Before: Apr 11 22:37:38 2011 GMT
            Not After : Jan  5 22:37:38 2014 GMT
        Subject: C=US, ST=California, L=Menlo Park, O=pkg5, CN=ch1_ta1/emailAddress=ch1_ta1
        Subject Public Key Info:
            Public Key Algorithm: rsaEncryption
            RSA Public Key: (1024 bit)
                Modulus (1024 bit):
                    00:b1:ac:f5:20:5c:bf:44:a0:a0:ff:0b:28:02:1b:
                    9d:dd:1f:3c:6a:f7:16:c0:8e:ec:af:a1:a4:c4:cf:
                    26:8e:43:ca:8a:aa:05:8f:a2:10:03:32:41:d0:6e:
                    b4:52:45:47:a8:46:8b:c5:f3:cd:55:56:f5:d0:c3:
                    ec:e4:a4:63:8b:9a:87:fa:74:78:ff:2c:f7:66:77:
                    3f:05:c3:31:d0:46:5f:b6:17:af:b5:76:9f:d8:8d:
                    22:d3:76:ac:ad:55:6f:4c:76:2a:27:8e:e9:22:74:
                    42:ce:db:42:b9:00:54:01:fe:18:c6:4a:96:b5:b9:
                    88:32:6d:c5:d9:56:fc:87:95
                Exponent: 65537 (0x10001)
        X509v3 extensions:
            X509v3 Subject Key Identifier: 
                C0:9E:26:BD:D6:FB:FB:BF:FA:CE:33:92:CA:4E:25:CF:EC:9E:BA:66
            X509v3 Authority Key Identifier: 
                keyid:75:A9:2B:02:E8:FB:31:09:2A:F2:16:21:24:D8:B2:A5:D0:14:93:5B
                DirName:/C=US/ST=California/L=Menlo Park/O=pkg5/CN=ta1/emailAddress=ta1
                serial:A1:49:EA:78:5A:F4:55:8D

            X509v3 Basic Constraints: critical
                CA:TRUE, pathlen:4
            X509v3 Key Usage: critical
                Certificate Sign, CRL Sign
    Signature Algorithm: sha256WithRSAEncryption
        94:eb:ef:96:17:47:57:5e:c2:4f:4c:67:8b:bd:d7:14:22:1e:
        d7:09:cc:b7:b2:f2:cf:df:51:e3:a6:ea:5a:7b:3a:5f:47:b1:
        db:37:91:a3:ae:75:d2:d0:9e:9c:49:fc:ec:1f:2e:9b:b4:96:
        43:60:c8:99:a7:a8:fb:93:c1:68:2e:c8:09:42:23:0c:8a:25:
        08:67:e9:0e:6a:44:e9:18:08:d0:a0:ce:60:6c:d3:e8:c1:ec:
        2d:f0:db:47:04:36:f3:27:86:69:c5:10:06:3b:93:65:ea:19:
        e4:6d:cd:fb:8a:ee:21:58:de:f3:17:7a:ee:ce:80:06:cc:1f:
        48:dd
-----BEGIN CERTIFICATE-----
MIIDMjCCApugAwIBAgIBATANBgkqhkiG9w0BAQsFADBoMQswCQYDVQQGEwJVUzET
MBEGA1UECBMKQ2FsaWZvcm5pYTETMBEGA1UEBxMKTWVubG8gUGFyazENMAsGA1UE
ChMEcGtnNTEMMAoGA1UEAxMDdGExMRIwEAYJKoZIhvcNAQkBFgN0YTEwHhcNMTEw
NDExMjIzNzM4WhcNMTQwMTA1MjIzNzM4WjBwMQswCQYDVQQGEwJVUzETMBEGA1UE
CBMKQ2FsaWZvcm5pYTETMBEGA1UEBxMKTWVubG8gUGFyazENMAsGA1UEChMEcGtn
NTEQMA4GA1UEAxQHY2gxX3RhMTEWMBQGCSqGSIb3DQEJARYHY2gxX3RhMTCBnzAN
BgkqhkiG9w0BAQEFAAOBjQAwgYkCgYEAsaz1IFy/RKCg/wsoAhud3R88avcWwI7s
r6GkxM8mjkPKiqoFj6IQAzJB0G60UkVHqEaLxfPNVVb10MPs5KRji5qH+nR4/yz3
Znc/BcMx0EZfthevtXaf2I0i03asrVVvTHYqJ47pInRCzttCuQBUAf4YxkqWtbmI
Mm3F2Vb8h5UCAwEAAaOB4zCB4DAdBgNVHQ4EFgQUwJ4mvdb7+7/6zjOSyk4lz+ye
umYwgZoGA1UdIwSBkjCBj4AUdakrAuj7MQkq8hYhJNiypdAUk1uhbKRqMGgxCzAJ
BgNVBAYTAlVTMRMwEQYDVQQIEwpDYWxpZm9ybmlhMRMwEQYDVQQHEwpNZW5sbyBQ
YXJrMQ0wCwYDVQQKEwRwa2c1MQwwCgYDVQQDEwN0YTExEjAQBgkqhkiG9w0BCQEW
A3RhMYIJAKFJ6nha9FWNMBIGA1UdEwEB/wQIMAYBAf8CAQQwDgYDVR0PAQH/BAQD
AgEGMA0GCSqGSIb3DQEBCwUAA4GBAJTr75YXR1dewk9MZ4u91xQiHtcJzLey8s/f
UeOm6lp7Ol9Hsds3kaOuddLQnpxJ/OwfLpu0lkNgyJmnqPuTwWguyAlCIwyKJQhn
6Q5qROkYCNCgzmBs0+jB7C3w20cENvMnhmnFEAY7k2XqGeRtzfuK7iFY3vMXeu7O
gAbMH0jd
-----END CERTIFICATE-----
