Certificate:
    Data:
        Version: 3 (0x2)
        Serial Number: 16 (0x10)
    Signature Algorithm: sha256WithRSAEncryption
        Issuer: C=US, ST=California, L=Santa Clara, O=pkg5, CN=ta3/emailAddress=ta3
        Validity
            Not Before: Jul 19 11:35:46 2023 GMT
            Not After : Apr 14 11:35:46 2026 GMT
        Subject: C=US, ST=California, L=Santa Clara, O=pkg5, CN=ch1_ta3/emailAddress=ch1_ta3
        Subject Public Key Info:
            Public Key Algorithm: rsaEncryption
                Public-Key: (2048 bit)
                Modulus:
                    00:cf:75:d6:3b:16:9d:4e:11:fc:1d:3b:dd:f3:07:
                    0d:79:eb:1b:fb:f7:c0:8d:03:d5:37:e6:7d:02:2d:
                    5e:14:53:41:4d:c5:91:a6:95:0f:ae:ff:4f:09:56:
                    30:99:1a:b2:c6:4f:93:a1:45:9c:07:4b:1a:31:b8:
                    51:0b:b3:39:28:65:b5:ff:7d:dc:ac:ad:6c:bf:ab:
                    bb:fe:18:f5:cb:cc:c0:4a:69:fb:18:4c:ec:84:48:
                    cb:3a:2a:d6:e9:75:15:16:6f:e1:65:3b:3a:e2:2e:
                    87:33:60:3a:1c:a3:15:9e:b3:6b:a0:30:91:4c:32:
                    18:92:6b:ad:9b:18:44:3c:20:5e:1c:06:5e:1a:88:
                    0c:0a:3b:be:2c:8e:0d:ef:94:fe:62:a1:60:ad:ff:
                    c7:7f:49:02:f5:e0:0f:a3:47:56:dc:ab:f5:cc:00:
                    96:45:87:14:41:01:5e:d0:8b:8e:27:e2:31:e8:d9:
                    b4:5b:72:66:d0:b5:3c:67:e7:85:18:5e:39:c7:27:
                    80:5f:07:4f:7c:7a:9f:56:37:e8:52:4e:44:b8:94:
                    27:be:45:27:e4:12:be:15:2e:cc:bb:ee:e8:b8:fb:
                    e4:8c:78:1d:f7:8d:83:ac:47:8c:c0:20:a8:55:53:
                    90:31:48:49:c8:0a:44:8c:0a:78:ad:d9:a9:00:0c:
                    c9:85
                Exponent: 65537 (0x10001)
        X509v3 extensions:
            X509v3 Subject Key Identifier: 
                06:C7:27:23:34:5F:68:4B:8B:F2:E5:E3:5C:B9:E6:73:62:F2:69:52
            X509v3 Authority Key Identifier: 
                keyid:F8:FC:1B:17:AF:A0:B5:3C:20:B8:72:93:D2:EA:04:A7:52:B6:29:60
                DirName:/C=US/ST=California/L=Santa Clara/O=pkg5/CN=ta3/emailAddress=ta3
                serial:86:89:BA:18:66:F8:F6:2F

            X509v3 Basic Constraints: critical
                CA:TRUE
            X509v3 Key Usage: critical
                Certificate Sign, CRL Sign
    Signature Algorithm: sha256WithRSAEncryption
         b5:b9:19:6d:93:6d:a4:16:9e:76:63:15:c2:10:1f:c7:db:3a:
         68:03:ae:75:36:1e:23:5c:71:97:15:cb:d6:dd:35:02:8a:ff:
         fc:aa:2e:f0:34:96:00:80:2d:9d:82:48:b4:bf:70:6f:55:ec:
         2e:19:66:37:74:2d:06:ea:31:59:36:56:8a:fd:83:c9:c8:41:
         49:1d:75:9e:1b:c5:e1:8e:03:0a:50:cd:d2:f6:1a:fe:49:01:
         db:6c:e0:d0:b5:04:12:d2:2b:3f:ff:64:74:9e:28:6e:eb:fc:
         e1:33:3b:78:d7:3c:14:5e:6e:86:16:d9:a5:b0:7a:aa:d6:ab:
         94:cd:e7:3c:5a:ca:22:46:5a:a8:a3:ef:30:9b:60:e4:27:16:
         5c:76:a5:fb:1b:a2:69:ee:9f:af:3d:9a:2b:95:ed:a4:06:36:
         c2:e5:94:c7:02:f6:16:c8:8e:19:ff:35:d1:d7:73:f1:21:1f:
         30:2b:5b:2c:b7:fd:7e:a0:6e:a3:d2:fb:31:cb:1b:fc:6b:38:
         b5:cc:10:22:e0:8d:fa:79:96:a4:61:48:52:c2:78:10:02:7b:
         7c:4e:7b:9b:f5:13:77:11:8c:52:71:61:53:03:e0:07:dd:c4:
         d8:35:66:c4:df:71:fd:07:6e:68:4e:5d:07:b3:9d:ae:0f:79:
         46:01:44:a8
-----BEGIN CERTIFICATE-----
MIIENzCCAx+gAwIBAgIBEDANBgkqhkiG9w0BAQsFADBpMQswCQYDVQQGEwJVUzET
MBEGA1UECAwKQ2FsaWZvcm5pYTEUMBIGA1UEBwwLU2FudGEgQ2xhcmExDTALBgNV
BAoMBHBrZzUxDDAKBgNVBAMMA3RhMzESMBAGCSqGSIb3DQEJARYDdGEzMB4XDTIz
MDcxOTExMzU0NloXDTI2MDQxNDExMzU0NlowcTELMAkGA1UEBhMCVVMxEzARBgNV
BAgMCkNhbGlmb3JuaWExFDASBgNVBAcMC1NhbnRhIENsYXJhMQ0wCwYDVQQKDARw
a2c1MRAwDgYDVQQDDAdjaDFfdGEzMRYwFAYJKoZIhvcNAQkBFgdjaDFfdGEzMIIB
IjANBgkqhkiG9w0BAQEFAAOCAQ8AMIIBCgKCAQEAz3XWOxadThH8HTvd8wcNeesb
+/fAjQPVN+Z9Ai1eFFNBTcWRppUPrv9PCVYwmRqyxk+ToUWcB0saMbhRC7M5KGW1
/33crK1sv6u7/hj1y8zASmn7GEzshEjLOirW6XUVFm/hZTs64i6HM2A6HKMVnrNr
oDCRTDIYkmutmxhEPCBeHAZeGogMCju+LI4N75T+YqFgrf/Hf0kC9eAPo0dW3Kv1
zACWRYcUQQFe0IuOJ+Ix6Nm0W3Jm0LU8Z+eFGF45xyeAXwdPfHqfVjfoUk5EuJQn
vkUn5BK+FS7Mu+7ouPvkjHgd942DrEeMwCCoVVOQMUhJyApEjAp4rdmpAAzJhQID
AQABo4HhMIHeMB0GA1UdDgQWBBQGxycjNF9oS4vy5eNcueZzYvJpUjCBmwYDVR0j
BIGTMIGQgBT4/BsXr6C1PCC4cpPS6gSnUrYpYKFtpGswaTELMAkGA1UEBhMCVVMx
EzARBgNVBAgMCkNhbGlmb3JuaWExFDASBgNVBAcMC1NhbnRhIENsYXJhMQ0wCwYD
VQQKDARwa2c1MQwwCgYDVQQDDAN0YTMxEjAQBgkqhkiG9w0BCQEWA3RhM4IJAIaJ
uhhm+PYvMA8GA1UdEwEB/wQFMAMBAf8wDgYDVR0PAQH/BAQDAgEGMA0GCSqGSIb3
DQEBCwUAA4IBAQC1uRltk22kFp52YxXCEB/H2zpoA651Nh4jXHGXFcvW3TUCiv/8
qi7wNJYAgC2dgki0v3BvVewuGWY3dC0G6jFZNlaK/YPJyEFJHXWeG8XhjgMKUM3S
9hr+SQHbbODQtQQS0is//2R0nihu6/zhMzt41zwUXm6GFtmlsHqq1quUzec8Wsoi
Rlqoo+8wm2DkJxZcdqX7G6Jp7p+vPZorle2kBjbC5ZTHAvYWyI4Z/zXR13PxIR8w
K1sst/1+oG6j0vsxyxv8azi1zBAi4I36eZakYUhSwngQAnt8Tnub9RN3EYxScWFT
A+AH3cTYNWbE33H9B25oTl0Hs52uD3lGAUSo
-----END CERTIFICATE-----
