Certificate:
    Data:
        Version: 3 (0x2)
        Serial Number: 34 (0x22)
    Signature Algorithm: sha256WithRSAEncryption
        Issuer: C=US, ST=California, L=Santa Clara, O=pkg5, CN=ta4/emailAddress=ta4
        Validity
            Not Before: Dec 13 00:13:37 2013 GMT
            Not After : Sep  8 00:13:37 2016 GMT
        Subject: C=US, ST=California, L=Santa Clara, O=pkg5, CN=ch1_ta4/emailAddress=ch1_ta4
        Subject Public Key Info:
            Public Key Algorithm: rsaEncryption
                Public-Key: (1024 bit)
                Modulus:
                    00:b4:25:1c:3a:c2:26:af:8d:82:4d:29:e3:e0:78:
                    6f:2b:7f:3c:b1:8c:c0:37:96:71:d2:42:21:df:2e:
                    c4:c0:5a:60:e4:71:6f:05:df:88:a8:4b:ec:87:54:
                    8d:08:c9:f7:19:84:a5:d0:cc:cb:43:c3:70:69:67:
                    2e:4c:be:e6:2d:93:90:f9:02:30:a7:43:d2:1f:e5:
                    d4:cf:5b:5c:74:88:06:0e:ee:cd:78:2c:2f:27:4c:
                    99:2f:be:9a:73:5b:9b:1c:e3:67:54:b6:74:a7:c9:
                    31:d3:63:6a:c5:4a:50:22:eb:af:e2:cd:7a:de:59:
                    68:6a:a6:0e:26:d6:52:b6:a1
                Exponent: 65537 (0x10001)
        X509v3 extensions:
            X509v3 Subject Key Identifier: 
                29:7A:F9:B4:E3:1B:8F:19:63:52:FA:19:A0:AB:DA:37:E4:70:A9:71
            X509v3 Authority Key Identifier: 
                keyid:84:46:29:88:74:31:EF:A6:CC:3C:E3:58:29:DE:BE:FD:1B:F4:59:98
                DirName:/C=US/ST=California/L=Santa Clara/O=pkg5/CN=ta4/emailAddress=ta4
                serial:E8:F7:8D:38:FA:4B:55:DD

            X509v3 Basic Constraints: critical
                CA:TRUE
            X509v3 Key Usage: critical
                Certificate Sign, CRL Sign
    Signature Algorithm: sha256WithRSAEncryption
         91:d2:2e:6f:55:ce:c6:39:d8:b4:1f:7a:df:7f:bd:8f:4e:66:
         ec:10:3d:35:f1:36:22:90:ae:b7:16:e4:48:f5:ec:63:27:e8:
         88:32:78:ac:21:cc:71:f9:46:6a:73:b7:09:24:a7:44:68:41:
         a5:07:f9:a3:ec:c7:53:ca:68:e4:09:68:b7:ee:11:f2:8c:08:
         80:3c:a5:56:e2:f3:a8:aa:1e:34:99:49:26:8a:1f:50:36:d2:
         0e:ee:b6:a0:a6:e6:b0:94:41:a6:bc:de:93:6f:af:b3:fa:f4:
         a3:c3:46:83:f8:27:67:8e:9e:40:ec:79:08:0b:e2:46:73:61:
         0d:c6
-----BEGIN CERTIFICATE-----
MIIDMjCCApugAwIBAgIBIjANBgkqhkiG9w0BAQsFADBpMQswCQYDVQQGEwJVUzET
MBEGA1UECAwKQ2FsaWZvcm5pYTEUMBIGA1UEBwwLU2FudGEgQ2xhcmExDTALBgNV
BAoMBHBrZzUxDDAKBgNVBAMMA3RhNDESMBAGCSqGSIb3DQEJARYDdGE0MB4XDTEz
MTIxMzAwMTMzN1oXDTE2MDkwODAwMTMzN1owcTELMAkGA1UEBhMCVVMxEzARBgNV
BAgMCkNhbGlmb3JuaWExFDASBgNVBAcMC1NhbnRhIENsYXJhMQ0wCwYDVQQKDARw
a2c1MRAwDgYDVQQDDAdjaDFfdGE0MRYwFAYJKoZIhvcNAQkBFgdjaDFfdGE0MIGf
MA0GCSqGSIb3DQEBAQUAA4GNADCBiQKBgQC0JRw6wiavjYJNKePgeG8rfzyxjMA3
lnHSQiHfLsTAWmDkcW8F34ioS+yHVI0IyfcZhKXQzMtDw3BpZy5MvuYtk5D5AjCn
Q9If5dTPW1x0iAYO7s14LC8nTJkvvppzW5sc42dUtnSnyTHTY2rFSlAi66/izXre
WWhqpg4m1lK2oQIDAQABo4HhMIHeMB0GA1UdDgQWBBQpevm04xuPGWNS+hmgq9o3
5HCpcTCBmwYDVR0jBIGTMIGQgBSERimIdDHvpsw841gp3r79G/RZmKFtpGswaTEL
MAkGA1UEBhMCVVMxEzARBgNVBAgMCkNhbGlmb3JuaWExFDASBgNVBAcMC1NhbnRh
IENsYXJhMQ0wCwYDVQQKDARwa2c1MQwwCgYDVQQDDAN0YTQxEjAQBgkqhkiG9w0B
CQEWA3RhNIIJAOj3jTj6S1XdMA8GA1UdEwEB/wQFMAMBAf8wDgYDVR0PAQH/BAQD
AgEGMA0GCSqGSIb3DQEBCwUAA4GBAJHSLm9VzsY52LQfet9/vY9OZuwQPTXxNiKQ
rrcW5Ej17GMn6IgyeKwhzHH5Rmpztwkkp0RoQaUH+aPsx1PKaOQJaLfuEfKMCIA8
pVbi86iqHjSZSSaKH1A20g7utqCm5rCUQaa83pNvr7P69KPDRoP4J2eOnkDseQgL
4kZzYQ3G
-----END CERTIFICATE-----
