Certificate:
    Data:
        Version: 3 (0x2)
        Serial Number: 9 (0x9)
        Signature Algorithm: sha256WithRSAEncryption
        Issuer: C=US, ST=California, L=Menlo Park, O=pkg5, CN=ch1_pubCA1/emailAddress=ch1_pubCA1
        Validity
            Not Before: Jan 28 02:54:11 2011 GMT
            Not After : Oct 24 02:54:11 2013 GMT
        Subject: C=US, ST=California, L=Menlo Park, O=pkg5, CN=ch2.2_pubCA1/emailAddress=ch2.2_pubCA1
        Subject Public Key Info:
            Public Key Algorithm: rsaEncryption
            RSA Public Key: (1024 bit)
                Modulus (1024 bit):
                    00:c8:33:0b:b1:2a:41:42:8c:70:88:60:cd:52:0e:
                    ac:43:d5:65:9d:4a:29:4d:e6:32:9d:a7:ae:0e:dd:
                    0c:68:3e:bd:0b:51:77:53:7d:c8:1d:49:a2:19:23:
                    95:41:b4:9b:1f:89:fb:21:9c:f8:2b:e3:65:c3:17:
                    22:cb:c6:f6:b4:cd:92:ae:a6:b1:f4:41:78:9e:0d:
                    4c:4b:36:39:a4:8d:a9:2a:11:1e:08:1a:83:f6:3d:
                    36:ab:d2:c7:48:e7:c7:7d:53:54:6a:a0:05:ca:5e:
                    8d:b9:7f:eb:91:64:38:ec:32:0f:69:66:15:52:6a:
                    2d:bd:5f:18:71:99:d4:1e:1d
                Exponent: 65537 (0x10001)
        X509v3 extensions:
            X509v3 Basic Constraints: critical
                CA:TRUE
            X509v3 Issuer Alternative Name: critical
                <EMPTY>

    Signature Algorithm: sha256WithRSAEncryption
        68:9e:f9:b9:92:e1:89:22:3f:c0:f0:e6:c5:61:f5:c5:c6:8a:
        01:12:fb:d4:1c:86:1a:33:fa:6d:9f:a1:55:76:6b:1f:bb:13:
        36:0d:94:20:c6:92:38:1e:5a:4d:e2:a9:60:76:b3:2b:24:c5:
        fc:a7:f3:32:22:14:d6:e3:cd:0b:55:40:92:15:a7:f2:09:35:
        02:e1:4e:b5:54:5a:41:54:cc:78:82:f3:d7:97:24:16:b0:b9:
        00:35:a2:55:da:f2:ce:05:d3:46:f9:20:fa:35:9b:aa:12:3e:
        ec:a8:d0:f6:40:6b:0e:5c:de:85:5f:b1:5e:5f:9f:f2:47:ec:
        d4:b9
-----BEGIN CERTIFICATE-----
MIIChzCCAfCgAwIBAgIBCTANBgkqhkiG9w0BAQsFADB2MQswCQYDVQQGEwJVUzET
MBEGA1UECBMKQ2FsaWZvcm5pYTETMBEGA1UEBxMKTWVubG8gUGFyazENMAsGA1UE
ChMEcGtnNTETMBEGA1UEAxQKY2gxX3B1YkNBMTEZMBcGCSqGSIb3DQEJARYKY2gx
X3B1YkNBMTAeFw0xMTAxMjgwMjU0MTFaFw0xMzEwMjQwMjU0MTFaMHoxCzAJBgNV
BAYTAlVTMRMwEQYDVQQIEwpDYWxpZm9ybmlhMRMwEQYDVQQHEwpNZW5sbyBQYXJr
MQ0wCwYDVQQKEwRwa2c1MRUwEwYDVQQDFAxjaDIuMl9wdWJDQTExGzAZBgkqhkiG
9w0BCQEWDGNoMi4yX3B1YkNBMTCBnzANBgkqhkiG9w0BAQEFAAOBjQAwgYkCgYEA
yDMLsSpBQoxwiGDNUg6sQ9VlnUopTeYynaeuDt0MaD69C1F3U33IHUmiGSOVQbSb
H4n7IZz4K+Nlwxciy8b2tM2Srqax9EF4ng1MSzY5pI2pKhEeCBqD9j02q9LHSOfH
fVNUaqAFyl6NuX/rkWQ47DIPaWYVUmotvV8YcZnUHh0CAwEAAaMhMB8wDwYDVR0T
AQH/BAUwAwEB/zAMBgNVHRIBAf8EAjAAMA0GCSqGSIb3DQEBCwUAA4GBAGie+bmS
4YkiP8Dw5sVh9cXGigES+9Qchhoz+m2foVV2ax+7EzYNlCDGkjgeWk3iqWB2sysk
xfyn8zIiFNbjzQtVQJIVp/IJNQLhTrVUWkFUzHiC89eXJBawuQA1olXa8s4F00b5
IPo1m6oSPuyo0PZAaw5c3oVfsV5fn/JH7NS5
-----END CERTIFICATE-----
