Certificate:
    Data:
        Version: 3 (0x2)
        Serial Number: 2 (0x2)
    Signature Algorithm: sha256WithRSAEncryption
        Issuer: C=US, ST=California, L=Santa Clara, O=pkg5, CN=ch1_ta1/emailAddress=ch1_ta1
        Validity
            Not Before: Jul 19 11:35:43 2023 GMT
            Not After : Apr 14 11:35:43 2026 GMT
        Subject: C=US, ST=California, L=Santa Clara, O=pkg5, CN=ch2_ta1/emailAddress=ch2_ta1
        Subject Public Key Info:
            Public Key Algorithm: rsaEncryption
                Public-Key: (2048 bit)
                Modulus:
                    00:93:ff:90:e2:14:c3:6e:a3:f9:5f:79:34:56:ed:
                    5e:72:20:61:18:55:a3:d8:bc:79:c7:a4:17:39:f1:
                    6f:7c:b2:02:9f:99:95:2e:7b:f8:1d:11:16:5e:f1:
                    7e:d1:c9:00:98:a0:cd:cd:91:09:2e:09:21:73:86:
                    c5:3e:56:15:80:43:d3:75:07:58:bc:61:29:cf:8f:
                    6d:96:8d:fa:2d:f8:8a:36:e3:57:2c:cc:f5:f9:ea:
                    46:1a:92:33:dd:08:64:7f:9a:3e:1e:db:82:0e:05:
                    27:4c:ca:61:b4:fc:b2:50:fd:13:7e:5a:8f:4d:34:
                    99:7f:68:c2:61:35:36:71:e3:1b:f0:e8:18:0d:53:
                    ec:9e:97:14:0a:b5:21:93:73:c0:f1:a2:32:cd:4d:
                    3a:fb:44:43:43:1e:f6:75:ff:51:17:e5:49:57:50:
                    2a:7d:6c:27:73:35:dc:71:c9:d8:3b:34:30:8c:55:
                    87:81:1c:fe:6b:c6:a7:11:e8:c4:5b:b8:f7:b4:19:
                    25:bd:bb:72:ae:b3:23:d0:31:a8:48:6e:51:d5:29:
                    3f:6a:a4:c9:4e:55:3f:13:37:50:bc:3a:33:2e:2f:
                    01:03:a4:0a:ac:30:c6:79:ae:d1:8d:f7:04:1a:da:
                    f0:b8:9e:e4:bd:a4:4e:d7:3f:03:2d:63:2e:83:8f:
                    8d:fb
                Exponent: 65537 (0x10001)
        X509v3 extensions:
            X509v3 Subject Key Identifier: 
                A9:39:49:D0:AA:6F:9F:0F:AA:B1:5D:4B:9E:0C:AF:58:3A:6C:A9:7D
            X509v3 Authority Key Identifier: 
                keyid:22:DC:BC:2D:BC:28:F0:6C:AA:CD:94:1C:6E:DE:D7:06:D1:7E:49:CD
                DirName:/C=US/ST=California/L=Santa Clara/O=pkg5/CN=ta1/emailAddress=ta1
                serial:01

            X509v3 Basic Constraints: critical
                CA:TRUE, pathlen:3
            X509v3 Key Usage: critical
                Certificate Sign, CRL Sign
    Signature Algorithm: sha256WithRSAEncryption
         39:f3:7b:87:36:b5:91:9f:a9:c8:93:55:27:3f:cc:9e:91:76:
         3e:b9:9c:f2:8a:6a:6e:d1:d5:e1:0a:7c:3f:59:f9:33:75:05:
         9e:d6:03:59:de:2c:b6:70:20:0e:c4:30:4c:12:af:4a:e6:d1:
         e6:36:af:af:02:c5:54:1e:02:c5:c2:f8:2b:8b:57:c9:08:f4:
         f0:4a:21:62:6f:dc:cd:59:23:5c:36:89:3e:bd:86:df:13:7a:
         a2:ef:03:ab:53:cc:79:42:f6:8c:c7:58:8e:20:71:ed:82:95:
         a8:78:b0:b1:62:64:2b:82:13:6c:67:03:c8:94:b5:93:9d:b5:
         f1:7a:34:e1:e7:87:c6:10:0c:fb:de:09:69:76:01:1f:80:12:
         86:84:b5:02:5e:e9:75:bf:41:4f:3c:63:00:b7:90:e6:a9:c6:
         4d:4e:13:1c:4e:ab:41:61:45:9d:39:80:36:41:df:e1:91:d4:
         0b:bd:ce:48:17:c0:30:0c:e2:d0:8e:b9:5e:34:ba:6e:d6:be:
         c3:c2:3b:e3:23:d6:89:43:89:07:0c:7b:98:0a:94:b5:a0:f5:
         11:fa:4f:b2:73:ff:fa:ff:a8:b7:53:0c:bc:83:fc:33:a5:7d:
         be:c7:f3:69:a4:e9:4c:92:86:5f:e9:b2:c2:6d:d0:db:b5:17:
         90:15:56:b4
-----BEGIN CERTIFICATE-----
MIIEOjCCAyKgAwIBAgIBAjANBgkqhkiG9w0BAQsFADBxMQswCQYDVQQGEwJVUzET
MBEGA1UECAwKQ2FsaWZvcm5pYTEUMBIGA1UEBwwLU2FudGEgQ2xhcmExDTALBgNV
BAoMBHBrZzUxEDAOBgNVBAMMB2NoMV90YTExFjAUBgkqhkiG9w0BCQEWB2NoMV90
YTEwHhcNMjMwNzE5MTEzNTQzWhcNMjYwNDE0MTEzNTQzWjBxMQswCQYDVQQGEwJV
UzETMBEGA1UECAwKQ2FsaWZvcm5pYTEUMBIGA1UEBwwLU2FudGEgQ2xhcmExDTAL
BgNVBAoMBHBrZzUxEDAOBgNVBAMMB2NoMl90YTExFjAUBgkqhkiG9w0BCQEWB2No
Ml90YTEwggEiMA0GCSqGSIb3DQEBAQUAA4IBDwAwggEKAoIBAQCT/5DiFMNuo/lf
eTRW7V5yIGEYVaPYvHnHpBc58W98sgKfmZUue/gdERZe8X7RyQCYoM3NkQkuCSFz
hsU+VhWAQ9N1B1i8YSnPj22Wjfot+Io241cszPX56kYakjPdCGR/mj4e24IOBSdM
ymG0/LJQ/RN+Wo9NNJl/aMJhNTZx4xvw6BgNU+yelxQKtSGTc8DxojLNTTr7REND
HvZ1/1EX5UlXUCp9bCdzNdxxydg7NDCMVYeBHP5rxqcR6MRbuPe0GSW9u3KusyPQ
MahIblHVKT9qpMlOVT8TN1C8OjMuLwEDpAqsMMZ5rtGN9wQa2vC4nuS9pE7XPwMt
Yy6Dj437AgMBAAGjgdwwgdkwHQYDVR0OBBYEFKk5SdCqb58PqrFdS54Mr1g6bKl9
MIGTBgNVHSMEgYswgYiAFCLcvC28KPBsqs2UHG7e1wbRfknNoW2kazBpMQswCQYD
VQQGEwJVUzETMBEGA1UECAwKQ2FsaWZvcm5pYTEUMBIGA1UEBwwLU2FudGEgQ2xh
cmExDTALBgNVBAoMBHBrZzUxDDAKBgNVBAMMA3RhMTESMBAGCSqGSIb3DQEJARYD
dGExggEBMBIGA1UdEwEB/wQIMAYBAf8CAQMwDgYDVR0PAQH/BAQDAgEGMA0GCSqG
SIb3DQEBCwUAA4IBAQA583uHNrWRn6nIk1UnP8yekXY+uZzyimpu0dXhCnw/Wfkz
dQWe1gNZ3iy2cCAOxDBMEq9K5tHmNq+vAsVUHgLFwvgri1fJCPTwSiFib9zNWSNc
Nok+vYbfE3qi7wOrU8x5QvaMx1iOIHHtgpWoeLCxYmQrghNsZwPIlLWTnbXxejTh
54fGEAz73glpdgEfgBKGhLUCXul1v0FPPGMAt5DmqcZNThMcTqtBYUWdOYA2Qd/h
kdQLvc5IF8AwDOLQjrleNLpu1r7DwjvjI9aJQ4kHDHuYCpS1oPUR+k+yc//6/6i3
Uwy8g/wzpX2+x/NppOlMkoZf6bLCbdDbtReQFVa0
-----END CERTIFICATE-----
