Certificate:
    Data:
        Version: 3 (0x2)
        Serial Number: 2 (0x2)
        Signature Algorithm: sha256WithRSAEncryption
        Issuer: C=US, ST=California, L=Santa Clara, O=pkg5, CN=ch1_ta1/emailAddress=ch1_ta1
        Validity
            Not Before: Mar 18 08:51:27 2026 GMT
            Not After : Dec 12 08:51:27 2028 GMT
        Subject: C=US, ST=California, L=Santa Clara, O=pkg5, CN=ch2_ta1/emailAddress=ch2_ta1
        Subject Public Key Info:
            Public Key Algorithm: rsaEncryption
                Public-Key: (2048 bit)
                Modulus:
                    00:b5:99:4f:8c:52:91:c3:c1:77:bb:b5:a3:ee:69:
                    bf:b8:d5:62:e1:53:83:7b:d1:07:6a:45:e5:f4:2c:
                    ec:8f:71:08:0a:13:f3:5f:90:3c:ab:6b:28:75:f3:
                    4d:7a:11:d4:20:91:5e:fb:69:f4:e7:b2:d6:59:63:
                    37:3d:3e:85:90:1d:f6:cd:89:99:8c:b5:e9:01:52:
                    08:f4:86:df:66:04:e6:b4:bb:6b:27:39:e6:79:25:
                    33:09:60:73:8e:53:29:b5:f3:96:89:c2:68:77:f0:
                    d3:4b:66:22:05:b2:43:fb:a1:78:54:3c:e7:96:23:
                    a2:26:6a:a5:59:c2:2c:14:19:63:d5:66:86:26:b9:
                    cc:0d:ce:8d:37:28:f0:c9:97:6d:21:ee:a8:e1:43:
                    7a:d4:c5:9c:7b:d4:d7:c9:a0:bf:32:f4:03:99:51:
                    a8:e1:97:ac:20:78:46:cb:bc:07:be:aa:76:33:e1:
                    99:28:99:23:d4:06:76:c1:fe:89:15:ca:87:8b:0b:
                    fa:56:cd:0e:a0:90:56:8e:2b:8a:e4:4c:d7:5a:85:
                    0e:e3:ea:0e:d9:e7:6f:52:5c:16:12:82:01:26:af:
                    81:fe:8f:a8:25:e3:22:d8:8f:7d:b8:9a:17:33:7a:
                    d3:26:78:0f:7f:b1:11:ad:28:9a:3f:7b:85:ac:71:
                    22:e9
                Exponent: 65537 (0x10001)
        X509v3 extensions:
            X509v3 Subject Key Identifier: 
                A9:4B:F1:1B:7D:D9:D2:B5:E4:09:D0:57:DA:95:16:55:33:0A:D4:CE
            X509v3 Authority Key Identifier: 
                keyid:4F:B7:D2:BD:71:9E:29:94:FD:64:75:00:9B:27:FB:B5:DF:72:87:94
                DirName:/C=US/ST=California/L=Santa Clara/O=pkg5/CN=ta1/emailAddress=ta1
                serial:01
            X509v3 Basic Constraints: critical
                CA:TRUE, pathlen:3
            X509v3 Key Usage: critical
                Certificate Sign, CRL Sign
    Signature Algorithm: sha256WithRSAEncryption
    Signature Value:
        66:ce:7f:d9:4f:4f:61:b0:c8:17:ff:e6:04:89:6c:31:da:8e:
        67:69:5a:f3:61:6f:ff:5f:47:b4:85:67:77:ff:52:52:e2:8b:
        91:88:74:bd:78:b2:d4:81:af:ac:28:0b:d0:f3:ce:79:93:30:
        e8:2e:5e:84:6d:47:4d:e4:47:47:85:e0:aa:e8:8c:a7:06:42:
        75:b3:6c:03:3f:4f:13:69:8f:2e:84:f4:87:f1:81:42:08:40:
        74:a5:56:39:85:e1:d4:7c:ba:a7:9f:73:31:93:e9:72:d4:03:
        65:c1:b2:8c:74:9a:88:c6:ac:d2:c3:d8:d6:91:44:f1:b9:39:
        7e:be:53:28:96:f6:ee:a7:f3:34:13:a5:9f:26:a1:b2:6e:ee:
        dc:96:ef:90:0d:01:9c:6f:d8:3d:1f:8e:8f:87:7d:05:1d:35:
        5a:cb:cd:f5:0a:6c:8f:ff:39:91:a5:87:43:0a:1c:fb:2c:06:
        f1:8b:13:38:b4:ad:88:0c:98:5a:c7:1d:5b:a7:05:72:c8:a7:
        c2:46:31:ff:a6:33:df:2a:07:96:f7:11:20:75:98:54:bc:02:
        2c:16:ca:e7:51:37:94:62:1f:5d:bd:d1:c0:b9:98:dd:31:28:
        79:29:98:c4:ff:c8:44:cb:75:d8:cb:81:b6:19:20:dc:bb:66:
        e8:a5:c7:2b
-----BEGIN CERTIFICATE-----
MIIEOjCCAyKgAwIBAgIBAjANBgkqhkiG9w0BAQsFADBxMQswCQYDVQQGEwJVUzET
MBEGA1UECAwKQ2FsaWZvcm5pYTEUMBIGA1UEBwwLU2FudGEgQ2xhcmExDTALBgNV
BAoMBHBrZzUxEDAOBgNVBAMMB2NoMV90YTExFjAUBgkqhkiG9w0BCQEWB2NoMV90
YTEwHhcNMjYwMzE4MDg1MTI3WhcNMjgxMjEyMDg1MTI3WjBxMQswCQYDVQQGEwJV
UzETMBEGA1UECAwKQ2FsaWZvcm5pYTEUMBIGA1UEBwwLU2FudGEgQ2xhcmExDTAL
BgNVBAoMBHBrZzUxEDAOBgNVBAMMB2NoMl90YTExFjAUBgkqhkiG9w0BCQEWB2No
Ml90YTEwggEiMA0GCSqGSIb3DQEBAQUAA4IBDwAwggEKAoIBAQC1mU+MUpHDwXe7
taPuab+41WLhU4N70QdqReX0LOyPcQgKE/NfkDyrayh18016EdQgkV77afTnstZZ
Yzc9PoWQHfbNiZmMtekBUgj0ht9mBOa0u2snOeZ5JTMJYHOOUym185aJwmh38NNL
ZiIFskP7oXhUPOeWI6ImaqVZwiwUGWPVZoYmucwNzo03KPDJl20h7qjhQ3rUxZx7
1NfJoL8y9AOZUajhl6wgeEbLvAe+qnYz4ZkomSPUBnbB/okVyoeLC/pWzQ6gkFaO
K4rkTNdahQ7j6g7Z529SXBYSggEmr4H+j6gl4yLYj324mhczetMmeA9/sRGtKJo/
e4WscSLpAgMBAAGjgdwwgdkwHQYDVR0OBBYEFKlL8Rt92dK15AnQV9qVFlUzCtTO
MIGTBgNVHSMEgYswgYiAFE+30r1xnimU/WR1AJsn+7XfcoeUoW2kazBpMQswCQYD
VQQGEwJVUzETMBEGA1UECAwKQ2FsaWZvcm5pYTEUMBIGA1UEBwwLU2FudGEgQ2xh
cmExDTALBgNVBAoMBHBrZzUxDDAKBgNVBAMMA3RhMTESMBAGCSqGSIb3DQEJARYD
dGExggEBMBIGA1UdEwEB/wQIMAYBAf8CAQMwDgYDVR0PAQH/BAQDAgEGMA0GCSqG
SIb3DQEBCwUAA4IBAQBmzn/ZT09hsMgX/+YEiWwx2o5naVrzYW//X0e0hWd3/1JS
4ouRiHS9eLLUga+sKAvQ8855kzDoLl6EbUdN5EdHheCq6IynBkJ1s2wDP08TaY8u
hPSH8YFCCEB0pVY5heHUfLqnn3Mxk+ly1ANlwbKMdJqIxqzSw9jWkUTxuTl+vlMo
lvbup/M0E6WfJqGybu7clu+QDQGcb9g9H46Ph30FHTVay831CmyP/zmRpYdDChz7
LAbxixM4tK2IDJhaxx1bpwVyyKfCRjH/pjPfKgeW9xEgdZhUvAIsFsrnUTeUYh9d
vdHAuZjdMSh5KZjE/8hEy3XYy4G2GSDcu2bopccr
-----END CERTIFICATE-----
