Certificate:
    Data:
        Version: 3 (0x2)
        Serial Number: 2 (0x2)
    Signature Algorithm: sha256WithRSAEncryption
        Issuer: C=US, ST=California, L=Santa Clara, O=pkg5, CN=ch1_ta1/emailAddress=ch1_ta1
        Validity
            Not Before: Dec 13 00:13:34 2013 GMT
            Not After : Sep  8 00:13:34 2016 GMT
        Subject: C=US, ST=California, L=Santa Clara, O=pkg5, CN=ch2_ta1/emailAddress=ch2_ta1
        Subject Public Key Info:
            Public Key Algorithm: rsaEncryption
                Public-Key: (1024 bit)
                Modulus:
                    00:be:c1:86:30:d2:a3:02:f4:00:33:fc:54:f3:6f:
                    d7:27:99:7b:57:e2:f1:93:f8:58:1c:eb:9a:cc:6b:
                    23:9b:b8:a9:11:27:50:9b:d7:a7:c2:fe:8b:ee:54:
                    d0:5d:e2:24:04:47:1c:cc:54:b5:89:bb:a6:26:de:
                    b9:3b:73:19:67:5e:9a:88:12:de:87:de:0e:26:c9:
                    0c:44:13:65:23:cd:7f:34:d6:bb:45:20:87:7e:ba:
                    48:d5:2f:3f:fc:d6:8d:d7:b7:b2:9f:42:ef:76:9a:
                    cf:c3:01:ae:b9:8f:00:33:ea:28:15:ca:30:da:8f:
                    25:76:a4:55:2a:2c:7a:b8:eb
                Exponent: 65537 (0x10001)
        X509v3 extensions:
            X509v3 Subject Key Identifier: 
                12:30:0A:74:FD:DE:71:CF:4A:77:1E:1E:57:5E:F8:76:71:D7:5B:9E
            X509v3 Authority Key Identifier: 
                keyid:36:46:2D:8A:1B:8B:CE:C1:1D:02:37:B9:EC:A5:FF:BA:73:AE:E5:48
                DirName:/C=US/ST=California/L=Santa Clara/O=pkg5/CN=ta1/emailAddress=ta1
                serial:01

            X509v3 Basic Constraints: critical
                CA:TRUE, pathlen:3
            X509v3 Key Usage: critical
                Certificate Sign, CRL Sign
    Signature Algorithm: sha256WithRSAEncryption
         8e:a5:2a:c9:3f:e0:1f:a9:8c:a3:45:b8:0d:0e:35:43:c3:d6:
         fe:f6:bc:0d:76:f0:26:d6:ab:e7:39:30:92:6f:cc:8e:0e:5f:
         b0:92:29:41:39:41:14:2a:43:b1:bb:e5:d4:8c:b3:6e:b7:7b:
         89:ab:3d:a4:e1:98:45:40:b9:1e:86:7b:b6:3f:55:e3:46:ab:
         ed:41:45:6a:cc:af:a4:63:54:c8:ab:27:3f:59:67:8a:f5:60:
         1b:63:b7:bb:27:94:00:8f:ee:f9:31:53:59:98:85:76:77:db:
         dd:39:6f:1a:61:fe:0d:68:88:20:a8:d5:2b:c7:6a:08:5b:f1:
         ac:9a
-----BEGIN CERTIFICATE-----
MIIDNTCCAp6gAwIBAgIBAjANBgkqhkiG9w0BAQsFADBxMQswCQYDVQQGEwJVUzET
MBEGA1UECAwKQ2FsaWZvcm5pYTEUMBIGA1UEBwwLU2FudGEgQ2xhcmExDTALBgNV
BAoMBHBrZzUxEDAOBgNVBAMMB2NoMV90YTExFjAUBgkqhkiG9w0BCQEWB2NoMV90
YTEwHhcNMTMxMjEzMDAxMzM0WhcNMTYwOTA4MDAxMzM0WjBxMQswCQYDVQQGEwJV
UzETMBEGA1UECAwKQ2FsaWZvcm5pYTEUMBIGA1UEBwwLU2FudGEgQ2xhcmExDTAL
BgNVBAoMBHBrZzUxEDAOBgNVBAMMB2NoMl90YTExFjAUBgkqhkiG9w0BCQEWB2No
Ml90YTEwgZ8wDQYJKoZIhvcNAQEBBQADgY0AMIGJAoGBAL7BhjDSowL0ADP8VPNv
1yeZe1fi8ZP4WBzrmsxrI5u4qREnUJvXp8L+i+5U0F3iJARHHMxUtYm7pibeuTtz
GWdemogS3ofeDibJDEQTZSPNfzTWu0Ugh366SNUvP/zWjde3sp9C73aaz8MBrrmP
ADPqKBXKMNqPJXakVSoserjrAgMBAAGjgdwwgdkwHQYDVR0OBBYEFBIwCnT93nHP
SnceHlde+HZx11ueMIGTBgNVHSMEgYswgYiAFDZGLYobi87BHQI3ueyl/7pzruVI
oW2kazBpMQswCQYDVQQGEwJVUzETMBEGA1UECAwKQ2FsaWZvcm5pYTEUMBIGA1UE
BwwLU2FudGEgQ2xhcmExDTALBgNVBAoMBHBrZzUxDDAKBgNVBAMMA3RhMTESMBAG
CSqGSIb3DQEJARYDdGExggEBMBIGA1UdEwEB/wQIMAYBAf8CAQMwDgYDVR0PAQH/
BAQDAgEGMA0GCSqGSIb3DQEBCwUAA4GBAI6lKsk/4B+pjKNFuA0ONUPD1v72vA12
8CbWq+c5MJJvzI4OX7CSKUE5QRQqQ7G75dSMs263e4mrPaThmEVAuR6Ge7Y/VeNG
q+1BRWrMr6RjVMirJz9ZZ4r1YBtjt7snlACP7vkxU1mYhXZ32905bxph/g1oiCCo
1SvHaghb8aya
-----END CERTIFICATE-----
