Certificate:
    Data:
        Version: 3 (0x2)
        Serial Number: 2 (0x2)
        Signature Algorithm: sha256WithRSAEncryption
        Issuer: C=US, ST=California, L=Menlo Park, O=pkg5, CN=ch1_ta1/emailAddress=ch1_ta1
        Validity
            Not Before: Apr 11 22:37:39 2011 GMT
            Not After : Jan  5 22:37:39 2014 GMT
        Subject: C=US, ST=California, L=Menlo Park, O=pkg5, CN=ch2_ta1/emailAddress=ch2_ta1
        Subject Public Key Info:
            Public Key Algorithm: rsaEncryption
            RSA Public Key: (1024 bit)
                Modulus (1024 bit):
                    00:f4:24:ed:3d:fe:70:c8:51:b6:8d:26:78:90:6a:
                    77:ff:de:7d:58:1f:00:fe:63:b0:88:de:46:18:d2:
                    16:84:af:65:a1:9a:97:b1:38:14:6b:e7:98:c1:79:
                    6f:0a:db:b2:92:6e:d6:7e:cd:cb:55:39:a0:27:e9:
                    06:c8:45:19:2c:16:c3:4f:f5:af:cd:f6:14:cb:85:
                    59:5c:1b:83:dc:f6:b6:4d:30:06:28:66:f6:2b:19:
                    03:3f:00:de:09:77:50:a2:98:b1:73:3d:d5:79:f0:
                    7e:79:2b:8e:76:96:c9:43:cf:44:9a:15:2e:09:00:
                    47:a6:5a:f0:35:8b:88:b7:61
                Exponent: 65537 (0x10001)
        X509v3 extensions:
            X509v3 Subject Key Identifier: 
                C2:62:F6:27:E6:91:FB:98:5F:55:6E:11:EE:6E:E0:04:76:A0:E7:01
            X509v3 Authority Key Identifier: 
                keyid:C0:9E:26:BD:D6:FB:FB:BF:FA:CE:33:92:CA:4E:25:CF:EC:9E:BA:66
                DirName:/C=US/ST=California/L=Menlo Park/O=pkg5/CN=ta1/emailAddress=ta1
                serial:01

            X509v3 Basic Constraints: critical
                CA:TRUE, pathlen:3
            X509v3 Key Usage: critical
                Certificate Sign, CRL Sign
    Signature Algorithm: sha256WithRSAEncryption
        a0:f7:c7:f9:6b:cf:6e:6c:36:74:b2:47:8d:76:04:74:88:de:
        3b:cb:2d:e7:6c:fd:78:43:0f:29:9c:ba:92:97:dd:62:89:88:
        31:c7:9b:b2:46:42:4a:e0:c1:3f:a8:5f:63:86:d1:75:d9:47:
        46:d1:d3:87:dc:3e:7a:22:ce:8c:05:51:95:19:c5:2b:83:0f:
        02:4c:54:a6:e8:a9:c9:79:bd:0b:f0:e7:4d:31:77:e6:07:ea:
        1d:b1:35:48:30:15:28:c2:2d:36:42:fd:e9:11:85:7f:b0:9f:
        7b:9a:b6:0e:1d:94:02:3a:3b:c1:b8:bd:c8:c9:8d:c6:b6:9a:
        11:17
-----BEGIN CERTIFICATE-----
MIIDMjCCApugAwIBAgIBAjANBgkqhkiG9w0BAQsFADBwMQswCQYDVQQGEwJVUzET
MBEGA1UECBMKQ2FsaWZvcm5pYTETMBEGA1UEBxMKTWVubG8gUGFyazENMAsGA1UE
ChMEcGtnNTEQMA4GA1UEAxQHY2gxX3RhMTEWMBQGCSqGSIb3DQEJARYHY2gxX3Rh
MTAeFw0xMTA0MTEyMjM3MzlaFw0xNDAxMDUyMjM3MzlaMHAxCzAJBgNVBAYTAlVT
MRMwEQYDVQQIEwpDYWxpZm9ybmlhMRMwEQYDVQQHEwpNZW5sbyBQYXJrMQ0wCwYD
VQQKEwRwa2c1MRAwDgYDVQQDFAdjaDJfdGExMRYwFAYJKoZIhvcNAQkBFgdjaDJf
dGExMIGfMA0GCSqGSIb3DQEBAQUAA4GNADCBiQKBgQD0JO09/nDIUbaNJniQanf/
3n1YHwD+Y7CI3kYY0haEr2WhmpexOBRr55jBeW8K27KSbtZ+zctVOaAn6QbIRRks
FsNP9a/N9hTLhVlcG4Pc9rZNMAYoZvYrGQM/AN4Jd1CimLFzPdV58H55K452lslD
z0SaFS4JAEemWvA1i4i3YQIDAQABo4HbMIHYMB0GA1UdDgQWBBTCYvYn5pH7mF9V
bhHubuAEdqDnATCBkgYDVR0jBIGKMIGHgBTAnia91vv7v/rOM5LKTiXP7J66ZqFs
pGowaDELMAkGA1UEBhMCVVMxEzARBgNVBAgTCkNhbGlmb3JuaWExEzARBgNVBAcT
Ck1lbmxvIFBhcmsxDTALBgNVBAoTBHBrZzUxDDAKBgNVBAMTA3RhMTESMBAGCSqG
SIb3DQEJARYDdGExggEBMBIGA1UdEwEB/wQIMAYBAf8CAQMwDgYDVR0PAQH/BAQD
AgEGMA0GCSqGSIb3DQEBCwUAA4GBAKD3x/lrz25sNnSyR412BHSI3jvLLeds/XhD
DymcupKX3WKJiDHHm7JGQkrgwT+oX2OG0XXZR0bR04fcPnoizowFUZUZxSuDDwJM
VKboqcl5vQvw500xd+YH6h2xNUgwFSjCLTZC/ekRhX+wn3uatg4dlAI6O8G4vcjJ
jca2mhEX
-----END CERTIFICATE-----
