Certificate:
    Data:
        Version: 3 (0x2)
        Serial Number: 5 (0x5)
        Signature Algorithm: sha256WithRSAEncryption
        Issuer: C=US, ST=California, L=Menlo Park, O=pkg5, CN=ch1_pubCA1/emailAddress=ch1_pubCA1
        Validity
            Not Before: Aug  4 20:59:23 2010 GMT
            Not After : Apr 30 20:59:23 2013 GMT
        Subject: C=US, ST=California, L=Menlo Park, O=pkg5, CN=ch2_pubCA1/emailAddress=ch2_pubCA1
        Subject Public Key Info:
            Public Key Algorithm: rsaEncryption
            RSA Public Key: (1024 bit)
                Modulus (1024 bit):
                    00:b1:17:94:03:99:12:09:1e:f2:3f:76:e3:63:11:
                    75:3c:41:46:ca:3f:2c:9d:2f:e3:2f:39:90:63:a1:
                    d0:31:e1:b7:eb:94:f3:c5:7c:2b:4a:da:9b:d2:28:
                    29:68:72:4e:c8:53:0c:84:9b:6b:a1:7d:63:49:3b:
                    65:e6:be:11:a5:ba:41:5e:74:0d:16:ae:95:26:02:
                    79:ca:38:df:13:e9:f7:97:52:cd:d3:85:49:ec:cf:
                    75:cd:54:13:f0:15:0d:65:ee:ea:e5:7b:3b:63:3e:
                    5f:a9:4b:56:d3:10:1d:9b:47:ed:2f:46:54:53:19:
                    b0:2e:63:cd:12:f4:40:4a:6b
                Exponent: 65537 (0x10001)
        X509v3 extensions:
            X509v3 Subject Key Identifier: 
                3D:8C:8F:DF:07:E7:F3:5E:C1:50:68:37:8B:8A:DB:BD:15:5B:4C:2E
            X509v3 Authority Key Identifier: 
                keyid:D1:05:EC:55:23:1D:1E:53:EC:AE:71:88:8C:12:C2:AE:14:FE:12:5E
                DirName:/C=US/ST=California/L=Menlo Park/O=pkg5/CN=pubCA1_ta1/emailAddress=pubCA1_ta1
                serial:04

            X509v3 Basic Constraints: critical
                CA:TRUE
    Signature Algorithm: sha256WithRSAEncryption
        aa:60:e0:f8:bb:6d:07:de:5a:d1:58:07:27:64:29:68:49:2b:
        42:67:25:da:c0:dc:52:82:98:b8:1b:79:a9:65:2a:fe:c7:78:
        46:ca:76:1a:fe:b0:b1:9f:2f:d3:4c:4b:02:65:39:57:2a:a1:
        48:ba:6b:9d:f7:67:80:70:8f:38:00:0f:4e:b2:57:ac:59:ad:
        97:b7:46:67:39:3d:75:12:ff:8f:ac:d9:65:0f:a7:05:a5:1e:
        49:94:a5:a1:44:4f:e7:ba:b9:af:5d:2c:3d:29:cd:a2:e2:c5:
        2c:ac:1f:1e:7f:64:bf:97:d4:a9:6c:d1:91:9c:50:20:af:50:
        ad:6b
-----BEGIN CERTIFICATE-----
MIIDOTCCAqKgAwIBAgIBBTANBgkqhkiG9w0BAQsFADB2MQswCQYDVQQGEwJVUzET
MBEGA1UECBMKQ2FsaWZvcm5pYTETMBEGA1UEBxMKTWVubG8gUGFyazENMAsGA1UE
ChMEcGtnNTETMBEGA1UEAxQKY2gxX3B1YkNBMTEZMBcGCSqGSIb3DQEJARYKY2gx
X3B1YkNBMTAeFw0xMDA4MDQyMDU5MjNaFw0xMzA0MzAyMDU5MjNaMHYxCzAJBgNV
BAYTAlVTMRMwEQYDVQQIEwpDYWxpZm9ybmlhMRMwEQYDVQQHEwpNZW5sbyBQYXJr
MQ0wCwYDVQQKEwRwa2c1MRMwEQYDVQQDFApjaDJfcHViQ0ExMRkwFwYJKoZIhvcN
AQkBFgpjaDJfcHViQ0ExMIGfMA0GCSqGSIb3DQEBAQUAA4GNADCBiQKBgQCxF5QD
mRIJHvI/duNjEXU8QUbKPyydL+MvOZBjodAx4bfrlPPFfCtK2pvSKClock7IUwyE
m2uhfWNJO2XmvhGlukFedA0WrpUmAnnKON8T6feXUs3ThUnsz3XNVBPwFQ1l7url
eztjPl+pS1bTEB2bR+0vRlRTGbAuY80S9EBKawIDAQABo4HWMIHTMB0GA1UdDgQW
BBQ9jI/fB+fzXsFQaDeLitu9FVtMLjCBoAYDVR0jBIGYMIGVgBTRBexVIx0eU+yu
cYiMEsKuFP4SXqF6pHgwdjELMAkGA1UEBhMCVVMxEzARBgNVBAgTCkNhbGlmb3Ju
aWExEzARBgNVBAcTCk1lbmxvIFBhcmsxDTALBgNVBAoTBHBrZzUxEzARBgNVBAMU
CnB1YkNBMV90YTExGTAXBgkqhkiG9w0BCQEWCnB1YkNBMV90YTGCAQQwDwYDVR0T
AQH/BAUwAwEB/zANBgkqhkiG9w0BAQsFAAOBgQCqYOD4u20H3lrRWAcnZCloSStC
ZyXawNxSgpi4G3mpZSr+x3hGynYa/rCxny/TTEsCZTlXKqFIumud92eAcI84AA9O
slesWa2Xt0ZnOT11Ev+PrNllD6cFpR5JlKWhRE/nurmvXSw9Kc2i4sUsrB8ef2S/
l9SpbNGRnFAgr1Ctaw==
-----END CERTIFICATE-----
