Certificate:
    Data:
        Version: 3 (0x2)
        Serial Number: 2 (0x2)
    Signature Algorithm: sha256WithRSAEncryption
        Issuer: C=US, ST=California, L=Santa Clara, O=pkg5, CN=ch1_ta1/emailAddress=ch1_ta1
        Validity
            Not Before: Jan 22 01:57:53 2016 GMT
            Not After : Oct 18 01:57:53 2018 GMT
        Subject: C=US, ST=California, L=Santa Clara, O=pkg5, CN=ch2_ta1/emailAddress=ch2_ta1
        Subject Public Key Info:
            Public Key Algorithm: rsaEncryption
                Public-Key: (2048 bit)
                Modulus:
                    00:ac:2b:63:c0:6d:3e:96:73:cf:d9:f6:76:40:27:
                    72:6b:c9:d4:10:27:d9:b1:b5:7b:f1:98:aa:d3:39:
                    78:eb:98:40:95:81:6c:0b:d8:b7:ea:14:76:4b:36:
                    f9:d6:c2:d2:2a:d7:01:2b:f6:1a:77:6f:dd:b8:01:
                    0b:f5:89:cd:3b:94:5a:76:43:94:79:b5:62:a0:f7:
                    b1:4e:3e:8a:9a:41:38:cf:ff:b4:e2:b8:97:ae:1f:
                    55:5a:2c:bf:4b:c0:ba:25:66:4f:d3:c1:06:62:f8:
                    b9:3f:a8:52:c0:55:a8:cc:8a:7e:ee:4a:1a:70:60:
                    20:ee:66:88:9d:af:c9:58:13:bd:1b:59:cc:23:b4:
                    94:56:88:ef:02:e1:da:45:28:7e:ba:6b:90:65:1b:
                    b8:79:e8:6f:2e:92:5b:7f:e1:d2:f3:f0:26:64:64:
                    b6:01:3f:78:73:6f:52:b3:26:e2:c9:be:0a:b8:13:
                    72:e5:05:cc:bb:b8:68:93:2d:63:0b:f8:66:44:68:
                    98:60:eb:a4:36:52:11:0d:eb:db:cf:a5:2d:dc:1d:
                    ab:ff:cc:99:fc:1d:e8:82:3a:d6:a5:55:37:a3:96:
                    12:e4:44:a3:bd:ec:4a:48:11:f6:95:17:31:1f:fc:
                    00:ac:32:33:86:97:7e:8c:2f:09:8e:9e:08:22:56:
                    9a:3d
                Exponent: 65537 (0x10001)
        X509v3 extensions:
            X509v3 Subject Key Identifier: 
                36:30:72:96:D2:F9:D4:7A:AE:CF:C2:4B:3F:EE:52:AA:DF:9B:F3:12
            X509v3 Authority Key Identifier: 
                keyid:2E:B3:14:E2:95:4C:93:07:05:A4:87:64:EA:C4:57:2D:52:3B:8C:F9
                DirName:/C=US/ST=California/L=Santa Clara/O=pkg5/CN=ta1/emailAddress=ta1
                serial:01

            X509v3 Basic Constraints: critical
                CA:TRUE, pathlen:3
            X509v3 Key Usage: critical
                Certificate Sign, CRL Sign
    Signature Algorithm: sha256WithRSAEncryption
         66:4a:2f:69:a3:d8:4f:31:e6:3b:89:bd:3e:9e:5a:b9:e7:f1:
         a8:ba:dd:ef:e3:f5:73:b8:50:05:aa:65:50:01:db:14:47:d2:
         03:f8:83:a0:ae:79:53:00:89:da:46:00:c7:31:b7:54:6d:17:
         98:01:60:34:12:c0:df:1b:fb:c2:8e:74:34:74:76:1a:48:cf:
         01:8f:45:ea:91:bb:39:73:9d:cb:3f:21:46:60:00:e8:5c:08:
         cf:16:40:00:4b:b3:37:54:92:38:6f:bf:77:eb:78:71:3f:5f:
         85:81:12:57:77:17:69:fc:5a:0e:ea:ca:50:29:0b:e2:b5:de:
         20:bd:9c:bd:24:e4:c8:13:d4:04:de:f2:91:c5:ce:3a:7a:26:
         a0:70:e0:d7:1b:60:43:61:c2:51:76:5a:4a:c4:9f:31:71:68:
         55:9f:95:61:7b:bd:e2:bf:1f:b0:bb:4a:e7:01:48:10:3e:ea:
         33:a5:75:0a:d6:96:c2:3b:fc:77:64:e4:79:fd:29:4d:00:24:
         bb:57:41:ec:7f:69:e5:f5:92:ff:2c:1d:7a:43:06:04:7a:60:
         e0:c0:65:f6:d5:cd:21:8d:3a:38:55:da:7f:5b:04:f2:5c:ab:
         68:ba:9d:83:ef:71:21:6f:3b:60:e2:d4:50:40:0b:81:9b:4e:
         1c:7b:c4:57
-----BEGIN CERTIFICATE-----
MIIEOjCCAyKgAwIBAgIBAjANBgkqhkiG9w0BAQsFADBxMQswCQYDVQQGEwJVUzET
MBEGA1UECAwKQ2FsaWZvcm5pYTEUMBIGA1UEBwwLU2FudGEgQ2xhcmExDTALBgNV
BAoMBHBrZzUxEDAOBgNVBAMMB2NoMV90YTExFjAUBgkqhkiG9w0BCQEWB2NoMV90
YTEwHhcNMTYwMTIyMDE1NzUzWhcNMTgxMDE4MDE1NzUzWjBxMQswCQYDVQQGEwJV
UzETMBEGA1UECAwKQ2FsaWZvcm5pYTEUMBIGA1UEBwwLU2FudGEgQ2xhcmExDTAL
BgNVBAoMBHBrZzUxEDAOBgNVBAMMB2NoMl90YTExFjAUBgkqhkiG9w0BCQEWB2No
Ml90YTEwggEiMA0GCSqGSIb3DQEBAQUAA4IBDwAwggEKAoIBAQCsK2PAbT6Wc8/Z
9nZAJ3JrydQQJ9mxtXvxmKrTOXjrmECVgWwL2LfqFHZLNvnWwtIq1wEr9hp3b924
AQv1ic07lFp2Q5R5tWKg97FOPoqaQTjP/7TiuJeuH1VaLL9LwLolZk/TwQZi+Lk/
qFLAVajMin7uShpwYCDuZoidr8lYE70bWcwjtJRWiO8C4dpFKH66a5BlG7h56G8u
klt/4dLz8CZkZLYBP3hzb1KzJuLJvgq4E3LlBcy7uGiTLWML+GZEaJhg66Q2UhEN
69vPpS3cHav/zJn8HeiCOtalVTejlhLkRKO97EpIEfaVFzEf/ACsMjOGl36MLwmO
nggiVpo9AgMBAAGjgdwwgdkwHQYDVR0OBBYEFDYwcpbS+dR6rs/CSz/uUqrfm/MS
MIGTBgNVHSMEgYswgYiAFC6zFOKVTJMHBaSHZOrEVy1SO4z5oW2kazBpMQswCQYD
VQQGEwJVUzETMBEGA1UECAwKQ2FsaWZvcm5pYTEUMBIGA1UEBwwLU2FudGEgQ2xh
cmExDTALBgNVBAoMBHBrZzUxDDAKBgNVBAMMA3RhMTESMBAGCSqGSIb3DQEJARYD
dGExggEBMBIGA1UdEwEB/wQIMAYBAf8CAQMwDgYDVR0PAQH/BAQDAgEGMA0GCSqG
SIb3DQEBCwUAA4IBAQBmSi9po9hPMeY7ib0+nlq55/Gout3v4/VzuFAFqmVQAdsU
R9ID+IOgrnlTAInaRgDHMbdUbReYAWA0EsDfG/vCjnQ0dHYaSM8Bj0Xqkbs5c53L
PyFGYADoXAjPFkAAS7M3VJI4b79363hxP1+FgRJXdxdp/FoO6spQKQvitd4gvZy9
JOTIE9QE3vKRxc46eiagcODXG2BDYcJRdlpKxJ8xcWhVn5Vhe73ivx+wu0rnAUgQ
PuozpXUK1pbCO/x3ZOR5/SlNACS7V0Hsf2nl9ZL/LB16QwYEemDgwGX21c0hjTo4
Vdp/WwTyXKtoup2D73Ehbztg4tRQQAuBm04ce8RX
-----END CERTIFICATE-----
