Certificate:
    Data:
        Version: 3 (0x2)
        Serial Number: 3 (0x3)
        Signature Algorithm: sha256WithRSAEncryption
        Issuer: C=US, ST=California, L=Menlo Park, O=pkg5, CN=ch2_ta1/emailAddress=ch2_ta1
        Validity
            Not Before: Mar 21 00:49:23 2011 GMT
            Not After : Dec 15 00:49:23 2013 GMT
        Subject: C=US, ST=California, L=Menlo Park, O=pkg5, CN=ch3_ta1/emailAddress=ch3_ta1
        Subject Public Key Info:
            Public Key Algorithm: rsaEncryption
            RSA Public Key: (1024 bit)
                Modulus (1024 bit):
                    00:ab:d1:d5:d2:6a:72:f2:b9:20:07:53:98:e6:14:
                    fc:de:66:e7:0e:1d:ab:35:c7:f5:80:5c:fb:e7:03:
                    4a:97:15:b7:da:3a:18:5f:50:39:1c:9a:aa:ad:f8:
                    64:d3:76:a1:c7:e2:f8:56:c9:1d:af:3f:bb:d0:98:
                    f4:2c:c3:1c:ea:e3:18:f2:60:35:6e:3b:99:67:35:
                    27:cb:64:7e:3c:1c:cb:64:d3:bc:60:f1:8a:37:47:
                    9c:02:6e:7c:e3:d3:38:1a:f0:3d:93:31:83:57:ae:
                    36:17:b4:20:e8:44:72:7f:d4:65:25:a5:42:b3:02:
                    55:69:18:9b:fa:5f:7f:62:f3
                Exponent: 65537 (0x10001)
        X509v3 extensions:
            X509v3 Subject Key Identifier: 
                9D:49:C0:40:BE:F9:2D:9D:38:CF:BB:7C:6C:33:70:E3:13:2C:F9:05
            X509v3 Authority Key Identifier: 
                keyid:79:04:42:77:11:18:EC:24:43:48:52:11:99:DE:86:84:23:B1:50:77
                DirName:/C=US/ST=California/L=Menlo Park/O=pkg5/CN=ch1_ta1/emailAddress=ch1_ta1
                serial:02

            X509v3 Basic Constraints: critical
                CA:TRUE, pathlen:2
            X509v3 Key Usage: critical
                Certificate Sign, CRL Sign
    Signature Algorithm: sha256WithRSAEncryption
        41:ff:9f:2c:11:ef:c9:51:0d:5a:68:82:16:89:b4:ab:7e:91:
        0e:ef:c9:86:d7:d9:47:8d:63:9a:a4:66:2e:d4:bc:58:c0:6a:
        23:e3:8e:ab:0b:44:c0:19:20:eb:96:bc:d2:39:b4:60:3f:3f:
        7c:d7:6d:39:09:ff:fb:bd:9f:35:de:54:64:85:fc:ee:86:91:
        aa:95:11:a4:38:c5:28:71:ae:a8:4b:d7:b2:8f:24:59:da:57:
        92:31:ae:34:b3:21:cc:32:02:3c:b5:00:64:c4:1e:be:0d:af:
        bd:e7:a6:3d:6f:77:84:62:04:21:cf:26:6b:8f:c5:1c:0b:4c:
        5c:dd
-----BEGIN CERTIFICATE-----
MIIDOjCCAqOgAwIBAgIBAzANBgkqhkiG9w0BAQsFADBwMQswCQYDVQQGEwJVUzET
MBEGA1UECBMKQ2FsaWZvcm5pYTETMBEGA1UEBxMKTWVubG8gUGFyazENMAsGA1UE
ChMEcGtnNTEQMA4GA1UEAxQHY2gyX3RhMTEWMBQGCSqGSIb3DQEJARYHY2gyX3Rh
MTAeFw0xMTAzMjEwMDQ5MjNaFw0xMzEyMTUwMDQ5MjNaMHAxCzAJBgNVBAYTAlVT
MRMwEQYDVQQIEwpDYWxpZm9ybmlhMRMwEQYDVQQHEwpNZW5sbyBQYXJrMQ0wCwYD
VQQKEwRwa2c1MRAwDgYDVQQDFAdjaDNfdGExMRYwFAYJKoZIhvcNAQkBFgdjaDNf
dGExMIGfMA0GCSqGSIb3DQEBAQUAA4GNADCBiQKBgQCr0dXSanLyuSAHU5jmFPze
ZucOHas1x/WAXPvnA0qXFbfaOhhfUDkcmqqt+GTTdqHH4vhWyR2vP7vQmPQswxzq
4xjyYDVuO5lnNSfLZH48HMtk07xg8Yo3R5wCbnzj0zga8D2TMYNXrjYXtCDoRHJ/
1GUlpUKzAlVpGJv6X39i8wIDAQABo4HjMIHgMB0GA1UdDgQWBBSdScBAvvktnTjP
u3xsM3DjEyz5BTCBmgYDVR0jBIGSMIGPgBR5BEJ3ERjsJENIUhGZ3oaEI7FQd6F0
pHIwcDELMAkGA1UEBhMCVVMxEzARBgNVBAgTCkNhbGlmb3JuaWExEzARBgNVBAcT
Ck1lbmxvIFBhcmsxDTALBgNVBAoTBHBrZzUxEDAOBgNVBAMUB2NoMV90YTExFjAU
BgkqhkiG9w0BCQEWB2NoMV90YTGCAQIwEgYDVR0TAQH/BAgwBgEB/wIBAjAOBgNV
HQ8BAf8EBAMCAQYwDQYJKoZIhvcNAQELBQADgYEAQf+fLBHvyVENWmiCFom0q36R
Du/JhtfZR41jmqRmLtS8WMBqI+OOqwtEwBkg65a80jm0YD8/fNdtOQn/+72fNd5U
ZIX87oaRqpURpDjFKHGuqEvXso8kWdpXkjGuNLMhzDICPLUAZMQevg2vveemPW93
hGIEIc8ma4/FHAtMXN0=
-----END CERTIFICATE-----
