Certificate:
    Data:
        Version: 3 (0x2)
        Serial Number: 3 (0x3)
        Signature Algorithm: sha256WithRSAEncryption
        Issuer: C=US, ST=California, L=Santa Clara, O=pkg5, CN=ch2_ta1/emailAddress=ch2_ta1
        Validity
            Not Before: Mar 18 08:51:28 2026 GMT
            Not After : Dec 12 08:51:28 2028 GMT
        Subject: C=US, ST=California, L=Santa Clara, O=pkg5, CN=ch3_ta1/emailAddress=ch3_ta1
        Subject Public Key Info:
            Public Key Algorithm: rsaEncryption
                Public-Key: (2048 bit)
                Modulus:
                    00:e1:4b:e6:41:ea:8b:98:73:95:4f:b2:b2:8c:61:
                    fb:71:6b:ef:93:26:25:a8:6e:a9:b0:fc:b8:fb:ec:
                    18:21:31:fe:47:57:f7:07:fc:a3:aa:4e:aa:f4:ae:
                    5c:cc:3a:e7:5b:ae:47:47:07:88:87:b4:7a:45:df:
                    bd:5f:9b:1d:8c:40:51:0e:ef:4a:68:05:f4:31:28:
                    cf:88:fc:81:2f:6a:40:4f:c9:7d:b4:4b:fc:6d:a6:
                    b3:3c:b0:42:87:9b:0c:3d:c5:03:a8:94:b0:5f:9d:
                    76:e7:26:8e:a0:20:7e:da:0f:ae:00:c8:95:eb:7c:
                    36:2b:04:ed:7b:d8:21:52:b0:da:59:0f:ed:5b:7c:
                    b0:22:a1:7f:13:eb:7f:90:d6:56:42:eb:27:f2:fd:
                    19:62:f3:79:9a:31:97:2d:f2:01:8a:83:08:58:cc:
                    44:d9:ed:95:41:0d:8d:0c:2e:4c:21:8c:2d:5c:e7:
                    65:ca:f7:6a:b0:aa:f6:e1:d8:ba:58:86:9c:fd:03:
                    62:ba:41:b1:6e:fd:da:5e:81:c7:cb:6f:fa:0b:7b:
                    42:e0:55:8a:dd:fe:71:fd:29:76:78:81:7e:ea:3a:
                    a9:6d:ef:de:57:5d:21:bb:63:c4:d5:44:cc:6e:5e:
                    42:37:51:75:7b:51:c9:65:03:81:fc:e9:97:c8:dc:
                    0f:b5
                Exponent: 65537 (0x10001)
        X509v3 extensions:
            X509v3 Subject Key Identifier: 
                EA:1C:EA:16:62:A0:0F:DF:0D:F2:AD:36:C7:D0:58:9C:77:DC:5F:54
            X509v3 Authority Key Identifier: 
                keyid:A9:4B:F1:1B:7D:D9:D2:B5:E4:09:D0:57:DA:95:16:55:33:0A:D4:CE
                DirName:/C=US/ST=California/L=Santa Clara/O=pkg5/CN=ch1_ta1/emailAddress=ch1_ta1
                serial:02
            X509v3 Basic Constraints: critical
                CA:TRUE, pathlen:2
            X509v3 Key Usage: critical
                Certificate Sign, CRL Sign
    Signature Algorithm: sha256WithRSAEncryption
    Signature Value:
        0c:e3:ca:c7:8f:cb:8b:db:d8:53:6a:4f:9e:4a:20:7b:c0:56:
        ec:89:92:dd:d6:35:a8:6a:2f:3c:8f:0d:5b:18:e9:ab:c2:f2:
        a3:e0:a6:36:de:06:42:75:c6:3b:ef:a8:f4:66:a2:96:a7:24:
        45:ae:95:dd:4e:ef:d0:57:a0:89:84:cf:17:03:ee:b4:59:9f:
        3e:d3:8e:6f:40:73:c4:0a:8f:1f:96:47:b3:09:de:9f:07:5d:
        0c:4c:7e:82:8c:c2:53:79:15:79:5e:63:70:2d:af:b1:02:3b:
        f4:2c:6a:4b:d1:bd:3b:82:dc:e1:94:ce:df:28:34:5e:ad:17:
        90:32:da:83:9b:8e:65:26:46:e8:6a:d4:e4:52:52:70:ac:39:
        30:13:47:6e:e2:1b:6e:3b:52:92:c9:d3:6a:c0:88:c1:c5:54:
        13:53:ee:22:44:14:f1:b1:2b:22:ae:4e:2c:74:da:8b:26:cc:
        0f:32:ee:67:0e:42:60:0f:55:47:10:20:16:b5:68:7c:3e:11:
        96:23:8a:0f:9b:cd:0b:82:78:8c:2f:6a:b7:4b:a0:80:27:79:
        3b:80:14:ba:c9:3f:ce:2e:6e:4c:c3:9e:ba:01:b4:5c:37:aa:
        7a:80:7b:ec:e6:10:a8:d0:b1:01:28:c3:6f:13:7c:af:31:f3:
        35:24:c0:96
-----BEGIN CERTIFICATE-----
MIIEQjCCAyqgAwIBAgIBAzANBgkqhkiG9w0BAQsFADBxMQswCQYDVQQGEwJVUzET
MBEGA1UECAwKQ2FsaWZvcm5pYTEUMBIGA1UEBwwLU2FudGEgQ2xhcmExDTALBgNV
BAoMBHBrZzUxEDAOBgNVBAMMB2NoMl90YTExFjAUBgkqhkiG9w0BCQEWB2NoMl90
YTEwHhcNMjYwMzE4MDg1MTI4WhcNMjgxMjEyMDg1MTI4WjBxMQswCQYDVQQGEwJV
UzETMBEGA1UECAwKQ2FsaWZvcm5pYTEUMBIGA1UEBwwLU2FudGEgQ2xhcmExDTAL
BgNVBAoMBHBrZzUxEDAOBgNVBAMMB2NoM190YTExFjAUBgkqhkiG9w0BCQEWB2No
M190YTEwggEiMA0GCSqGSIb3DQEBAQUAA4IBDwAwggEKAoIBAQDhS+ZB6ouYc5VP
srKMYftxa++TJiWobqmw/Lj77BghMf5HV/cH/KOqTqr0rlzMOudbrkdHB4iHtHpF
371fmx2MQFEO70poBfQxKM+I/IEvakBPyX20S/xtprM8sEKHmww9xQOolLBfnXbn
Jo6gIH7aD64AyJXrfDYrBO172CFSsNpZD+1bfLAioX8T63+Q1lZC6yfy/Rli83ma
MZct8gGKgwhYzETZ7ZVBDY0MLkwhjC1c52XK92qwqvbh2LpYhpz9A2K6QbFu/dpe
gcfLb/oLe0LgVYrd/nH9KXZ4gX7qOqlt795XXSG7Y8TVRMxuXkI3UXV7UcllA4H8
6ZfI3A+1AgMBAAGjgeQwgeEwHQYDVR0OBBYEFOoc6hZioA/fDfKtNsfQWJx33F9U
MIGbBgNVHSMEgZMwgZCAFKlL8Rt92dK15AnQV9qVFlUzCtTOoXWkczBxMQswCQYD
VQQGEwJVUzETMBEGA1UECAwKQ2FsaWZvcm5pYTEUMBIGA1UEBwwLU2FudGEgQ2xh
cmExDTALBgNVBAoMBHBrZzUxEDAOBgNVBAMMB2NoMV90YTExFjAUBgkqhkiG9w0B
CQEWB2NoMV90YTGCAQIwEgYDVR0TAQH/BAgwBgEB/wIBAjAOBgNVHQ8BAf8EBAMC
AQYwDQYJKoZIhvcNAQELBQADggEBAAzjysePy4vb2FNqT55KIHvAVuyJkt3WNahq
LzyPDVsY6avC8qPgpjbeBkJ1xjvvqPRmopanJEWuld1O79BXoImEzxcD7rRZnz7T
jm9Ac8QKjx+WR7MJ3p8HXQxMfoKMwlN5FXleY3Atr7ECO/QsakvRvTuC3OGUzt8o
NF6tF5Ay2oObjmUmRuhq1ORSUnCsOTATR27iG247UpLJ02rAiMHFVBNT7iJEFPGx
KyKuTix02osmzA8y7mcOQmAPVUcQIBa1aHw+EZYjig+bzQuCeIwvardLoIAneTuA
FLrJP84ubkzDnroBtFw3qnqAe+zmEKjQsQEow28TfK8x8zUkwJY=
-----END CERTIFICATE-----
