Certificate:
    Data:
        Version: 3 (0x2)
        Serial Number: 3 (0x3)
    Signature Algorithm: sha256WithRSAEncryption
        Issuer: C=US, ST=California, L=Santa Clara, O=pkg5, CN=ch2_ta1/emailAddress=ch2_ta1
        Validity
            Not Before: Dec 13 00:13:34 2013 GMT
            Not After : Sep  8 00:13:34 2016 GMT
        Subject: C=US, ST=California, L=Santa Clara, O=pkg5, CN=ch3_ta1/emailAddress=ch3_ta1
        Subject Public Key Info:
            Public Key Algorithm: rsaEncryption
                Public-Key: (1024 bit)
                Modulus:
                    00:d3:5b:f1:93:8f:01:0f:c0:25:d9:07:f1:70:29:
                    1e:56:0b:ff:93:70:1d:45:02:ef:52:22:8a:04:c9:
                    08:85:33:db:77:c3:33:d9:5c:fe:30:2a:a8:ac:9d:
                    d8:97:dc:b4:69:51:5e:d1:c9:86:68:a7:e3:ab:35:
                    e2:8f:d0:36:1b:67:be:50:88:66:7c:4b:4f:d3:86:
                    78:92:d9:c5:62:c7:04:a3:d7:9e:8c:c3:ca:48:41:
                    52:3f:a1:82:dc:f2:bb:d2:9c:a9:58:25:3a:0b:73:
                    b6:41:ab:6a:c3:6a:70:ce:a1:20:0f:b6:db:e0:91:
                    0b:0a:1f:dc:02:f4:ed:32:0f
                Exponent: 65537 (0x10001)
        X509v3 extensions:
            X509v3 Subject Key Identifier: 
                8F:2A:82:4C:1E:39:97:C3:4A:6A:52:FC:D4:CB:E6:37:CE:12:91:59
            X509v3 Authority Key Identifier: 
                keyid:12:30:0A:74:FD:DE:71:CF:4A:77:1E:1E:57:5E:F8:76:71:D7:5B:9E
                DirName:/C=US/ST=California/L=Santa Clara/O=pkg5/CN=ch1_ta1/emailAddress=ch1_ta1
                serial:02

            X509v3 Basic Constraints: critical
                CA:TRUE, pathlen:2
            X509v3 Key Usage: critical
                Certificate Sign, CRL Sign
    Signature Algorithm: sha256WithRSAEncryption
         94:2a:c9:c9:21:b7:bd:3a:72:31:65:89:16:11:00:e1:46:38:
         16:b6:cd:d4:04:b3:18:71:3d:8d:4a:0a:ec:02:4e:ee:58:2c:
         7d:d2:0b:6f:c6:d2:be:a6:f9:1c:e7:c2:76:2a:09:87:d2:06:
         8e:0d:aa:66:70:e8:8f:ff:7d:1d:e4:4e:9b:58:71:f7:40:46:
         a8:79:9d:86:6c:bf:64:3b:76:66:6c:08:21:62:09:6d:7b:f4:
         5d:e2:8e:1c:e6:e3:56:71:de:b7:fe:92:07:f0:7e:13:e0:ad:
         62:b3:08:9f:06:7e:9b:f6:8b:76:96:df:86:30:0e:bb:ef:9b:
         b3:07
-----BEGIN CERTIFICATE-----
MIIDPTCCAqagAwIBAgIBAzANBgkqhkiG9w0BAQsFADBxMQswCQYDVQQGEwJVUzET
MBEGA1UECAwKQ2FsaWZvcm5pYTEUMBIGA1UEBwwLU2FudGEgQ2xhcmExDTALBgNV
BAoMBHBrZzUxEDAOBgNVBAMMB2NoMl90YTExFjAUBgkqhkiG9w0BCQEWB2NoMl90
YTEwHhcNMTMxMjEzMDAxMzM0WhcNMTYwOTA4MDAxMzM0WjBxMQswCQYDVQQGEwJV
UzETMBEGA1UECAwKQ2FsaWZvcm5pYTEUMBIGA1UEBwwLU2FudGEgQ2xhcmExDTAL
BgNVBAoMBHBrZzUxEDAOBgNVBAMMB2NoM190YTExFjAUBgkqhkiG9w0BCQEWB2No
M190YTEwgZ8wDQYJKoZIhvcNAQEBBQADgY0AMIGJAoGBANNb8ZOPAQ/AJdkH8XAp
HlYL/5NwHUUC71IiigTJCIUz23fDM9lc/jAqqKyd2JfctGlRXtHJhmin46s14o/Q
NhtnvlCIZnxLT9OGeJLZxWLHBKPXnozDykhBUj+hgtzyu9KcqVglOgtztkGrasNq
cM6hIA+22+CRCwof3AL07TIPAgMBAAGjgeQwgeEwHQYDVR0OBBYEFI8qgkweOZfD
SmpS/NTL5jfOEpFZMIGbBgNVHSMEgZMwgZCAFBIwCnT93nHPSnceHlde+HZx11ue
oXWkczBxMQswCQYDVQQGEwJVUzETMBEGA1UECAwKQ2FsaWZvcm5pYTEUMBIGA1UE
BwwLU2FudGEgQ2xhcmExDTALBgNVBAoMBHBrZzUxEDAOBgNVBAMMB2NoMV90YTEx
FjAUBgkqhkiG9w0BCQEWB2NoMV90YTGCAQIwEgYDVR0TAQH/BAgwBgEB/wIBAjAO
BgNVHQ8BAf8EBAMCAQYwDQYJKoZIhvcNAQELBQADgYEAlCrJySG3vTpyMWWJFhEA
4UY4FrbN1ASzGHE9jUoK7AJO7lgsfdILb8bSvqb5HOfCdioJh9IGjg2qZnDoj/99
HeROm1hx90BGqHmdhmy/ZDt2ZmwIIWIJbXv0XeKOHObjVnHet/6SB/B+E+CtYrMI
nwZ+m/aLdpbfhjAOu++bswc=
-----END CERTIFICATE-----
