Certificate:
    Data:
        Version: 3 (0x2)
        Serial Number: 3 (0x3)
    Signature Algorithm: sha256WithRSAEncryption
        Issuer: C=US, ST=California, L=Santa Clara, O=pkg5, CN=ch2_ta1/emailAddress=ch2_ta1
        Validity
            Not Before: Jul 19 11:35:43 2023 GMT
            Not After : Apr 14 11:35:43 2026 GMT
        Subject: C=US, ST=California, L=Santa Clara, O=pkg5, CN=ch3_ta1/emailAddress=ch3_ta1
        Subject Public Key Info:
            Public Key Algorithm: rsaEncryption
                Public-Key: (2048 bit)
                Modulus:
                    00:c0:99:32:a8:78:08:4c:80:8d:a3:ef:23:52:48:
                    56:71:c5:08:e6:af:80:7e:2c:21:a2:7b:e9:68:6f:
                    74:d5:00:d6:26:13:73:ae:f2:cd:b1:36:35:33:e3:
                    ac:1d:e3:ad:98:13:38:f3:0f:b3:25:31:f8:6e:1d:
                    af:cb:0a:57:59:ba:e1:e0:45:d7:36:17:82:ec:29:
                    87:32:33:43:dc:a0:21:b3:2e:b7:18:27:05:3c:8e:
                    b2:0b:70:86:70:51:95:8d:53:ce:eb:44:1c:b8:5f:
                    63:93:e6:20:4c:9d:a7:61:88:77:bc:d9:f9:b7:15:
                    be:31:b5:60:90:16:23:cd:16:8c:98:dd:cd:66:fb:
                    ce:bb:14:ba:46:74:0d:cd:2f:79:d4:ec:68:0d:9a:
                    7c:4d:82:dd:5e:8c:76:d7:2a:6b:c6:1c:0b:2a:4a:
                    77:e5:d2:83:5a:1e:01:09:10:15:e0:b8:80:e2:f6:
                    4c:50:8c:22:c9:4c:35:a3:5f:99:e0:af:99:ea:7a:
                    bd:94:91:62:d2:29:7e:91:8d:c8:ab:16:1b:b1:3f:
                    06:c2:76:48:e3:0e:77:5a:b8:d6:84:6c:b2:01:7c:
                    c8:e7:db:2b:99:98:95:65:ae:2a:e4:0b:28:ca:0c:
                    11:48:37:aa:d7:b7:47:ed:4d:55:83:da:f5:c5:99:
                    7f:85
                Exponent: 65537 (0x10001)
        X509v3 extensions:
            X509v3 Subject Key Identifier: 
                7F:6A:6C:0C:20:00:E4:06:0B:BF:66:BE:D8:85:FE:28:4E:A5:23:8E
            X509v3 Authority Key Identifier: 
                keyid:A9:39:49:D0:AA:6F:9F:0F:AA:B1:5D:4B:9E:0C:AF:58:3A:6C:A9:7D
                DirName:/C=US/ST=California/L=Santa Clara/O=pkg5/CN=ch1_ta1/emailAddress=ch1_ta1
                serial:02

            X509v3 Basic Constraints: critical
                CA:TRUE, pathlen:2
            X509v3 Key Usage: critical
                Certificate Sign, CRL Sign
    Signature Algorithm: sha256WithRSAEncryption
         38:05:8e:13:cf:a5:de:6e:07:aa:fe:5a:91:fa:b3:ea:1c:98:
         19:e2:72:35:64:06:1e:3a:fc:59:e4:80:5a:dc:81:a3:7d:c7:
         40:88:06:b0:fe:e8:ce:fe:bd:8b:07:dc:02:f9:9c:7a:89:cb:
         7e:99:13:31:82:32:20:0a:50:ed:1c:1e:97:04:f6:7f:1f:bb:
         60:62:35:dd:2d:13:98:9e:11:c8:7c:a3:ca:4d:59:d0:06:d3:
         3b:a3:75:33:4e:f2:c5:03:88:eb:04:be:59:e2:c5:a5:a0:13:
         7d:19:ba:6d:a9:7f:09:0e:3b:9e:73:a0:63:e8:87:41:ee:97:
         05:f9:ac:95:46:19:fa:ad:a1:f3:2b:13:b6:85:92:2d:12:ad:
         f7:f3:e4:0b:e7:71:ef:89:02:9b:8c:33:f3:2e:ac:78:35:5b:
         78:9e:7c:7d:c8:82:e8:cd:5e:fd:9e:67:cb:48:2d:30:2c:c7:
         de:9f:0d:e9:35:b9:14:ca:9d:3c:1b:63:23:f2:89:fe:64:f1:
         32:cc:75:d4:b8:22:b7:dd:ab:a1:bb:87:40:ac:c3:51:7e:fd:
         ac:ea:69:be:ad:9a:f7:ec:ef:8c:bf:d9:5d:d7:8b:b5:8a:83:
         49:2a:e7:21:b9:eb:cd:2d:d8:ae:ca:52:24:58:6d:43:5b:ca:
         13:24:7f:dd
-----BEGIN CERTIFICATE-----
MIIEQjCCAyqgAwIBAgIBAzANBgkqhkiG9w0BAQsFADBxMQswCQYDVQQGEwJVUzET
MBEGA1UECAwKQ2FsaWZvcm5pYTEUMBIGA1UEBwwLU2FudGEgQ2xhcmExDTALBgNV
BAoMBHBrZzUxEDAOBgNVBAMMB2NoMl90YTExFjAUBgkqhkiG9w0BCQEWB2NoMl90
YTEwHhcNMjMwNzE5MTEzNTQzWhcNMjYwNDE0MTEzNTQzWjBxMQswCQYDVQQGEwJV
UzETMBEGA1UECAwKQ2FsaWZvcm5pYTEUMBIGA1UEBwwLU2FudGEgQ2xhcmExDTAL
BgNVBAoMBHBrZzUxEDAOBgNVBAMMB2NoM190YTExFjAUBgkqhkiG9w0BCQEWB2No
M190YTEwggEiMA0GCSqGSIb3DQEBAQUAA4IBDwAwggEKAoIBAQDAmTKoeAhMgI2j
7yNSSFZxxQjmr4B+LCGie+lob3TVANYmE3Ou8s2xNjUz46wd462YEzjzD7MlMfhu
Ha/LCldZuuHgRdc2F4LsKYcyM0PcoCGzLrcYJwU8jrILcIZwUZWNU87rRBy4X2OT
5iBMnadhiHe82fm3Fb4xtWCQFiPNFoyY3c1m+867FLpGdA3NL3nU7GgNmnxNgt1e
jHbXKmvGHAsqSnfl0oNaHgEJEBXguIDi9kxQjCLJTDWjX5ngr5nqer2UkWLSKX6R
jcirFhuxPwbCdkjjDndauNaEbLIBfMjn2yuZmJVlrirkCyjKDBFIN6rXt0ftTVWD
2vXFmX+FAgMBAAGjgeQwgeEwHQYDVR0OBBYEFH9qbAwgAOQGC79mvtiF/ihOpSOO
MIGbBgNVHSMEgZMwgZCAFKk5SdCqb58PqrFdS54Mr1g6bKl9oXWkczBxMQswCQYD
VQQGEwJVUzETMBEGA1UECAwKQ2FsaWZvcm5pYTEUMBIGA1UEBwwLU2FudGEgQ2xh
cmExDTALBgNVBAoMBHBrZzUxEDAOBgNVBAMMB2NoMV90YTExFjAUBgkqhkiG9w0B
CQEWB2NoMV90YTGCAQIwEgYDVR0TAQH/BAgwBgEB/wIBAjAOBgNVHQ8BAf8EBAMC
AQYwDQYJKoZIhvcNAQELBQADggEBADgFjhPPpd5uB6r+WpH6s+ocmBnicjVkBh46
/FnkgFrcgaN9x0CIBrD+6M7+vYsH3AL5nHqJy36ZEzGCMiAKUO0cHpcE9n8fu2Bi
Nd0tE5ieEch8o8pNWdAG0zujdTNO8sUDiOsEvlnixaWgE30Zum2pfwkOO55zoGPo
h0HulwX5rJVGGfqtofMrE7aFki0Srffz5Avnce+JApuMM/MurHg1W3iefH3IgujN
Xv2eZ8tILTAsx96fDek1uRTKnTwbYyPyif5k8TLMddS4Irfdq6G7h0Csw1F+/azq
ab6tmvfs74y/2V3Xi7WKg0kq5yG5680t2K7KUiRYbUNbyhMkf90=
-----END CERTIFICATE-----
