Certificate:
    Data:
        Version: 3 (0x2)
        Serial Number: 12 (0xc)
        Signature Algorithm: sha256WithRSAEncryption
        Issuer: C=US, ST=California, L=Santa Clara, O=pkg5, CN=ch3_ta1/emailAddress=ch3_ta1
        Validity
            Not Before: Mar 18 08:51:31 2026 GMT
            Not After : Dec 12 08:51:31 2028 GMT
        Subject: C=US, ST=California, L=Santa Clara, O=pkg5, CN=ch4.3_ta1/emailAddress=ch4.3_ta1
        Subject Public Key Info:
            Public Key Algorithm: rsaEncryption
                Public-Key: (2048 bit)
                Modulus:
                    00:b9:d7:2e:b6:6a:36:db:02:67:ae:f6:79:9a:fd:
                    76:1a:b3:50:f7:ba:6c:cf:e9:7f:fe:cc:f9:13:15:
                    ce:a3:35:2b:e8:12:af:6a:c7:4f:d9:8d:15:02:bc:
                    a6:12:87:fc:ca:17:3b:06:5f:11:ba:95:8e:bb:bb:
                    27:ae:77:3e:a8:94:24:e5:c1:5b:8d:47:33:22:de:
                    59:20:70:e2:6d:86:86:ab:5e:c6:be:e0:f3:7a:67:
                    6e:c7:75:89:d5:9d:2c:cd:36:32:3b:2c:8f:ee:a0:
                    81:ea:e6:bc:ce:2e:45:6e:73:85:b8:81:c3:ba:72:
                    78:a5:7b:ef:5b:d9:7d:ed:f8:f7:0f:84:be:31:87:
                    01:41:73:80:7f:02:21:ee:af:91:c2:17:e0:93:05:
                    99:05:b4:af:fa:1c:64:04:e2:0a:75:3f:7c:14:37:
                    5f:e1:9a:3d:08:9d:5d:a0:71:56:6a:e1:b8:a9:64:
                    ae:0a:12:ff:fb:0b:61:e3:f2:c8:d5:5e:53:0a:f8:
                    52:8c:64:42:a8:9e:b7:34:0e:12:d6:bc:26:5c:cd:
                    74:03:db:7f:c3:62:17:6d:ed:db:6b:25:d0:70:6d:
                    17:c2:c7:92:9d:ca:22:a4:1b:93:a8:a6:ae:af:cf:
                    10:e6:05:27:d6:12:95:ae:d5:ca:e9:98:3a:d0:ce:
                    94:8d
                Exponent: 65537 (0x10001)
        X509v3 extensions:
            X509v3 Subject Key Identifier: 
                FB:32:B9:60:FB:73:89:4B:0C:16:72:9A:9A:65:35:08:82:A7:33:85
            X509v3 Authority Key Identifier: 
                keyid:EA:1C:EA:16:62:A0:0F:DF:0D:F2:AD:36:C7:D0:58:9C:77:DC:5F:54
                DirName:/C=US/ST=California/L=Santa Clara/O=pkg5/CN=ch2_ta1/emailAddress=ch2_ta1
                serial:03
            X509v3 Basic Constraints: critical
                CA:TRUE, pathlen:0
            X509v3 Key Usage: critical
                Certificate Sign, CRL Sign
    Signature Algorithm: sha256WithRSAEncryption
    Signature Value:
        0f:ba:25:a5:67:11:25:ef:a3:f6:a4:17:55:99:8f:3c:b9:19:
        ba:7f:b8:ed:d3:22:9f:94:27:cc:4f:28:c5:a4:80:11:c8:99:
        e1:64:22:65:9f:50:06:91:34:a0:36:60:9e:2c:ae:ff:dd:a5:
        e3:e3:9d:e1:b0:40:1a:6b:bb:11:df:e4:e5:b8:08:dc:75:2a:
        c4:23:56:79:94:58:71:9f:95:70:ac:cb:04:e0:59:68:72:66:
        81:b0:44:51:1e:50:05:ec:72:4e:a5:58:17:40:89:e0:ce:07:
        1e:0b:14:c8:d7:98:1f:ae:8e:92:d5:29:fd:7f:f9:ee:c0:3d:
        0a:b9:dd:62:25:19:d3:e0:9f:25:23:a2:d6:96:b2:d1:04:5f:
        e2:7e:9e:89:df:8a:40:14:5b:e5:e5:87:55:73:27:d0:dc:39:
        76:6c:c6:27:83:86:0b:28:ad:9d:02:b6:ce:a6:34:ff:ec:64:
        0d:06:7b:0e:a0:bd:6a:dc:c3:8a:83:fe:88:7e:b8:07:a6:6b:
        3c:a0:bb:77:70:f2:fb:42:82:de:a2:27:2d:da:43:ae:fa:2b:
        49:55:0a:a6:38:9f:60:08:a6:cc:a2:4b:f3:2e:59:11:07:89:
        a7:13:e7:15:bf:18:85:8d:82:d9:87:35:7b:d8:f5:00:1f:d9:
        11:18:46:ef
-----BEGIN CERTIFICATE-----
MIIERjCCAy6gAwIBAgIBDDANBgkqhkiG9w0BAQsFADBxMQswCQYDVQQGEwJVUzET
MBEGA1UECAwKQ2FsaWZvcm5pYTEUMBIGA1UEBwwLU2FudGEgQ2xhcmExDTALBgNV
BAoMBHBrZzUxEDAOBgNVBAMMB2NoM190YTExFjAUBgkqhkiG9w0BCQEWB2NoM190
YTEwHhcNMjYwMzE4MDg1MTMxWhcNMjgxMjEyMDg1MTMxWjB1MQswCQYDVQQGEwJV
UzETMBEGA1UECAwKQ2FsaWZvcm5pYTEUMBIGA1UEBwwLU2FudGEgQ2xhcmExDTAL
BgNVBAoMBHBrZzUxEjAQBgNVBAMMCWNoNC4zX3RhMTEYMBYGCSqGSIb3DQEJARYJ
Y2g0LjNfdGExMIIBIjANBgkqhkiG9w0BAQEFAAOCAQ8AMIIBCgKCAQEAudcutmo2
2wJnrvZ5mv12GrNQ97psz+l//sz5ExXOozUr6BKvasdP2Y0VArymEof8yhc7Bl8R
upWOu7snrnc+qJQk5cFbjUczIt5ZIHDibYaGq17GvuDzemdux3WJ1Z0szTYyOyyP
7qCB6ua8zi5FbnOFuIHDunJ4pXvvW9l97fj3D4S+MYcBQXOAfwIh7q+RwhfgkwWZ
BbSv+hxkBOIKdT98FDdf4Zo9CJ1doHFWauG4qWSuChL/+wth4/LI1V5TCvhSjGRC
qJ63NA4S1rwmXM10A9t/w2IXbe3bayXQcG0XwseSncoipBuTqKaur88Q5gUn1hKV
rtXK6Zg60M6UjQIDAQABo4HkMIHhMB0GA1UdDgQWBBT7Mrlg+3OJSwwWcpqaZTUI
gqczhTCBmwYDVR0jBIGTMIGQgBTqHOoWYqAP3w3yrTbH0Ficd9xfVKF1pHMwcTEL
MAkGA1UEBhMCVVMxEzARBgNVBAgMCkNhbGlmb3JuaWExFDASBgNVBAcMC1NhbnRh
IENsYXJhMQ0wCwYDVQQKDARwa2c1MRAwDgYDVQQDDAdjaDJfdGExMRYwFAYJKoZI
hvcNAQkBFgdjaDJfdGExggEDMBIGA1UdEwEB/wQIMAYBAf8CAQAwDgYDVR0PAQH/
BAQDAgEGMA0GCSqGSIb3DQEBCwUAA4IBAQAPuiWlZxEl76P2pBdVmY88uRm6f7jt
0yKflCfMTyjFpIARyJnhZCJln1AGkTSgNmCeLK7/3aXj453hsEAaa7sR3+TluAjc
dSrEI1Z5lFhxn5VwrMsE4FlocmaBsERRHlAF7HJOpVgXQIngzgceCxTI15gfro6S
1Sn9f/nuwD0Kud1iJRnT4J8lI6LWlrLRBF/ifp6J34pAFFvl5YdVcyfQ3Dl2bMYn
g4YLKK2dArbOpjT/7GQNBnsOoL1q3MOKg/6IfrgHpms8oLt3cPL7QoLeoict2kOu
+itJVQqmOJ9gCKbMokvzLlkRB4mnE+cVvxiFjYLZhzV72PUAH9kRGEbv
-----END CERTIFICATE-----
