Certificate:
    Data:
        Version: 3 (0x2)
        Serial Number: 12 (0xc)
    Signature Algorithm: sha256WithRSAEncryption
        Issuer: C=US, ST=California, L=Santa Clara, O=pkg5, CN=ch3_ta1/emailAddress=ch3_ta1
        Validity
            Not Before: Jan 22 01:57:55 2016 GMT
            Not After : Oct 18 01:57:55 2018 GMT
        Subject: C=US, ST=California, L=Santa Clara, O=pkg5, CN=ch4.3_ta1/emailAddress=ch4.3_ta1
        Subject Public Key Info:
            Public Key Algorithm: rsaEncryption
                Public-Key: (2048 bit)
                Modulus:
                    00:b1:69:ee:17:3e:0a:15:50:23:89:d7:d7:87:ee:
                    b7:6d:ec:73:ba:42:9f:ea:ba:f5:89:74:b7:be:8d:
                    4b:42:9b:7b:30:37:1a:62:fa:39:05:38:95:c2:72:
                    3f:99:ed:73:6f:f0:e9:4a:20:7b:6c:e8:bf:b3:7a:
                    78:95:50:3e:95:25:6d:fb:ac:90:7d:48:82:87:1f:
                    9f:37:7b:58:51:19:3e:1f:a7:14:42:04:84:12:06:
                    4e:29:c9:25:45:8c:fc:08:c9:c9:8a:16:0d:55:ec:
                    45:b5:80:6e:aa:82:a3:4d:fd:d1:cf:80:d3:b6:e6:
                    01:7a:17:3a:fa:51:90:de:05:02:44:ba:c5:c2:4d:
                    ba:d1:25:1a:7c:2e:ad:d1:84:c2:ce:0e:78:c2:8f:
                    d8:42:ce:52:b1:3e:7f:b1:e4:14:bc:95:7d:16:b9:
                    4a:a8:1d:b5:bd:15:b8:7e:89:5d:11:f9:b6:3a:c0:
                    f2:ec:01:6e:8a:79:a6:5c:ac:c1:bb:d8:1c:b3:c7:
                    2a:ed:4a:1d:83:9f:94:da:ac:f8:c7:29:ce:23:5b:
                    e5:17:62:ec:14:86:a2:a1:22:81:55:b7:22:ef:a2:
                    a7:e0:77:be:a9:c8:b0:e5:fe:87:93:fe:47:68:dc:
                    eb:bc:57:b0:b4:cb:5c:d8:97:0d:49:01:d6:71:fe:
                    7a:d7
                Exponent: 65537 (0x10001)
        X509v3 extensions:
            X509v3 Subject Key Identifier: 
                CA:50:20:B6:70:62:DE:6B:28:77:63:00:64:FE:D0:58:9E:50:16:24
            X509v3 Authority Key Identifier: 
                keyid:EE:A0:C0:54:B5:84:89:28:80:79:49:CE:D0:A9:C6:8B:B9:8E:85:20
                DirName:/C=US/ST=California/L=Santa Clara/O=pkg5/CN=ch2_ta1/emailAddress=ch2_ta1
                serial:03

            X509v3 Basic Constraints: critical
                CA:TRUE, pathlen:0
            X509v3 Key Usage: critical
                Certificate Sign, CRL Sign
    Signature Algorithm: sha256WithRSAEncryption
         25:89:18:a4:a1:6c:3e:e3:f0:0f:a9:9c:3e:4e:15:a6:42:34:
         22:b6:27:35:b0:d1:88:96:c3:3e:05:4a:26:dc:3f:65:a1:09:
         64:b1:60:d8:af:2f:5c:4b:fe:d1:48:d5:b7:84:83:30:f8:e6:
         42:7f:d2:a0:e4:a7:77:5c:92:87:64:20:b7:48:df:0b:ef:de:
         eb:84:83:4b:5c:60:0e:89:85:1e:5e:9a:65:bc:c5:ac:96:85:
         83:17:85:dd:2f:0a:e8:f5:80:89:a6:4a:55:c6:1a:69:0f:1b:
         3f:25:da:42:31:91:92:87:c7:07:40:9f:20:5a:ac:c5:c5:5d:
         9c:fc:82:4b:2e:ea:8e:b3:fd:94:85:dd:0b:10:09:de:16:4d:
         47:af:59:86:ca:e8:84:c0:75:ac:2a:9c:9e:c7:16:c9:64:75:
         04:87:35:a9:89:b3:a8:92:01:c8:11:fd:79:27:69:16:52:bf:
         23:ff:2f:91:31:e6:b0:e8:66:54:fe:99:c4:7c:bd:d2:53:bf:
         22:14:e2:4e:15:f3:f1:c6:f7:2e:6d:07:95:09:69:66:01:d7:
         89:ce:f9:92:3c:25:fb:84:9a:16:fd:c0:b8:bf:65:6d:b2:34:
         a4:61:79:21:13:62:c6:72:97:aa:64:42:ab:8f:ce:83:84:2a:
         1e:b0:4f:bc
-----BEGIN CERTIFICATE-----
MIIERjCCAy6gAwIBAgIBDDANBgkqhkiG9w0BAQsFADBxMQswCQYDVQQGEwJVUzET
MBEGA1UECAwKQ2FsaWZvcm5pYTEUMBIGA1UEBwwLU2FudGEgQ2xhcmExDTALBgNV
BAoMBHBrZzUxEDAOBgNVBAMMB2NoM190YTExFjAUBgkqhkiG9w0BCQEWB2NoM190
YTEwHhcNMTYwMTIyMDE1NzU1WhcNMTgxMDE4MDE1NzU1WjB1MQswCQYDVQQGEwJV
UzETMBEGA1UECAwKQ2FsaWZvcm5pYTEUMBIGA1UEBwwLU2FudGEgQ2xhcmExDTAL
BgNVBAoMBHBrZzUxEjAQBgNVBAMMCWNoNC4zX3RhMTEYMBYGCSqGSIb3DQEJARYJ
Y2g0LjNfdGExMIIBIjANBgkqhkiG9w0BAQEFAAOCAQ8AMIIBCgKCAQEAsWnuFz4K
FVAjidfXh+63bexzukKf6rr1iXS3vo1LQpt7MDcaYvo5BTiVwnI/me1zb/DpSiB7
bOi/s3p4lVA+lSVt+6yQfUiChx+fN3tYURk+H6cUQgSEEgZOKcklRYz8CMnJihYN
VexFtYBuqoKjTf3Rz4DTtuYBehc6+lGQ3gUCRLrFwk260SUafC6t0YTCzg54wo/Y
Qs5SsT5/seQUvJV9FrlKqB21vRW4foldEfm2OsDy7AFuinmmXKzBu9gcs8cq7Uod
g5+U2qz4xynOI1vlF2LsFIaioSKBVbci76Kn4He+qciw5f6Hk/5HaNzrvFewtMtc
2JcNSQHWcf561wIDAQABo4HkMIHhMB0GA1UdDgQWBBTKUCC2cGLeayh3YwBk/tBY
nlAWJDCBmwYDVR0jBIGTMIGQgBTuoMBUtYSJKIB5Sc7QqcaLuY6FIKF1pHMwcTEL
MAkGA1UEBhMCVVMxEzARBgNVBAgMCkNhbGlmb3JuaWExFDASBgNVBAcMC1NhbnRh
IENsYXJhMQ0wCwYDVQQKDARwa2c1MRAwDgYDVQQDDAdjaDJfdGExMRYwFAYJKoZI
hvcNAQkBFgdjaDJfdGExggEDMBIGA1UdEwEB/wQIMAYBAf8CAQAwDgYDVR0PAQH/
BAQDAgEGMA0GCSqGSIb3DQEBCwUAA4IBAQAliRikoWw+4/APqZw+ThWmQjQitic1
sNGIlsM+BUom3D9loQlksWDYry9cS/7RSNW3hIMw+OZCf9Kg5Kd3XJKHZCC3SN8L
797rhINLXGAOiYUeXpplvMWsloWDF4XdLwro9YCJpkpVxhppDxs/JdpCMZGSh8cH
QJ8gWqzFxV2c/IJLLuqOs/2Uhd0LEAneFk1Hr1mGyuiEwHWsKpyexxbJZHUEhzWp
ibOokgHIEf15J2kWUr8j/y+RMeaw6GZU/pnEfL3SU78iFOJOFfPxxvcubQeVCWlm
AdeJzvmSPCX7hJoW/cC4v2VtsjSkYXkhE2LGcpeqZEKrj86DhCoesE+8
-----END CERTIFICATE-----
