Certificate:
    Data:
        Version: 3 (0x2)
        Serial Number: 12 (0xc)
    Signature Algorithm: sha256WithRSAEncryption
        Issuer: C=US, ST=California, L=Santa Clara, O=pkg5, CN=ch3_ta1/emailAddress=ch3_ta1
        Validity
            Not Before: Dec 13 00:13:35 2013 GMT
            Not After : Sep  8 00:13:35 2016 GMT
        Subject: C=US, ST=California, L=Santa Clara, O=pkg5, CN=ch4.3_ta1/emailAddress=ch4.3_ta1
        Subject Public Key Info:
            Public Key Algorithm: rsaEncryption
                Public-Key: (1024 bit)
                Modulus:
                    00:dd:ec:30:ee:2a:39:ec:cf:6d:c0:b9:04:f2:e0:
                    0f:04:7a:e9:ab:f0:27:28:d9:6b:70:e5:c4:9b:c6:
                    1b:bb:71:16:42:d5:47:80:60:2c:f6:26:90:9d:0b:
                    cc:1b:18:bf:54:98:c7:e8:ba:bf:a2:5d:60:c9:b3:
                    09:79:de:ee:02:d9:b9:70:22:c3:cd:60:04:5f:1e:
                    df:a3:8f:43:73:ea:68:5e:df:70:86:aa:67:75:5a:
                    59:ef:cd:0d:e4:f1:6d:ee:d3:bb:04:c7:52:e5:72:
                    53:2a:e2:f3:02:65:7f:53:46:c3:15:e4:cb:8d:1b:
                    cf:8f:1e:8d:6d:04:07:09:77
                Exponent: 65537 (0x10001)
        X509v3 extensions:
            X509v3 Subject Key Identifier: 
                16:06:DB:79:36:82:5D:96:BA:FD:0F:C3:3D:E2:64:BA:E6:03:E6:3A
            X509v3 Authority Key Identifier: 
                keyid:8F:2A:82:4C:1E:39:97:C3:4A:6A:52:FC:D4:CB:E6:37:CE:12:91:59
                DirName:/C=US/ST=California/L=Santa Clara/O=pkg5/CN=ch2_ta1/emailAddress=ch2_ta1
                serial:03

            X509v3 Basic Constraints: critical
                CA:TRUE, pathlen:0
            X509v3 Key Usage: critical
                Certificate Sign, CRL Sign
    Signature Algorithm: sha256WithRSAEncryption
         26:70:cc:69:5b:26:cf:cc:1d:19:b6:61:20:59:22:d7:fa:a3:
         d9:fa:e2:e3:87:07:24:5a:41:5b:7e:21:4c:f5:32:d2:d8:fd:
         a5:17:b5:c4:0f:9a:d2:a6:dd:45:9f:13:2a:30:8a:75:5b:69:
         9b:dd:06:85:3e:19:06:7d:5d:0f:3f:15:64:76:41:e9:a8:30:
         bd:d7:26:66:07:60:da:e2:ec:80:44:6d:a5:8b:fd:9a:3a:0b:
         92:b9:6c:f8:72:cc:7e:24:78:a2:a3:f7:ef:47:7a:aa:8b:89:
         45:33:ff:01:bd:a0:d0:18:ea:a1:46:98:b5:7f:00:e1:00:8e:
         7e:68
-----BEGIN CERTIFICATE-----
MIIDQTCCAqqgAwIBAgIBDDANBgkqhkiG9w0BAQsFADBxMQswCQYDVQQGEwJVUzET
MBEGA1UECAwKQ2FsaWZvcm5pYTEUMBIGA1UEBwwLU2FudGEgQ2xhcmExDTALBgNV
BAoMBHBrZzUxEDAOBgNVBAMMB2NoM190YTExFjAUBgkqhkiG9w0BCQEWB2NoM190
YTEwHhcNMTMxMjEzMDAxMzM1WhcNMTYwOTA4MDAxMzM1WjB1MQswCQYDVQQGEwJV
UzETMBEGA1UECAwKQ2FsaWZvcm5pYTEUMBIGA1UEBwwLU2FudGEgQ2xhcmExDTAL
BgNVBAoMBHBrZzUxEjAQBgNVBAMMCWNoNC4zX3RhMTEYMBYGCSqGSIb3DQEJARYJ
Y2g0LjNfdGExMIGfMA0GCSqGSIb3DQEBAQUAA4GNADCBiQKBgQDd7DDuKjnsz23A
uQTy4A8Eeumr8Cco2Wtw5cSbxhu7cRZC1UeAYCz2JpCdC8wbGL9UmMfour+iXWDJ
swl53u4C2blwIsPNYARfHt+jj0Nz6mhe33CGqmd1WlnvzQ3k8W3u07sEx1LlclMq
4vMCZX9TRsMV5MuNG8+PHo1tBAcJdwIDAQABo4HkMIHhMB0GA1UdDgQWBBQWBtt5
NoJdlrr9D8M94mS65gPmOjCBmwYDVR0jBIGTMIGQgBSPKoJMHjmXw0pqUvzUy+Y3
zhKRWaF1pHMwcTELMAkGA1UEBhMCVVMxEzARBgNVBAgMCkNhbGlmb3JuaWExFDAS
BgNVBAcMC1NhbnRhIENsYXJhMQ0wCwYDVQQKDARwa2c1MRAwDgYDVQQDDAdjaDJf
dGExMRYwFAYJKoZIhvcNAQkBFgdjaDJfdGExggEDMBIGA1UdEwEB/wQIMAYBAf8C
AQAwDgYDVR0PAQH/BAQDAgEGMA0GCSqGSIb3DQEBCwUAA4GBACZwzGlbJs/MHRm2
YSBZItf6o9n64uOHByRaQVt+IUz1MtLY/aUXtcQPmtKm3UWfEyowinVbaZvdBoU+
GQZ9XQ8/FWR2QemoML3XJmYHYNri7IBEbaWL/Zo6C5K5bPhyzH4keKKj9+9HeqqL
iUUz/wG9oNAY6qFGmLV/AOEAjn5o
-----END CERTIFICATE-----
