Certificate:
    Data:
        Version: 3 (0x2)
        Serial Number: 12 (0xc)
    Signature Algorithm: sha256WithRSAEncryption
        Issuer: C=US, ST=California, L=Santa Clara, O=pkg5, CN=ch3_ta1/emailAddress=ch3_ta1
        Validity
            Not Before: Jan 22 15:33:08 2019 GMT
            Not After : Oct 18 15:33:08 2021 GMT
        Subject: C=US, ST=California, L=Santa Clara, O=pkg5, CN=ch4.3_ta1/emailAddress=ch4.3_ta1
        Subject Public Key Info:
            Public Key Algorithm: rsaEncryption
                Public-Key: (2048 bit)
                Modulus:
                    00:b0:80:fc:d0:63:89:70:78:0f:e1:ad:9d:3d:9e:
                    de:c2:82:45:35:78:3b:f5:f8:a3:df:e6:a2:bf:fc:
                    06:57:b4:fa:e8:0f:7f:df:c8:63:5c:f6:9b:15:be:
                    39:a6:ce:b9:7e:fe:75:fc:52:2c:77:e1:c7:29:d6:
                    40:cf:f6:56:3c:d3:f1:7d:94:7c:2c:69:d8:ce:4a:
                    75:3d:be:a8:55:43:20:e0:2b:76:9e:25:d0:17:ff:
                    d0:e3:26:b6:e4:fa:6e:55:77:82:03:2c:6c:69:7a:
                    b8:86:13:8d:e9:b8:ae:6c:01:b0:72:79:c4:78:eb:
                    47:cb:38:86:c2:a8:cb:61:7e:70:d0:ca:6b:4b:28:
                    d4:08:7b:b8:c2:08:26:4d:10:dd:b9:b5:35:d6:d3:
                    cd:1b:c2:8b:47:02:aa:6c:09:df:95:bb:68:46:2b:
                    61:2f:c8:8c:71:8f:99:96:a6:22:06:dc:7b:33:4e:
                    77:9f:8a:fc:11:42:1c:65:1b:60:a7:ee:5d:77:6f:
                    62:87:c2:de:c5:60:cf:0c:6a:c6:d9:fd:82:03:a2:
                    33:b4:b2:cc:65:f5:ea:ff:5e:0f:d9:06:85:39:0e:
                    36:77:99:95:e6:ad:bd:49:f9:9c:de:83:07:dc:ef:
                    a6:29:3c:cd:3b:5b:61:f6:45:3a:e2:83:47:fc:9a:
                    3c:45
                Exponent: 65537 (0x10001)
        X509v3 extensions:
            X509v3 Subject Key Identifier: 
                CE:B9:44:55:C1:62:56:34:1A:DB:4A:C7:D2:1D:93:71:F6:83:22:D5
            X509v3 Authority Key Identifier: 
                keyid:F9:CE:F4:31:FC:D0:82:64:C6:A0:49:67:DE:27:37:68:55:00:6F:DB
                DirName:/C=US/ST=California/L=Santa Clara/O=pkg5/CN=ch2_ta1/emailAddress=ch2_ta1
                serial:03

            X509v3 Basic Constraints: critical
                CA:TRUE, pathlen:0
            X509v3 Key Usage: critical
                Certificate Sign, CRL Sign
    Signature Algorithm: sha256WithRSAEncryption
         45:c6:25:a9:6c:66:06:90:e5:8b:4a:cd:91:45:99:c4:d4:07:
         9e:e0:22:b1:ae:00:dd:eb:2a:bd:d5:d6:0c:46:db:89:10:04:
         7e:c1:e9:82:09:bf:19:00:e9:26:2f:dd:16:9b:e9:50:01:83:
         c8:49:34:12:7e:8d:61:02:99:5c:0a:cb:f4:d0:8d:82:db:fc:
         99:ca:5f:a4:07:f4:68:ec:9f:2f:a4:28:e4:56:fb:08:db:ba:
         86:aa:6b:76:d2:49:55:1c:a8:fd:2d:00:28:96:62:86:09:ac:
         a9:e0:62:f5:b8:6d:c3:28:ed:56:60:33:75:7b:88:5c:f2:89:
         05:82:54:4c:3a:d3:7d:cf:7c:83:40:37:d1:fe:66:ae:3f:93:
         04:09:a9:76:3c:6a:77:aa:d8:d6:9b:b9:64:a1:e6:62:96:cb:
         c3:9d:cb:b3:3d:be:20:ee:7e:54:12:30:12:f7:70:96:97:03:
         4d:b0:c7:4e:8b:3c:eb:8f:6b:92:97:cb:23:26:0b:d6:01:1e:
         32:99:27:ce:ca:03:a4:03:06:1a:8b:49:e2:6b:11:a4:00:c8:
         9f:aa:5d:31:3a:7e:a4:b9:fd:a9:b5:4a:37:69:15:67:f1:d3:
         02:2c:6e:4f:f3:ea:01:3f:6c:36:a7:1d:24:93:0e:8c:dd:26:
         4e:87:e0:87
-----BEGIN CERTIFICATE-----
MIIERjCCAy6gAwIBAgIBDDANBgkqhkiG9w0BAQsFADBxMQswCQYDVQQGEwJVUzET
MBEGA1UECAwKQ2FsaWZvcm5pYTEUMBIGA1UEBwwLU2FudGEgQ2xhcmExDTALBgNV
BAoMBHBrZzUxEDAOBgNVBAMMB2NoM190YTExFjAUBgkqhkiG9w0BCQEWB2NoM190
YTEwHhcNMTkwMTIyMTUzMzA4WhcNMjExMDE4MTUzMzA4WjB1MQswCQYDVQQGEwJV
UzETMBEGA1UECAwKQ2FsaWZvcm5pYTEUMBIGA1UEBwwLU2FudGEgQ2xhcmExDTAL
BgNVBAoMBHBrZzUxEjAQBgNVBAMMCWNoNC4zX3RhMTEYMBYGCSqGSIb3DQEJARYJ
Y2g0LjNfdGExMIIBIjANBgkqhkiG9w0BAQEFAAOCAQ8AMIIBCgKCAQEAsID80GOJ
cHgP4a2dPZ7ewoJFNXg79fij3+aiv/wGV7T66A9/38hjXPabFb45ps65fv51/FIs
d+HHKdZAz/ZWPNPxfZR8LGnYzkp1Pb6oVUMg4Ct2niXQF//Q4ya25PpuVXeCAyxs
aXq4hhON6biubAGwcnnEeOtHyziGwqjLYX5w0MprSyjUCHu4wggmTRDdubU11tPN
G8KLRwKqbAnflbtoRithL8iMcY+ZlqYiBtx7M053n4r8EUIcZRtgp+5dd29ih8Le
xWDPDGrG2f2CA6IztLLMZfXq/14P2QaFOQ42d5mV5q29Sfmc3oMH3O+mKTzNO1th
9kU64oNH/Jo8RQIDAQABo4HkMIHhMB0GA1UdDgQWBBTOuURVwWJWNBrbSsfSHZNx
9oMi1TCBmwYDVR0jBIGTMIGQgBT5zvQx/NCCZMagSWfeJzdoVQBv26F1pHMwcTEL
MAkGA1UEBhMCVVMxEzARBgNVBAgMCkNhbGlmb3JuaWExFDASBgNVBAcMC1NhbnRh
IENsYXJhMQ0wCwYDVQQKDARwa2c1MRAwDgYDVQQDDAdjaDJfdGExMRYwFAYJKoZI
hvcNAQkBFgdjaDJfdGExggEDMBIGA1UdEwEB/wQIMAYBAf8CAQAwDgYDVR0PAQH/
BAQDAgEGMA0GCSqGSIb3DQEBCwUAA4IBAQBFxiWpbGYGkOWLSs2RRZnE1Aee4CKx
rgDd6yq91dYMRtuJEAR+wemCCb8ZAOkmL90Wm+lQAYPISTQSfo1hAplcCsv00I2C
2/yZyl+kB/Ro7J8vpCjkVvsI27qGqmt20klVHKj9LQAolmKGCayp4GL1uG3DKO1W
YDN1e4hc8okFglRMOtN9z3yDQDfR/mauP5MECal2PGp3qtjWm7lkoeZilsvDncuz
Pb4g7n5UEjAS93CWlwNNsMdOizzrj2uSl8sjJgvWAR4ymSfOygOkAwYai0niaxGk
AMifql0xOn6kuf2ptUo3aRVn8dMCLG5P8+oBP2w2px0kkw6M3SZOh+CH
-----END CERTIFICATE-----
