Certificate:
    Data:
        Version: 3 (0x2)
        Serial Number: 12 (0xc)
        Signature Algorithm: sha256WithRSAEncryption
        Issuer: C=US, ST=California, L=Menlo Park, O=pkg5, CN=ch3_ta1/emailAddress=ch3_ta1
        Validity
            Not Before: Apr 11 22:37:42 2011 GMT
            Not After : Jan  5 22:37:42 2014 GMT
        Subject: C=US, ST=California, L=Menlo Park, O=pkg5, CN=ch4.3_ta1/emailAddress=ch4.3_ta1
        Subject Public Key Info:
            Public Key Algorithm: rsaEncryption
            RSA Public Key: (1024 bit)
                Modulus (1024 bit):
                    00:e2:d0:ba:91:89:c2:26:21:4c:9d:68:63:7e:87:
                    9b:9e:31:52:4d:30:b3:2b:9c:26:85:40:63:69:66:
                    7c:5d:52:73:d3:61:01:78:18:0e:46:21:6d:34:1f:
                    84:e2:42:72:9c:ef:68:7e:49:a6:3d:62:82:f3:0f:
                    95:74:13:88:a1:d1:bf:00:93:10:24:d2:fc:bd:1a:
                    a7:4f:f2:24:b2:60:d5:57:96:62:09:c8:94:5f:b6:
                    57:38:f1:00:62:97:d9:a2:35:d6:95:47:97:78:48:
                    17:77:2b:c4:62:fa:00:0c:f1:d4:6e:e1:74:25:38:
                    0f:5c:57:af:92:37:e7:18:21
                Exponent: 65537 (0x10001)
        X509v3 extensions:
            X509v3 Subject Key Identifier: 
                9E:F5:29:85:12:A6:F3:26:1C:25:81:F4:75:82:9E:80:B1:33:8D:BE
            X509v3 Authority Key Identifier: 
                keyid:D0:F9:37:92:54:28:C0:40:AE:62:94:51:42:6A:7C:8E:37:5F:AC:A8
                DirName:/C=US/ST=California/L=Menlo Park/O=pkg5/CN=ch2_ta1/emailAddress=ch2_ta1
                serial:03

            X509v3 Basic Constraints: critical
                CA:TRUE, pathlen:0
            X509v3 Key Usage: critical
                Certificate Sign, CRL Sign
    Signature Algorithm: sha256WithRSAEncryption
        87:45:e7:89:11:9c:2a:47:8e:63:84:93:80:3f:03:27:65:dd:
        19:50:aa:1f:e5:50:67:c9:d8:3f:1e:74:85:fb:46:b2:c8:1c:
        22:cb:a9:d0:d4:26:60:06:6e:9e:15:7e:d3:5a:06:8d:95:26:
        36:10:16:e9:08:92:fb:9a:45:14:99:b5:ac:ee:06:d2:6b:c4:
        21:63:13:b4:55:1f:c3:35:02:56:9e:7d:d1:4a:1f:45:91:f6:
        c1:28:c3:f9:aa:e0:31:63:cc:c0:5d:77:7f:54:65:98:a3:39:
        eb:73:83:ab:74:f3:c2:3e:be:9b:fe:18:75:3c:44:ad:a2:fc:
        c2:42
-----BEGIN CERTIFICATE-----
MIIDPjCCAqegAwIBAgIBDDANBgkqhkiG9w0BAQsFADBwMQswCQYDVQQGEwJVUzET
MBEGA1UECBMKQ2FsaWZvcm5pYTETMBEGA1UEBxMKTWVubG8gUGFyazENMAsGA1UE
ChMEcGtnNTEQMA4GA1UEAxQHY2gzX3RhMTEWMBQGCSqGSIb3DQEJARYHY2gzX3Rh
MTAeFw0xMTA0MTEyMjM3NDJaFw0xNDAxMDUyMjM3NDJaMHQxCzAJBgNVBAYTAlVT
MRMwEQYDVQQIEwpDYWxpZm9ybmlhMRMwEQYDVQQHEwpNZW5sbyBQYXJrMQ0wCwYD
VQQKEwRwa2c1MRIwEAYDVQQDFAljaDQuM190YTExGDAWBgkqhkiG9w0BCQEWCWNo
NC4zX3RhMTCBnzANBgkqhkiG9w0BAQEFAAOBjQAwgYkCgYEA4tC6kYnCJiFMnWhj
foebnjFSTTCzK5wmhUBjaWZ8XVJz02EBeBgORiFtNB+E4kJynO9ofkmmPWKC8w+V
dBOIodG/AJMQJNL8vRqnT/IksmDVV5ZiCciUX7ZXOPEAYpfZojXWlUeXeEgXdyvE
YvoADPHUbuF0JTgPXFevkjfnGCECAwEAAaOB4zCB4DAdBgNVHQ4EFgQUnvUphRKm
8yYcJYH0dYKegLEzjb4wgZoGA1UdIwSBkjCBj4AU0Pk3klQowECuYpRRQmp8jjdf
rKihdKRyMHAxCzAJBgNVBAYTAlVTMRMwEQYDVQQIEwpDYWxpZm9ybmlhMRMwEQYD
VQQHEwpNZW5sbyBQYXJrMQ0wCwYDVQQKEwRwa2c1MRAwDgYDVQQDFAdjaDJfdGEx
MRYwFAYJKoZIhvcNAQkBFgdjaDJfdGExggEDMBIGA1UdEwEB/wQIMAYBAf8CAQAw
DgYDVR0PAQH/BAQDAgEGMA0GCSqGSIb3DQEBCwUAA4GBAIdF54kRnCpHjmOEk4A/
Aydl3RlQqh/lUGfJ2D8edIX7RrLIHCLLqdDUJmAGbp4VftNaBo2VJjYQFukIkvua
RRSZtazuBtJrxCFjE7RVH8M1AlaefdFKH0WR9sEow/mq4DFjzMBdd39UZZijOetz
g6t088I+vpv+GHU8RK2i/MJC
-----END CERTIFICATE-----
