Certificate:
    Data:
        Version: 3 (0x2)
        Serial Number: 12 (0xc)
    Signature Algorithm: sha256WithRSAEncryption
        Issuer: C=US, ST=California, L=Santa Clara, O=pkg5, CN=ch3_ta1/emailAddress=ch3_ta1
        Validity
            Not Before: Sep 22 05:33:19 2021 GMT
            Not After : Jun 18 05:33:19 2024 GMT
        Subject: C=US, ST=California, L=Santa Clara, O=pkg5, CN=ch4.3_ta1/emailAddress=ch4.3_ta1
        Subject Public Key Info:
            Public Key Algorithm: rsaEncryption
                Public-Key: (2048 bit)
                Modulus:
                    00:c9:a6:34:f0:b8:28:81:5f:87:a0:c6:f7:28:eb:
                    3f:14:ef:5d:6a:14:dc:ac:7e:1f:14:3a:45:8a:c5:
                    b9:1c:80:06:d9:ae:a4:0e:59:dd:66:40:41:1f:f6:
                    01:ca:de:04:28:aa:2a:2f:5c:03:35:a4:e8:62:71:
                    8b:c7:3a:72:e9:c7:b9:95:90:47:fd:d2:e9:5c:e1:
                    9b:c2:6f:5a:12:62:f7:53:b6:42:a9:a8:0f:82:8b:
                    2a:14:e6:e1:68:03:ca:74:83:2b:6b:d6:b3:8b:e0:
                    a0:10:ea:4d:9f:14:00:e7:6f:98:d1:69:7d:e0:b6:
                    1a:1d:3e:36:e5:30:b8:ba:8f:f1:8c:49:00:1b:db:
                    0e:89:87:56:c6:01:2c:d8:8c:e7:47:b8:78:e6:94:
                    73:df:a3:ae:19:7b:48:c0:02:c1:80:9b:70:da:e3:
                    0a:dd:19:ab:27:45:4b:39:79:08:b6:2d:3d:bf:4e:
                    c7:a6:0f:6a:f0:d2:68:05:0c:e0:1f:ae:ee:c1:90:
                    5a:28:ae:33:38:b2:d0:73:35:95:c9:f5:00:5c:e6:
                    0b:ca:8c:9c:90:b1:06:e6:8c:73:cc:3b:5a:df:10:
                    ba:50:46:2d:3c:84:a2:2a:96:ba:32:80:77:cd:e5:
                    a1:21:2b:c9:b4:10:2d:cf:22:47:c4:6f:d6:d8:0e:
                    42:a3
                Exponent: 65537 (0x10001)
        X509v3 extensions:
            X509v3 Subject Key Identifier: 
                DC:08:89:5E:50:4D:B3:6A:A9:55:77:B3:26:AB:80:55:C4:60:2E:AE
            X509v3 Authority Key Identifier: 
                keyid:E7:FD:5D:2E:2E:AC:82:18:8F:E8:B2:FA:23:60:7C:DE:53:04:F9:30
                DirName:/C=US/ST=California/L=Santa Clara/O=pkg5/CN=ch2_ta1/emailAddress=ch2_ta1
                serial:03

            X509v3 Basic Constraints: critical
                CA:TRUE, pathlen:0
            X509v3 Key Usage: critical
                Certificate Sign, CRL Sign
    Signature Algorithm: sha256WithRSAEncryption
         b8:c4:d1:b8:63:48:6a:f1:f1:82:65:e7:9a:d8:91:d1:39:27:
         4f:50:84:d1:22:20:c4:a4:65:15:0b:bb:c1:1d:9b:1e:7c:05:
         4c:a6:ca:d6:2a:c9:26:0a:e5:80:cb:99:14:6e:a9:7a:9f:b4:
         b0:6b:54:db:65:5a:7a:81:97:d8:c9:85:76:af:51:3a:fd:cc:
         28:39:03:d7:c1:2e:2a:f2:c9:75:3d:bb:1b:07:1b:f2:20:6c:
         2c:d7:96:1b:4e:a6:71:94:75:54:c8:23:76:80:ed:c6:be:dc:
         8f:be:7d:03:79:62:a4:b5:8b:e1:3e:d9:77:ea:40:97:9d:09:
         73:dd:59:ff:44:a1:58:36:09:87:96:dd:ab:96:34:33:b0:51:
         f6:ad:b9:b0:08:5d:f0:7d:78:3d:87:58:1e:83:f4:0d:ea:34:
         85:ae:d4:89:19:73:da:ac:7d:10:03:bb:5e:85:61:22:a0:f4:
         50:c4:f3:86:56:7e:8d:65:b7:cc:0a:96:0a:6d:00:84:02:f3:
         0f:51:b8:2b:5b:49:6f:98:25:88:19:c4:a2:f2:b0:19:ab:48:
         cb:a4:30:92:d2:f4:ed:c6:c4:03:3a:35:ac:4f:2a:68:54:79:
         4c:f8:d7:6b:b6:35:e1:06:96:13:ad:34:62:f1:d8:ab:a9:5c:
         c9:49:57:b2
-----BEGIN CERTIFICATE-----
MIIERjCCAy6gAwIBAgIBDDANBgkqhkiG9w0BAQsFADBxMQswCQYDVQQGEwJVUzET
MBEGA1UECAwKQ2FsaWZvcm5pYTEUMBIGA1UEBwwLU2FudGEgQ2xhcmExDTALBgNV
BAoMBHBrZzUxEDAOBgNVBAMMB2NoM190YTExFjAUBgkqhkiG9w0BCQEWB2NoM190
YTEwHhcNMjEwOTIyMDUzMzE5WhcNMjQwNjE4MDUzMzE5WjB1MQswCQYDVQQGEwJV
UzETMBEGA1UECAwKQ2FsaWZvcm5pYTEUMBIGA1UEBwwLU2FudGEgQ2xhcmExDTAL
BgNVBAoMBHBrZzUxEjAQBgNVBAMMCWNoNC4zX3RhMTEYMBYGCSqGSIb3DQEJARYJ
Y2g0LjNfdGExMIIBIjANBgkqhkiG9w0BAQEFAAOCAQ8AMIIBCgKCAQEAyaY08Lgo
gV+HoMb3KOs/FO9dahTcrH4fFDpFisW5HIAG2a6kDlndZkBBH/YByt4EKKoqL1wD
NaToYnGLxzpy6ce5lZBH/dLpXOGbwm9aEmL3U7ZCqagPgosqFObhaAPKdIMra9az
i+CgEOpNnxQA52+Y0Wl94LYaHT425TC4uo/xjEkAG9sOiYdWxgEs2IznR7h45pRz
36OuGXtIwALBgJtw2uMK3RmrJ0VLOXkIti09v07Hpg9q8NJoBQzgH67uwZBaKK4z
OLLQczWVyfUAXOYLyoyckLEG5oxzzDta3xC6UEYtPISiKpa6MoB3zeWhISvJtBAt
zyJHxG/W2A5CowIDAQABo4HkMIHhMB0GA1UdDgQWBBTcCIleUE2zaqlVd7Mmq4BV
xGAurjCBmwYDVR0jBIGTMIGQgBTn/V0uLqyCGI/osvojYHzeUwT5MKF1pHMwcTEL
MAkGA1UEBhMCVVMxEzARBgNVBAgMCkNhbGlmb3JuaWExFDASBgNVBAcMC1NhbnRh
IENsYXJhMQ0wCwYDVQQKDARwa2c1MRAwDgYDVQQDDAdjaDJfdGExMRYwFAYJKoZI
hvcNAQkBFgdjaDJfdGExggEDMBIGA1UdEwEB/wQIMAYBAf8CAQAwDgYDVR0PAQH/
BAQDAgEGMA0GCSqGSIb3DQEBCwUAA4IBAQC4xNG4Y0hq8fGCZeea2JHROSdPUITR
IiDEpGUVC7vBHZsefAVMpsrWKskmCuWAy5kUbql6n7Swa1TbZVp6gZfYyYV2r1E6
/cwoOQPXwS4q8sl1PbsbBxvyIGws15YbTqZxlHVUyCN2gO3GvtyPvn0DeWKktYvh
Ptl36kCXnQlz3Vn/RKFYNgmHlt2rljQzsFH2rbmwCF3wfXg9h1geg/QN6jSFrtSJ
GXParH0QA7tehWEioPRQxPOGVn6NZbfMCpYKbQCEAvMPUbgrW0lvmCWIGcSi8rAZ
q0jLpDCS0vTtxsQDOjWsTypoVHlM+NdrtjXhBpYTrTRi8dirqVzJSVey
-----END CERTIFICATE-----
