Certificate:
    Data:
        Version: 3 (0x2)
        Serial Number: 4 (0x4)
    Signature Algorithm: sha256WithRSAEncryption
        Issuer: C=US, ST=California, L=Santa Clara, O=pkg5, CN=ch3_ta1/emailAddress=ch3_ta1
        Validity
            Not Before: Dec 13 00:13:34 2013 GMT
            Not After : Sep  8 00:13:34 2016 GMT
        Subject: C=US, ST=California, L=Santa Clara, O=pkg5, CN=ch4_ta1/emailAddress=ch4_ta1
        Subject Public Key Info:
            Public Key Algorithm: rsaEncryption
                Public-Key: (1024 bit)
                Modulus:
                    00:af:c3:8b:39:3e:21:56:8a:d6:97:1b:c7:aa:c7:
                    51:9e:e9:cf:15:1f:24:e6:91:92:81:b3:7d:30:eb:
                    ea:12:30:13:03:d0:b9:60:41:8b:eb:88:f4:1f:e5:
                    43:cf:b5:ae:47:7a:4d:46:6e:f8:16:42:67:db:20:
                    e4:0d:1f:96:4f:21:59:95:f6:70:33:32:45:81:18:
                    5e:a5:5b:fd:4a:e6:d7:97:cf:45:65:e7:74:79:5f:
                    a5:9f:e1:c7:a5:d0:5d:24:a7:32:18:68:13:57:4c:
                    cf:78:12:6f:9f:5c:e6:4d:be:89:24:4b:29:d8:02:
                    b2:f9:f9:13:cf:92:43:0f:e5
                Exponent: 65537 (0x10001)
        X509v3 extensions:
            X509v3 Subject Key Identifier: 
                54:8A:14:10:0B:AF:89:DC:1E:65:8A:17:37:6A:AC:D2:2B:6C:27:5C
            X509v3 Authority Key Identifier: 
                keyid:8F:2A:82:4C:1E:39:97:C3:4A:6A:52:FC:D4:CB:E6:37:CE:12:91:59
                DirName:/C=US/ST=California/L=Santa Clara/O=pkg5/CN=ch2_ta1/emailAddress=ch2_ta1
                serial:03

            X509v3 Basic Constraints: critical
                CA:TRUE, pathlen:1
            X509v3 Key Usage: critical
                Certificate Sign, CRL Sign
    Signature Algorithm: sha256WithRSAEncryption
         6a:17:96:16:a6:3f:96:b7:8e:fb:e5:d7:14:f9:a8:8e:52:16:
         04:0d:58:4b:f7:c6:70:c4:3f:d3:2b:13:24:7b:47:2d:cf:89:
         59:bf:5c:6c:17:31:46:c4:17:e5:41:fe:5e:3f:ec:44:2e:92:
         94:eb:3b:c9:ff:d1:5e:c0:ad:d3:51:2b:12:11:87:b2:17:2f:
         40:5a:ac:76:f0:0f:ed:cd:ca:be:b6:b2:ef:bf:d4:79:04:e0:
         ed:88:33:96:b0:a4:27:41:a7:31:0b:c4:d9:6a:ad:7d:82:bb:
         63:15:2a:00:8e:60:af:ee:a6:8a:d3:65:6a:b8:f9:7e:0e:cd:
         bf:d5
-----BEGIN CERTIFICATE-----
MIIDPTCCAqagAwIBAgIBBDANBgkqhkiG9w0BAQsFADBxMQswCQYDVQQGEwJVUzET
MBEGA1UECAwKQ2FsaWZvcm5pYTEUMBIGA1UEBwwLU2FudGEgQ2xhcmExDTALBgNV
BAoMBHBrZzUxEDAOBgNVBAMMB2NoM190YTExFjAUBgkqhkiG9w0BCQEWB2NoM190
YTEwHhcNMTMxMjEzMDAxMzM0WhcNMTYwOTA4MDAxMzM0WjBxMQswCQYDVQQGEwJV
UzETMBEGA1UECAwKQ2FsaWZvcm5pYTEUMBIGA1UEBwwLU2FudGEgQ2xhcmExDTAL
BgNVBAoMBHBrZzUxEDAOBgNVBAMMB2NoNF90YTExFjAUBgkqhkiG9w0BCQEWB2No
NF90YTEwgZ8wDQYJKoZIhvcNAQEBBQADgY0AMIGJAoGBAK/Dizk+IVaK1pcbx6rH
UZ7pzxUfJOaRkoGzfTDr6hIwEwPQuWBBi+uI9B/lQ8+1rkd6TUZu+BZCZ9sg5A0f
lk8hWZX2cDMyRYEYXqVb/Urm15fPRWXndHlfpZ/hx6XQXSSnMhhoE1dMz3gSb59c
5k2+iSRLKdgCsvn5E8+SQw/lAgMBAAGjgeQwgeEwHQYDVR0OBBYEFFSKFBALr4nc
HmWKFzdqrNIrbCdcMIGbBgNVHSMEgZMwgZCAFI8qgkweOZfDSmpS/NTL5jfOEpFZ
oXWkczBxMQswCQYDVQQGEwJVUzETMBEGA1UECAwKQ2FsaWZvcm5pYTEUMBIGA1UE
BwwLU2FudGEgQ2xhcmExDTALBgNVBAoMBHBrZzUxEDAOBgNVBAMMB2NoMl90YTEx
FjAUBgkqhkiG9w0BCQEWB2NoMl90YTGCAQMwEgYDVR0TAQH/BAgwBgEB/wIBATAO
BgNVHQ8BAf8EBAMCAQYwDQYJKoZIhvcNAQELBQADgYEAaheWFqY/lreO++XXFPmo
jlIWBA1YS/fGcMQ/0ysTJHtHLc+JWb9cbBcxRsQX5UH+Xj/sRC6SlOs7yf/RXsCt
01ErEhGHshcvQFqsdvAP7c3Kvray77/UeQTg7YgzlrCkJ0GnMQvE2WqtfYK7YxUq
AI5gr+6mitNlarj5fg7Nv9U=
-----END CERTIFICATE-----
