Certificate:
    Data:
        Version: 3 (0x2)
        Serial Number: 4 (0x4)
    Signature Algorithm: sha256WithRSAEncryption
        Issuer: C=US, ST=California, L=Santa Clara, O=pkg5, CN=ch3_ta1/emailAddress=ch3_ta1
        Validity
            Not Before: Jan 22 01:57:54 2016 GMT
            Not After : Oct 18 01:57:54 2018 GMT
        Subject: C=US, ST=California, L=Santa Clara, O=pkg5, CN=ch4_ta1/emailAddress=ch4_ta1
        Subject Public Key Info:
            Public Key Algorithm: rsaEncryption
                Public-Key: (2048 bit)
                Modulus:
                    00:f0:be:9f:7c:fb:8e:9a:93:80:30:b8:43:a6:70:
                    13:a9:0b:fb:0c:f7:02:6d:4e:75:db:4a:19:9c:4a:
                    29:c3:e8:58:ba:7b:39:66:4e:d0:04:d6:e4:4c:73:
                    0b:9b:c1:e2:c5:fa:e7:4d:19:c6:e3:ec:ae:13:23:
                    54:ab:12:42:d0:fc:ef:10:5c:8b:2c:c7:00:b8:35:
                    ad:d8:f6:af:cc:9d:6f:19:1c:20:f9:14:f3:1e:69:
                    ce:85:c0:3d:2d:25:6d:79:01:1c:89:fb:2b:f6:2a:
                    c7:ea:89:3f:b8:6a:c5:20:60:79:cd:c5:3d:2f:d4:
                    57:54:63:04:69:fc:fa:0c:a6:23:ee:e4:6e:e3:e2:
                    60:ac:91:01:a2:64:a4:f5:44:8a:7c:90:f3:b7:69:
                    31:14:0e:53:f5:81:08:0b:50:0d:1c:43:f6:92:59:
                    a5:fa:3a:98:72:38:c7:5f:e1:4e:a8:54:64:a9:d4:
                    93:0e:e9:27:88:4a:b9:98:ba:aa:c8:31:0d:dc:fb:
                    70:0d:06:63:1b:d0:ee:61:2f:9b:cf:18:d5:74:bc:
                    53:63:b9:0d:0d:b9:f2:bc:6d:b2:c3:3d:0b:4c:84:
                    09:28:9e:80:94:74:58:b7:af:97:9b:55:ed:a5:c7:
                    c5:79:f9:df:a0:6d:ca:40:c0:a5:dc:09:c4:cd:ed:
                    39:1b
                Exponent: 65537 (0x10001)
        X509v3 extensions:
            X509v3 Subject Key Identifier: 
                44:81:49:A3:5B:7C:85:F2:A7:56:19:FF:64:98:AB:61:89:3E:E1:B7
            X509v3 Authority Key Identifier: 
                keyid:EE:A0:C0:54:B5:84:89:28:80:79:49:CE:D0:A9:C6:8B:B9:8E:85:20
                DirName:/C=US/ST=California/L=Santa Clara/O=pkg5/CN=ch2_ta1/emailAddress=ch2_ta1
                serial:03

            X509v3 Basic Constraints: critical
                CA:TRUE, pathlen:1
            X509v3 Key Usage: critical
                Certificate Sign, CRL Sign
    Signature Algorithm: sha256WithRSAEncryption
         36:66:82:04:35:26:cc:ce:07:00:e7:19:db:4e:05:22:af:98:
         9f:8f:88:84:1b:75:57:3b:f7:0f:2a:da:ae:fe:36:e4:35:a9:
         ff:57:7a:3f:4a:ec:71:ba:c6:4a:b5:6a:c7:e3:46:27:52:5b:
         d0:dd:a3:c4:3a:78:8b:ac:21:5c:2a:68:71:ec:d8:cb:0f:f3:
         35:07:82:53:3c:01:1b:69:34:cb:2a:85:3b:da:f1:b7:11:fe:
         ec:12:3a:a2:c8:b1:80:fd:bd:40:b1:f2:b2:ed:1b:b3:83:87:
         60:12:21:b9:e1:3a:ff:4a:3c:d0:6e:b5:07:4c:a8:db:e8:f4:
         81:50:14:3c:4b:09:3a:fe:85:88:1a:72:d6:3c:2a:e2:67:c4:
         51:cb:21:7e:22:78:30:34:dc:e9:41:fe:15:f5:cc:fc:85:64:
         de:8f:89:c3:de:de:56:bb:a8:7f:4f:8c:98:27:e5:de:d0:4c:
         13:f5:56:d9:7b:18:d4:09:21:99:6e:cd:27:c2:0f:e2:45:58:
         a9:b1:b9:89:92:58:dd:94:a6:be:c5:3f:99:86:ca:15:74:00:
         63:85:3f:ce:2a:d6:6d:04:03:91:c8:1f:de:dd:cc:0b:49:c3:
         ea:76:e3:2f:87:4d:2e:75:86:ea:19:49:0f:a2:78:e5:7d:bb:
         ef:bf:1c:b2
-----BEGIN CERTIFICATE-----
MIIEQjCCAyqgAwIBAgIBBDANBgkqhkiG9w0BAQsFADBxMQswCQYDVQQGEwJVUzET
MBEGA1UECAwKQ2FsaWZvcm5pYTEUMBIGA1UEBwwLU2FudGEgQ2xhcmExDTALBgNV
BAoMBHBrZzUxEDAOBgNVBAMMB2NoM190YTExFjAUBgkqhkiG9w0BCQEWB2NoM190
YTEwHhcNMTYwMTIyMDE1NzU0WhcNMTgxMDE4MDE1NzU0WjBxMQswCQYDVQQGEwJV
UzETMBEGA1UECAwKQ2FsaWZvcm5pYTEUMBIGA1UEBwwLU2FudGEgQ2xhcmExDTAL
BgNVBAoMBHBrZzUxEDAOBgNVBAMMB2NoNF90YTExFjAUBgkqhkiG9w0BCQEWB2No
NF90YTEwggEiMA0GCSqGSIb3DQEBAQUAA4IBDwAwggEKAoIBAQDwvp98+46ak4Aw
uEOmcBOpC/sM9wJtTnXbShmcSinD6Fi6ezlmTtAE1uRMcwubweLF+udNGcbj7K4T
I1SrEkLQ/O8QXIssxwC4Na3Y9q/MnW8ZHCD5FPMeac6FwD0tJW15ARyJ+yv2Ksfq
iT+4asUgYHnNxT0v1FdUYwRp/PoMpiPu5G7j4mCskQGiZKT1RIp8kPO3aTEUDlP1
gQgLUA0cQ/aSWaX6OphyOMdf4U6oVGSp1JMO6SeISrmYuqrIMQ3c+3ANBmMb0O5h
L5vPGNV0vFNjuQ0NufK8bbLDPQtMhAkonoCUdFi3r5ebVe2lx8V5+d+gbcpAwKXc
CcTN7TkbAgMBAAGjgeQwgeEwHQYDVR0OBBYEFESBSaNbfIXyp1YZ/2SYq2GJPuG3
MIGbBgNVHSMEgZMwgZCAFO6gwFS1hIkogHlJztCpxou5joUgoXWkczBxMQswCQYD
VQQGEwJVUzETMBEGA1UECAwKQ2FsaWZvcm5pYTEUMBIGA1UEBwwLU2FudGEgQ2xh
cmExDTALBgNVBAoMBHBrZzUxEDAOBgNVBAMMB2NoMl90YTExFjAUBgkqhkiG9w0B
CQEWB2NoMl90YTGCAQMwEgYDVR0TAQH/BAgwBgEB/wIBATAOBgNVHQ8BAf8EBAMC
AQYwDQYJKoZIhvcNAQELBQADggEBADZmggQ1JszOBwDnGdtOBSKvmJ+PiIQbdVc7
9w8q2q7+NuQ1qf9Xej9K7HG6xkq1asfjRidSW9Ddo8Q6eIusIVwqaHHs2MsP8zUH
glM8ARtpNMsqhTva8bcR/uwSOqLIsYD9vUCx8rLtG7ODh2ASIbnhOv9KPNButQdM
qNvo9IFQFDxLCTr+hYgactY8KuJnxFHLIX4ieDA03OlB/hX1zPyFZN6PicPe3la7
qH9PjJgn5d7QTBP1Vtl7GNQJIZluzSfCD+JFWKmxuYmSWN2Upr7FP5mGyhV0AGOF
P84q1m0EA5HIH97dzAtJw+p24y+HTS51huoZSQ+ieOV9u++/HLI=
-----END CERTIFICATE-----
