Certificate:
    Data:
        Version: 3 (0x2)
        Serial Number: 4 (0x4)
        Signature Algorithm: sha256WithRSAEncryption
        Issuer: C=US, ST=California, L=Santa Clara, O=pkg5, CN=ch3_ta1/emailAddress=ch3_ta1
        Validity
            Not Before: Mar 18 08:51:28 2026 GMT
            Not After : Dec 12 08:51:28 2028 GMT
        Subject: C=US, ST=California, L=Santa Clara, O=pkg5, CN=ch4_ta1/emailAddress=ch4_ta1
        Subject Public Key Info:
            Public Key Algorithm: rsaEncryption
                Public-Key: (2048 bit)
                Modulus:
                    00:ae:38:52:f2:9c:62:0f:27:71:c3:1c:7d:db:53:
                    be:4f:b0:2e:0a:15:02:16:f7:f4:5e:f9:50:66:d1:
                    12:f6:94:d0:f1:36:7f:4e:0e:b7:f9:19:2a:6f:a2:
                    f2:cd:2f:69:f0:79:11:44:12:22:4f:c2:6d:26:30:
                    a8:a4:ff:d9:79:0b:cf:7f:dc:ad:a0:89:96:c6:a0:
                    9a:63:99:ef:1f:64:f1:04:9a:0e:ea:9d:80:bf:e9:
                    92:13:48:8a:62:13:17:29:96:04:54:88:da:cf:bc:
                    fa:b2:93:0b:bb:44:18:b7:4f:f3:ab:50:9b:21:e5:
                    4e:98:2d:3d:46:59:4f:cb:c3:f8:41:59:07:02:89:
                    23:cf:e7:b8:09:33:27:f9:f9:dd:ca:1c:bc:f5:ad:
                    c0:a7:21:5e:5a:f3:f3:42:58:bf:39:ed:be:d6:b4:
                    23:86:0b:21:37:97:29:41:a5:2c:eb:15:bc:80:6b:
                    3e:ac:74:53:dc:ec:09:f0:87:4b:8c:f7:9b:22:5a:
                    98:a4:f1:56:05:a9:6c:33:76:a6:0e:e8:42:29:9b:
                    9e:97:f0:a4:0e:4a:04:39:6c:63:73:4c:47:9d:8f:
                    f4:0c:fc:df:79:f9:c9:cb:b5:1f:d8:5c:a0:a7:ec:
                    49:d1:22:90:c5:7a:4f:b8:24:9d:2b:77:08:96:48:
                    29:dd
                Exponent: 65537 (0x10001)
        X509v3 extensions:
            X509v3 Subject Key Identifier: 
                A3:E7:B4:93:63:FC:8B:D9:F1:90:92:08:59:71:75:EF:49:BC:AF:D3
            X509v3 Authority Key Identifier: 
                keyid:EA:1C:EA:16:62:A0:0F:DF:0D:F2:AD:36:C7:D0:58:9C:77:DC:5F:54
                DirName:/C=US/ST=California/L=Santa Clara/O=pkg5/CN=ch2_ta1/emailAddress=ch2_ta1
                serial:03
            X509v3 Basic Constraints: critical
                CA:TRUE, pathlen:1
            X509v3 Key Usage: critical
                Certificate Sign, CRL Sign
    Signature Algorithm: sha256WithRSAEncryption
    Signature Value:
        40:6d:35:2c:33:7d:5b:58:cd:be:d4:fc:4f:31:45:75:f1:80:
        fd:f4:68:9b:3d:fe:9a:8a:29:ab:66:f4:37:2c:4b:56:91:07:
        61:8e:00:83:87:db:48:2e:8e:7b:c7:56:1d:92:6c:28:3c:0c:
        4b:f1:f4:0a:f1:84:ae:5c:d3:e7:54:7b:c0:83:e4:e6:05:2f:
        5b:70:16:49:a9:17:b8:7b:b2:d1:61:07:7f:a2:5d:e8:9d:87:
        71:91:b3:5f:6e:fe:ae:cf:12:b3:da:04:5a:7a:7c:b1:62:52:
        27:87:7e:86:23:0e:68:c7:28:fc:9a:fa:91:0d:7e:55:a8:5b:
        4e:88:5b:25:01:1f:28:0e:a2:ec:f4:0c:fa:11:d8:be:2c:7c:
        d7:d9:64:b7:23:c0:ad:eb:e1:36:e4:de:3b:2f:93:ef:53:8d:
        52:e1:b2:60:fc:ae:3e:7b:c0:ef:f4:2b:30:ac:fb:5f:84:d1:
        a0:56:18:68:2c:3c:c5:32:49:35:0e:cd:73:e4:84:93:89:23:
        8d:68:21:67:ae:20:89:77:00:ac:9b:83:59:66:da:db:84:48:
        3e:4c:4e:dc:2c:4b:2d:4e:91:fb:5d:6f:dd:f2:28:1b:fd:1b:
        66:75:1c:61:b0:90:3a:30:94:1d:e1:96:c2:da:0a:4a:a3:ef:
        a1:0d:dc:c2
-----BEGIN CERTIFICATE-----
MIIEQjCCAyqgAwIBAgIBBDANBgkqhkiG9w0BAQsFADBxMQswCQYDVQQGEwJVUzET
MBEGA1UECAwKQ2FsaWZvcm5pYTEUMBIGA1UEBwwLU2FudGEgQ2xhcmExDTALBgNV
BAoMBHBrZzUxEDAOBgNVBAMMB2NoM190YTExFjAUBgkqhkiG9w0BCQEWB2NoM190
YTEwHhcNMjYwMzE4MDg1MTI4WhcNMjgxMjEyMDg1MTI4WjBxMQswCQYDVQQGEwJV
UzETMBEGA1UECAwKQ2FsaWZvcm5pYTEUMBIGA1UEBwwLU2FudGEgQ2xhcmExDTAL
BgNVBAoMBHBrZzUxEDAOBgNVBAMMB2NoNF90YTExFjAUBgkqhkiG9w0BCQEWB2No
NF90YTEwggEiMA0GCSqGSIb3DQEBAQUAA4IBDwAwggEKAoIBAQCuOFLynGIPJ3HD
HH3bU75PsC4KFQIW9/Re+VBm0RL2lNDxNn9ODrf5GSpvovLNL2nweRFEEiJPwm0m
MKik/9l5C89/3K2giZbGoJpjme8fZPEEmg7qnYC/6ZITSIpiExcplgRUiNrPvPqy
kwu7RBi3T/OrUJsh5U6YLT1GWU/Lw/hBWQcCiSPP57gJMyf5+d3KHLz1rcCnIV5a
8/NCWL857b7WtCOGCyE3lylBpSzrFbyAaz6sdFPc7Anwh0uM95siWpik8VYFqWwz
dqYO6EIpm56X8KQOSgQ5bGNzTEedj/QM/N95+cnLtR/YXKCn7EnRIpDFek+4JJ0r
dwiWSCndAgMBAAGjgeQwgeEwHQYDVR0OBBYEFKPntJNj/IvZ8ZCSCFlxde9JvK/T
MIGbBgNVHSMEgZMwgZCAFOoc6hZioA/fDfKtNsfQWJx33F9UoXWkczBxMQswCQYD
VQQGEwJVUzETMBEGA1UECAwKQ2FsaWZvcm5pYTEUMBIGA1UEBwwLU2FudGEgQ2xh
cmExDTALBgNVBAoMBHBrZzUxEDAOBgNVBAMMB2NoMl90YTExFjAUBgkqhkiG9w0B
CQEWB2NoMl90YTGCAQMwEgYDVR0TAQH/BAgwBgEB/wIBATAOBgNVHQ8BAf8EBAMC
AQYwDQYJKoZIhvcNAQELBQADggEBAEBtNSwzfVtYzb7U/E8xRXXxgP30aJs9/pqK
Katm9DcsS1aRB2GOAIOH20gujnvHVh2SbCg8DEvx9ArxhK5c0+dUe8CD5OYFL1tw
FkmpF7h7stFhB3+iXeidh3GRs19u/q7PErPaBFp6fLFiUieHfoYjDmjHKPya+pEN
flWoW06IWyUBHygOouz0DPoR2L4sfNfZZLcjwK3r4Tbk3jsvk+9TjVLhsmD8rj57
wO/0KzCs+1+E0aBWGGgsPMUySTUOzXPkhJOJI41oIWeuIIl3AKybg1lm2tuESD5M
TtwsSy1Okftdb93yKBv9G2Z1HGGwkDowlB3hlsLaCkqj76EN3MI=
-----END CERTIFICATE-----
