Certificate:
    Data:
        Version: 3 (0x2)
        Serial Number: 4 (0x4)
    Signature Algorithm: sha256WithRSAEncryption
        Issuer: C=US, ST=California, L=Santa Clara, O=pkg5, CN=ch3_ta1/emailAddress=ch3_ta1
        Validity
            Not Before: Jan 22 15:33:07 2019 GMT
            Not After : Oct 18 15:33:07 2021 GMT
        Subject: C=US, ST=California, L=Santa Clara, O=pkg5, CN=ch4_ta1/emailAddress=ch4_ta1
        Subject Public Key Info:
            Public Key Algorithm: rsaEncryption
                Public-Key: (2048 bit)
                Modulus:
                    00:c2:52:db:c0:94:be:70:95:9a:fa:6c:5b:a2:8d:
                    c5:b9:de:61:84:c3:04:a3:ec:98:b1:a1:c9:88:61:
                    3a:66:ea:18:25:bb:ad:57:1d:8f:9d:5a:d1:1d:32:
                    bb:d7:84:e1:ed:3d:ec:a1:b8:30:8b:05:a8:f6:33:
                    75:37:3d:39:fd:ee:ff:c3:0f:cb:91:a2:66:a1:5a:
                    5d:a7:48:dd:50:d9:28:d6:06:88:e0:34:59:95:1d:
                    f5:fa:95:7d:3e:8f:3c:a4:13:e5:21:58:62:e2:3e:
                    bf:2c:2b:00:41:ce:78:d3:21:77:7a:26:57:cb:95:
                    8b:1e:c3:94:34:55:12:56:37:2d:86:4d:e4:27:a3:
                    03:95:fa:05:8b:b9:f0:3a:0d:c9:37:6f:bf:77:71:
                    96:0d:b4:40:2f:fd:54:b3:78:49:44:a8:03:4a:9a:
                    65:fc:33:8e:4f:83:44:f7:5e:3b:2d:0d:88:e1:94:
                    23:5c:b2:c2:5f:b5:5c:9c:89:ad:c0:bd:cf:a0:31:
                    28:00:67:db:ab:fc:18:ad:ab:9f:11:35:2d:37:1a:
                    96:10:a1:45:9a:6e:fc:14:89:9f:29:23:9f:ee:dd:
                    18:37:d2:f5:f3:78:2a:7a:3a:f6:d6:88:2b:7b:94:
                    5f:eb:73:1f:a1:73:c6:4e:b2:25:17:da:7e:6b:c7:
                    76:65
                Exponent: 65537 (0x10001)
        X509v3 extensions:
            X509v3 Subject Key Identifier: 
                18:2C:1D:85:10:D5:B5:BF:CB:44:61:84:3F:8D:AE:8B:92:3A:70:32
            X509v3 Authority Key Identifier: 
                keyid:F9:CE:F4:31:FC:D0:82:64:C6:A0:49:67:DE:27:37:68:55:00:6F:DB
                DirName:/C=US/ST=California/L=Santa Clara/O=pkg5/CN=ch2_ta1/emailAddress=ch2_ta1
                serial:03

            X509v3 Basic Constraints: critical
                CA:TRUE, pathlen:1
            X509v3 Key Usage: critical
                Certificate Sign, CRL Sign
    Signature Algorithm: sha256WithRSAEncryption
         9a:73:e8:16:d8:d4:ac:5a:ef:94:be:ea:21:64:b9:2e:52:b8:
         c0:dd:16:6d:eb:bc:4e:b5:bd:22:68:df:98:40:6c:f4:e0:7e:
         02:8a:6c:b1:31:9d:95:47:9f:ef:a4:54:fa:05:30:b1:bc:55:
         78:77:ab:10:37:c4:74:52:cd:c9:5b:ae:02:3d:8d:02:a5:44:
         ae:17:8e:eb:4d:4d:bc:cc:42:ff:87:69:cd:53:0f:30:0f:a3:
         f6:ec:b1:1d:38:15:58:63:40:aa:c2:dd:ae:ae:34:29:a9:74:
         f3:b4:da:7b:21:42:48:5b:3a:60:53:a0:75:cf:ae:32:7b:e7:
         88:23:dd:0f:b0:14:e4:a8:43:da:f6:fd:5a:4e:59:d8:a7:8b:
         e5:48:97:f4:4a:90:88:85:55:ee:c5:3f:6a:56:77:25:50:0e:
         49:c8:45:0b:76:9f:a2:52:24:ee:44:63:11:2d:c6:33:58:03:
         33:6a:33:e7:16:2e:48:4d:03:81:f4:13:57:e5:49:36:7c:f6:
         1a:54:f1:b2:4b:60:4c:f8:e6:95:bb:51:ad:26:59:2f:96:43:
         82:df:0b:5d:d6:d1:da:3a:26:f7:5c:38:29:3e:3b:2b:7e:bb:
         b3:5d:b7:08:a7:8b:9f:2f:6e:72:23:02:ae:e1:18:94:df:4c:
         72:10:04:bb
-----BEGIN CERTIFICATE-----
MIIEQjCCAyqgAwIBAgIBBDANBgkqhkiG9w0BAQsFADBxMQswCQYDVQQGEwJVUzET
MBEGA1UECAwKQ2FsaWZvcm5pYTEUMBIGA1UEBwwLU2FudGEgQ2xhcmExDTALBgNV
BAoMBHBrZzUxEDAOBgNVBAMMB2NoM190YTExFjAUBgkqhkiG9w0BCQEWB2NoM190
YTEwHhcNMTkwMTIyMTUzMzA3WhcNMjExMDE4MTUzMzA3WjBxMQswCQYDVQQGEwJV
UzETMBEGA1UECAwKQ2FsaWZvcm5pYTEUMBIGA1UEBwwLU2FudGEgQ2xhcmExDTAL
BgNVBAoMBHBrZzUxEDAOBgNVBAMMB2NoNF90YTExFjAUBgkqhkiG9w0BCQEWB2No
NF90YTEwggEiMA0GCSqGSIb3DQEBAQUAA4IBDwAwggEKAoIBAQDCUtvAlL5wlZr6
bFuijcW53mGEwwSj7JixocmIYTpm6hglu61XHY+dWtEdMrvXhOHtPeyhuDCLBaj2
M3U3PTn97v/DD8uRomahWl2nSN1Q2SjWBojgNFmVHfX6lX0+jzykE+UhWGLiPr8s
KwBBznjTIXd6JlfLlYsew5Q0VRJWNy2GTeQnowOV+gWLufA6Dck3b793cZYNtEAv
/VSzeElEqANKmmX8M45Pg0T3XjstDYjhlCNcssJftVycia3Avc+gMSgAZ9ur/Bit
q58RNS03GpYQoUWabvwUiZ8pI5/u3Rg30vXzeCp6OvbWiCt7lF/rcx+hc8ZOsiUX
2n5rx3ZlAgMBAAGjgeQwgeEwHQYDVR0OBBYEFBgsHYUQ1bW/y0RhhD+NrouSOnAy
MIGbBgNVHSMEgZMwgZCAFPnO9DH80IJkxqBJZ94nN2hVAG/boXWkczBxMQswCQYD
VQQGEwJVUzETMBEGA1UECAwKQ2FsaWZvcm5pYTEUMBIGA1UEBwwLU2FudGEgQ2xh
cmExDTALBgNVBAoMBHBrZzUxEDAOBgNVBAMMB2NoMl90YTExFjAUBgkqhkiG9w0B
CQEWB2NoMl90YTGCAQMwEgYDVR0TAQH/BAgwBgEB/wIBATAOBgNVHQ8BAf8EBAMC
AQYwDQYJKoZIhvcNAQELBQADggEBAJpz6BbY1Kxa75S+6iFkuS5SuMDdFm3rvE61
vSJo35hAbPTgfgKKbLExnZVHn++kVPoFMLG8VXh3qxA3xHRSzclbrgI9jQKlRK4X
jutNTbzMQv+Hac1TDzAPo/bssR04FVhjQKrC3a6uNCmpdPO02nshQkhbOmBToHXP
rjJ754gj3Q+wFOSoQ9r2/VpOWdini+VIl/RKkIiFVe7FP2pWdyVQDknIRQt2n6JS
JO5EYxEtxjNYAzNqM+cWLkhNA4H0E1flSTZ89hpU8bJLYEz45pW7Ua0mWS+WQ4Lf
C13W0do6JvdcOCk+Oyt+u7Ndtwini58vbnIjAq7hGJTfTHIQBLs=
-----END CERTIFICATE-----
