Certificate:
    Data:
        Version: 3 (0x2)
        Serial Number: 4 (0x4)
        Signature Algorithm: sha256WithRSAEncryption
        Issuer: C=US, ST=California, L=Menlo Park, O=pkg5, CN=ch3_ta1/emailAddress=ch3_ta1
        Validity
            Not Before: Mar 21 00:49:23 2011 GMT
            Not After : Dec 15 00:49:23 2013 GMT
        Subject: C=US, ST=California, L=Menlo Park, O=pkg5, CN=ch4_ta1/emailAddress=ch4_ta1
        Subject Public Key Info:
            Public Key Algorithm: rsaEncryption
            RSA Public Key: (1024 bit)
                Modulus (1024 bit):
                    00:bc:b0:1a:27:f4:c4:84:a7:3e:96:d8:95:a1:35:
                    16:b8:82:cc:de:c1:b5:3e:66:0d:0e:cd:3f:5f:38:
                    f1:aa:ae:0b:63:56:87:52:e5:b0:b0:6e:6b:fb:47:
                    97:03:db:50:04:25:d8:f9:75:9b:81:4f:d9:99:bd:
                    53:47:0a:97:7c:d4:02:40:b8:92:5d:77:d2:2d:64:
                    88:f7:a9:dc:c2:ba:96:f0:74:fa:61:53:9e:a6:84:
                    97:ed:97:49:08:36:29:d5:2c:f4:05:d3:81:e2:f8:
                    7f:f0:05:96:05:29:b0:2f:29:66:6d:32:3d:1e:b7:
                    79:b5:67:e7:34:4b:00:79:47
                Exponent: 65537 (0x10001)
        X509v3 extensions:
            X509v3 Subject Key Identifier: 
                52:80:D6:40:50:47:FD:82:5A:83:A4:24:CE:3E:DC:C7:E1:6F:56:00
            X509v3 Authority Key Identifier: 
                keyid:9D:49:C0:40:BE:F9:2D:9D:38:CF:BB:7C:6C:33:70:E3:13:2C:F9:05
                DirName:/C=US/ST=California/L=Menlo Park/O=pkg5/CN=ch2_ta1/emailAddress=ch2_ta1
                serial:03

            X509v3 Basic Constraints: critical
                CA:TRUE, pathlen:1
            X509v3 Key Usage: critical
                Certificate Sign, CRL Sign
    Signature Algorithm: sha256WithRSAEncryption
        65:cf:99:2f:0c:5c:87:4b:5c:8e:19:82:57:a8:a2:f9:51:a0:
        89:24:0b:6e:ca:8b:68:4c:1f:28:ee:8d:95:44:9d:23:52:76:
        6d:90:cb:7f:ab:0a:46:87:0c:69:94:41:4b:2e:04:ef:e9:72:
        f4:17:ab:6f:86:76:dd:19:e3:65:cb:df:31:e5:2b:10:fb:04:
        6e:b8:60:e4:59:98:09:2b:13:31:2f:8d:c6:28:24:1f:39:ae:
        2e:39:8c:8f:8f:d1:0c:6b:cd:be:db:16:c9:8d:aa:f0:94:c5:
        da:cd:85:08:fc:02:2b:f2:6e:e4:d6:9a:ef:55:0c:c2:d0:ba:
        c0:27
-----BEGIN CERTIFICATE-----
MIIDOjCCAqOgAwIBAgIBBDANBgkqhkiG9w0BAQsFADBwMQswCQYDVQQGEwJVUzET
MBEGA1UECBMKQ2FsaWZvcm5pYTETMBEGA1UEBxMKTWVubG8gUGFyazENMAsGA1UE
ChMEcGtnNTEQMA4GA1UEAxQHY2gzX3RhMTEWMBQGCSqGSIb3DQEJARYHY2gzX3Rh
MTAeFw0xMTAzMjEwMDQ5MjNaFw0xMzEyMTUwMDQ5MjNaMHAxCzAJBgNVBAYTAlVT
MRMwEQYDVQQIEwpDYWxpZm9ybmlhMRMwEQYDVQQHEwpNZW5sbyBQYXJrMQ0wCwYD
VQQKEwRwa2c1MRAwDgYDVQQDFAdjaDRfdGExMRYwFAYJKoZIhvcNAQkBFgdjaDRf
dGExMIGfMA0GCSqGSIb3DQEBAQUAA4GNADCBiQKBgQC8sBon9MSEpz6W2JWhNRa4
gszewbU+Zg0OzT9fOPGqrgtjVodS5bCwbmv7R5cD21AEJdj5dZuBT9mZvVNHCpd8
1AJAuJJdd9ItZIj3qdzCupbwdPphU56mhJftl0kINinVLPQF04Hi+H/wBZYFKbAv
KWZtMj0et3m1Z+c0SwB5RwIDAQABo4HjMIHgMB0GA1UdDgQWBBRSgNZAUEf9glqD
pCTOPtzH4W9WADCBmgYDVR0jBIGSMIGPgBSdScBAvvktnTjPu3xsM3DjEyz5BaF0
pHIwcDELMAkGA1UEBhMCVVMxEzARBgNVBAgTCkNhbGlmb3JuaWExEzARBgNVBAcT
Ck1lbmxvIFBhcmsxDTALBgNVBAoTBHBrZzUxEDAOBgNVBAMUB2NoMl90YTExFjAU
BgkqhkiG9w0BCQEWB2NoMl90YTGCAQMwEgYDVR0TAQH/BAgwBgEB/wIBATAOBgNV
HQ8BAf8EBAMCAQYwDQYJKoZIhvcNAQELBQADgYEAZc+ZLwxch0tcjhmCV6ii+VGg
iSQLbsqLaEwfKO6NlUSdI1J2bZDLf6sKRocMaZRBSy4E7+ly9Berb4Z23RnjZcvf
MeUrEPsEbrhg5FmYCSsTMS+NxigkHzmuLjmMj4/RDGvNvtsWyY2q8JTF2s2FCPwC
K/Ju5Naa71UMwtC6wCc=
-----END CERTIFICATE-----
