Certificate:
    Data:
        Version: 3 (0x2)
        Serial Number: 13 (0xd)
    Signature Algorithm: sha256WithRSAEncryption
        Issuer: C=US, ST=California, L=Santa Clara, O=pkg5, CN=ch4.3_ta1/emailAddress=ch4.3_ta1
        Validity
            Not Before: Jan 22 01:57:55 2016 GMT
            Not After : Oct 18 01:57:55 2018 GMT
        Subject: C=US, ST=California, L=Santa Clara, O=pkg5, CN=ch5.3_ta1/emailAddress=ch5.3_ta1
        Subject Public Key Info:
            Public Key Algorithm: rsaEncryption
                Public-Key: (2048 bit)
                Modulus:
                    00:c1:91:a3:1f:3a:14:29:24:3c:d6:fa:ad:16:b9:
                    a4:c4:df:4a:04:c9:d6:01:16:03:54:de:36:4a:db:
                    69:1c:b1:c0:f9:ee:64:3d:f3:63:5f:de:fd:4f:91:
                    95:c4:86:99:07:d6:f3:3d:80:7e:5a:ef:16:84:05:
                    d5:66:f7:ee:f8:e1:6b:d9:eb:78:1d:10:5e:85:28:
                    6f:80:97:90:1f:cb:52:36:1d:c6:2a:30:f6:64:63:
                    4f:3a:9f:b1:e3:36:98:92:62:df:d3:ec:6e:99:dd:
                    37:16:e1:92:24:18:e2:53:e9:8c:38:84:50:c7:8d:
                    3c:ae:21:b0:79:69:3b:f4:17:46:78:1b:d6:00:16:
                    9a:46:61:e6:78:2d:75:2d:eb:d9:e0:93:c7:50:b1:
                    43:a6:76:32:97:24:ea:98:8e:f0:08:31:9d:c7:81:
                    be:66:65:eb:30:fd:c2:98:f8:6d:64:e6:6b:7b:19:
                    e4:97:c3:31:20:8d:1a:f4:0c:4f:96:14:8b:64:cb:
                    f4:75:31:3b:cd:b8:27:d5:25:3e:a3:f7:73:db:b9:
                    ac:dd:e8:be:14:dc:2f:ca:e5:f6:f6:8d:c1:83:60:
                    72:45:1d:e9:cd:e9:d5:a4:67:1c:df:56:3b:00:3b:
                    fd:7a:3f:fc:78:ad:47:b0:53:ca:7d:17:57:fe:4c:
                    de:cb
                Exponent: 65537 (0x10001)
        X509v3 extensions:
            X509v3 Subject Key Identifier: 
                E3:AC:5A:33:E4:E3:9B:18:66:7B:0F:13:2A:89:91:5E:64:42:D3:05
            X509v3 Authority Key Identifier: 
                keyid:CA:50:20:B6:70:62:DE:6B:28:77:63:00:64:FE:D0:58:9E:50:16:24
                DirName:/C=US/ST=California/L=Santa Clara/O=pkg5/CN=ch3_ta1/emailAddress=ch3_ta1
                serial:0C

            X509v3 Basic Constraints: critical
                CA:TRUE, pathlen:0
            X509v3 Key Usage: critical
                Certificate Sign, CRL Sign
    Signature Algorithm: sha256WithRSAEncryption
         1c:ac:db:1d:7e:66:ab:bd:02:09:67:5b:cf:c3:d4:2f:04:48:
         63:3f:80:02:74:80:d9:77:a5:25:eb:c3:08:74:10:48:2d:8d:
         b4:7b:1a:fb:66:ea:fe:bf:4d:19:7c:42:54:e2:6e:65:19:59:
         60:3d:bf:ea:79:d3:c3:cd:3a:f7:4b:ac:31:fc:6f:40:25:2e:
         41:eb:7b:54:36:78:f4:73:cb:7b:73:fa:d0:28:ca:65:a1:be:
         b4:7c:c6:17:8b:d9:b1:5e:e5:ab:00:29:fc:78:bf:32:09:51:
         41:fe:4c:ec:df:50:76:73:9e:b6:b3:9a:8a:ca:4d:0c:59:7c:
         41:76:7b:5b:77:cd:71:74:ca:88:1a:0f:dc:20:62:be:dc:6a:
         f9:d5:5f:26:7b:f5:6a:ed:22:9f:01:66:04:9e:45:71:37:da:
         53:3a:4a:76:93:86:49:3b:6e:8e:87:dd:6a:28:0f:cc:fe:ce:
         7f:1d:91:8b:20:94:8f:4a:66:5a:ab:e2:e8:1e:41:f3:d6:6e:
         a1:4d:9c:c8:e6:57:cf:61:67:ab:bd:c7:39:f9:58:9a:18:05:
         44:80:49:44:ff:3e:4f:ca:e3:09:1c:d3:cb:4f:7a:8b:78:72:
         76:23:02:79:ef:70:8e:5f:f8:c2:ae:08:b0:b8:ba:84:39:37:
         73:30:90:e8
-----BEGIN CERTIFICATE-----
MIIESjCCAzKgAwIBAgIBDTANBgkqhkiG9w0BAQsFADB1MQswCQYDVQQGEwJVUzET
MBEGA1UECAwKQ2FsaWZvcm5pYTEUMBIGA1UEBwwLU2FudGEgQ2xhcmExDTALBgNV
BAoMBHBrZzUxEjAQBgNVBAMMCWNoNC4zX3RhMTEYMBYGCSqGSIb3DQEJARYJY2g0
LjNfdGExMB4XDTE2MDEyMjAxNTc1NVoXDTE4MTAxODAxNTc1NVowdTELMAkGA1UE
BhMCVVMxEzARBgNVBAgMCkNhbGlmb3JuaWExFDASBgNVBAcMC1NhbnRhIENsYXJh
MQ0wCwYDVQQKDARwa2c1MRIwEAYDVQQDDAljaDUuM190YTExGDAWBgkqhkiG9w0B
CQEWCWNoNS4zX3RhMTCCASIwDQYJKoZIhvcNAQEBBQADggEPADCCAQoCggEBAMGR
ox86FCkkPNb6rRa5pMTfSgTJ1gEWA1TeNkrbaRyxwPnuZD3zY1/e/U+RlcSGmQfW
8z2AflrvFoQF1Wb37vjha9nreB0QXoUob4CXkB/LUjYdxiow9mRjTzqfseM2mJJi
39PsbpndNxbhkiQY4lPpjDiEUMeNPK4hsHlpO/QXRngb1gAWmkZh5ngtdS3r2eCT
x1CxQ6Z2Mpck6piO8AgxnceBvmZl6zD9wpj4bWTma3sZ5JfDMSCNGvQMT5YUi2TL
9HUxO824J9UlPqP3c9u5rN3ovhTcL8rl9vaNwYNgckUd6c3p1aRnHN9WOwA7/Xo/
/HitR7BTyn0XV/5M3ssCAwEAAaOB5DCB4TAdBgNVHQ4EFgQU46xaM+Tjmxhmew8T
KomRXmRC0wUwgZsGA1UdIwSBkzCBkIAUylAgtnBi3msod2MAZP7QWJ5QFiShdaRz
MHExCzAJBgNVBAYTAlVTMRMwEQYDVQQIDApDYWxpZm9ybmlhMRQwEgYDVQQHDAtT
YW50YSBDbGFyYTENMAsGA1UECgwEcGtnNTEQMA4GA1UEAwwHY2gzX3RhMTEWMBQG
CSqGSIb3DQEJARYHY2gzX3RhMYIBDDASBgNVHRMBAf8ECDAGAQH/AgEAMA4GA1Ud
DwEB/wQEAwIBBjANBgkqhkiG9w0BAQsFAAOCAQEAHKzbHX5mq70CCWdbz8PULwRI
Yz+AAnSA2XelJevDCHQQSC2NtHsa+2bq/r9NGXxCVOJuZRlZYD2/6nnTw80690us
MfxvQCUuQet7VDZ49HPLe3P60CjKZaG+tHzGF4vZsV7lqwAp/Hi/MglRQf5M7N9Q
dnOetrOaispNDFl8QXZ7W3fNcXTKiBoP3CBivtxq+dVfJnv1au0inwFmBJ5FcTfa
UzpKdpOGSTtujofdaigPzP7Ofx2RiyCUj0pmWqvi6B5B89ZuoU2cyOZXz2Fnq73H
OflYmhgFRIBJRP8+T8rjCRzTy096i3hydiMCee9wjl/4wq4IsLi6hDk3czCQ6A==
-----END CERTIFICATE-----
