Certificate:
    Data:
        Version: 3 (0x2)
        Serial Number: 8 (0x8)
    Signature Algorithm: sha256WithRSAEncryption
        Issuer: C=US, ST=California, L=Santa Clara, O=pkg5, CN=ch4_ta1/emailAddress=ch4_ta1
        Validity
            Not Before: Jan 22 01:57:54 2016 GMT
            Not After : Oct 18 01:57:54 2018 GMT
        Subject: C=US, ST=California, L=Santa Clara, O=pkg5, CN=ch5.1_ta1/emailAddress=ch5.1_ta1
        Subject Public Key Info:
            Public Key Algorithm: rsaEncryption
                Public-Key: (2048 bit)
                Modulus:
                    00:f8:99:82:00:c1:73:68:ee:ab:3e:93:5c:b8:fa:
                    1c:2d:94:58:4a:a7:ab:b7:0b:d5:6e:02:b5:2f:b0:
                    e1:6c:c7:6f:aa:63:2d:1a:30:a3:2f:88:6d:21:be:
                    e1:36:23:e4:22:19:99:3a:1d:2a:9e:ec:a6:2c:a2:
                    5c:a1:26:96:70:22:80:04:0a:6b:c6:3f:b2:8c:ce:
                    6a:32:e0:ae:4f:43:73:9a:db:0e:9e:b7:e5:92:a0:
                    06:ac:48:a0:c8:fe:16:27:96:14:27:64:38:8a:78:
                    a3:20:60:d4:9b:ed:47:14:b9:08:6b:7a:4f:ba:dc:
                    db:c9:1c:c9:92:df:0a:37:01:7e:8e:1f:30:b0:fb:
                    35:32:41:2d:65:c9:3f:65:b1:20:e7:e4:8a:1d:e1:
                    10:b5:e8:57:14:59:bd:b8:2d:2b:d6:e8:7f:3c:c3:
                    e2:7c:c6:f7:d3:08:d6:75:06:c7:56:32:fe:80:8e:
                    f6:fd:c5:25:ac:49:c7:ad:1b:eb:de:aa:67:50:92:
                    a3:2c:e5:09:81:07:44:b5:cf:9b:16:10:29:f8:98:
                    05:3e:49:fc:e6:58:1f:93:b1:dd:82:67:e5:6b:dd:
                    50:2f:0f:a1:ec:5a:34:83:b9:33:9d:65:37:c3:a7:
                    03:e1:2a:56:48:3d:0f:d5:06:88:60:e6:3e:cb:ef:
                    98:27
                Exponent: 65537 (0x10001)
        X509v3 extensions:
            X509v3 Basic Constraints: critical
                CA:TRUE
            X509v3 Issuer Alternative Name: critical
                <EMPTY>

    Signature Algorithm: sha256WithRSAEncryption
         ed:1f:86:cd:a6:67:a8:48:fa:9a:c4:ad:a8:de:08:14:96:f5:
         16:44:e3:a1:b2:d5:06:6b:bb:0e:9d:f3:59:84:84:f1:a5:0d:
         f3:38:50:af:43:fe:91:c5:08:54:1d:2d:59:fd:1d:1b:bd:18:
         71:97:b3:d7:ba:21:f8:90:05:4d:9e:79:13:7a:12:40:0b:3d:
         97:00:ac:b1:fd:70:9b:e3:80:89:e6:8d:0f:07:56:15:e4:ed:
         99:9a:8b:85:27:a1:9c:c4:f9:19:8e:f1:d3:c3:76:0a:5d:51:
         a5:f9:2c:81:ef:76:c1:75:b9:50:96:2a:f0:65:9d:7e:aa:2f:
         16:30:8c:e6:82:83:67:cf:2d:53:89:f8:82:f1:c6:0d:a9:77:
         fe:3a:50:6b:34:1a:b4:f8:16:94:8b:59:4d:e1:d8:da:a9:5c:
         06:84:6b:23:0d:d0:d5:41:5d:02:ec:5a:c2:5a:a8:41:3e:fb:
         cf:42:76:c9:96:ed:c9:c6:16:50:5a:dc:ef:be:4c:a8:5b:f5:
         9f:fe:31:9c:c7:55:38:ac:a1:72:3b:4b:55:92:16:40:10:86:
         fe:40:99:ba:ee:b1:65:48:6f:34:75:bc:f0:af:c0:b6:be:81:
         8f:0f:41:7d:ba:b7:26:e7:9f:75:55:8b:94:95:b0:ef:23:fb:
         9b:5a:14:6b
-----BEGIN CERTIFICATE-----
MIIDgjCCAmqgAwIBAgIBCDANBgkqhkiG9w0BAQsFADBxMQswCQYDVQQGEwJVUzET
MBEGA1UECAwKQ2FsaWZvcm5pYTEUMBIGA1UEBwwLU2FudGEgQ2xhcmExDTALBgNV
BAoMBHBrZzUxEDAOBgNVBAMMB2NoNF90YTExFjAUBgkqhkiG9w0BCQEWB2NoNF90
YTEwHhcNMTYwMTIyMDE1NzU0WhcNMTgxMDE4MDE1NzU0WjB1MQswCQYDVQQGEwJV
UzETMBEGA1UECAwKQ2FsaWZvcm5pYTEUMBIGA1UEBwwLU2FudGEgQ2xhcmExDTAL
BgNVBAoMBHBrZzUxEjAQBgNVBAMMCWNoNS4xX3RhMTEYMBYGCSqGSIb3DQEJARYJ
Y2g1LjFfdGExMIIBIjANBgkqhkiG9w0BAQEFAAOCAQ8AMIIBCgKCAQEA+JmCAMFz
aO6rPpNcuPocLZRYSqertwvVbgK1L7DhbMdvqmMtGjCjL4htIb7hNiPkIhmZOh0q
nuymLKJcoSaWcCKABAprxj+yjM5qMuCuT0NzmtsOnrflkqAGrEigyP4WJ5YUJ2Q4
inijIGDUm+1HFLkIa3pPutzbyRzJkt8KNwF+jh8wsPs1MkEtZck/ZbEg5+SKHeEQ
tehXFFm9uC0r1uh/PMPifMb30wjWdQbHVjL+gI72/cUlrEnHrRvr3qpnUJKjLOUJ
gQdEtc+bFhAp+JgFPkn85lgfk7Hdgmfla91QLw+h7Fo0g7kznWU3w6cD4SpWSD0P
1QaIYOY+y++YJwIDAQABoyEwHzAPBgNVHRMBAf8EBTADAQH/MAwGA1UdEgEB/wQC
MAAwDQYJKoZIhvcNAQELBQADggEBAO0fhs2mZ6hI+prErajeCBSW9RZE46Gy1QZr
uw6d81mEhPGlDfM4UK9D/pHFCFQdLVn9HRu9GHGXs9e6IfiQBU2eeRN6EkALPZcA
rLH9cJvjgInmjQ8HVhXk7Zmai4UnoZzE+RmO8dPDdgpdUaX5LIHvdsF1uVCWKvBl
nX6qLxYwjOaCg2fPLVOJ+ILxxg2pd/46UGs0GrT4FpSLWU3h2NqpXAaEayMN0NVB
XQLsWsJaqEE++89CdsmW7cnGFlBa3O++TKhb9Z/+MZzHVTisoXI7S1WSFkAQhv5A
mbrusWVIbzR1vPCvwLa+gY8PQX26tybnn3VVi5SVsO8j+5taFGs=
-----END CERTIFICATE-----
