Certificate:
    Data:
        Version: 3 (0x2)
        Serial Number: 10 (0xa)
    Signature Algorithm: sha256WithRSAEncryption
        Issuer: C=US, ST=California, L=Santa Clara, O=pkg5, CN=ch4_ta1/emailAddress=ch4_ta1
        Validity
            Not Before: Dec 13 00:13:34 2013 GMT
            Not After : Sep  8 00:13:34 2016 GMT
        Subject: C=US, ST=California, L=Santa Clara, O=pkg5, CN=ch5.2_ta1/emailAddress=ch5.2_ta1
        Subject Public Key Info:
            Public Key Algorithm: rsaEncryption
                Public-Key: (1024 bit)
                Modulus:
                    00:a0:b5:e8:50:6e:0b:2e:be:8a:39:95:a1:f3:8f:
                    03:1c:da:d3:74:5c:9d:ed:34:54:5e:3f:ac:e2:91:
                    40:50:5e:d7:e3:bc:b1:8e:a6:62:d1:0b:33:e2:59:
                    d7:67:f1:b7:af:f9:61:37:b1:24:aa:6f:67:e0:4f:
                    ef:5d:a2:72:42:70:41:1e:32:e5:1a:94:4f:de:60:
                    6c:e7:e1:96:99:82:d0:35:f2:40:03:de:92:10:f3:
                    4f:91:e8:78:24:a1:ef:92:da:7b:49:4b:57:03:80:
                    57:d8:fc:41:60:8a:f0:e6:55:fe:67:55:5e:68:bf:
                    fe:fd:23:2b:ab:94:cb:12:c3
                Exponent: 65537 (0x10001)
        X509v3 extensions:
            X509v3 Subject Key Identifier: 
                A4:07:01:64:2E:FC:65:F5:BC:44:82:AB:87:E5:17:5F:91:F5:8A:DD
            X509v3 Authority Key Identifier: 
                keyid:54:8A:14:10:0B:AF:89:DC:1E:65:8A:17:37:6A:AC:D2:2B:6C:27:5C
                DirName:/C=US/ST=California/L=Santa Clara/O=pkg5/CN=ch3_ta1/emailAddress=ch3_ta1
                serial:04

            X509v3 Basic Constraints: critical
                CA:TRUE, pathlen:1
            X509v3 Key Usage: critical
                Certificate Sign, CRL Sign
    Signature Algorithm: sha256WithRSAEncryption
         04:21:55:e4:d4:f9:07:b1:55:dd:d3:6c:5e:17:f5:84:36:49:
         08:3f:96:1b:79:f6:1f:c8:aa:0a:e2:64:bd:90:e1:00:89:23:
         94:1c:d9:c8:7d:a6:5e:48:4f:e4:6a:9d:c1:2a:b9:6c:6b:ed:
         24:14:54:9f:87:bf:a1:d3:fd:73:39:eb:c4:88:85:7e:f5:35:
         91:3d:85:ad:9e:c5:1f:fc:f6:06:71:ce:3f:dc:12:e8:6c:a6:
         61:07:b8:d0:78:03:de:e6:be:e9:67:59:2f:70:24:c3:54:4e:
         b3:5c:6e:54:8e:04:c3:b6:f1:83:1b:8d:7f:e8:b7:5b:3d:b2:
         26:fe
-----BEGIN CERTIFICATE-----
MIIDQTCCAqqgAwIBAgIBCjANBgkqhkiG9w0BAQsFADBxMQswCQYDVQQGEwJVUzET
MBEGA1UECAwKQ2FsaWZvcm5pYTEUMBIGA1UEBwwLU2FudGEgQ2xhcmExDTALBgNV
BAoMBHBrZzUxEDAOBgNVBAMMB2NoNF90YTExFjAUBgkqhkiG9w0BCQEWB2NoNF90
YTEwHhcNMTMxMjEzMDAxMzM0WhcNMTYwOTA4MDAxMzM0WjB1MQswCQYDVQQGEwJV
UzETMBEGA1UECAwKQ2FsaWZvcm5pYTEUMBIGA1UEBwwLU2FudGEgQ2xhcmExDTAL
BgNVBAoMBHBrZzUxEjAQBgNVBAMMCWNoNS4yX3RhMTEYMBYGCSqGSIb3DQEJARYJ
Y2g1LjJfdGExMIGfMA0GCSqGSIb3DQEBAQUAA4GNADCBiQKBgQCgtehQbgsuvoo5
laHzjwMc2tN0XJ3tNFReP6zikUBQXtfjvLGOpmLRCzPiWddn8bev+WE3sSSqb2fg
T+9donJCcEEeMuUalE/eYGzn4ZaZgtA18kAD3pIQ80+R6Hgkoe+S2ntJS1cDgFfY
/EFgivDmVf5nVV5ov/79IyurlMsSwwIDAQABo4HkMIHhMB0GA1UdDgQWBBSkBwFk
Lvxl9bxEgquH5RdfkfWK3TCBmwYDVR0jBIGTMIGQgBRUihQQC6+J3B5lihc3aqzS
K2wnXKF1pHMwcTELMAkGA1UEBhMCVVMxEzARBgNVBAgMCkNhbGlmb3JuaWExFDAS
BgNVBAcMC1NhbnRhIENsYXJhMQ0wCwYDVQQKDARwa2c1MRAwDgYDVQQDDAdjaDNf
dGExMRYwFAYJKoZIhvcNAQkBFgdjaDNfdGExggEEMBIGA1UdEwEB/wQIMAYBAf8C
AQEwDgYDVR0PAQH/BAQDAgEGMA0GCSqGSIb3DQEBCwUAA4GBAAQhVeTU+QexVd3T
bF4X9YQ2SQg/lht59h/IqgriZL2Q4QCJI5Qc2ch9pl5IT+RqncEquWxr7SQUVJ+H
v6HT/XM568SIhX71NZE9ha2exR/89gZxzj/cEuhspmEHuNB4A97mvulnWS9wJMNU
TrNcblSOBMO28YMbjX/ot1s9sib+
-----END CERTIFICATE-----
