Certificate:
    Data:
        Version: 3 (0x2)
        Serial Number: 8 (0x8)
        Signature Algorithm: sha256WithRSAEncryption
        Issuer: C=US, ST=California, L=Santa Clara, O=pkg5, CN=ch4_ta1/emailAddress=ch4_ta1
        Validity
            Not Before: Mar 18 08:51:30 2026 GMT
            Not After : Dec 12 08:51:30 2028 GMT
        Subject: C=US, ST=California, L=Santa Clara, O=pkg5, CN=ch5.1_ta1/emailAddress=ch5.1_ta1
        Subject Public Key Info:
            Public Key Algorithm: rsaEncryption
                Public-Key: (2048 bit)
                Modulus:
                    00:be:d9:21:c4:8f:40:10:f2:3b:56:09:a5:46:cf:
                    ff:ae:b5:06:c3:11:69:ff:b4:94:06:79:32:d9:0d:
                    76:25:6e:ae:c8:9c:96:4b:ea:90:a1:12:4c:fd:b6:
                    47:f9:04:a5:75:ff:d5:ba:a1:c2:e2:54:62:8b:fa:
                    10:a4:2b:d7:4d:ce:1c:d2:d9:13:8a:90:99:45:e5:
                    fa:7f:f6:c1:a4:90:19:fd:19:07:85:d2:8b:f1:5a:
                    ce:21:91:fc:79:75:17:b1:47:79:2f:2b:57:93:4f:
                    04:bc:1c:50:c0:9e:bc:bc:7a:11:b5:72:bf:17:ea:
                    cf:09:66:45:ef:a4:d7:4d:1b:0f:ea:81:8f:58:be:
                    b6:13:9a:e6:ce:50:50:3a:00:36:10:ac:c9:1c:c4:
                    cb:84:6d:d4:d9:5a:be:26:87:d7:17:b3:9b:17:17:
                    e7:c5:57:a0:a2:88:f2:71:e7:ca:75:e0:d0:e3:05:
                    1e:8f:5f:4d:3f:04:97:48:03:41:24:ef:dd:78:91:
                    14:8f:3d:f9:12:85:ed:ff:ca:4c:1f:bc:f2:d1:0b:
                    68:84:67:14:46:14:48:95:c5:c2:ce:a1:ed:d9:5f:
                    6f:f1:12:e2:1b:f5:f3:61:dd:43:5a:33:89:c0:9b:
                    3f:5c:e6:d5:e3:b6:43:b9:7e:8c:6f:b2:ca:62:78:
                    9c:3b
                Exponent: 65537 (0x10001)
        X509v3 extensions:
            X509v3 Basic Constraints: critical
                CA:TRUE
            X509v3 Issuer Alternative Name: critical
                <EMPTY>

            X509v3 Subject Key Identifier: 
                58:F4:BA:E0:5D:BA:EE:84:F7:E5:42:C0:C4:FD:35:82:75:0B:B5:81
            X509v3 Authority Key Identifier: 
                A3:E7:B4:93:63:FC:8B:D9:F1:90:92:08:59:71:75:EF:49:BC:AF:D3
    Signature Algorithm: sha256WithRSAEncryption
    Signature Value:
        4b:26:a4:aa:2a:88:88:21:af:77:6f:85:0f:b0:32:80:f6:07:
        a1:d4:8d:5b:2a:6e:b3:74:d7:72:ca:d8:95:0b:26:4f:5b:65:
        fe:dc:51:2e:55:44:2b:e0:34:bb:86:ed:f6:57:28:1e:a4:d0:
        f1:a9:c2:b7:6d:95:42:9e:dd:77:9d:3d:94:05:be:3a:85:c3:
        6a:bf:b2:6f:23:3d:5c:e1:98:20:12:0d:74:76:6d:9d:a6:7e:
        e3:3d:71:25:6f:eb:2c:00:79:34:0f:a7:92:e2:29:06:73:44:
        ff:80:3d:9b:dd:af:03:b1:b3:e2:1d:e0:16:8d:b0:f3:01:61:
        35:bf:67:9e:2a:dd:d7:5b:f0:1f:69:f7:93:d3:e5:b0:96:63:
        06:e7:b6:26:4d:2b:11:5c:60:f0:cd:45:c3:77:75:e5:f7:0f:
        47:35:13:c4:d1:d4:dd:8e:08:52:b4:7f:7d:49:f6:84:51:9a:
        31:fa:e9:15:a3:53:93:97:ba:81:29:f9:bc:16:47:81:f2:7c:
        bf:d2:c4:55:8f:7b:c4:ed:b0:5a:a7:ae:18:05:5f:38:a8:35:
        ba:99:34:22:4a:0f:f9:50:20:ac:e4:26:82:2f:39:c0:4f:e4:
        7d:20:f1:53:b7:32:af:cb:4f:7a:f5:13:11:2a:97:49:22:34:
        c3:bf:d4:b9
-----BEGIN CERTIFICATE-----
MIIDwjCCAqqgAwIBAgIBCDANBgkqhkiG9w0BAQsFADBxMQswCQYDVQQGEwJVUzET
MBEGA1UECAwKQ2FsaWZvcm5pYTEUMBIGA1UEBwwLU2FudGEgQ2xhcmExDTALBgNV
BAoMBHBrZzUxEDAOBgNVBAMMB2NoNF90YTExFjAUBgkqhkiG9w0BCQEWB2NoNF90
YTEwHhcNMjYwMzE4MDg1MTMwWhcNMjgxMjEyMDg1MTMwWjB1MQswCQYDVQQGEwJV
UzETMBEGA1UECAwKQ2FsaWZvcm5pYTEUMBIGA1UEBwwLU2FudGEgQ2xhcmExDTAL
BgNVBAoMBHBrZzUxEjAQBgNVBAMMCWNoNS4xX3RhMTEYMBYGCSqGSIb3DQEJARYJ
Y2g1LjFfdGExMIIBIjANBgkqhkiG9w0BAQEFAAOCAQ8AMIIBCgKCAQEAvtkhxI9A
EPI7VgmlRs//rrUGwxFp/7SUBnky2Q12JW6uyJyWS+qQoRJM/bZH+QSldf/VuqHC
4lRii/oQpCvXTc4c0tkTipCZReX6f/bBpJAZ/RkHhdKL8VrOIZH8eXUXsUd5LytX
k08EvBxQwJ68vHoRtXK/F+rPCWZF76TXTRsP6oGPWL62E5rmzlBQOgA2EKzJHMTL
hG3U2Vq+JofXF7ObFxfnxVegoojycefKdeDQ4wUej19NPwSXSANBJO/deJEUjz35
EoXt/8pMH7zy0QtohGcURhRIlcXCzqHt2V9v8RLiG/XzYd1DWjOJwJs/XObV47ZD
uX6Mb7LKYnicOwIDAQABo2EwXzAPBgNVHRMBAf8EBTADAQH/MAwGA1UdEgEB/wQC
MAAwHQYDVR0OBBYEFFj0uuBduu6E9+VCwMT9NYJ1C7WBMB8GA1UdIwQYMBaAFKPn
tJNj/IvZ8ZCSCFlxde9JvK/TMA0GCSqGSIb3DQEBCwUAA4IBAQBLJqSqKoiIIa93
b4UPsDKA9geh1I1bKm6zdNdyytiVCyZPW2X+3FEuVUQr4DS7hu32VygepNDxqcK3
bZVCnt13nT2UBb46hcNqv7JvIz1c4ZggEg10dm2dpn7jPXElb+ssAHk0D6eS4ikG
c0T/gD2b3a8DsbPiHeAWjbDzAWE1v2eeKt3XW/AfafeT0+WwlmMG57YmTSsRXGDw
zUXDd3Xl9w9HNRPE0dTdjghStH99SfaEUZox+ukVo1OTl7qBKfm8FkeB8ny/0sRV
j3vE7bBap64YBV84qDW6mTQiSg/5UCCs5CaCLznAT+R9IPFTtzKvy0969RMRKpdJ
IjTDv9S5
-----END CERTIFICATE-----
