Certificate:
    Data:
        Version: 3 (0x2)
        Serial Number: 8 (0x8)
    Signature Algorithm: sha256WithRSAEncryption
        Issuer: C=US, ST=California, L=Santa Clara, O=pkg5, CN=ch4_ta1/emailAddress=ch4_ta1
        Validity
            Not Before: Sep 22 05:33:17 2021 GMT
            Not After : Jun 18 05:33:17 2024 GMT
        Subject: C=US, ST=California, L=Santa Clara, O=pkg5, CN=ch5.1_ta1/emailAddress=ch5.1_ta1
        Subject Public Key Info:
            Public Key Algorithm: rsaEncryption
                Public-Key: (2048 bit)
                Modulus:
                    00:c2:a5:a4:93:cc:b4:a0:c3:c6:b2:77:fe:56:e7:
                    01:46:f1:28:96:1c:33:31:ac:e1:5d:04:3d:a1:d2:
                    de:de:32:61:76:3c:99:b0:79:bb:8a:ef:50:fe:32:
                    b6:e9:fb:1d:04:d1:fa:a1:23:91:9d:b5:15:8c:0d:
                    5c:6c:8d:06:f8:08:b1:0e:d1:13:8a:a3:a8:bc:4c:
                    11:51:55:7a:be:db:56:5b:c5:92:a1:ba:b8:ab:0d:
                    ad:a9:93:b3:97:d6:e2:be:f2:f6:69:89:51:86:b0:
                    6b:1d:fb:35:74:8a:fa:ce:5f:41:38:83:bf:b1:fb:
                    ba:8e:19:06:b4:6a:5c:fa:48:d5:dc:72:39:34:58:
                    26:9d:2d:31:13:12:06:bf:43:58:46:0d:2a:8e:d6:
                    b4:19:22:86:43:79:03:f0:98:0b:ad:83:29:27:f2:
                    13:fc:a9:5c:a5:c3:a6:f7:b2:87:3c:9d:4d:a6:33:
                    59:36:60:33:22:de:73:84:e5:6a:d8:9b:c1:cd:62:
                    27:0b:16:f3:4b:39:d6:4d:b6:45:ee:82:83:b4:46:
                    bc:2e:c5:0d:5e:56:41:db:74:84:b1:75:d6:73:94:
                    e8:2d:10:c0:e8:a1:6d:60:98:d2:50:fb:da:d7:b5:
                    69:a7:04:07:98:1c:85:91:9e:13:1f:51:ad:17:a1:
                    be:97
                Exponent: 65537 (0x10001)
        X509v3 extensions:
            X509v3 Basic Constraints: critical
                CA:TRUE
            X509v3 Issuer Alternative Name: critical
                <EMPTY>

    Signature Algorithm: sha256WithRSAEncryption
         14:6b:83:0f:e3:f9:79:b4:58:3e:51:1b:39:84:23:42:ed:dc:
         aa:b7:07:25:55:6d:55:8b:29:03:27:d0:a6:73:2d:91:df:d3:
         c6:e1:dd:c1:68:2e:c3:3a:9f:34:7d:a8:ab:c8:0c:98:48:6b:
         0d:e5:a8:51:3f:31:b6:98:f4:dc:e1:66:89:ed:57:23:98:9d:
         08:90:87:87:00:e2:f7:46:19:a1:69:56:cd:b5:d5:85:e5:38:
         4a:0f:7f:dc:d9:5e:b8:08:f5:e4:14:af:e6:77:42:02:58:83:
         7d:3f:2b:ad:c4:b4:a2:03:e8:ba:5f:f9:d6:96:24:1a:eb:c1:
         86:b1:06:1c:88:8d:9b:13:f8:7b:c2:45:53:48:c0:c0:b1:eb:
         64:59:e0:a4:e0:e4:13:ae:f0:5e:81:9c:3e:66:62:74:5c:ca:
         5e:44:23:16:71:0a:17:db:bf:84:89:0e:be:2d:29:78:ad:dc:
         4f:0c:90:8c:64:31:05:a6:58:b9:34:55:03:7b:ce:f8:86:ad:
         ef:49:02:da:ef:5a:94:40:e7:70:ca:0c:65:f3:06:97:87:a1:
         96:1f:83:cc:a1:a0:69:fa:b9:0c:35:2b:a1:86:d1:74:32:6d:
         32:b7:3b:27:ba:05:f7:77:83:e7:f5:b9:8e:5c:76:18:0a:66:
         84:f4:a8:ff
-----BEGIN CERTIFICATE-----
MIIDgjCCAmqgAwIBAgIBCDANBgkqhkiG9w0BAQsFADBxMQswCQYDVQQGEwJVUzET
MBEGA1UECAwKQ2FsaWZvcm5pYTEUMBIGA1UEBwwLU2FudGEgQ2xhcmExDTALBgNV
BAoMBHBrZzUxEDAOBgNVBAMMB2NoNF90YTExFjAUBgkqhkiG9w0BCQEWB2NoNF90
YTEwHhcNMjEwOTIyMDUzMzE3WhcNMjQwNjE4MDUzMzE3WjB1MQswCQYDVQQGEwJV
UzETMBEGA1UECAwKQ2FsaWZvcm5pYTEUMBIGA1UEBwwLU2FudGEgQ2xhcmExDTAL
BgNVBAoMBHBrZzUxEjAQBgNVBAMMCWNoNS4xX3RhMTEYMBYGCSqGSIb3DQEJARYJ
Y2g1LjFfdGExMIIBIjANBgkqhkiG9w0BAQEFAAOCAQ8AMIIBCgKCAQEAwqWkk8y0
oMPGsnf+VucBRvEolhwzMazhXQQ9odLe3jJhdjyZsHm7iu9Q/jK26fsdBNH6oSOR
nbUVjA1cbI0G+AixDtETiqOovEwRUVV6vttWW8WSobq4qw2tqZOzl9bivvL2aYlR
hrBrHfs1dIr6zl9BOIO/sfu6jhkGtGpc+kjV3HI5NFgmnS0xExIGv0NYRg0qjta0
GSKGQ3kD8JgLrYMpJ/IT/KlcpcOm97KHPJ1NpjNZNmAzIt5zhOVq2JvBzWInCxbz
SznWTbZF7oKDtEa8LsUNXlZB23SEsXXWc5ToLRDA6KFtYJjSUPva17VppwQHmByF
kZ4TH1GtF6G+lwIDAQABoyEwHzAPBgNVHRMBAf8EBTADAQH/MAwGA1UdEgEB/wQC
MAAwDQYJKoZIhvcNAQELBQADggEBABRrgw/j+Xm0WD5RGzmEI0Lt3Kq3ByVVbVWL
KQMn0KZzLZHf08bh3cFoLsM6nzR9qKvIDJhIaw3lqFE/MbaY9NzhZontVyOYnQiQ
h4cA4vdGGaFpVs211YXlOEoPf9zZXrgI9eQUr+Z3QgJYg30/K63EtKID6Lpf+daW
JBrrwYaxBhyIjZsT+HvCRVNIwMCx62RZ4KTg5BOu8F6BnD5mYnRcyl5EIxZxChfb
v4SJDr4tKXit3E8MkIxkMQWmWLk0VQN7zviGre9JAtrvWpRA53DKDGXzBpeHoZYf
g8yhoGn6uQw1K6GG0XQybTK3Oye6Bfd3g+f1uY5cdhgKZoT0qP8=
-----END CERTIFICATE-----
