Certificate:
    Data:
        Version: 3 (0x2)
        Serial Number: 10 (0xa)
    Signature Algorithm: sha256WithRSAEncryption
        Issuer: C=US, ST=California, L=Santa Clara, O=pkg5, CN=ch4_ta1/emailAddress=ch4_ta1
        Validity
            Not Before: Jul 19 11:35:45 2023 GMT
            Not After : Apr 14 11:35:45 2026 GMT
        Subject: C=US, ST=California, L=Santa Clara, O=pkg5, CN=ch5.2_ta1/emailAddress=ch5.2_ta1
        Subject Public Key Info:
            Public Key Algorithm: rsaEncryption
                Public-Key: (2048 bit)
                Modulus:
                    00:d2:84:f8:c9:57:f0:2c:f8:36:0a:66:2a:8e:eb:
                    8b:4f:48:40:96:d8:ce:17:b8:5d:d7:2c:17:4a:eb:
                    35:41:89:89:9b:96:53:f8:05:03:a3:8e:ed:4c:c9:
                    ba:c2:b4:9e:7a:2b:6e:eb:25:41:f3:a9:cc:6f:f8:
                    10:fd:46:69:12:c8:fa:cd:04:da:c6:1f:c4:05:f3:
                    f6:d0:df:d3:05:1c:70:38:9c:d4:f2:74:f2:9f:48:
                    b8:d0:20:05:1a:bf:0f:4c:d5:dd:84:f6:de:9f:48:
                    e5:58:6b:7e:04:f7:dc:0e:fe:64:de:41:b9:b2:04:
                    37:ec:4e:f1:47:6c:32:95:38:c4:2f:9c:09:41:13:
                    67:3a:d9:92:29:1c:27:5d:ca:bd:80:d7:e2:47:6d:
                    db:4c:37:32:9c:d8:38:f2:6b:24:08:1f:06:a0:2a:
                    89:f9:c6:49:89:90:4c:ae:7b:7a:30:d6:8a:f1:31:
                    28:3c:e5:3a:4f:28:f6:94:f2:89:00:ce:8b:e9:c6:
                    f6:7a:82:4f:8d:d7:a0:8a:a4:7b:b2:19:b8:7c:44:
                    3f:55:38:9f:b2:9f:49:04:8f:d2:56:fe:d6:47:de:
                    50:d8:47:7a:fb:e8:a1:e0:31:63:2b:23:a5:e6:28:
                    79:0b:ca:9c:a7:9a:ba:6a:66:e5:f7:ad:28:c2:bb:
                    1a:a7
                Exponent: 65537 (0x10001)
        X509v3 extensions:
            X509v3 Subject Key Identifier: 
                58:29:BA:61:7F:F4:81:EE:03:5C:91:32:93:4D:43:D6:F0:45:C9:7E
            X509v3 Authority Key Identifier: 
                keyid:1B:DF:89:ED:1B:94:55:1A:84:9B:A3:37:2B:A7:24:65:58:6A:1D:DC
                DirName:/C=US/ST=California/L=Santa Clara/O=pkg5/CN=ch3_ta1/emailAddress=ch3_ta1
                serial:04

            X509v3 Basic Constraints: critical
                CA:TRUE, pathlen:1
            X509v3 Key Usage: critical
                Certificate Sign, CRL Sign
    Signature Algorithm: sha256WithRSAEncryption
         7c:52:49:4f:2f:25:a6:55:bd:68:4e:34:59:ad:7c:f4:0b:9b:
         35:2c:61:ac:61:89:2e:23:7c:62:3b:31:c4:b1:86:5e:d2:9e:
         f2:2b:39:24:06:b1:2b:a9:b1:e8:1b:01:6c:98:ef:51:35:0a:
         43:4d:a5:b1:11:f0:3f:12:36:ad:d9:79:44:02:33:b6:a5:62:
         19:43:18:40:aa:c6:68:b4:2e:53:bf:95:3b:cf:08:65:c6:c5:
         25:b4:d1:e8:b1:fc:96:48:bd:f6:8d:00:51:c4:47:f7:a1:24:
         10:33:a4:84:72:03:4e:f7:23:42:f9:24:f1:76:eb:f1:b3:f0:
         ab:95:f9:b1:9d:9a:0f:7c:3f:7b:10:a7:4f:43:02:45:0e:d0:
         a3:7b:b4:0a:aa:df:af:cc:7b:64:ab:93:c2:2c:46:05:69:f4:
         82:65:cc:5e:8e:9a:b5:42:b6:9f:85:65:df:5e:a3:70:e0:fc:
         52:45:ef:98:1c:79:4f:58:b1:15:e2:03:e1:59:b4:50:0e:36:
         1e:12:34:b7:49:22:36:dd:c6:c6:2f:6f:7c:3c:a8:67:83:50:
         f1:af:4a:7d:bf:d5:80:b8:1a:e2:58:aa:79:d4:9c:ef:5b:fb:
         3c:53:8f:dd:25:cd:86:40:7a:ec:7e:5d:d4:0e:ba:01:24:86:
         5d:45:4b:c3
-----BEGIN CERTIFICATE-----
MIIERjCCAy6gAwIBAgIBCjANBgkqhkiG9w0BAQsFADBxMQswCQYDVQQGEwJVUzET
MBEGA1UECAwKQ2FsaWZvcm5pYTEUMBIGA1UEBwwLU2FudGEgQ2xhcmExDTALBgNV
BAoMBHBrZzUxEDAOBgNVBAMMB2NoNF90YTExFjAUBgkqhkiG9w0BCQEWB2NoNF90
YTEwHhcNMjMwNzE5MTEzNTQ1WhcNMjYwNDE0MTEzNTQ1WjB1MQswCQYDVQQGEwJV
UzETMBEGA1UECAwKQ2FsaWZvcm5pYTEUMBIGA1UEBwwLU2FudGEgQ2xhcmExDTAL
BgNVBAoMBHBrZzUxEjAQBgNVBAMMCWNoNS4yX3RhMTEYMBYGCSqGSIb3DQEJARYJ
Y2g1LjJfdGExMIIBIjANBgkqhkiG9w0BAQEFAAOCAQ8AMIIBCgKCAQEA0oT4yVfw
LPg2CmYqjuuLT0hAltjOF7hd1ywXSus1QYmJm5ZT+AUDo47tTMm6wrSeeitu6yVB
86nMb/gQ/UZpEsj6zQTaxh/EBfP20N/TBRxwOJzU8nTyn0i40CAFGr8PTNXdhPbe
n0jlWGt+BPfcDv5k3kG5sgQ37E7xR2wylTjEL5wJQRNnOtmSKRwnXcq9gNfiR23b
TDcynNg48mskCB8GoCqJ+cZJiZBMrnt6MNaK8TEoPOU6Tyj2lPKJAM6L6cb2eoJP
jdegiqR7shm4fEQ/VTifsp9JBI/SVv7WR95Q2Ed6++ih4DFjKyOl5ih5C8qcp5q6
ambl960owrsapwIDAQABo4HkMIHhMB0GA1UdDgQWBBRYKbphf/SB7gNckTKTTUPW
8EXJfjCBmwYDVR0jBIGTMIGQgBQb34ntG5RVGoSbozcrpyRlWGod3KF1pHMwcTEL
MAkGA1UEBhMCVVMxEzARBgNVBAgMCkNhbGlmb3JuaWExFDASBgNVBAcMC1NhbnRh
IENsYXJhMQ0wCwYDVQQKDARwa2c1MRAwDgYDVQQDDAdjaDNfdGExMRYwFAYJKoZI
hvcNAQkBFgdjaDNfdGExggEEMBIGA1UdEwEB/wQIMAYBAf8CAQEwDgYDVR0PAQH/
BAQDAgEGMA0GCSqGSIb3DQEBCwUAA4IBAQB8UklPLyWmVb1oTjRZrXz0C5s1LGGs
YYkuI3xiOzHEsYZe0p7yKzkkBrErqbHoGwFsmO9RNQpDTaWxEfA/Ejat2XlEAjO2
pWIZQxhAqsZotC5Tv5U7zwhlxsUltNHosfyWSL32jQBRxEf3oSQQM6SEcgNO9yNC
+STxduvxs/CrlfmxnZoPfD97EKdPQwJFDtCje7QKqt+vzHtkq5PCLEYFafSCZcxe
jpq1QrafhWXfXqNw4PxSRe+YHHlPWLEV4gPhWbRQDjYeEjS3SSI23cbGL298PKhn
g1Dxr0p9v9WAuBriWKp51JzvW/s8U4/dJc2GQHrsfl3UDroBJIZdRUvD
-----END CERTIFICATE-----
