Certificate:
    Data:
        Version: 3 (0x2)
        Serial Number: 10 (0xa)
    Signature Algorithm: sha256WithRSAEncryption
        Issuer: C=US, ST=California, L=Santa Clara, O=pkg5, CN=ch4_ta1/emailAddress=ch4_ta1
        Validity
            Not Before: Jan 22 01:57:55 2016 GMT
            Not After : Oct 18 01:57:55 2018 GMT
        Subject: C=US, ST=California, L=Santa Clara, O=pkg5, CN=ch5.2_ta1/emailAddress=ch5.2_ta1
        Subject Public Key Info:
            Public Key Algorithm: rsaEncryption
                Public-Key: (2048 bit)
                Modulus:
                    00:9e:9d:c2:a0:df:34:68:63:c6:f3:28:8b:68:8d:
                    0e:9c:04:a3:31:bf:95:37:9b:00:49:81:7f:35:8d:
                    a3:7d:4a:6c:0f:35:14:1d:2a:f9:99:eb:8b:84:6e:
                    65:5d:b9:d9:66:c6:11:57:bf:83:49:04:f1:35:d3:
                    75:22:30:bc:22:b1:a7:91:af:25:b9:f3:5e:6f:7b:
                    74:c2:25:f4:a7:1a:a6:c2:88:3c:db:31:fd:42:79:
                    53:87:10:d4:ad:bf:a7:23:55:4d:b6:9f:9c:e5:31:
                    0f:72:d6:fc:0e:b8:2c:46:7a:4f:cf:de:61:3e:39:
                    0e:fc:0e:fd:a4:08:05:e8:aa:c8:7c:a5:33:a9:c9:
                    9e:ae:35:51:10:85:06:cc:c1:ae:41:d3:0f:c9:2f:
                    8f:01:0a:6d:a2:06:bb:7c:40:96:ff:a4:cb:3f:5e:
                    11:2f:aa:2b:59:f9:8d:d0:ff:b4:0f:3f:a5:58:f5:
                    cf:a9:20:aa:e6:fe:f4:6b:5d:09:24:9f:26:00:18:
                    a5:f2:9c:e8:79:de:4d:f9:fb:d1:e5:89:6b:d8:de:
                    27:de:f8:0b:28:6f:b3:d1:2e:01:9e:e1:ba:00:0f:
                    21:b2:43:b1:96:b0:46:d9:a3:14:08:a1:6d:1c:e7:
                    a0:9e:84:74:45:91:a8:d9:24:14:f7:a9:3f:8f:95:
                    cb:35
                Exponent: 65537 (0x10001)
        X509v3 extensions:
            X509v3 Subject Key Identifier: 
                29:4E:31:FF:45:35:28:B4:BE:69:AE:55:E5:CE:F3:89:B2:BF:DA:2F
            X509v3 Authority Key Identifier: 
                keyid:44:81:49:A3:5B:7C:85:F2:A7:56:19:FF:64:98:AB:61:89:3E:E1:B7
                DirName:/C=US/ST=California/L=Santa Clara/O=pkg5/CN=ch3_ta1/emailAddress=ch3_ta1
                serial:04

            X509v3 Basic Constraints: critical
                CA:TRUE, pathlen:1
            X509v3 Key Usage: critical
                Certificate Sign, CRL Sign
    Signature Algorithm: sha256WithRSAEncryption
         1b:01:5a:d2:0c:c2:a9:cf:84:c1:9e:42:98:bb:fc:3f:b7:b3:
         33:c9:c1:4b:1b:5c:02:86:4b:d9:37:0e:1b:26:10:68:84:68:
         ed:54:94:69:5d:b8:01:5d:f7:1f:d8:57:ec:e1:f3:b4:7e:81:
         ae:71:f0:79:8a:52:60:81:55:77:c8:a7:20:1a:48:bb:cb:b4:
         cb:26:a9:0b:1a:45:62:0c:b5:d2:0d:ec:75:8c:50:3d:2d:25:
         6c:96:a6:6e:b0:f3:8b:27:7c:ed:ac:44:6e:5b:ef:01:49:6d:
         b4:7a:30:26:cf:73:2a:79:91:60:1a:5e:a1:ba:50:e3:cc:93:
         68:53:6f:8e:fe:d0:48:4a:41:db:6a:15:cc:59:dc:a5:a7:79:
         fc:e5:f9:d1:0e:2b:f4:45:6b:2b:56:e7:69:2a:b2:a1:e2:16:
         79:74:45:7c:ab:3a:49:40:52:1b:5b:ef:29:f9:1f:48:16:31:
         61:aa:17:a2:6f:36:a4:49:d8:d6:c5:ff:4a:33:2e:be:cd:3e:
         9a:38:c6:12:42:9c:1f:08:53:7a:c2:61:88:43:86:17:95:8c:
         f2:4f:dd:b4:b3:66:fa:ef:ac:51:a4:70:f6:4c:a4:6d:70:6f:
         dc:5a:a5:c7:da:94:4f:d6:71:2a:5b:fe:0f:f2:25:72:3d:e4:
         62:c5:3d:87
-----BEGIN CERTIFICATE-----
MIIERjCCAy6gAwIBAgIBCjANBgkqhkiG9w0BAQsFADBxMQswCQYDVQQGEwJVUzET
MBEGA1UECAwKQ2FsaWZvcm5pYTEUMBIGA1UEBwwLU2FudGEgQ2xhcmExDTALBgNV
BAoMBHBrZzUxEDAOBgNVBAMMB2NoNF90YTExFjAUBgkqhkiG9w0BCQEWB2NoNF90
YTEwHhcNMTYwMTIyMDE1NzU1WhcNMTgxMDE4MDE1NzU1WjB1MQswCQYDVQQGEwJV
UzETMBEGA1UECAwKQ2FsaWZvcm5pYTEUMBIGA1UEBwwLU2FudGEgQ2xhcmExDTAL
BgNVBAoMBHBrZzUxEjAQBgNVBAMMCWNoNS4yX3RhMTEYMBYGCSqGSIb3DQEJARYJ
Y2g1LjJfdGExMIIBIjANBgkqhkiG9w0BAQEFAAOCAQ8AMIIBCgKCAQEAnp3CoN80
aGPG8yiLaI0OnASjMb+VN5sASYF/NY2jfUpsDzUUHSr5meuLhG5lXbnZZsYRV7+D
SQTxNdN1IjC8IrGnka8lufNeb3t0wiX0pxqmwog82zH9QnlThxDUrb+nI1VNtp+c
5TEPctb8DrgsRnpPz95hPjkO/A79pAgF6KrIfKUzqcmerjVREIUGzMGuQdMPyS+P
AQptoga7fECW/6TLP14RL6orWfmN0P+0Dz+lWPXPqSCq5v70a10JJJ8mABil8pzo
ed5N+fvR5Ylr2N4n3vgLKG+z0S4BnuG6AA8hskOxlrBG2aMUCKFtHOegnoR0RZGo
2SQU96k/j5XLNQIDAQABo4HkMIHhMB0GA1UdDgQWBBQpTjH/RTUotL5prlXlzvOJ
sr/aLzCBmwYDVR0jBIGTMIGQgBREgUmjW3yF8qdWGf9kmKthiT7ht6F1pHMwcTEL
MAkGA1UEBhMCVVMxEzARBgNVBAgMCkNhbGlmb3JuaWExFDASBgNVBAcMC1NhbnRh
IENsYXJhMQ0wCwYDVQQKDARwa2c1MRAwDgYDVQQDDAdjaDNfdGExMRYwFAYJKoZI
hvcNAQkBFgdjaDNfdGExggEEMBIGA1UdEwEB/wQIMAYBAf8CAQEwDgYDVR0PAQH/
BAQDAgEGMA0GCSqGSIb3DQEBCwUAA4IBAQAbAVrSDMKpz4TBnkKYu/w/t7MzycFL
G1wChkvZNw4bJhBohGjtVJRpXbgBXfcf2Ffs4fO0foGucfB5ilJggVV3yKcgGki7
y7TLJqkLGkViDLXSDex1jFA9LSVslqZusPOLJ3ztrERuW+8BSW20ejAmz3MqeZFg
Gl6hulDjzJNoU2+O/tBISkHbahXMWdylp3n85fnRDiv0RWsrVudpKrKh4hZ5dEV8
qzpJQFIbW+8p+R9IFjFhqheibzakSdjWxf9KMy6+zT6aOMYSQpwfCFN6wmGIQ4YX
lYzyT920s2b676xRpHD2TKRtcG/cWqXH2pRP1nEqW/4P8iVyPeRixT2H
-----END CERTIFICATE-----
