Certificate:
    Data:
        Version: 3 (0x2)
        Serial Number: 13 (0xd)
        Signature Algorithm: sha256WithRSAEncryption
        Issuer: C=US, ST=California, L=Menlo Park, O=pkg5, CN=ch4.3_ta1/emailAddress=ch4.3_ta1
        Validity
            Not Before: Mar 21 00:49:26 2011 GMT
            Not After : Dec 15 00:49:26 2013 GMT
        Subject: C=US, ST=California, L=Menlo Park, O=pkg5, CN=ch5.3_ta1/emailAddress=ch5.3_ta1
        Subject Public Key Info:
            Public Key Algorithm: rsaEncryption
            RSA Public Key: (1024 bit)
                Modulus (1024 bit):
                    00:b6:f8:e3:58:93:ea:62:c9:34:62:40:97:14:c7:
                    2e:45:45:56:a8:05:4b:da:9d:6e:7f:0e:54:92:00:
                    9a:0d:c7:cf:5f:65:49:35:1a:d3:9d:e3:53:62:59:
                    ab:94:9e:01:8b:df:d6:7f:ea:d9:c9:f8:ff:cb:a3:
                    43:4e:4b:ba:d4:8c:fb:e7:4d:0b:ac:d3:c2:1b:54:
                    eb:9a:17:95:d9:9d:38:e6:e9:b6:7f:d6:da:1a:33:
                    d0:2e:f7:93:67:9c:1e:7f:12:1f:71:37:a0:e5:ac:
                    f6:18:81:5e:bc:a0:75:a6:96:18:01:6e:7a:e2:42:
                    2a:90:d1:31:64:f1:06:31:f5
                Exponent: 65537 (0x10001)
        X509v3 extensions:
            X509v3 Subject Key Identifier: 
                63:11:18:64:5B:58:88:7E:89:2C:0C:88:B4:3F:5C:02:58:7B:4A:E7
            X509v3 Authority Key Identifier: 
                keyid:B2:F9:FB:5A:A8:19:23:A0:E6:D5:C5:4C:B0:2D:8B:01:65:7F:9E:49
                DirName:/C=US/ST=California/L=Menlo Park/O=pkg5/CN=ch3_ta1/emailAddress=ch3_ta1
                serial:0C

            X509v3 Basic Constraints: critical
                CA:TRUE, pathlen:0
            X509v3 Key Usage: critical
                Certificate Sign, CRL Sign
    Signature Algorithm: sha256WithRSAEncryption
        90:9a:37:9a:90:06:27:6c:4a:27:9e:c4:b5:e0:28:50:27:b2:
        0c:d0:64:74:de:79:3f:b8:c1:10:76:a9:5a:04:2e:78:3d:e7:
        d7:f8:64:aa:0e:1a:a0:bb:0e:3b:23:f0:e8:68:0d:9d:f4:1b:
        c0:4e:2c:90:b2:5d:de:41:4b:56:6a:85:26:05:83:3a:cf:e2:
        b0:2a:f7:99:d9:37:6e:df:2a:24:3f:1e:22:6b:a3:cd:b4:4a:
        da:64:32:a3:5b:f5:02:44:12:65:cd:f3:15:29:71:77:b1:93:
        9b:ea:67:5d:de:c0:32:f6:f2:aa:a1:f0:d8:36:d9:5e:d7:50:
        e6:cc
-----BEGIN CERTIFICATE-----
MIIDQjCCAqugAwIBAgIBDTANBgkqhkiG9w0BAQsFADB0MQswCQYDVQQGEwJVUzET
MBEGA1UECBMKQ2FsaWZvcm5pYTETMBEGA1UEBxMKTWVubG8gUGFyazENMAsGA1UE
ChMEcGtnNTESMBAGA1UEAxQJY2g0LjNfdGExMRgwFgYJKoZIhvcNAQkBFgljaDQu
M190YTEwHhcNMTEwMzIxMDA0OTI2WhcNMTMxMjE1MDA0OTI2WjB0MQswCQYDVQQG
EwJVUzETMBEGA1UECBMKQ2FsaWZvcm5pYTETMBEGA1UEBxMKTWVubG8gUGFyazEN
MAsGA1UEChMEcGtnNTESMBAGA1UEAxQJY2g1LjNfdGExMRgwFgYJKoZIhvcNAQkB
FgljaDUuM190YTEwgZ8wDQYJKoZIhvcNAQEBBQADgY0AMIGJAoGBALb441iT6mLJ
NGJAlxTHLkVFVqgFS9qdbn8OVJIAmg3Hz19lSTUa053jU2JZq5SeAYvf1n/q2cn4
/8ujQ05LutSM++dNC6zTwhtU65oXldmdOObptn/W2hoz0C73k2ecHn8SH3E3oOWs
9hiBXrygdaaWGAFueuJCKpDRMWTxBjH1AgMBAAGjgeMwgeAwHQYDVR0OBBYEFGMR
GGRbWIh+iSwMiLQ/XAJYe0rnMIGaBgNVHSMEgZIwgY+AFLL5+1qoGSOg5tXFTLAt
iwFlf55JoXSkcjBwMQswCQYDVQQGEwJVUzETMBEGA1UECBMKQ2FsaWZvcm5pYTET
MBEGA1UEBxMKTWVubG8gUGFyazENMAsGA1UEChMEcGtnNTEQMA4GA1UEAxQHY2gz
X3RhMTEWMBQGCSqGSIb3DQEJARYHY2gzX3RhMYIBDDASBgNVHRMBAf8ECDAGAQH/
AgEAMA4GA1UdDwEB/wQEAwIBBjANBgkqhkiG9w0BAQsFAAOBgQCQmjeakAYnbEon
nsS14ChQJ7IM0GR03nk/uMEQdqlaBC54PefX+GSqDhqguw47I/DoaA2d9BvATiyQ
sl3eQUtWaoUmBYM6z+KwKveZ2Tdu3yokPx4ia6PNtEraZDKjW/UCRBJlzfMVKXF3
sZOb6mdd3sAy9vKqofDYNtle11DmzA==
-----END CERTIFICATE-----
