Certificate:
    Data:
        Version: 3 (0x2)
        Serial Number: 10 (0xa)
        Signature Algorithm: sha256WithRSAEncryption
        Issuer: C=US, ST=California, L=Santa Clara, O=pkg5, CN=ch4_ta1/emailAddress=ch4_ta1
        Validity
            Not Before: Mar 18 08:51:31 2026 GMT
            Not After : Dec 12 08:51:31 2028 GMT
        Subject: C=US, ST=California, L=Santa Clara, O=pkg5, CN=ch5.2_ta1/emailAddress=ch5.2_ta1
        Subject Public Key Info:
            Public Key Algorithm: rsaEncryption
                Public-Key: (2048 bit)
                Modulus:
                    00:c7:7c:d7:50:32:a8:b6:ed:15:a0:fc:69:b1:d4:
                    d9:86:68:c3:ba:27:2c:64:85:91:3b:4b:c1:7c:67:
                    59:d7:ff:95:a1:64:96:8a:ac:74:cb:ff:5d:94:16:
                    b7:ed:e5:f4:2d:fa:31:88:d0:9f:51:1c:5c:1b:68:
                    e8:ce:17:e1:67:63:c2:79:bf:d8:8a:5c:18:0d:8a:
                    73:63:a5:e9:6e:28:49:6c:2f:0c:a4:76:6b:e5:aa:
                    6c:d7:c1:9e:a7:2c:cc:80:50:71:38:61:00:ce:10:
                    93:c9:e3:56:45:47:0e:6c:37:9f:03:e9:37:17:78:
                    93:b8:5b:5b:02:86:a5:fa:4d:3c:3c:9a:bc:75:01:
                    0f:84:0d:ff:da:16:50:ab:c0:1d:99:8c:fd:d5:3b:
                    07:59:24:ab:21:f6:2c:ef:b6:5c:9f:20:30:00:2a:
                    af:c9:91:bb:f4:4e:dc:d9:77:ea:01:d5:fd:f8:29:
                    00:ce:0a:4b:6f:f5:2c:f6:d1:8f:b4:34:06:da:95:
                    8b:b6:6a:7f:1a:a5:ca:d1:1a:e3:14:6b:64:e1:3c:
                    3b:cd:0d:9d:9a:fb:a3:d7:aa:2a:13:29:bb:20:60:
                    4d:68:a4:be:7c:9f:1d:5f:8a:69:4a:05:50:eb:af:
                    a0:1b:e6:6f:36:75:7f:08:0e:fd:b7:f6:42:92:b3:
                    e4:93
                Exponent: 65537 (0x10001)
        X509v3 extensions:
            X509v3 Subject Key Identifier: 
                BB:47:83:AA:FE:0E:5F:DC:51:C7:64:DA:0C:C0:47:9E:B6:56:28:F7
            X509v3 Authority Key Identifier: 
                keyid:A3:E7:B4:93:63:FC:8B:D9:F1:90:92:08:59:71:75:EF:49:BC:AF:D3
                DirName:/C=US/ST=California/L=Santa Clara/O=pkg5/CN=ch3_ta1/emailAddress=ch3_ta1
                serial:04
            X509v3 Basic Constraints: critical
                CA:TRUE, pathlen:1
            X509v3 Key Usage: critical
                Certificate Sign, CRL Sign
    Signature Algorithm: sha256WithRSAEncryption
    Signature Value:
        57:b9:1e:6b:46:39:23:35:31:e4:b8:5a:0b:1c:5c:b7:a5:ab:
        fd:59:45:28:0f:11:4d:8b:ae:5c:f1:40:26:fb:c3:27:60:d3:
        d2:3a:45:8a:d9:f2:60:1d:88:4d:4d:01:f1:40:4b:54:06:e0:
        50:a1:c2:5c:4f:95:ab:41:f3:ba:ca:cf:62:62:42:a8:aa:5a:
        73:57:49:16:9c:89:bb:74:44:19:eb:b1:06:11:f7:00:2b:87:
        a4:75:22:19:1f:80:14:9a:e2:be:81:42:7c:11:da:52:1f:5c:
        c9:05:3b:3d:46:05:e8:e1:4d:93:16:e9:13:f2:7f:fd:d8:11:
        67:c3:16:98:24:3d:a0:2a:21:95:88:fd:be:19:cc:50:0d:f0:
        dd:86:cf:4a:a1:fc:f8:e7:88:9c:46:4a:c6:9f:84:91:e6:55:
        4b:54:f3:50:69:1b:84:f0:70:f9:49:d1:d2:e6:b8:85:8c:03:
        44:7c:b0:44:f9:59:96:de:55:78:dc:62:23:5a:37:8f:d0:18:
        75:80:1c:9a:30:a6:38:2c:dd:5b:7c:08:35:d4:d7:a1:50:a9:
        34:2a:87:6a:fb:89:67:73:72:99:9f:77:d5:89:03:c9:33:c1:
        53:3e:f6:a6:7c:b0:35:6d:fd:6c:28:80:7b:ba:95:c0:fb:3f:
        24:c8:c6:7a
-----BEGIN CERTIFICATE-----
MIIERjCCAy6gAwIBAgIBCjANBgkqhkiG9w0BAQsFADBxMQswCQYDVQQGEwJVUzET
MBEGA1UECAwKQ2FsaWZvcm5pYTEUMBIGA1UEBwwLU2FudGEgQ2xhcmExDTALBgNV
BAoMBHBrZzUxEDAOBgNVBAMMB2NoNF90YTExFjAUBgkqhkiG9w0BCQEWB2NoNF90
YTEwHhcNMjYwMzE4MDg1MTMxWhcNMjgxMjEyMDg1MTMxWjB1MQswCQYDVQQGEwJV
UzETMBEGA1UECAwKQ2FsaWZvcm5pYTEUMBIGA1UEBwwLU2FudGEgQ2xhcmExDTAL
BgNVBAoMBHBrZzUxEjAQBgNVBAMMCWNoNS4yX3RhMTEYMBYGCSqGSIb3DQEJARYJ
Y2g1LjJfdGExMIIBIjANBgkqhkiG9w0BAQEFAAOCAQ8AMIIBCgKCAQEAx3zXUDKo
tu0VoPxpsdTZhmjDuicsZIWRO0vBfGdZ1/+VoWSWiqx0y/9dlBa37eX0LfoxiNCf
URxcG2jozhfhZ2PCeb/YilwYDYpzY6XpbihJbC8MpHZr5aps18GepyzMgFBxOGEA
zhCTyeNWRUcObDefA+k3F3iTuFtbAoal+k08PJq8dQEPhA3/2hZQq8AdmYz91TsH
WSSrIfYs77ZcnyAwACqvyZG79E7c2XfqAdX9+CkAzgpLb/Us9tGPtDQG2pWLtmp/
GqXK0RrjFGtk4Tw7zQ2dmvuj16oqEym7IGBNaKS+fJ8dX4ppSgVQ66+gG+ZvNnV/
CA79t/ZCkrPkkwIDAQABo4HkMIHhMB0GA1UdDgQWBBS7R4Oq/g5f3FHHZNoMwEee
tlYo9zCBmwYDVR0jBIGTMIGQgBSj57STY/yL2fGQkghZcXXvSbyv06F1pHMwcTEL
MAkGA1UEBhMCVVMxEzARBgNVBAgMCkNhbGlmb3JuaWExFDASBgNVBAcMC1NhbnRh
IENsYXJhMQ0wCwYDVQQKDARwa2c1MRAwDgYDVQQDDAdjaDNfdGExMRYwFAYJKoZI
hvcNAQkBFgdjaDNfdGExggEEMBIGA1UdEwEB/wQIMAYBAf8CAQEwDgYDVR0PAQH/
BAQDAgEGMA0GCSqGSIb3DQEBCwUAA4IBAQBXuR5rRjkjNTHkuFoLHFy3pav9WUUo
DxFNi65c8UAm+8MnYNPSOkWK2fJgHYhNTQHxQEtUBuBQocJcT5WrQfO6ys9iYkKo
qlpzV0kWnIm7dEQZ67EGEfcAK4ekdSIZH4AUmuK+gUJ8EdpSH1zJBTs9RgXo4U2T
FukT8n/92BFnwxaYJD2gKiGViP2+GcxQDfDdhs9Kofz454icRkrGn4SR5lVLVPNQ
aRuE8HD5SdHS5riFjANEfLBE+VmW3lV43GIjWjeP0Bh1gByaMKY4LN1bfAg11Neh
UKk0Kodq+4lnc3KZn3fViQPJM8FTPvamfLA1bf1sKIB7upXA+z8kyMZ6
-----END CERTIFICATE-----
