Certificate:
    Data:
        Version: 3 (0x2)
        Serial Number: 10 (0xa)
    Signature Algorithm: sha256WithRSAEncryption
        Issuer: C=US, ST=California, L=Santa Clara, O=pkg5, CN=ch4_ta1/emailAddress=ch4_ta1
        Validity
            Not Before: Jan 22 15:33:08 2019 GMT
            Not After : Oct 18 15:33:08 2021 GMT
        Subject: C=US, ST=California, L=Santa Clara, O=pkg5, CN=ch5.2_ta1/emailAddress=ch5.2_ta1
        Subject Public Key Info:
            Public Key Algorithm: rsaEncryption
                Public-Key: (2048 bit)
                Modulus:
                    00:d9:a6:7d:a6:48:02:ea:1c:1a:75:d4:81:f1:0f:
                    32:a8:82:f6:35:38:08:ce:60:96:ef:2e:f1:99:a4:
                    24:7a:36:a2:39:57:37:ba:74:45:25:e0:9e:58:ee:
                    b8:a9:c0:69:cb:79:bc:3d:45:9e:87:31:6f:4f:b5:
                    26:6b:43:00:31:b6:19:61:99:26:22:94:11:07:cd:
                    71:43:af:cf:eb:06:f1:b1:74:1b:9a:aa:6f:ad:12:
                    30:3b:3e:93:85:7f:c4:0c:37:67:31:88:d6:b5:9a:
                    0a:aa:49:27:90:b7:95:aa:53:42:b4:54:3e:28:71:
                    3b:44:ae:6d:46:83:ca:e8:07:8a:50:23:63:92:58:
                    a0:04:34:51:56:b9:bf:74:24:2e:d4:4b:d3:41:0a:
                    09:10:60:4d:b6:06:e2:ff:68:db:c7:21:74:41:a4:
                    df:4f:cc:64:2e:b3:ef:fd:68:0d:93:7f:d8:ef:d8:
                    cf:6e:5f:14:49:51:be:dc:c9:bb:8f:3b:61:62:e4:
                    e4:e4:64:fb:41:ae:9d:c1:23:d5:f8:0f:2f:84:67:
                    45:84:85:3b:60:3a:27:81:fd:fc:a2:c8:77:8d:79:
                    b9:3f:c3:17:cc:24:ce:37:2c:ef:83:e7:58:33:c1:
                    b0:c8:85:95:03:22:27:a6:7a:12:8b:c8:43:0e:89:
                    77:b5
                Exponent: 65537 (0x10001)
        X509v3 extensions:
            X509v3 Subject Key Identifier: 
                4B:61:F9:56:29:34:62:FB:88:83:4F:AC:93:17:D5:15:E9:92:72:52
            X509v3 Authority Key Identifier: 
                keyid:18:2C:1D:85:10:D5:B5:BF:CB:44:61:84:3F:8D:AE:8B:92:3A:70:32
                DirName:/C=US/ST=California/L=Santa Clara/O=pkg5/CN=ch3_ta1/emailAddress=ch3_ta1
                serial:04

            X509v3 Basic Constraints: critical
                CA:TRUE, pathlen:1
            X509v3 Key Usage: critical
                Certificate Sign, CRL Sign
    Signature Algorithm: sha256WithRSAEncryption
         11:2c:67:e8:ae:d5:7b:8a:3d:b8:84:af:4c:7b:a3:15:6b:3c:
         a3:4e:34:96:13:c2:ee:2d:ad:ae:43:4c:b3:e1:1a:0f:b2:f6:
         fc:de:3a:cd:82:a7:12:dd:5a:fe:1d:9f:82:b0:ba:b0:2b:8e:
         b8:91:dd:f1:7d:e3:1a:d0:4b:ee:83:53:3b:7c:59:e4:0f:f8:
         be:75:d2:25:2d:80:ad:0f:ec:27:79:af:b1:44:cc:c2:61:5b:
         89:9a:2a:be:88:b5:4d:93:4a:e1:85:43:93:6b:ef:f4:a2:d1:
         09:73:c9:7f:64:24:d0:33:98:98:84:8c:2f:33:b2:d7:aa:f1:
         86:51:5b:78:4b:b3:24:73:93:98:38:fe:ba:72:4f:61:20:75:
         7c:74:f9:8b:f0:0c:fb:6c:66:0c:46:fe:f3:11:d3:15:ec:99:
         ec:63:ee:af:41:47:15:64:3f:33:74:dc:25:a4:1c:24:6a:14:
         97:53:6f:b4:a3:40:b8:5f:32:f6:f4:d2:74:43:b5:9b:40:bb:
         91:ae:55:e8:ae:02:ba:20:b2:88:be:16:e4:1c:6f:38:e6:db:
         0a:99:61:1c:60:92:37:77:ff:6c:30:eb:07:c7:3c:bc:bb:c9:
         9c:2f:f6:6b:93:5e:59:cf:62:cc:ec:df:bf:ff:ae:17:c5:b5:
         a1:45:87:c2
-----BEGIN CERTIFICATE-----
MIIERjCCAy6gAwIBAgIBCjANBgkqhkiG9w0BAQsFADBxMQswCQYDVQQGEwJVUzET
MBEGA1UECAwKQ2FsaWZvcm5pYTEUMBIGA1UEBwwLU2FudGEgQ2xhcmExDTALBgNV
BAoMBHBrZzUxEDAOBgNVBAMMB2NoNF90YTExFjAUBgkqhkiG9w0BCQEWB2NoNF90
YTEwHhcNMTkwMTIyMTUzMzA4WhcNMjExMDE4MTUzMzA4WjB1MQswCQYDVQQGEwJV
UzETMBEGA1UECAwKQ2FsaWZvcm5pYTEUMBIGA1UEBwwLU2FudGEgQ2xhcmExDTAL
BgNVBAoMBHBrZzUxEjAQBgNVBAMMCWNoNS4yX3RhMTEYMBYGCSqGSIb3DQEJARYJ
Y2g1LjJfdGExMIIBIjANBgkqhkiG9w0BAQEFAAOCAQ8AMIIBCgKCAQEA2aZ9pkgC
6hwaddSB8Q8yqIL2NTgIzmCW7y7xmaQkejaiOVc3unRFJeCeWO64qcBpy3m8PUWe
hzFvT7Uma0MAMbYZYZkmIpQRB81xQ6/P6wbxsXQbmqpvrRIwOz6ThX/EDDdnMYjW
tZoKqkknkLeVqlNCtFQ+KHE7RK5tRoPK6AeKUCNjkligBDRRVrm/dCQu1EvTQQoJ
EGBNtgbi/2jbxyF0QaTfT8xkLrPv/WgNk3/Y79jPbl8USVG+3Mm7jzthYuTk5GT7
Qa6dwSPV+A8vhGdFhIU7YDongf38osh3jXm5P8MXzCTONyzvg+dYM8GwyIWVAyIn
pnoSi8hDDol3tQIDAQABo4HkMIHhMB0GA1UdDgQWBBRLYflWKTRi+4iDT6yTF9UV
6ZJyUjCBmwYDVR0jBIGTMIGQgBQYLB2FENW1v8tEYYQ/ja6LkjpwMqF1pHMwcTEL
MAkGA1UEBhMCVVMxEzARBgNVBAgMCkNhbGlmb3JuaWExFDASBgNVBAcMC1NhbnRh
IENsYXJhMQ0wCwYDVQQKDARwa2c1MRAwDgYDVQQDDAdjaDNfdGExMRYwFAYJKoZI
hvcNAQkBFgdjaDNfdGExggEEMBIGA1UdEwEB/wQIMAYBAf8CAQEwDgYDVR0PAQH/
BAQDAgEGMA0GCSqGSIb3DQEBCwUAA4IBAQARLGfortV7ij24hK9Me6MVazyjTjSW
E8LuLa2uQ0yz4RoPsvb83jrNgqcS3Vr+HZ+CsLqwK464kd3xfeMa0Evug1M7fFnk
D/i+ddIlLYCtD+wnea+xRMzCYVuJmiq+iLVNk0rhhUOTa+/0otEJc8l/ZCTQM5iY
hIwvM7LXqvGGUVt4S7Mkc5OYOP66ck9hIHV8dPmL8Az7bGYMRv7zEdMV7JnsY+6v
QUcVZD8zdNwlpBwkahSXU2+0o0C4XzL29NJ0Q7WbQLuRrlXorgK6ILKIvhbkHG84
5tsKmWEcYJI3d/9sMOsHxzy8u8mcL/Zrk15Zz2LM7N+//64XxbWhRYfC
-----END CERTIFICATE-----
