Certificate:
    Data:
        Version: 3 (0x2)
        Serial Number: 13 (0xd)
    Signature Algorithm: sha256WithRSAEncryption
        Issuer: C=US, ST=California, L=Santa Clara, O=pkg5, CN=ch4.3_ta1/emailAddress=ch4.3_ta1
        Validity
            Not Before: Dec 13 00:13:35 2013 GMT
            Not After : Sep  8 00:13:35 2016 GMT
        Subject: C=US, ST=California, L=Santa Clara, O=pkg5, CN=ch5.3_ta1/emailAddress=ch5.3_ta1
        Subject Public Key Info:
            Public Key Algorithm: rsaEncryption
                Public-Key: (1024 bit)
                Modulus:
                    00:9a:0b:35:00:7e:06:fd:e2:50:97:7e:d2:c2:b8:
                    20:2a:d9:bb:b8:3f:14:f9:aa:e3:98:dc:b9:49:62:
                    32:9e:e7:51:16:ef:6b:69:59:7e:0f:c3:50:08:3d:
                    dc:23:18:37:fa:70:cc:45:b8:47:1e:49:ef:18:15:
                    47:8e:e6:c9:65:64:02:a8:f5:2a:d1:ef:3a:91:8f:
                    5a:52:21:46:8f:61:87:55:c9:61:ea:e8:98:18:c5:
                    99:1f:bd:43:02:13:a6:bf:c0:cd:d9:a5:ee:40:a3:
                    05:bf:18:28:57:f6:4e:21:d0:89:a1:21:1c:39:ed:
                    2d:ed:45:f0:da:75:37:da:7b
                Exponent: 65537 (0x10001)
        X509v3 extensions:
            X509v3 Subject Key Identifier: 
                A5:4B:BC:BC:6C:A7:1D:7E:CB:31:E5:DF:BE:24:BE:B9:86:28:DE:68
            X509v3 Authority Key Identifier: 
                keyid:16:06:DB:79:36:82:5D:96:BA:FD:0F:C3:3D:E2:64:BA:E6:03:E6:3A
                DirName:/C=US/ST=California/L=Santa Clara/O=pkg5/CN=ch3_ta1/emailAddress=ch3_ta1
                serial:0C

            X509v3 Basic Constraints: critical
                CA:TRUE, pathlen:0
            X509v3 Key Usage: critical
                Certificate Sign, CRL Sign
    Signature Algorithm: sha256WithRSAEncryption
         4b:1b:27:81:60:e8:9c:ca:e9:2b:c6:94:9e:64:d5:1a:44:18:
         e7:fb:98:cf:a0:10:e3:ae:ad:b3:fa:a6:21:9d:be:35:46:17:
         e6:42:3f:8c:79:81:c5:46:f4:f8:04:72:02:a5:5c:6a:1f:cf:
         62:e1:f9:6f:3a:26:5c:7b:13:27:bd:27:e7:8d:e4:75:b0:04:
         05:84:44:8b:cf:2c:8b:8b:44:35:c7:60:79:91:04:69:cc:35:
         90:5b:e5:9a:71:cb:6d:65:dd:a1:09:2c:d0:35:69:cc:cf:0a:
         62:41:8f:18:ac:9e:8f:52:4c:fa:77:14:98:45:ce:06:c5:f9:
         5d:6a
-----BEGIN CERTIFICATE-----
MIIDRTCCAq6gAwIBAgIBDTANBgkqhkiG9w0BAQsFADB1MQswCQYDVQQGEwJVUzET
MBEGA1UECAwKQ2FsaWZvcm5pYTEUMBIGA1UEBwwLU2FudGEgQ2xhcmExDTALBgNV
BAoMBHBrZzUxEjAQBgNVBAMMCWNoNC4zX3RhMTEYMBYGCSqGSIb3DQEJARYJY2g0
LjNfdGExMB4XDTEzMTIxMzAwMTMzNVoXDTE2MDkwODAwMTMzNVowdTELMAkGA1UE
BhMCVVMxEzARBgNVBAgMCkNhbGlmb3JuaWExFDASBgNVBAcMC1NhbnRhIENsYXJh
MQ0wCwYDVQQKDARwa2c1MRIwEAYDVQQDDAljaDUuM190YTExGDAWBgkqhkiG9w0B
CQEWCWNoNS4zX3RhMTCBnzANBgkqhkiG9w0BAQEFAAOBjQAwgYkCgYEAmgs1AH4G
/eJQl37SwrggKtm7uD8U+arjmNy5SWIynudRFu9raVl+D8NQCD3cIxg3+nDMRbhH
HknvGBVHjubJZWQCqPUq0e86kY9aUiFGj2GHVclh6uiYGMWZH71DAhOmv8DN2aXu
QKMFvxgoV/ZOIdCJoSEcOe0t7UXw2nU32nsCAwEAAaOB5DCB4TAdBgNVHQ4EFgQU
pUu8vGynHX7LMeXfviS+uYYo3mgwgZsGA1UdIwSBkzCBkIAUFgbbeTaCXZa6/Q/D
PeJkuuYD5jqhdaRzMHExCzAJBgNVBAYTAlVTMRMwEQYDVQQIDApDYWxpZm9ybmlh
MRQwEgYDVQQHDAtTYW50YSBDbGFyYTENMAsGA1UECgwEcGtnNTEQMA4GA1UEAwwH
Y2gzX3RhMTEWMBQGCSqGSIb3DQEJARYHY2gzX3RhMYIBDDASBgNVHRMBAf8ECDAG
AQH/AgEAMA4GA1UdDwEB/wQEAwIBBjANBgkqhkiG9w0BAQsFAAOBgQBLGyeBYOic
yukrxpSeZNUaRBjn+5jPoBDjrq2z+qYhnb41RhfmQj+MeYHFRvT4BHICpVxqH89i
4flvOiZcexMnvSfnjeR1sAQFhESLzyyLi0Q1x2B5kQRpzDWQW+WaccttZd2hCSzQ
NWnMzwpiQY8YrJ6PUkz6dxSYRc4Gxfldag==
-----END CERTIFICATE-----
