Certificate:
    Data:
        Version: 3 (0x2)
        Serial Number: 5 (0x5)
    Signature Algorithm: sha256WithRSAEncryption
        Issuer: C=US, ST=California, L=Santa Clara, O=pkg5, CN=ch4_ta1/emailAddress=ch4_ta1
        Validity
            Not Before: Sep 22 05:33:15 2021 GMT
            Not After : Jun 18 05:33:15 2024 GMT
        Subject: C=US, ST=California, L=Santa Clara, O=pkg5, CN=ch5_ta1/emailAddress=ch5_ta1
        Subject Public Key Info:
            Public Key Algorithm: rsaEncryption
                Public-Key: (2048 bit)
                Modulus:
                    00:cb:e6:dd:05:df:04:a7:59:d5:9c:35:dc:e7:8f:
                    fe:d9:6d:18:65:ac:d8:81:6f:86:a0:79:90:9b:9b:
                    3b:7c:29:f6:0f:a0:4a:34:e1:d1:fa:a4:09:93:82:
                    dd:cd:e2:8b:26:ae:3e:85:c0:66:c8:4e:ba:6c:18:
                    fe:3a:2c:48:a3:54:22:d2:4b:1c:84:c6:c5:ac:8d:
                    f8:77:06:6d:c5:3d:d7:69:f9:36:d7:09:3c:ad:2c:
                    7b:7c:53:3f:15:5d:da:1b:65:42:2b:71:53:33:e3:
                    a3:5b:19:51:5e:12:c2:a9:0c:01:5c:dc:d1:73:6d:
                    0b:f2:02:26:2f:56:bc:02:37:f9:d8:54:5c:14:8b:
                    f1:b1:60:3d:88:60:a2:e6:75:d2:49:9e:f3:e4:0f:
                    a4:b5:44:22:9a:8f:55:ac:65:11:2c:21:ad:72:dc:
                    60:51:34:38:02:fc:8c:d7:b0:18:1d:53:58:20:8a:
                    db:a2:a2:7e:27:b3:eb:81:c1:97:11:0a:31:36:54:
                    02:fc:27:3a:14:e9:92:c7:b6:5a:fa:e3:46:cf:df:
                    2a:45:a9:0d:06:4a:91:fa:c6:81:49:36:d7:97:d1:
                    46:8a:a0:93:00:a8:17:49:4a:00:89:fa:8f:58:f0:
                    d0:10:db:90:8c:17:7e:bb:c8:1a:c1:7e:8f:6e:55:
                    77:c7
                Exponent: 65537 (0x10001)
        X509v3 extensions:
            X509v3 Subject Key Identifier: 
                90:65:15:97:34:A3:73:C9:41:94:A6:0F:5D:F1:15:F8:A8:77:46:A1
            X509v3 Authority Key Identifier: 
                keyid:79:24:9E:9E:DF:31:26:39:7E:ED:7F:85:88:DA:DD:21:5B:7A:11:FF
                DirName:/C=US/ST=California/L=Santa Clara/O=pkg5/CN=ch3_ta1/emailAddress=ch3_ta1
                serial:04

            X509v3 Basic Constraints: critical
                CA:TRUE, pathlen:0
            X509v3 Key Usage: critical
                Certificate Sign, CRL Sign
    Signature Algorithm: sha256WithRSAEncryption
         4f:76:d4:27:28:e3:d2:9b:df:70:9f:43:39:03:7e:8f:b2:bf:
         6c:71:d1:70:15:a2:78:7e:73:6e:c7:f6:db:fa:d6:5c:2f:40:
         0a:68:77:fd:b0:6d:d3:8f:22:97:79:ad:1e:3f:cf:bb:3d:81:
         07:5a:a2:84:37:af:b0:3f:fb:14:29:d4:e8:34:91:28:45:c3:
         48:13:bb:43:03:bb:e2:e7:f4:f7:15:7a:79:46:a2:fe:c7:5a:
         05:16:87:a5:e4:4a:3a:74:10:12:7a:fe:de:16:94:4e:fc:14:
         09:4e:46:fb:29:85:7d:3f:4c:29:21:c0:6e:dc:2f:01:ca:5f:
         38:d6:d5:06:17:c0:d6:c4:bf:c2:4d:53:95:9d:39:4a:4a:63:
         04:a4:a8:d4:50:d6:ce:99:f2:5b:a9:bd:d3:68:8b:ef:d6:fd:
         b5:4e:d9:83:da:5a:9c:fc:25:0d:8a:cb:c4:fa:d4:62:08:65:
         d3:5b:b7:75:95:81:90:19:79:b9:91:b4:0d:9b:68:26:f8:6f:
         2f:fd:0a:6e:11:4a:5b:31:29:83:8c:1d:fb:9d:39:fc:d1:40:
         cf:19:6c:06:ba:1a:48:38:9a:17:c4:d7:b9:70:68:80:90:d8:
         f4:f5:ad:74:e4:bb:6a:fe:98:14:94:11:1e:a2:80:92:62:e1:
         f1:8c:75:bb
-----BEGIN CERTIFICATE-----
MIIEQjCCAyqgAwIBAgIBBTANBgkqhkiG9w0BAQsFADBxMQswCQYDVQQGEwJVUzET
MBEGA1UECAwKQ2FsaWZvcm5pYTEUMBIGA1UEBwwLU2FudGEgQ2xhcmExDTALBgNV
BAoMBHBrZzUxEDAOBgNVBAMMB2NoNF90YTExFjAUBgkqhkiG9w0BCQEWB2NoNF90
YTEwHhcNMjEwOTIyMDUzMzE1WhcNMjQwNjE4MDUzMzE1WjBxMQswCQYDVQQGEwJV
UzETMBEGA1UECAwKQ2FsaWZvcm5pYTEUMBIGA1UEBwwLU2FudGEgQ2xhcmExDTAL
BgNVBAoMBHBrZzUxEDAOBgNVBAMMB2NoNV90YTExFjAUBgkqhkiG9w0BCQEWB2No
NV90YTEwggEiMA0GCSqGSIb3DQEBAQUAA4IBDwAwggEKAoIBAQDL5t0F3wSnWdWc
Ndznj/7ZbRhlrNiBb4ageZCbmzt8KfYPoEo04dH6pAmTgt3N4osmrj6FwGbITrps
GP46LEijVCLSSxyExsWsjfh3Bm3FPddp+TbXCTytLHt8Uz8VXdobZUIrcVMz46Nb
GVFeEsKpDAFc3NFzbQvyAiYvVrwCN/nYVFwUi/GxYD2IYKLmddJJnvPkD6S1RCKa
j1WsZREsIa1y3GBRNDgC/IzXsBgdU1ggituion4ns+uBwZcRCjE2VAL8JzoU6ZLH
tlr640bP3ypFqQ0GSpH6xoFJNteX0UaKoJMAqBdJSgCJ+o9Y8NAQ25CMF367yBrB
fo9uVXfHAgMBAAGjgeQwgeEwHQYDVR0OBBYEFJBlFZc0o3PJQZSmD13xFfiod0ah
MIGbBgNVHSMEgZMwgZCAFHkknp7fMSY5fu1/hYja3SFbehH/oXWkczBxMQswCQYD
VQQGEwJVUzETMBEGA1UECAwKQ2FsaWZvcm5pYTEUMBIGA1UEBwwLU2FudGEgQ2xh
cmExDTALBgNVBAoMBHBrZzUxEDAOBgNVBAMMB2NoM190YTExFjAUBgkqhkiG9w0B
CQEWB2NoM190YTGCAQQwEgYDVR0TAQH/BAgwBgEB/wIBADAOBgNVHQ8BAf8EBAMC
AQYwDQYJKoZIhvcNAQELBQADggEBAE921Cco49Kb33CfQzkDfo+yv2xx0XAVonh+
c27H9tv61lwvQApod/2wbdOPIpd5rR4/z7s9gQdaooQ3r7A/+xQp1Og0kShFw0gT
u0MDu+Ln9PcVenlGov7HWgUWh6XkSjp0EBJ6/t4WlE78FAlORvsphX0/TCkhwG7c
LwHKXzjW1QYXwNbEv8JNU5WdOUpKYwSkqNRQ1s6Z8lupvdNoi+/W/bVO2YPaWpz8
JQ2Ky8T61GIIZdNbt3WVgZAZebmRtA2baCb4by/9Cm4RSlsxKYOMHfudOfzRQM8Z
bAa6Gkg4mhfE17lwaICQ2PT1rXTku2r+mBSUER6igJJi4fGMdbs=
-----END CERTIFICATE-----
