Certificate:
    Data:
        Version: 3 (0x2)
        Serial Number: 5 (0x5)
        Signature Algorithm: sha256WithRSAEncryption
        Issuer: C=US, ST=California, L=Menlo Park, O=pkg5, CN=ch4_ta1/emailAddress=ch4_ta1
        Validity
            Not Before: Mar 21 00:49:23 2011 GMT
            Not After : Dec 15 00:49:23 2013 GMT
        Subject: C=US, ST=California, L=Menlo Park, O=pkg5, CN=ch5_ta1/emailAddress=ch5_ta1
        Subject Public Key Info:
            Public Key Algorithm: rsaEncryption
            RSA Public Key: (1024 bit)
                Modulus (1024 bit):
                    00:d3:82:fa:b8:50:8a:e0:df:3b:22:76:0f:c1:a2:
                    7b:fa:c3:09:fc:49:9f:ac:e3:9e:f1:60:66:8f:04:
                    ec:80:fd:1b:5c:a0:b1:3c:14:e0:79:d6:f9:49:d1:
                    69:21:af:c6:37:7b:f0:e1:29:9e:a5:85:45:ec:e0:
                    2b:5b:79:4b:39:28:0a:ab:5a:38:46:48:4e:c2:95:
                    b0:ff:77:50:b0:32:25:95:11:c6:52:ff:27:d0:e6:
                    83:5a:3e:6a:58:11:66:ba:84:ac:7a:d3:db:b4:75:
                    fa:41:ea:ad:af:13:5b:12:b4:c3:3b:46:38:13:5d:
                    53:b2:59:33:fc:76:5e:e9:d7
                Exponent: 65537 (0x10001)
        X509v3 extensions:
            X509v3 Subject Key Identifier: 
                ED:B5:69:19:79:F6:9F:B1:40:1F:75:72:AD:B9:B6:7B:EF:65:4A:E9
            X509v3 Authority Key Identifier: 
                keyid:52:80:D6:40:50:47:FD:82:5A:83:A4:24:CE:3E:DC:C7:E1:6F:56:00
                DirName:/C=US/ST=California/L=Menlo Park/O=pkg5/CN=ch3_ta1/emailAddress=ch3_ta1
                serial:04

            X509v3 Basic Constraints: critical
                CA:TRUE, pathlen:0
            X509v3 Key Usage: critical
                Certificate Sign, CRL Sign
    Signature Algorithm: sha256WithRSAEncryption
        13:d3:94:3b:b2:b5:f4:74:4d:09:85:d8:53:0a:c9:b5:54:ab:
        83:3b:55:9c:a6:28:33:35:fb:ba:1b:86:4c:19:39:35:f4:91:
        4c:9b:78:1e:30:73:58:41:da:b9:5b:7f:54:b1:39:5d:47:56:
        d8:cc:3a:4b:7a:1c:32:32:b8:9b:90:be:a3:f6:04:87:ea:4c:
        81:95:0a:aa:09:03:86:db:d8:61:4f:4b:ea:40:ac:09:eb:7b:
        8a:39:07:4d:6a:54:b5:fc:9b:72:52:79:9a:a5:89:01:0d:00:
        aa:6c:ab:7a:4e:1b:d8:63:c4:a2:dc:7c:51:df:7c:1c:36:ad:
        a6:ec
-----BEGIN CERTIFICATE-----
MIIDOjCCAqOgAwIBAgIBBTANBgkqhkiG9w0BAQsFADBwMQswCQYDVQQGEwJVUzET
MBEGA1UECBMKQ2FsaWZvcm5pYTETMBEGA1UEBxMKTWVubG8gUGFyazENMAsGA1UE
ChMEcGtnNTEQMA4GA1UEAxQHY2g0X3RhMTEWMBQGCSqGSIb3DQEJARYHY2g0X3Rh
MTAeFw0xMTAzMjEwMDQ5MjNaFw0xMzEyMTUwMDQ5MjNaMHAxCzAJBgNVBAYTAlVT
MRMwEQYDVQQIEwpDYWxpZm9ybmlhMRMwEQYDVQQHEwpNZW5sbyBQYXJrMQ0wCwYD
VQQKEwRwa2c1MRAwDgYDVQQDFAdjaDVfdGExMRYwFAYJKoZIhvcNAQkBFgdjaDVf
dGExMIGfMA0GCSqGSIb3DQEBAQUAA4GNADCBiQKBgQDTgvq4UIrg3zsidg/Bonv6
wwn8SZ+s457xYGaPBOyA/RtcoLE8FOB51vlJ0Wkhr8Y3e/DhKZ6lhUXs4CtbeUs5
KAqrWjhGSE7ClbD/d1CwMiWVEcZS/yfQ5oNaPmpYEWa6hKx609u0dfpB6q2vE1sS
tMM7RjgTXVOyWTP8dl7p1wIDAQABo4HjMIHgMB0GA1UdDgQWBBTttWkZefafsUAf
dXKtubZ772VK6TCBmgYDVR0jBIGSMIGPgBRSgNZAUEf9glqDpCTOPtzH4W9WAKF0
pHIwcDELMAkGA1UEBhMCVVMxEzARBgNVBAgTCkNhbGlmb3JuaWExEzARBgNVBAcT
Ck1lbmxvIFBhcmsxDTALBgNVBAoTBHBrZzUxEDAOBgNVBAMUB2NoM190YTExFjAU
BgkqhkiG9w0BCQEWB2NoM190YTGCAQQwEgYDVR0TAQH/BAgwBgEB/wIBADAOBgNV
HQ8BAf8EBAMCAQYwDQYJKoZIhvcNAQELBQADgYEAE9OUO7K19HRNCYXYUwrJtVSr
gztVnKYoMzX7uhuGTBk5NfSRTJt4HjBzWEHauVt/VLE5XUdW2Mw6S3ocMjK4m5C+
o/YEh+pMgZUKqgkDhtvYYU9L6kCsCet7ijkHTWpUtfybclJ5mqWJAQ0Aqmyrek4b
2GPEotx8Ud98HDatpuw=
-----END CERTIFICATE-----
