Certificate:
    Data:
        Version: 3 (0x2)
        Serial Number: 5 (0x5)
        Signature Algorithm: sha256WithRSAEncryption
        Issuer: C=US, ST=California, L=Santa Clara, O=pkg5, CN=ch4_ta1/emailAddress=ch4_ta1
        Validity
            Not Before: Mar 18 08:51:28 2026 GMT
            Not After : Dec 12 08:51:28 2028 GMT
        Subject: C=US, ST=California, L=Santa Clara, O=pkg5, CN=ch5_ta1/emailAddress=ch5_ta1
        Subject Public Key Info:
            Public Key Algorithm: rsaEncryption
                Public-Key: (2048 bit)
                Modulus:
                    00:bb:d5:9d:14:25:2c:61:6e:30:f4:e2:03:d7:8d:
                    a6:63:39:2d:13:45:a4:91:e4:15:86:80:4f:b8:41:
                    95:2c:38:26:33:46:dc:1c:3f:11:24:24:d6:78:ed:
                    d4:5f:f9:31:6f:4b:45:24:d4:0c:7e:75:8e:ac:66:
                    a1:a1:52:c6:e3:8f:d8:6d:c5:ba:37:d5:d9:3a:2e:
                    d7:88:11:b4:da:03:26:18:6a:20:2d:de:4d:a9:5b:
                    4a:a1:18:7d:3c:18:e4:1a:01:fc:75:aa:a1:1d:09:
                    5d:18:f8:eb:6d:db:83:12:83:cd:2b:d3:aa:4b:90:
                    27:a4:46:0f:af:02:5d:3f:fe:6b:70:53:ec:0c:f8:
                    07:49:60:5d:1b:4b:ad:d7:70:01:4b:64:80:ed:bd:
                    1f:11:bc:23:e9:65:f1:df:68:7e:d8:80:97:9d:d6:
                    c7:c2:15:a3:a5:c8:71:af:23:6a:cb:57:9a:94:f9:
                    3c:41:5d:50:4f:1f:6d:dd:59:01:de:b7:09:51:d7:
                    71:35:70:cc:8c:8f:3a:be:5e:4d:2f:66:eb:47:cb:
                    7e:25:59:02:6f:c0:2d:ef:7e:47:6b:9f:73:67:02:
                    62:00:29:6a:ce:a0:4b:70:62:64:41:2a:5e:97:00:
                    35:b3:4a:3f:56:1a:78:fd:8a:59:3c:bb:17:07:23:
                    d6:0f
                Exponent: 65537 (0x10001)
        X509v3 extensions:
            X509v3 Subject Key Identifier: 
                88:6F:5B:93:C9:D4:A3:30:CC:AA:2F:02:32:79:4E:E9:2C:3A:DA:75
            X509v3 Authority Key Identifier: 
                keyid:A3:E7:B4:93:63:FC:8B:D9:F1:90:92:08:59:71:75:EF:49:BC:AF:D3
                DirName:/C=US/ST=California/L=Santa Clara/O=pkg5/CN=ch3_ta1/emailAddress=ch3_ta1
                serial:04
            X509v3 Basic Constraints: critical
                CA:TRUE, pathlen:0
            X509v3 Key Usage: critical
                Certificate Sign, CRL Sign
    Signature Algorithm: sha256WithRSAEncryption
    Signature Value:
        59:f2:52:b5:7d:92:31:8b:a4:90:c4:24:0a:54:03:32:d8:2b:
        73:96:61:18:23:3c:10:ab:a9:eb:ef:bc:5b:68:91:ad:21:54:
        8a:ab:c9:19:dd:3b:aa:f1:55:9f:a6:58:3c:9b:88:26:d2:ae:
        5c:a1:1b:a7:53:3b:91:32:15:02:5c:97:96:16:9f:89:52:58:
        84:11:68:e6:5a:e3:c2:4c:bc:f3:65:d6:ab:e1:3b:09:46:04:
        09:1f:4a:51:d1:5c:c1:db:39:26:bb:76:94:2d:3a:28:dd:cb:
        9e:73:22:37:8d:dc:0b:25:44:9b:ec:ea:30:c5:8a:80:83:30:
        4f:61:2c:a8:1f:4d:92:29:c1:ac:40:aa:e5:80:10:b2:6d:e4:
        0d:34:ec:01:3f:bf:c6:a0:a4:d4:3d:bc:ee:70:90:7f:f8:c5:
        03:27:6e:ce:a6:00:4d:8b:9a:4d:63:3c:59:0a:1e:91:66:1f:
        c7:41:99:76:10:37:48:db:ca:5e:97:ef:a2:94:5c:40:9e:02:
        c0:a5:b7:27:3d:70:c2:e8:01:31:7b:f7:33:f6:e8:7b:64:bd:
        c8:df:71:34:f1:66:11:c5:f7:9f:1d:a4:5c:7b:74:d4:62:b8:
        80:9d:e5:a0:95:f2:3e:8a:15:16:d8:f4:6c:34:c0:40:a9:ce:
        47:fe:25:c2
-----BEGIN CERTIFICATE-----
MIIEQjCCAyqgAwIBAgIBBTANBgkqhkiG9w0BAQsFADBxMQswCQYDVQQGEwJVUzET
MBEGA1UECAwKQ2FsaWZvcm5pYTEUMBIGA1UEBwwLU2FudGEgQ2xhcmExDTALBgNV
BAoMBHBrZzUxEDAOBgNVBAMMB2NoNF90YTExFjAUBgkqhkiG9w0BCQEWB2NoNF90
YTEwHhcNMjYwMzE4MDg1MTI4WhcNMjgxMjEyMDg1MTI4WjBxMQswCQYDVQQGEwJV
UzETMBEGA1UECAwKQ2FsaWZvcm5pYTEUMBIGA1UEBwwLU2FudGEgQ2xhcmExDTAL
BgNVBAoMBHBrZzUxEDAOBgNVBAMMB2NoNV90YTExFjAUBgkqhkiG9w0BCQEWB2No
NV90YTEwggEiMA0GCSqGSIb3DQEBAQUAA4IBDwAwggEKAoIBAQC71Z0UJSxhbjD0
4gPXjaZjOS0TRaSR5BWGgE+4QZUsOCYzRtwcPxEkJNZ47dRf+TFvS0Uk1Ax+dY6s
ZqGhUsbjj9htxbo31dk6LteIEbTaAyYYaiAt3k2pW0qhGH08GOQaAfx1qqEdCV0Y
+Ott24MSg80r06pLkCekRg+vAl0//mtwU+wM+AdJYF0bS63XcAFLZIDtvR8RvCPp
ZfHfaH7YgJed1sfCFaOlyHGvI2rLV5qU+TxBXVBPH23dWQHetwlR13E1cMyMjzq+
Xk0vZutHy34lWQJvwC3vfkdrn3NnAmIAKWrOoEtwYmRBKl6XADWzSj9WGnj9ilk8
uxcHI9YPAgMBAAGjgeQwgeEwHQYDVR0OBBYEFIhvW5PJ1KMwzKovAjJ5TuksOtp1
MIGbBgNVHSMEgZMwgZCAFKPntJNj/IvZ8ZCSCFlxde9JvK/ToXWkczBxMQswCQYD
VQQGEwJVUzETMBEGA1UECAwKQ2FsaWZvcm5pYTEUMBIGA1UEBwwLU2FudGEgQ2xh
cmExDTALBgNVBAoMBHBrZzUxEDAOBgNVBAMMB2NoM190YTExFjAUBgkqhkiG9w0B
CQEWB2NoM190YTGCAQQwEgYDVR0TAQH/BAgwBgEB/wIBADAOBgNVHQ8BAf8EBAMC
AQYwDQYJKoZIhvcNAQELBQADggEBAFnyUrV9kjGLpJDEJApUAzLYK3OWYRgjPBCr
qevvvFtoka0hVIqryRndO6rxVZ+mWDybiCbSrlyhG6dTO5EyFQJcl5YWn4lSWIQR
aOZa48JMvPNl1qvhOwlGBAkfSlHRXMHbOSa7dpQtOijdy55zIjeN3AslRJvs6jDF
ioCDME9hLKgfTZIpwaxAquWAELJt5A007AE/v8agpNQ9vO5wkH/4xQMnbs6mAE2L
mk1jPFkKHpFmH8dBmXYQN0jbyl6X76KUXECeAsCltyc9cMLoATF79zP26Htkvcjf
cTTxZhHF958dpFx7dNRiuICd5aCV8j6KFRbY9Gw0wECpzkf+JcI=
-----END CERTIFICATE-----
