Certificate:
    Data:
        Version: 3 (0x2)
        Serial Number: 5 (0x5)
    Signature Algorithm: sha256WithRSAEncryption
        Issuer: C=US, ST=California, L=Santa Clara, O=pkg5, CN=ch4_ta1/emailAddress=ch4_ta1
        Validity
            Not Before: Jul 19 11:35:44 2023 GMT
            Not After : Apr 14 11:35:44 2026 GMT
        Subject: C=US, ST=California, L=Santa Clara, O=pkg5, CN=ch5_ta1/emailAddress=ch5_ta1
        Subject Public Key Info:
            Public Key Algorithm: rsaEncryption
                Public-Key: (2048 bit)
                Modulus:
                    00:d9:0c:15:a8:53:87:9f:33:fd:92:60:b6:b5:e3:
                    df:a3:e4:3d:3c:2e:3d:31:31:09:42:7f:18:6c:9e:
                    6f:68:97:f2:32:53:82:65:9f:7e:31:4c:bf:d6:ed:
                    db:99:b9:e7:bc:13:9f:81:3e:9d:a6:7a:da:60:ad:
                    cc:49:32:2b:42:12:f8:16:75:65:40:bc:d0:25:23:
                    8c:3d:76:fd:d4:eb:62:7d:32:eb:96:82:9f:7a:97:
                    b6:3a:d2:f1:75:ed:d7:42:ee:27:70:2a:d3:1c:26:
                    59:ea:86:23:96:93:d7:16:0c:85:e2:16:c0:c7:1e:
                    df:6c:31:c9:0b:67:a5:d9:04:02:98:f5:99:31:78:
                    eb:52:54:96:0e:11:f7:a9:15:ff:f5:05:52:a2:88:
                    31:dc:0d:b5:4b:85:89:d0:2e:72:4a:26:00:2b:03:
                    ed:0c:72:1d:5c:2e:53:1e:4c:77:4d:1a:14:f5:c9:
                    e1:ac:df:3f:64:4b:f3:c6:db:18:c1:83:4e:db:4a:
                    4b:7c:19:08:63:61:49:c8:be:88:c0:62:90:5b:5e:
                    fb:69:8a:48:17:e1:bd:84:0e:d5:ff:e9:dc:be:96:
                    aa:a5:69:f3:19:65:bc:93:b5:c8:0b:d8:3a:c3:a6:
                    5b:c2:74:63:b3:07:1a:92:f1:9f:10:cc:6d:2c:fb:
                    3b:b5
                Exponent: 65537 (0x10001)
        X509v3 extensions:
            X509v3 Subject Key Identifier: 
                CE:BD:86:EC:74:8B:AD:E3:92:6D:51:93:20:28:27:23:B6:88:E8:F6
            X509v3 Authority Key Identifier: 
                keyid:1B:DF:89:ED:1B:94:55:1A:84:9B:A3:37:2B:A7:24:65:58:6A:1D:DC
                DirName:/C=US/ST=California/L=Santa Clara/O=pkg5/CN=ch3_ta1/emailAddress=ch3_ta1
                serial:04

            X509v3 Basic Constraints: critical
                CA:TRUE, pathlen:0
            X509v3 Key Usage: critical
                Certificate Sign, CRL Sign
    Signature Algorithm: sha256WithRSAEncryption
         70:81:87:97:17:41:f6:03:32:35:51:2e:5f:a3:67:a9:92:0a:
         aa:04:db:86:85:4e:d9:d1:ef:48:00:9c:e6:5f:f4:57:fc:e3:
         14:26:f6:c8:55:05:69:24:ff:a1:93:fc:ee:66:6e:9d:c9:5b:
         ac:49:c1:65:92:34:1f:10:e3:fa:d0:a0:0b:02:4b:ef:58:79:
         d5:b5:23:1e:16:ea:70:53:2c:96:44:8f:d4:c2:11:b3:e7:a6:
         1b:e2:83:de:d8:07:2e:8f:76:d6:2b:48:8c:67:9b:d9:1e:48:
         24:4b:c5:67:78:56:c1:af:07:86:34:be:5f:1e:fa:05:24:b1:
         ed:e5:0e:9e:68:fb:7b:f4:31:29:1e:c8:42:da:8e:97:23:e5:
         69:d3:0b:7f:d6:ed:9c:ea:17:62:77:be:7e:fd:0b:5e:94:0c:
         e8:9f:71:b0:01:77:dc:5b:82:b8:97:a3:27:47:67:6c:46:80:
         a9:a2:6e:ef:20:d7:47:a1:1f:3c:b1:ea:6a:cd:7e:f1:4a:f8:
         bd:7f:7c:c9:4e:ec:a9:8b:8e:8a:53:84:77:a3:a1:df:cb:e8:
         81:15:71:41:99:e0:15:26:1c:dc:85:ef:c2:ae:d1:e1:92:e9:
         eb:5d:05:cf:20:e1:0e:f2:b2:3f:8b:92:10:bc:6f:a3:d8:43:
         5a:db:37:ab
-----BEGIN CERTIFICATE-----
MIIEQjCCAyqgAwIBAgIBBTANBgkqhkiG9w0BAQsFADBxMQswCQYDVQQGEwJVUzET
MBEGA1UECAwKQ2FsaWZvcm5pYTEUMBIGA1UEBwwLU2FudGEgQ2xhcmExDTALBgNV
BAoMBHBrZzUxEDAOBgNVBAMMB2NoNF90YTExFjAUBgkqhkiG9w0BCQEWB2NoNF90
YTEwHhcNMjMwNzE5MTEzNTQ0WhcNMjYwNDE0MTEzNTQ0WjBxMQswCQYDVQQGEwJV
UzETMBEGA1UECAwKQ2FsaWZvcm5pYTEUMBIGA1UEBwwLU2FudGEgQ2xhcmExDTAL
BgNVBAoMBHBrZzUxEDAOBgNVBAMMB2NoNV90YTExFjAUBgkqhkiG9w0BCQEWB2No
NV90YTEwggEiMA0GCSqGSIb3DQEBAQUAA4IBDwAwggEKAoIBAQDZDBWoU4efM/2S
YLa149+j5D08Lj0xMQlCfxhsnm9ol/IyU4Jln34xTL/W7duZuee8E5+BPp2metpg
rcxJMitCEvgWdWVAvNAlI4w9dv3U62J9MuuWgp96l7Y60vF17ddC7idwKtMcJlnq
hiOWk9cWDIXiFsDHHt9sMckLZ6XZBAKY9ZkxeOtSVJYOEfepFf/1BVKiiDHcDbVL
hYnQLnJKJgArA+0Mch1cLlMeTHdNGhT1yeGs3z9kS/PG2xjBg07bSkt8GQhjYUnI
vojAYpBbXvtpikgX4b2EDtX/6dy+lqqlafMZZbyTtcgL2DrDplvCdGOzBxqS8Z8Q
zG0s+zu1AgMBAAGjgeQwgeEwHQYDVR0OBBYEFM69hux0i63jkm1RkyAoJyO2iOj2
MIGbBgNVHSMEgZMwgZCAFBvfie0blFUahJujNyunJGVYah3coXWkczBxMQswCQYD
VQQGEwJVUzETMBEGA1UECAwKQ2FsaWZvcm5pYTEUMBIGA1UEBwwLU2FudGEgQ2xh
cmExDTALBgNVBAoMBHBrZzUxEDAOBgNVBAMMB2NoM190YTExFjAUBgkqhkiG9w0B
CQEWB2NoM190YTGCAQQwEgYDVR0TAQH/BAgwBgEB/wIBADAOBgNVHQ8BAf8EBAMC
AQYwDQYJKoZIhvcNAQELBQADggEBAHCBh5cXQfYDMjVRLl+jZ6mSCqoE24aFTtnR
70gAnOZf9Ff84xQm9shVBWkk/6GT/O5mbp3JW6xJwWWSNB8Q4/rQoAsCS+9YedW1
Ix4W6nBTLJZEj9TCEbPnphvig97YBy6PdtYrSIxnm9keSCRLxWd4VsGvB4Y0vl8e
+gUkse3lDp5o+3v0MSkeyELajpcj5WnTC3/W7ZzqF2J3vn79C16UDOifcbABd9xb
griXoydHZ2xGgKmibu8g10ehHzyx6mrNfvFK+L1/fMlO7KmLjopThHejod/L6IEV
cUGZ4BUmHNyF78Ku0eGS6etdBc8g4Q7ysj+LkhC8b6PYQ1rbN6s=
-----END CERTIFICATE-----
