Certificate:
    Data:
        Version: 3 (0x2)
        Serial Number: 5 (0x5)
    Signature Algorithm: sha256WithRSAEncryption
        Issuer: C=US, ST=California, L=Santa Clara, O=pkg5, CN=ch4_ta1/emailAddress=ch4_ta1
        Validity
            Not Before: Jan 22 01:57:54 2016 GMT
            Not After : Oct 18 01:57:54 2018 GMT
        Subject: C=US, ST=California, L=Santa Clara, O=pkg5, CN=ch5_ta1/emailAddress=ch5_ta1
        Subject Public Key Info:
            Public Key Algorithm: rsaEncryption
                Public-Key: (2048 bit)
                Modulus:
                    00:a8:92:25:84:36:2c:16:5b:7e:99:d4:a8:ac:bf:
                    2b:63:99:2c:65:69:ec:f3:13:3f:fb:b3:c9:33:0c:
                    43:1a:e9:04:a3:8c:27:5e:e5:f8:47:a5:4d:5f:39:
                    2f:9b:b9:5f:3e:2e:9c:18:8b:16:d4:4c:0c:f7:02:
                    35:37:a1:81:c6:d1:0d:43:eb:7d:1c:e4:d4:81:73:
                    58:fc:b2:94:a2:4e:04:a5:bb:b2:f4:64:d0:c6:54:
                    91:71:33:45:8e:22:a4:f2:35:1e:b3:69:e4:fc:5e:
                    a9:5b:7a:8c:7c:6a:e2:7b:2d:d0:ad:d8:d1:76:47:
                    c6:99:a6:2e:8d:1b:56:f8:8c:f7:04:2f:99:c5:3d:
                    81:67:cc:73:ec:c1:d6:97:41:73:04:1c:8b:45:eb:
                    60:f9:60:d6:11:f6:c6:5c:19:5d:d2:18:a8:2e:53:
                    78:33:46:3b:5c:43:b0:54:7d:e4:57:5a:36:08:84:
                    50:a5:c0:1e:1d:21:11:6d:63:c4:df:fc:ee:0f:a8:
                    8f:ca:7c:2a:5c:0a:2d:ad:17:64:c8:5d:e2:9b:e1:
                    d4:57:a3:8e:0f:1d:4f:60:1e:79:bf:9f:39:94:6a:
                    73:e6:19:0d:ef:74:c2:a3:fc:85:a2:03:a4:99:13:
                    9e:85:5e:f3:8c:31:f1:7d:91:50:98:6f:18:ec:fc:
                    98:2f
                Exponent: 65537 (0x10001)
        X509v3 extensions:
            X509v3 Subject Key Identifier: 
                64:B3:47:B8:70:CE:F3:CD:0F:95:A6:B0:0F:5F:D5:66:E1:1B:30:E7
            X509v3 Authority Key Identifier: 
                keyid:44:81:49:A3:5B:7C:85:F2:A7:56:19:FF:64:98:AB:61:89:3E:E1:B7
                DirName:/C=US/ST=California/L=Santa Clara/O=pkg5/CN=ch3_ta1/emailAddress=ch3_ta1
                serial:04

            X509v3 Basic Constraints: critical
                CA:TRUE, pathlen:0
            X509v3 Key Usage: critical
                Certificate Sign, CRL Sign
    Signature Algorithm: sha256WithRSAEncryption
         b6:f5:d5:78:23:16:4f:ca:8f:3a:a7:fd:a8:91:2a:c5:3e:e2:
         bf:32:ca:b3:38:6b:2f:64:9c:1d:99:d8:d2:b5:a8:2c:a4:db:
         8e:9d:31:5c:40:b9:05:32:a0:1c:b6:21:72:46:69:d1:eb:49:
         50:20:f9:e8:95:6f:e7:91:34:f9:e1:bb:3f:e7:b6:a4:f9:d3:
         12:36:3a:40:c6:76:35:a5:c9:b7:71:70:50:55:19:b4:ff:51:
         ef:40:3e:41:4f:f3:1a:70:f5:fd:3b:0a:4d:d9:43:a6:57:e4:
         42:9c:77:3d:26:7a:c2:e2:54:7f:76:6f:fd:af:52:31:29:07:
         ac:ae:78:4c:76:d9:f9:80:b5:4c:79:60:a0:e9:59:5f:bf:fe:
         cd:6a:fe:ee:92:ca:79:0e:5c:e6:1d:8f:59:a9:62:51:a1:2e:
         d9:b2:37:fa:e1:ef:7c:88:b5:29:d2:5f:13:74:76:ef:ed:fe:
         7f:e9:81:5d:9c:62:91:8f:21:ef:45:95:7c:12:a6:d5:46:45:
         8e:9e:d1:a8:9a:aa:a8:5e:fd:65:55:d2:f9:08:d0:3c:66:f9:
         69:ee:c1:0f:a9:15:06:a9:8e:ac:e0:08:06:13:0c:7e:9c:81:
         94:60:1b:ad:3a:7d:3e:ed:b4:79:d2:51:0c:80:8c:42:69:fe:
         f3:99:56:1c
-----BEGIN CERTIFICATE-----
MIIEQjCCAyqgAwIBAgIBBTANBgkqhkiG9w0BAQsFADBxMQswCQYDVQQGEwJVUzET
MBEGA1UECAwKQ2FsaWZvcm5pYTEUMBIGA1UEBwwLU2FudGEgQ2xhcmExDTALBgNV
BAoMBHBrZzUxEDAOBgNVBAMMB2NoNF90YTExFjAUBgkqhkiG9w0BCQEWB2NoNF90
YTEwHhcNMTYwMTIyMDE1NzU0WhcNMTgxMDE4MDE1NzU0WjBxMQswCQYDVQQGEwJV
UzETMBEGA1UECAwKQ2FsaWZvcm5pYTEUMBIGA1UEBwwLU2FudGEgQ2xhcmExDTAL
BgNVBAoMBHBrZzUxEDAOBgNVBAMMB2NoNV90YTExFjAUBgkqhkiG9w0BCQEWB2No
NV90YTEwggEiMA0GCSqGSIb3DQEBAQUAA4IBDwAwggEKAoIBAQCokiWENiwWW36Z
1KisvytjmSxlaezzEz/7s8kzDEMa6QSjjCde5fhHpU1fOS+buV8+LpwYixbUTAz3
AjU3oYHG0Q1D630c5NSBc1j8spSiTgSlu7L0ZNDGVJFxM0WOIqTyNR6zaeT8Xqlb
eox8auJ7LdCt2NF2R8aZpi6NG1b4jPcEL5nFPYFnzHPswdaXQXMEHItF62D5YNYR
9sZcGV3SGKguU3gzRjtcQ7BUfeRXWjYIhFClwB4dIRFtY8Tf/O4PqI/KfCpcCi2t
F2TIXeKb4dRXo44PHU9gHnm/nzmUanPmGQ3vdMKj/IWiA6SZE56FXvOMMfF9kVCY
bxjs/JgvAgMBAAGjgeQwgeEwHQYDVR0OBBYEFGSzR7hwzvPND5WmsA9f1WbhGzDn
MIGbBgNVHSMEgZMwgZCAFESBSaNbfIXyp1YZ/2SYq2GJPuG3oXWkczBxMQswCQYD
VQQGEwJVUzETMBEGA1UECAwKQ2FsaWZvcm5pYTEUMBIGA1UEBwwLU2FudGEgQ2xh
cmExDTALBgNVBAoMBHBrZzUxEDAOBgNVBAMMB2NoM190YTExFjAUBgkqhkiG9w0B
CQEWB2NoM190YTGCAQQwEgYDVR0TAQH/BAgwBgEB/wIBADAOBgNVHQ8BAf8EBAMC
AQYwDQYJKoZIhvcNAQELBQADggEBALb11XgjFk/Kjzqn/aiRKsU+4r8yyrM4ay9k
nB2Z2NK1qCyk246dMVxAuQUyoBy2IXJGadHrSVAg+eiVb+eRNPnhuz/ntqT50xI2
OkDGdjWlybdxcFBVGbT/Ue9APkFP8xpw9f07Ck3ZQ6ZX5EKcdz0mesLiVH92b/2v
UjEpB6yueEx22fmAtUx5YKDpWV+//s1q/u6SynkOXOYdj1mpYlGhLtmyN/rh73yI
tSnSXxN0du/t/n/pgV2cYpGPIe9FlXwSptVGRY6e0aiaqqhe/WVV0vkI0Dxm+Wnu
wQ+pFQapjqzgCAYTDH6cgZRgG606fT7ttHnSUQyAjEJp/vOZVhw=
-----END CERTIFICATE-----
