Certificate Revocation List (CRL):
        Version 1 (0x0)
        Signature Algorithm: sha256WithRSAEncryption
        Issuer: /C=US/ST=California/L=Menlo Park/O=pkg5/CN=ch1.1_ta4/emailAddress=ch1.1_ta4
        Last Update: Apr 11 22:37:52 2011 GMT
        Next Update: Jan  5 22:37:52 2014 GMT
Revoked Certificates:
    Serial Number: 07
        Revocation Date: Apr 11 22:37:40 2011 GMT
    Serial Number: 23
        Revocation Date: Apr 11 22:37:50 2011 GMT
    Serial Number: 27
        Revocation Date: Apr 11 22:37:51 2011 GMT
    Signature Algorithm: sha256WithRSAEncryption
        43:11:2b:b7:e3:53:78:1d:44:94:46:89:65:a1:5a:92:32:97:
        7a:77:06:4f:c0:49:01:c2:ad:32:d5:c8:f4:03:db:cb:71:5c:
        7d:4c:b9:48:ae:7f:3d:18:11:9d:5d:f2:c0:75:a5:88:eb:0d:
        b3:05:ed:0e:94:a0:19:2b:69:cf:6e:9a:04:bd:81:25:e8:aa:
        7c:82:8d:37:c7:01:5f:21:79:5f:ed:ae:ff:79:e3:26:98:a9:
        54:ba:53:3b:9c:bd:c4:67:24:5d:ec:a7:4f:d3:93:7e:1c:73:
        48:79:e5:55:06:f5:88:49:10:4a:da:0a:66:05:5c:b2:0f:81:
        37:c6
-----BEGIN X509 CRL-----
MIIBdzCB4TANBgkqhkiG9w0BAQsFADB0MQswCQYDVQQGEwJVUzETMBEGA1UECBMK
Q2FsaWZvcm5pYTETMBEGA1UEBxMKTWVubG8gUGFyazENMAsGA1UEChMEcGtnNTES
MBAGA1UEAxQJY2gxLjFfdGE0MRgwFgYJKoZIhvcNAQkBFgljaDEuMV90YTQXDTEx
MDQxMTIyMzc1MloXDTE0MDEwNTIyMzc1MlowPDASAgEHFw0xMTA0MTEyMjM3NDBa
MBICASMXDTExMDQxMTIyMzc1MFowEgIBJxcNMTEwNDExMjIzNzUxWjANBgkqhkiG
9w0BAQsFAAOBgQBDESu341N4HUSURolloVqSMpd6dwZPwEkBwq0y1cj0A9vLcVx9
TLlIrn89GBGdXfLAdaWI6w2zBe0OlKAZK2nPbpoEvYEl6Kp8go03xwFfIXlf7a7/
eeMmmKlUulM7nL3EZyRd7KdP05N+HHNIeeVVBvWISRBK2gpmBVyyD4E3xg==
-----END X509 CRL-----
