Certificate Revocation List (CRL):
        Version 1 (0x0)
    Signature Algorithm: sha256WithRSAEncryption
        Issuer: /C=US/ST=California/L=Santa Clara/O=pkg5/CN=ch1.1_ta4/emailAddress=ch1.1_ta4
        Last Update: Jul 19 11:35:51 2023 GMT
        Next Update: Apr 14 11:35:51 2026 GMT
Revoked Certificates:
    Serial Number: 07
        Revocation Date: Jul 19 11:35:44 2023 GMT
    Serial Number: 23
        Revocation Date: Jul 19 11:35:50 2023 GMT
    Serial Number: 27
        Revocation Date: Jul 19 11:35:51 2023 GMT
    Signature Algorithm: sha256WithRSAEncryption
         58:30:8f:c3:13:8f:da:9a:77:d5:f7:1f:1b:04:c0:04:69:dc:
         e3:33:3b:60:b3:9b:10:2e:98:fd:80:04:71:ef:1c:04:e9:6c:
         72:d2:57:2c:8c:98:f7:4e:4e:09:c3:37:dc:3d:4c:99:57:17:
         7c:fa:4e:94:38:26:7f:79:a9:c8:d0:a6:13:88:3d:10:6c:3a:
         f4:e9:bf:0c:be:79:02:e8:b0:4a:74:8f:a3:ae:80:6f:72:ba:
         55:41:14:08:8c:f2:a2:1e:93:65:8f:7f:06:1d:56:59:a5:c2:
         4b:a7:d8:13:80:f6:b5:96:4f:84:f6:b4:a9:f3:d5:c0:fa:eb:
         8a:61:bd:a7:c8:cd:ed:e9:34:14:78:2f:28:f4:8a:e4:19:7d:
         ed:c4:8f:18:44:ea:94:eb:9e:e2:d1:0d:da:f3:42:c4:fd:2b:
         be:69:62:c1:e8:dd:56:0e:d6:19:d2:75:1e:2a:46:b7:f8:49:
         e3:aa:87:be:e4:ef:9a:54:fb:39:0b:b9:ee:95:0d:7e:f6:ac:
         81:86:f8:3e:45:fa:81:c1:9c:ec:de:c8:e1:57:4b:ad:56:9b:
         13:8a:dc:d0:b3:48:a7:2f:3a:df:c1:36:77:23:1a:7a:70:e0:
         fb:12:16:90:71:f4:ab:70:6e:c8:70:57:10:bf:93:22:21:72:
         ad:3d:6f:8e
-----BEGIN X509 CRL-----
MIIB+TCB4jANBgkqhkiG9w0BAQsFADB1MQswCQYDVQQGEwJVUzETMBEGA1UECAwK
Q2FsaWZvcm5pYTEUMBIGA1UEBwwLU2FudGEgQ2xhcmExDTALBgNVBAoMBHBrZzUx
EjAQBgNVBAMMCWNoMS4xX3RhNDEYMBYGCSqGSIb3DQEJARYJY2gxLjFfdGE0Fw0y
MzA3MTkxMTM1NTFaFw0yNjA0MTQxMTM1NTFaMDwwEgIBBxcNMjMwNzE5MTEzNTQ0
WjASAgEjFw0yMzA3MTkxMTM1NTBaMBICAScXDTIzMDcxOTExMzU1MVowDQYJKoZI
hvcNAQELBQADggEBAFgwj8MTj9qad9X3HxsEwARp3OMzO2CzmxAumP2ABHHvHATp
bHLSVyyMmPdOTgnDN9w9TJlXF3z6TpQ4Jn95qcjQphOIPRBsOvTpvwy+eQLosEp0
j6OugG9yulVBFAiM8qIek2WPfwYdVlmlwkun2BOA9rWWT4T2tKnz1cD664phvafI
ze3pNBR4Lyj0iuQZfe3EjxhE6pTrnuLRDdrzQsT9K75pYsHo3VYO1hnSdR4qRrf4
SeOqh77k75pU+zkLue6VDX72rIGG+D5F+oHBnOzeyOFXS61WmxOK3NCzSKcvOt/B
NncjGnpw4PsSFpBx9KtwbshwVxC/kyIhcq09b44=
-----END X509 CRL-----
