Certificate Revocation List (CRL):
        Version 1 (0x0)
        Signature Algorithm: sha256WithRSAEncryption
        Issuer: /C=US/ST=California/L=Menlo Park/O=pkg5/CN=ch1.1_ta4/emailAddress=ch1.1_ta4
        Last Update: Mar 21 00:49:34 2011 GMT
        Next Update: Dec 15 00:49:34 2013 GMT
Revoked Certificates:
    Serial Number: 07
        Revocation Date: Mar 21 00:49:24 2011 GMT
    Serial Number: 23
        Revocation Date: Mar 21 00:49:32 2011 GMT
    Serial Number: 27
        Revocation Date: Mar 21 00:49:34 2011 GMT
    Signature Algorithm: sha256WithRSAEncryption
        31:4b:ae:a8:e4:93:46:5d:3a:10:72:b5:d0:c0:44:d9:3d:aa:
        cc:a1:19:b9:8a:80:64:5e:95:71:67:ed:cd:99:1c:05:0b:af:
        ee:68:a6:ee:dd:b9:cb:c8:7a:36:da:a5:3a:34:60:62:7c:38:
        91:37:4b:36:61:87:2d:b3:d9:95:40:25:ab:e2:1d:4c:27:0f:
        fb:01:cb:14:6a:c7:d3:60:ef:54:2c:d9:f5:a7:57:d1:1d:9d:
        fe:28:ef:f3:2c:37:91:08:51:eb:e6:9a:f1:35:8a:bc:00:20:
        64:74:e5:a1:7d:c4:19:ad:54:2e:52:71:c8:70:44:a6:53:7b:
        2e:88
-----BEGIN X509 CRL-----
MIIBdzCB4TANBgkqhkiG9w0BAQsFADB0MQswCQYDVQQGEwJVUzETMBEGA1UECBMK
Q2FsaWZvcm5pYTETMBEGA1UEBxMKTWVubG8gUGFyazENMAsGA1UEChMEcGtnNTES
MBAGA1UEAxQJY2gxLjFfdGE0MRgwFgYJKoZIhvcNAQkBFgljaDEuMV90YTQXDTEx
MDMyMTAwNDkzNFoXDTEzMTIxNTAwNDkzNFowPDASAgEHFw0xMTAzMjEwMDQ5MjRa
MBICASMXDTExMDMyMTAwNDkzMlowEgIBJxcNMTEwMzIxMDA0OTM0WjANBgkqhkiG
9w0BAQsFAAOBgQAxS66o5JNGXToQcrXQwETZParMoRm5ioBkXpVxZ+3NmRwFC6/u
aKbu3bnLyHo22qU6NGBifDiRN0s2YYcts9mVQCWr4h1MJw/7AcsUasfTYO9ULNn1
p1fRHZ3+KO/zLDeRCFHr5prxNYq8ACBkdOWhfcQZrVQuUnHIcESmU3suiA==
-----END X509 CRL-----
