Certificate Revocation List (CRL):
        Version 1 (0x0)
        Signature Algorithm: sha256WithRSAEncryption
        Issuer: C = US, ST = California, L = Santa Clara, O = pkg5, CN = ch1.1_ta4, emailAddress = ch1.1_ta4
        Last Update: Mar 18 08:51:43 2026 GMT
        Next Update: Dec 12 08:51:43 2028 GMT
Revoked Certificates:
    Serial Number: 07
        Revocation Date: Mar 18 08:51:29 2026 GMT
    Serial Number: 23
        Revocation Date: Mar 18 08:51:42 2026 GMT
    Serial Number: 27
        Revocation Date: Mar 18 08:51:43 2026 GMT
    Signature Algorithm: sha256WithRSAEncryption
    Signature Value:
        32:99:c4:3c:a4:3f:84:c8:8e:5c:94:23:1c:d0:a3:49:a0:61:
        34:e7:ea:cc:69:26:4a:d3:76:b1:3a:b8:a6:73:11:2b:3a:2e:
        65:b4:1a:e2:49:a8:c6:e0:52:58:90:8a:44:c6:0b:5c:33:65:
        a7:85:71:0a:c2:7a:d7:77:7b:23:04:35:fd:19:ac:67:de:ad:
        27:7a:13:52:3c:9e:50:bd:58:29:d1:1f:77:14:31:1a:ad:31:
        d7:a5:e7:fc:42:94:57:28:0a:fc:f1:a8:c9:a9:ea:e4:82:8b:
        8d:eb:c4:b4:79:ed:30:4f:ec:5c:7b:70:b2:09:4b:e6:e9:0e:
        b7:00:b4:2b:c6:3c:cb:e6:d7:b7:40:9b:e3:19:ea:3a:9d:ae:
        14:bc:89:b9:5a:d3:a9:12:ee:54:74:0a:c8:29:95:2c:3e:82:
        5c:d9:ff:75:67:ce:27:06:81:d1:40:5f:70:d0:bb:a2:2d:0e:
        20:59:fe:87:0b:37:ac:f9:b1:7b:35:62:4f:3e:f7:45:4d:94:
        6f:56:5d:63:9d:a4:c8:94:38:9e:b0:a4:7e:48:32:3b:d5:8e:
        4b:f2:c8:b5:47:4b:58:58:b5:bb:20:e3:2c:0d:b2:61:82:cf:
        39:8a:4e:b4:bf:6d:8b:06:1c:1a:c7:1e:be:94:df:c2:77:99:
        88:be:01:24
-----BEGIN X509 CRL-----
MIIB+TCB4jANBgkqhkiG9w0BAQsFADB1MQswCQYDVQQGEwJVUzETMBEGA1UECAwK
Q2FsaWZvcm5pYTEUMBIGA1UEBwwLU2FudGEgQ2xhcmExDTALBgNVBAoMBHBrZzUx
EjAQBgNVBAMMCWNoMS4xX3RhNDEYMBYGCSqGSIb3DQEJARYJY2gxLjFfdGE0Fw0y
NjAzMTgwODUxNDNaFw0yODEyMTIwODUxNDNaMDwwEgIBBxcNMjYwMzE4MDg1MTI5
WjASAgEjFw0yNjAzMTgwODUxNDJaMBICAScXDTI2MDMxODA4NTE0M1owDQYJKoZI
hvcNAQELBQADggEBADKZxDykP4TIjlyUIxzQo0mgYTTn6sxpJkrTdrE6uKZzESs6
LmW0GuJJqMbgUliQikTGC1wzZaeFcQrCetd3eyMENf0ZrGferSd6E1I8nlC9WCnR
H3cUMRqtMdel5/xClFcoCvzxqMmp6uSCi43rxLR57TBP7Fx7cLIJS+bpDrcAtCvG
PMvm17dAm+MZ6jqdrhS8ibla06kS7lR0CsgplSw+glzZ/3VnzicGgdFAX3DQu6It
DiBZ/ocLN6z5sXs1Yk8+90VNlG9WXWOdpMiUOJ6wpH5IMjvVjkvyyLVHS1hYtbsg
4ywNsmGCzzmKTrS/bYsGHBrHHr6U38J3mYi+ASQ=
-----END X509 CRL-----
