Certificate Revocation List (CRL):
        Version 1 (0x0)
    Signature Algorithm: sha256WithRSAEncryption
        Issuer: /C=US/ST=California/L=Santa Clara/O=pkg5/CN=ch1.1_ta4/emailAddress=ch1.1_ta4
        Last Update: Dec 13 00:13:38 2013 GMT
        Next Update: Sep  8 00:13:38 2016 GMT
Revoked Certificates:
    Serial Number: 07
        Revocation Date: Dec 13 00:13:34 2013 GMT
    Serial Number: 23
        Revocation Date: Dec 13 00:13:37 2013 GMT
    Serial Number: 27
        Revocation Date: Dec 13 00:13:38 2013 GMT
    Signature Algorithm: sha256WithRSAEncryption
         30:87:00:ce:08:9a:17:d1:76:60:ae:cc:53:9c:5d:89:51:72:
         2b:f6:63:3f:72:73:63:70:4f:2d:f8:62:63:ca:b4:59:3e:e5:
         4f:fc:90:81:9f:a8:72:2f:3a:4b:c0:db:f2:c3:7c:ec:c7:8a:
         cc:6f:7e:a1:88:2a:6f:a1:e3:99:03:7d:1d:69:df:6b:35:f6:
         00:1f:58:94:d8:fa:65:1c:a8:c4:a1:ed:69:80:ee:2a:72:b8:
         34:04:89:f2:5a:26:96:f0:23:37:9f:5d:18:49:e8:74:8d:af:
         5a:03:b8:ec:e0:b8:7b:1c:ca:29:7b:1d:54:b3:1b:73:89:e4:
         ee:69
-----BEGIN X509 CRL-----
MIIBeDCB4jANBgkqhkiG9w0BAQsFADB1MQswCQYDVQQGEwJVUzETMBEGA1UECAwK
Q2FsaWZvcm5pYTEUMBIGA1UEBwwLU2FudGEgQ2xhcmExDTALBgNVBAoMBHBrZzUx
EjAQBgNVBAMMCWNoMS4xX3RhNDEYMBYGCSqGSIb3DQEJARYJY2gxLjFfdGE0Fw0x
MzEyMTMwMDEzMzhaFw0xNjA5MDgwMDEzMzhaMDwwEgIBBxcNMTMxMjEzMDAxMzM0
WjASAgEjFw0xMzEyMTMwMDEzMzdaMBICAScXDTEzMTIxMzAwMTMzOFowDQYJKoZI
hvcNAQELBQADgYEAMIcAzgiaF9F2YK7MU5xdiVFyK/ZjP3JzY3BPLfhiY8q0WT7l
T/yQgZ+oci86S8Db8sN87MeKzG9+oYgqb6HjmQN9HWnfazX2AB9YlNj6ZRyoxKHt
aYDuKnK4NASJ8lomlvAjN59dGEnodI2vWgO47OC4exzKKXsdVLMbc4nk7mk=
-----END X509 CRL-----
