Certificate Revocation List (CRL):
        Version 1 (0x0)
    Signature Algorithm: sha256WithRSAEncryption
        Issuer: /C=US/ST=California/L=Santa Clara/O=pkg5/CN=ch1.1_ta4/emailAddress=ch1.1_ta4
        Last Update: Jan 22 01:57:59 2016 GMT
        Next Update: Oct 18 01:57:59 2018 GMT
Revoked Certificates:
    Serial Number: 07
        Revocation Date: Jan 22 01:57:54 2016 GMT
    Serial Number: 24
        Revocation Date: Jan 22 01:57:59 2016 GMT
    Serial Number: 28
        Revocation Date: Jan 22 01:57:59 2016 GMT
    Signature Algorithm: sha256WithRSAEncryption
         4b:a6:eb:e7:16:1a:75:c1:6c:b2:67:d8:f4:37:b2:f3:b7:a8:
         fe:6c:34:61:a6:f5:1f:10:a8:6c:d8:4e:e4:7d:9e:f9:54:75:
         19:65:ac:eb:ef:6a:43:86:2e:2d:24:12:85:fb:63:cd:31:c5:
         6e:07:33:08:a2:39:8d:9d:b4:66:84:11:56:e3:f0:85:93:b8:
         7e:5c:a5:2d:68:ba:32:4e:9d:eb:f5:4c:98:e8:15:03:8d:34:
         31:50:0a:f3:63:8d:d1:ed:97:7b:ac:26:59:06:5c:29:59:30:
         07:24:95:fa:8c:4b:12:16:d6:8a:c4:35:66:1c:bb:fd:f6:e3:
         f7:45:b9:f9:ce:58:a8:fc:ad:d6:bd:fb:d7:39:4f:dd:86:86:
         5c:ab:14:10:da:f3:43:a3:6b:d3:86:63:13:41:11:13:69:8a:
         94:ad:a5:83:97:4c:30:94:fb:a4:01:b9:4c:a7:fc:ed:73:29:
         cc:70:ed:45:3e:96:c5:35:04:29:b0:49:dc:3b:b8:b2:6a:8a:
         a9:98:b3:ed:b7:db:3c:9d:16:07:5f:b5:d0:77:79:56:69:6f:
         49:c3:65:73:44:7a:63:2a:de:b8:bc:fb:b4:b2:23:19:cb:01:
         17:aa:82:4b:a7:2d:e2:e8:d9:a1:7d:75:81:b3:28:40:4c:88:
         c2:45:60:4d
-----BEGIN X509 CRL-----
MIIB+TCB4jANBgkqhkiG9w0BAQsFADB1MQswCQYDVQQGEwJVUzETMBEGA1UECAwK
Q2FsaWZvcm5pYTEUMBIGA1UEBwwLU2FudGEgQ2xhcmExDTALBgNVBAoMBHBrZzUx
EjAQBgNVBAMMCWNoMS4xX3RhNDEYMBYGCSqGSIb3DQEJARYJY2gxLjFfdGE0Fw0x
NjAxMjIwMTU3NTlaFw0xODEwMTgwMTU3NTlaMDwwEgIBBxcNMTYwMTIyMDE1NzU0
WjASAgEkFw0xNjAxMjIwMTU3NTlaMBICASgXDTE2MDEyMjAxNTc1OVowDQYJKoZI
hvcNAQELBQADggEBAEum6+cWGnXBbLJn2PQ3svO3qP5sNGGm9R8QqGzYTuR9nvlU
dRllrOvvakOGLi0kEoX7Y80xxW4HMwiiOY2dtGaEEVbj8IWTuH5cpS1oujJOnev1
TJjoFQONNDFQCvNjjdHtl3usJlkGXClZMAcklfqMSxIW1orENWYcu/324/dFufnO
WKj8rda9+9c5T92GhlyrFBDa80Oja9OGYxNBERNpipStpYOXTDCU+6QBuUyn/O1z
Kcxw7UU+lsU1BCmwSdw7uLJqiqmYs+232zydFgdftdB3eVZpb0nDZXNEemMq3ri8
+7SyIxnLAReqgkunLeLo2aF9dYGzKEBMiMJFYE0=
-----END X509 CRL-----
