Certificate Revocation List (CRL):
        Version 1 (0x0)
    Signature Algorithm: sha256WithRSAEncryption
        Issuer: /C=US/ST=California/L=Santa Clara/O=pkg5/CN=ch1.1_ta4/emailAddress=ch1.1_ta4
        Last Update: Sep 22 05:33:33 2021 GMT
        Next Update: Jun 18 05:33:33 2024 GMT
Revoked Certificates:
    Serial Number: 07
        Revocation Date: Sep 22 05:33:16 2021 GMT
    Serial Number: 23
        Revocation Date: Sep 22 05:33:30 2021 GMT
    Serial Number: 27
        Revocation Date: Sep 22 05:33:33 2021 GMT
    Signature Algorithm: sha256WithRSAEncryption
         e4:ec:58:20:c9:42:91:cc:26:c1:8c:3d:42:8d:7a:58:3a:d2:
         b0:67:b2:a5:b0:45:e9:aa:aa:23:e1:66:66:df:d2:4b:44:8b:
         ad:2e:68:a5:e3:e7:81:ea:a4:cb:24:0f:bf:84:a2:27:4c:cd:
         62:7b:06:f3:42:f1:3f:ac:7b:e8:cb:ac:38:88:6c:98:73:54:
         fd:2d:1e:62:89:5f:3e:36:ff:51:8c:59:38:de:d7:9e:52:1b:
         5c:2f:b2:f0:90:38:25:5c:a5:90:82:45:4c:8c:87:0d:35:36:
         bb:7d:2a:35:fc:4c:8d:11:2a:49:62:fc:8d:0d:50:d5:84:e2:
         69:2f:8b:22:46:da:07:10:e7:28:50:ea:b1:02:7d:ad:80:6c:
         74:68:07:4b:4e:8c:86:8f:0d:0e:42:47:c0:64:46:b1:d0:13:
         ae:c7:c9:56:13:1b:94:c2:f8:ce:20:7d:42:05:f5:1a:9b:67:
         ec:bd:5f:59:0f:33:ca:c8:95:ed:b1:28:dc:e3:58:93:37:2e:
         6c:e1:96:c0:00:29:40:92:2c:e4:9d:b9:6d:8d:f3:2d:22:8c:
         bf:53:8f:b8:ab:55:c1:26:cf:31:0c:0b:b1:57:dd:ef:cb:af:
         18:0f:78:3d:a2:6b:cf:e6:95:55:cf:2b:80:f6:d7:35:24:47:
         36:16:5d:eb
-----BEGIN X509 CRL-----
MIIB+TCB4jANBgkqhkiG9w0BAQsFADB1MQswCQYDVQQGEwJVUzETMBEGA1UECAwK
Q2FsaWZvcm5pYTEUMBIGA1UEBwwLU2FudGEgQ2xhcmExDTALBgNVBAoMBHBrZzUx
EjAQBgNVBAMMCWNoMS4xX3RhNDEYMBYGCSqGSIb3DQEJARYJY2gxLjFfdGE0Fw0y
MTA5MjIwNTMzMzNaFw0yNDA2MTgwNTMzMzNaMDwwEgIBBxcNMjEwOTIyMDUzMzE2
WjASAgEjFw0yMTA5MjIwNTMzMzBaMBICAScXDTIxMDkyMjA1MzMzM1owDQYJKoZI
hvcNAQELBQADggEBAOTsWCDJQpHMJsGMPUKNelg60rBnsqWwRemqqiPhZmbf0ktE
i60uaKXj54HqpMskD7+EoidMzWJ7BvNC8T+se+jLrDiIbJhzVP0tHmKJXz42/1GM
WTje155SG1wvsvCQOCVcpZCCRUyMhw01Nrt9KjX8TI0RKkli/I0NUNWE4mkviyJG
2gcQ5yhQ6rECfa2AbHRoB0tOjIaPDQ5CR8BkRrHQE67HyVYTG5TC+M4gfUIF9Rqb
Z+y9X1kPM8rIle2xKNzjWJM3LmzhlsAAKUCSLOSduW2N8y0ijL9Tj7irVcEmzzEM
C7FX3e/LrxgPeD2ia8/mlVXPK4D21zUkRzYWXes=
-----END X509 CRL-----
