Certificate Revocation List (CRL):
        Version 1 (0x0)
    Signature Algorithm: sha256WithRSAEncryption
        Issuer: /C=US/ST=California/L=Santa Clara/O=pkg5/CN=ch1.1_ta4/emailAddress=ch1.1_ta4
        Last Update: Jan 22 15:33:14 2019 GMT
        Next Update: Oct 18 15:33:14 2021 GMT
Revoked Certificates:
    Serial Number: 07
        Revocation Date: Jan 22 15:33:07 2019 GMT
    Serial Number: 23
        Revocation Date: Jan 22 15:33:13 2019 GMT
    Serial Number: 27
        Revocation Date: Jan 22 15:33:14 2019 GMT
    Signature Algorithm: sha256WithRSAEncryption
         15:ba:e8:bb:8d:9c:59:fe:aa:be:38:0d:f8:b5:15:42:39:95:
         80:60:fe:0e:3f:27:1a:a1:02:6c:42:d9:56:71:9d:b8:54:2b:
         3b:f0:c6:0f:65:a3:7d:87:df:0d:65:36:70:c2:2c:23:f3:ca:
         18:14:95:70:d7:3a:b6:fe:c1:11:27:4c:07:2e:ef:f3:c9:70:
         7a:be:27:06:6b:40:7f:46:61:84:95:0a:29:3b:da:f1:23:6f:
         f7:f2:4d:e7:27:a3:94:46:a7:1d:09:ae:d3:48:31:7a:0b:38:
         72:be:37:ec:6a:1b:66:56:79:50:4c:34:3b:d3:e5:7d:47:79:
         37:3a:c3:a7:79:03:8b:58:f3:92:35:0c:aa:64:82:24:76:ec:
         29:2d:21:3f:e1:3a:35:22:ee:39:60:ef:89:e4:5e:8f:ad:f1:
         49:66:37:0c:ae:6a:40:97:02:af:26:26:8d:81:83:8f:5f:92:
         a9:e5:24:de:08:46:f9:73:be:88:30:21:04:91:4f:da:ee:5b:
         5b:f4:18:68:62:d2:ef:50:ac:73:05:2e:24:69:db:b7:06:2a:
         e4:1a:5e:03:4e:86:28:7d:1a:72:bb:d9:ad:55:fe:48:f1:b2:
         f1:dc:f4:93:7a:12:41:63:37:5d:21:4f:2f:c1:ae:b5:e6:62:
         62:c6:f0:31
-----BEGIN X509 CRL-----
MIIB+TCB4jANBgkqhkiG9w0BAQsFADB1MQswCQYDVQQGEwJVUzETMBEGA1UECAwK
Q2FsaWZvcm5pYTEUMBIGA1UEBwwLU2FudGEgQ2xhcmExDTALBgNVBAoMBHBrZzUx
EjAQBgNVBAMMCWNoMS4xX3RhNDEYMBYGCSqGSIb3DQEJARYJY2gxLjFfdGE0Fw0x
OTAxMjIxNTMzMTRaFw0yMTEwMTgxNTMzMTRaMDwwEgIBBxcNMTkwMTIyMTUzMzA3
WjASAgEjFw0xOTAxMjIxNTMzMTNaMBICAScXDTE5MDEyMjE1MzMxNFowDQYJKoZI
hvcNAQELBQADggEBABW66LuNnFn+qr44Dfi1FUI5lYBg/g4/JxqhAmxC2VZxnbhU
Kzvwxg9lo32H3w1lNnDCLCPzyhgUlXDXOrb+wREnTAcu7/PJcHq+JwZrQH9GYYSV
Cik72vEjb/fyTecno5RGpx0JrtNIMXoLOHK+N+xqG2ZWeVBMNDvT5X1HeTc6w6d5
A4tY85I1DKpkgiR27CktIT/hOjUi7jlg74nkXo+t8UlmNwyuakCXAq8mJo2Bg49f
kqnlJN4IRvlzvogwIQSRT9ruW1v0GGhi0u9QrHMFLiRp27cGKuQaXgNOhih9GnK7
2a1V/kjxsvHc9JN6EkFjN10hTy/BrrXmYmLG8DE=
-----END X509 CRL-----
