Certificate Revocation List (CRL):
        Version 1 (0x0)
    Signature Algorithm: sha256WithRSAEncryption
        Issuer: /C=US/ST=California/L=Santa Clara/O=pkg5/CN=ch1_ta4/emailAddress=ch1_ta4
        Last Update: Sep 22 05:33:30 2021 GMT
        Next Update: Jun 18 05:33:30 2024 GMT
Revoked Certificates:
    Serial Number: 07
        Revocation Date: Sep 22 05:33:16 2021 GMT
    Serial Number: 23
        Revocation Date: Sep 22 05:33:30 2021 GMT
    Signature Algorithm: sha256WithRSAEncryption
         c7:e1:fb:a1:68:eb:9c:9d:5c:8f:f4:bf:94:1e:5a:96:60:da:
         15:4a:24:09:fb:30:b5:37:bb:88:1f:12:5a:f3:7a:36:2e:b0:
         12:5d:8e:cb:46:ca:7d:3e:f1:20:02:f4:59:f4:83:04:10:1f:
         81:73:83:6e:93:ed:1f:a4:ae:22:14:40:af:30:25:76:bb:78:
         e9:49:c0:ab:14:a1:49:a9:3a:02:ea:1f:ce:ce:e2:66:f5:33:
         8f:7d:92:f3:1b:8b:b4:7d:de:72:7b:7a:b6:ab:d0:71:2f:10:
         94:a4:76:23:63:b4:ab:24:0c:0b:59:7f:69:99:50:b4:fa:32:
         74:24:cf:3e:1d:09:c7:ca:35:0b:a6:c4:a6:1b:0f:5b:6c:02:
         3d:73:c3:35:7d:74:6c:68:61:c5:a8:37:4d:1e:e5:3d:bf:b6:
         5d:7e:b8:14:2e:41:44:70:1d:6e:b2:1e:c6:be:f1:4b:b8:9f:
         4c:e8:30:85:6f:7b:57:b7:c6:18:04:66:05:a9:c6:33:3c:a9:
         55:19:da:2f:f5:3a:20:c1:5d:c2:97:ed:4f:5b:5d:b6:eb:64:
         9b:e7:e8:9a:a8:59:8e:18:b6:f7:10:8c:82:fb:61:3a:4f:90:
         fa:c0:6f:a0:35:57:1e:08:18:99:3b:aa:a8:bb:17:41:3c:bc:
         a6:53:5d:7a
-----BEGIN X509 CRL-----
MIIB4TCByjANBgkqhkiG9w0BAQsFADBxMQswCQYDVQQGEwJVUzETMBEGA1UECAwK
Q2FsaWZvcm5pYTEUMBIGA1UEBwwLU2FudGEgQ2xhcmExDTALBgNVBAoMBHBrZzUx
EDAOBgNVBAMMB2NoMV90YTQxFjAUBgkqhkiG9w0BCQEWB2NoMV90YTQXDTIxMDky
MjA1MzMzMFoXDTI0MDYxODA1MzMzMFowKDASAgEHFw0yMTA5MjIwNTMzMTZaMBIC
ASMXDTIxMDkyMjA1MzMzMFowDQYJKoZIhvcNAQELBQADggEBAMfh+6Fo65ydXI/0
v5QeWpZg2hVKJAn7MLU3u4gfElrzejYusBJdjstGyn0+8SAC9Fn0gwQQH4Fzg26T
7R+kriIUQK8wJXa7eOlJwKsUoUmpOgLqH87O4mb1M499kvMbi7R93nJ7erar0HEv
EJSkdiNjtKskDAtZf2mZULT6MnQkzz4dCcfKNQumxKYbD1tsAj1zwzV9dGxoYcWo
N00e5T2/tl1+uBQuQURwHW6yHsa+8Uu4n0zoMIVve1e3xhgEZgWpxjM8qVUZ2i/1
OiDBXcKX7U9bXbbrZJvn6JqoWY4YtvcQjIL7YTpPkPrAb6A1Vx4IGJk7qqi7F0E8
vKZTXXo=
-----END X509 CRL-----
