Certificate Revocation List (CRL):
        Version 1 (0x0)
    Signature Algorithm: sha256WithRSAEncryption
        Issuer: /C=US/ST=California/L=Santa Clara/O=pkg5/CN=ch1_ta4/emailAddress=ch1_ta4
        Last Update: Jan 22 15:33:13 2019 GMT
        Next Update: Oct 18 15:33:13 2021 GMT
Revoked Certificates:
    Serial Number: 07
        Revocation Date: Jan 22 15:33:07 2019 GMT
    Serial Number: 23
        Revocation Date: Jan 22 15:33:13 2019 GMT
    Signature Algorithm: sha256WithRSAEncryption
         0a:d7:d4:1a:56:1e:ab:56:ad:63:d5:18:c9:84:a5:21:11:3a:
         03:13:4d:ef:90:bd:1c:ec:28:71:98:15:e9:33:49:2a:5d:9e:
         19:26:65:60:6f:7a:48:ff:3d:6e:cf:fa:19:37:ac:24:ff:d3:
         16:e7:0a:25:38:a9:88:0b:b6:56:32:88:32:e6:b5:b3:4f:63:
         c1:00:f9:45:44:db:a1:dd:f7:b4:60:90:28:e6:54:73:3a:a8:
         bb:b4:bd:ec:3d:8b:27:14:58:fa:c7:51:8c:8e:51:77:38:26:
         2b:5e:11:74:cb:e6:76:d2:43:8e:01:13:fa:84:99:09:fd:53:
         df:af:fc:da:69:b4:0f:06:2b:b9:14:10:f7:f7:81:b8:03:26:
         5a:88:c3:b5:c1:37:5a:50:e6:96:df:91:6a:6c:f0:1f:3c:06:
         cd:ff:bd:60:b7:8c:fd:ac:89:43:8c:30:2d:5c:94:26:0d:f9:
         bb:0c:1d:de:b9:51:74:68:6a:97:69:ae:a4:82:fb:3d:b2:01:
         7c:0e:23:3f:5f:5c:7b:ce:c9:f6:7d:ce:c8:c3:75:a3:64:87:
         13:8b:9e:d1:37:31:73:aa:95:ca:af:ba:42:fa:eb:f7:60:a5:
         bd:68:1b:20:65:db:ea:20:c2:16:66:f6:11:79:28:bd:d2:54:
         28:f8:9c:71
-----BEGIN X509 CRL-----
MIIB4TCByjANBgkqhkiG9w0BAQsFADBxMQswCQYDVQQGEwJVUzETMBEGA1UECAwK
Q2FsaWZvcm5pYTEUMBIGA1UEBwwLU2FudGEgQ2xhcmExDTALBgNVBAoMBHBrZzUx
EDAOBgNVBAMMB2NoMV90YTQxFjAUBgkqhkiG9w0BCQEWB2NoMV90YTQXDTE5MDEy
MjE1MzMxM1oXDTIxMTAxODE1MzMxM1owKDASAgEHFw0xOTAxMjIxNTMzMDdaMBIC
ASMXDTE5MDEyMjE1MzMxM1owDQYJKoZIhvcNAQELBQADggEBAArX1BpWHqtWrWPV
GMmEpSEROgMTTe+QvRzsKHGYFekzSSpdnhkmZWBvekj/PW7P+hk3rCT/0xbnCiU4
qYgLtlYyiDLmtbNPY8EA+UVE26Hd97RgkCjmVHM6qLu0vew9iycUWPrHUYyOUXc4
JiteEXTL5nbSQ44BE/qEmQn9U9+v/NpptA8GK7kUEPf3gbgDJlqIw7XBN1pQ5pbf
kWps8B88Bs3/vWC3jP2siUOMMC1clCYN+bsMHd65UXRoapdprqSC+z2yAXwOIz9f
XHvOyfZ9zsjDdaNkhxOLntE3MXOqlcqvukL66/dgpb1oGyBl2+ogwhZm9hF5KL3S
VCj4nHE=
-----END X509 CRL-----
