Certificate Revocation List (CRL):
        Version 1 (0x0)
        Signature Algorithm: sha256WithRSAEncryption
        Issuer: /C=US/ST=California/L=Menlo Park/O=pkg5/CN=ch1_pubCA1/emailAddress=ch1_pubCA1
        Last Update: Aug  4 20:59:24 2010 GMT
        Next Update: Apr 30 20:59:24 2013 GMT
Revoked Certificates:
    Serial Number: 07
        Revocation Date: Aug  4 20:59:24 2010 GMT
    Serial Number: 08
        Revocation Date: Aug  4 20:59:24 2010 GMT
    Signature Algorithm: sha256WithRSAEncryption
        65:24:c6:61:0a:72:59:69:de:5e:a4:c8:a5:c8:35:06:30:39:
        da:b3:ad:a9:cb:1b:f4:9b:ad:45:64:63:b2:ff:2b:bb:e7:65:
        55:aa:84:0b:e4:bd:fd:a8:51:50:a6:c3:14:11:34:1c:85:8a:
        d9:b2:20:a0:4c:f5:01:fd:cd:b0:5e:59:a6:b2:7b:a9:14:4e:
        ad:bc:95:5b:68:ab:d1:ec:89:1a:07:48:a7:d8:f1:ba:b6:38:
        e6:60:dc:41:6e:16:9c:9d:83:c6:b9:72:3e:c3:7c:b6:de:b7:
        cc:5c:b2:bf:28:ea:64:d4:de:e8:a6:84:ec:fa:15:92:90:0f:
        92:44
-----BEGIN X509 CRL-----
MIIBZTCBzzANBgkqhkiG9w0BAQsFADB2MQswCQYDVQQGEwJVUzETMBEGA1UECBMK
Q2FsaWZvcm5pYTETMBEGA1UEBxMKTWVubG8gUGFyazENMAsGA1UEChMEcGtnNTET
MBEGA1UEAxQKY2gxX3B1YkNBMTEZMBcGCSqGSIb3DQEJARYKY2gxX3B1YkNBMRcN
MTAwODA0MjA1OTI0WhcNMTMwNDMwMjA1OTI0WjAoMBICAQcXDTEwMDgwNDIwNTky
NFowEgIBCBcNMTAwODA0MjA1OTI0WjANBgkqhkiG9w0BAQsFAAOBgQBlJMZhCnJZ
ad5epMilyDUGMDnas62pyxv0m61FZGOy/yu752VVqoQL5L39qFFQpsMUETQchYrZ
siCgTPUB/c2wXlmmsnupFE6tvJVbaKvR7IkaB0in2PG6tjjmYNxBbhacnYPGuXI+
w3y23rfMXLK/KOpk1N7opoTs+hWSkA+SRA==
-----END X509 CRL-----
