Certificate Revocation List (CRL):
        Version 1 (0x0)
        Signature Algorithm: sha256WithRSAEncryption
        Issuer: C = US, ST = California, L = Santa Clara, O = pkg5, CN = ch1_ta4, emailAddress = ch1_ta4
        Last Update: Mar 18 08:51:42 2026 GMT
        Next Update: Dec 12 08:51:42 2028 GMT
Revoked Certificates:
    Serial Number: 07
        Revocation Date: Mar 18 08:51:29 2026 GMT
    Serial Number: 23
        Revocation Date: Mar 18 08:51:42 2026 GMT
    Signature Algorithm: sha256WithRSAEncryption
    Signature Value:
        98:34:82:ea:97:62:d8:f8:b6:a0:73:31:d4:ed:4d:2a:33:01:
        36:16:d4:66:7e:0d:b7:cc:2f:b9:01:4c:22:5f:4b:e3:cd:e6:
        1e:d7:bd:88:3a:ee:a3:55:b9:bb:3e:9d:0d:61:68:58:a6:6e:
        1e:1d:83:32:03:07:c5:48:01:31:f7:9f:1e:2b:df:e3:c5:2b:
        f0:60:46:73:d5:77:fc:55:de:11:f2:6f:f3:c0:1f:f7:12:cd:
        ff:73:65:9f:f0:a5:7e:1f:4c:72:58:bd:34:8d:3a:6e:4a:70:
        9e:3a:5f:a1:79:4b:34:e7:5f:f9:62:56:35:65:44:e1:6b:a5:
        81:01:a6:61:2b:bc:1b:ae:34:56:24:d9:72:9c:51:22:5c:b2:
        72:05:80:a7:e5:e2:90:29:2f:f2:8e:de:9c:4a:03:33:8c:b4:
        a0:90:cc:95:28:c9:68:c0:ee:36:72:05:32:b4:d3:d3:84:8a:
        0a:15:ee:be:97:a3:6a:94:5b:6b:e8:3f:9a:e5:03:ec:35:af:
        77:ca:2f:6e:aa:73:43:65:77:2b:07:85:08:b3:36:0a:a8:c7:
        60:97:61:60:a8:2a:cd:31:e5:cb:da:20:5c:65:e0:d3:b8:89:
        23:18:7f:db:59:c8:06:5a:08:b5:8c:62:03:83:df:c3:64:f0:
        72:94:da:59
-----BEGIN X509 CRL-----
MIIB4TCByjANBgkqhkiG9w0BAQsFADBxMQswCQYDVQQGEwJVUzETMBEGA1UECAwK
Q2FsaWZvcm5pYTEUMBIGA1UEBwwLU2FudGEgQ2xhcmExDTALBgNVBAoMBHBrZzUx
EDAOBgNVBAMMB2NoMV90YTQxFjAUBgkqhkiG9w0BCQEWB2NoMV90YTQXDTI2MDMx
ODA4NTE0MloXDTI4MTIxMjA4NTE0MlowKDASAgEHFw0yNjAzMTgwODUxMjlaMBIC
ASMXDTI2MDMxODA4NTE0MlowDQYJKoZIhvcNAQELBQADggEBAJg0guqXYtj4tqBz
MdTtTSozATYW1GZ+DbfML7kBTCJfS+PN5h7XvYg67qNVubs+nQ1haFimbh4dgzID
B8VIATH3nx4r3+PFK/BgRnPVd/xV3hHyb/PAH/cSzf9zZZ/wpX4fTHJYvTSNOm5K
cJ46X6F5SzTnX/liVjVlROFrpYEBpmErvBuuNFYk2XKcUSJcsnIFgKfl4pApL/KO
3pxKAzOMtKCQzJUoyWjA7jZyBTK009OEigoV7r6Xo2qUW2voP5rlA+w1r3fKL26q
c0NldysHhQizNgqox2CXYWCoKs0x5cvaIFxl4NO4iSMYf9tZyAZaCLWMYgOD38Nk
8HKU2lk=
-----END X509 CRL-----
