Certificate Revocation List (CRL):
        Version 1 (0x0)
    Signature Algorithm: sha256WithRSAEncryption
        Issuer: /C=US/ST=California/L=Santa Clara/O=pkg5/CN=ch1_ta4/emailAddress=ch1_ta4
        Last Update: Jul 19 11:35:50 2023 GMT
        Next Update: Apr 14 11:35:50 2026 GMT
Revoked Certificates:
    Serial Number: 07
        Revocation Date: Jul 19 11:35:44 2023 GMT
    Serial Number: 23
        Revocation Date: Jul 19 11:35:50 2023 GMT
    Signature Algorithm: sha256WithRSAEncryption
         6e:d2:f9:f7:99:6e:27:17:48:9e:15:c7:b7:02:39:36:b6:eb:
         cc:c0:48:18:8e:70:28:31:cb:84:66:ca:b2:02:4e:6e:60:31:
         81:fd:6e:15:85:94:f3:c4:ba:82:52:d7:b9:db:d6:e8:fb:c6:
         8f:52:cd:f8:ca:2f:59:54:3e:32:b3:45:e4:af:0a:7e:b4:29:
         56:26:8f:7e:4f:c7:92:0f:81:76:7e:17:ae:95:16:d2:bc:6e:
         75:fd:28:33:c7:5f:cd:82:63:d5:26:6f:cd:21:9c:b7:30:d7:
         e4:df:83:18:5e:6b:41:08:c6:0c:fd:8f:25:ac:98:c1:4c:9d:
         8e:0d:1a:c9:98:a9:21:0f:ee:7a:63:2e:c3:0c:b7:a3:c3:b5:
         0a:bd:a1:3a:7c:dd:65:be:2e:30:e9:35:5e:f1:49:48:4d:ac:
         89:18:32:97:3d:0a:28:b1:c6:89:a3:af:ef:97:83:43:40:2c:
         cd:a5:47:2c:bd:52:4f:c5:bb:a1:75:3b:a7:89:96:26:50:76:
         5c:6c:42:76:0d:fa:e7:aa:f5:d6:46:a5:73:0e:e6:b0:a8:ee:
         55:7b:c5:eb:77:a3:3c:2e:89:c1:92:5c:d9:11:25:59:7d:1c:
         c2:68:c7:c1:ed:75:e8:b8:f3:3f:e9:fd:15:4e:c0:a7:05:02:
         85:37:a1:cc
-----BEGIN X509 CRL-----
MIIB4TCByjANBgkqhkiG9w0BAQsFADBxMQswCQYDVQQGEwJVUzETMBEGA1UECAwK
Q2FsaWZvcm5pYTEUMBIGA1UEBwwLU2FudGEgQ2xhcmExDTALBgNVBAoMBHBrZzUx
EDAOBgNVBAMMB2NoMV90YTQxFjAUBgkqhkiG9w0BCQEWB2NoMV90YTQXDTIzMDcx
OTExMzU1MFoXDTI2MDQxNDExMzU1MFowKDASAgEHFw0yMzA3MTkxMTM1NDRaMBIC
ASMXDTIzMDcxOTExMzU1MFowDQYJKoZIhvcNAQELBQADggEBAG7S+feZbicXSJ4V
x7cCOTa268zASBiOcCgxy4RmyrICTm5gMYH9bhWFlPPEuoJS17nb1uj7xo9SzfjK
L1lUPjKzReSvCn60KVYmj35Px5IPgXZ+F66VFtK8bnX9KDPHX82CY9Umb80hnLcw
1+Tfgxhea0EIxgz9jyWsmMFMnY4NGsmYqSEP7npjLsMMt6PDtQq9oTp83WW+LjDp
NV7xSUhNrIkYMpc9Ciixxomjr++Xg0NALM2lRyy9Uk/Fu6F1O6eJliZQdlxsQnYN
+ueq9dZGpXMO5rCo7lV7xet3ozwuicGSXNkRJVl9HMJox8Htdei48z/p/RVOwKcF
AoU3ocw=
-----END X509 CRL-----
