Certificate Revocation List (CRL):
        Version 1 (0x0)
    Signature Algorithm: sha256WithRSAEncryption
        Issuer: /C=US/ST=California/L=Santa Clara/O=pkg5/CN=ch1_ta4/emailAddress=ch1_ta4
        Last Update: Jan 22 01:57:59 2016 GMT
        Next Update: Oct 18 01:57:59 2018 GMT
Revoked Certificates:
    Serial Number: 07
        Revocation Date: Jan 22 01:57:54 2016 GMT
    Serial Number: 24
        Revocation Date: Jan 22 01:57:59 2016 GMT
    Signature Algorithm: sha256WithRSAEncryption
         6d:ad:8f:93:06:5c:84:77:1f:db:e8:d9:af:d9:27:06:16:9b:
         92:1b:68:14:ac:a2:ba:59:36:b5:60:73:83:e4:53:5d:52:ce:
         bd:dc:12:f9:ea:32:a6:cd:36:46:b0:7c:bb:b9:00:b4:1a:b4:
         0c:67:70:a9:fd:a7:42:c7:65:0f:1a:ff:bd:5a:6f:68:87:19:
         8c:43:8c:66:e6:e6:14:c6:3a:0e:80:6b:e5:39:1b:52:b7:ac:
         c1:ef:ee:4e:db:92:d6:00:14:9a:ad:d6:51:6a:4e:91:b4:c6:
         4d:f4:96:e4:64:04:a8:63:f6:f8:f3:a4:a2:4e:59:3d:4c:50:
         d1:c4:ef:30:05:f9:59:eb:e5:19:c5:40:8c:7b:6a:08:97:16:
         e2:77:ba:48:1d:80:59:09:52:74:bb:4b:bc:d5:f1:51:61:01:
         18:ee:58:42:a7:a5:b4:08:3a:e8:ff:42:8a:d5:3d:bf:a1:86:
         3e:a4:a9:af:e8:36:4e:df:94:1c:a8:01:d1:a7:42:7a:55:b7:
         4e:98:97:f5:b4:3c:ef:4e:e6:cf:26:2e:46:b1:53:e9:ff:4e:
         90:83:a7:3f:fc:47:47:bc:b3:bf:f2:87:bf:e2:d7:c3:96:2c:
         a2:69:f2:f8:6c:e4:07:63:22:dd:a1:73:db:97:51:51:06:71:
         f0:9c:c8:22
-----BEGIN X509 CRL-----
MIIB4TCByjANBgkqhkiG9w0BAQsFADBxMQswCQYDVQQGEwJVUzETMBEGA1UECAwK
Q2FsaWZvcm5pYTEUMBIGA1UEBwwLU2FudGEgQ2xhcmExDTALBgNVBAoMBHBrZzUx
EDAOBgNVBAMMB2NoMV90YTQxFjAUBgkqhkiG9w0BCQEWB2NoMV90YTQXDTE2MDEy
MjAxNTc1OVoXDTE4MTAxODAxNTc1OVowKDASAgEHFw0xNjAxMjIwMTU3NTRaMBIC
ASQXDTE2MDEyMjAxNTc1OVowDQYJKoZIhvcNAQELBQADggEBAG2tj5MGXIR3H9vo
2a/ZJwYWm5IbaBSsorpZNrVgc4PkU11Szr3cEvnqMqbNNkawfLu5ALQatAxncKn9
p0LHZQ8a/71ab2iHGYxDjGbm5hTGOg6Aa+U5G1K3rMHv7k7bktYAFJqt1lFqTpG0
xk30luRkBKhj9vjzpKJOWT1MUNHE7zAF+Vnr5RnFQIx7agiXFuJ3ukgdgFkJUnS7
S7zV8VFhARjuWEKnpbQIOuj/QorVPb+hhj6kqa/oNk7flByoAdGnQnpVt06Yl/W0
PO9O5s8mLkaxU+n/TpCDpz/8R0e8s7/yh7/i18OWLKJp8vhs5AdjIt2hc9uXUVEG
cfCcyCI=
-----END X509 CRL-----
