Certificate Revocation List (CRL):
        Version 1 (0x0)
        Signature Algorithm: sha256WithRSAEncryption
        Issuer: /C=US/ST=California/L=Menlo Park/O=pkg5/CN=ch1_pubCA1/emailAddress=ch1_pubCA1
        Last Update: Jan 28 02:54:11 2011 GMT
        Next Update: Oct 24 02:54:11 2013 GMT
Revoked Certificates:
    Serial Number: 07
        Revocation Date: Jan 28 02:54:11 2011 GMT
    Serial Number: 08
        Revocation Date: Jan 28 02:54:11 2011 GMT
    Signature Algorithm: sha256WithRSAEncryption
        2c:da:bc:ca:35:2f:5d:8e:79:04:05:17:43:d7:85:d1:68:71:
        6a:0c:9b:dd:4f:a5:1e:d2:fb:70:c6:bf:56:f2:69:b4:b0:f1:
        bd:e6:41:45:86:f0:be:13:07:ed:4a:06:7f:7b:22:5c:19:1d:
        d8:89:6b:75:53:b1:07:52:ce:b5:5c:5c:14:fc:80:28:eb:db:
        d2:8d:16:09:49:97:13:eb:db:16:7d:c6:85:36:0a:72:a8:1e:
        02:84:8f:b9:cd:84:41:f4:68:07:64:7e:4b:e4:ad:4e:96:8d:
        6c:4c:31:b2:f7:ca:e9:60:03:c8:df:bc:3b:77:3c:1e:43:30:
        21:73
-----BEGIN X509 CRL-----
MIIBZTCBzzANBgkqhkiG9w0BAQsFADB2MQswCQYDVQQGEwJVUzETMBEGA1UECBMK
Q2FsaWZvcm5pYTETMBEGA1UEBxMKTWVubG8gUGFyazENMAsGA1UEChMEcGtnNTET
MBEGA1UEAxQKY2gxX3B1YkNBMTEZMBcGCSqGSIb3DQEJARYKY2gxX3B1YkNBMRcN
MTEwMTI4MDI1NDExWhcNMTMxMDI0MDI1NDExWjAoMBICAQcXDTExMDEyODAyNTQx
MVowEgIBCBcNMTEwMTI4MDI1NDExWjANBgkqhkiG9w0BAQsFAAOBgQAs2rzKNS9d
jnkEBRdD14XRaHFqDJvdT6Ue0vtwxr9W8mm0sPG95kFFhvC+EwftSgZ/eyJcGR3Y
iWt1U7EHUs61XFwU/IAo69vSjRYJSZcT69sWfcaFNgpyqB4ChI+5zYRB9GgHZH5L
5K1Olo1sTDGy98rpYAPI37w7dzweQzAhcw==
-----END X509 CRL-----
