Certificate Revocation List (CRL):
        Version 1 (0x0)
    Signature Algorithm: sha256WithRSAEncryption
        Issuer: /C=US/ST=California/L=Santa Clara/O=pkg5/CN=ch5_ta1/emailAddress=ch5_ta1
        Last Update: Sep 22 05:33:16 2021 GMT
        Next Update: Jun 18 05:33:16 2024 GMT
Revoked Certificates:
    Serial Number: 07
        Revocation Date: Sep 22 05:33:16 2021 GMT
    Signature Algorithm: sha256WithRSAEncryption
         8f:a4:9d:57:33:92:3a:42:e4:56:48:d8:fe:10:07:54:5a:fb:
         39:8d:a3:25:61:cf:2e:b2:73:ca:31:fd:02:a7:93:6d:5c:70:
         6e:ac:6a:58:3d:84:a5:50:2f:25:08:ad:98:93:00:fc:57:38:
         3c:ef:c7:2d:6e:22:51:d6:59:34:8e:e0:80:24:ff:b8:05:76:
         09:74:b3:a1:aa:31:b0:20:02:1e:c5:fe:6d:4e:10:dc:3b:39:
         9d:35:31:0f:a3:9c:3a:bb:fe:bd:d8:48:e7:23:a6:55:d9:f1:
         6e:24:87:c3:40:3e:cc:cd:85:5d:05:fc:35:51:f1:5b:13:9d:
         38:01:1b:23:9b:5e:b9:b5:f2:33:ec:d8:7a:77:b9:c7:da:52:
         4f:02:dc:6f:9b:cb:f3:b8:9b:15:d6:b6:2b:7e:e9:04:21:9d:
         90:a0:41:09:12:a8:ea:25:1d:7a:69:34:94:c3:71:71:8d:0c:
         65:6f:4a:c9:0a:ec:43:8a:aa:05:57:51:99:30:4f:9a:2b:11:
         47:a6:d0:c7:5f:57:36:db:d3:84:fe:6f:86:ff:a8:7f:20:01:
         e1:e7:89:a5:41:1a:72:b7:6e:33:d4:f4:a9:f7:83:fc:2d:79:
         97:32:14:de:f9:d2:c7:b0:70:aa:7b:aa:bc:f4:47:67:c1:d8:
         dd:57:66:b9
-----BEGIN X509 CRL-----
MIIBzTCBtjANBgkqhkiG9w0BAQsFADBxMQswCQYDVQQGEwJVUzETMBEGA1UECAwK
Q2FsaWZvcm5pYTEUMBIGA1UEBwwLU2FudGEgQ2xhcmExDTALBgNVBAoMBHBrZzUx
EDAOBgNVBAMMB2NoNV90YTExFjAUBgkqhkiG9w0BCQEWB2NoNV90YTEXDTIxMDky
MjA1MzMxNloXDTI0MDYxODA1MzMxNlowFDASAgEHFw0yMTA5MjIwNTMzMTZaMA0G
CSqGSIb3DQEBCwUAA4IBAQCPpJ1XM5I6QuRWSNj+EAdUWvs5jaMlYc8usnPKMf0C
p5NtXHBurGpYPYSlUC8lCK2YkwD8Vzg878ctbiJR1lk0juCAJP+4BXYJdLOhqjGw
IAIexf5tThDcOzmdNTEPo5w6u/692EjnI6ZV2fFuJIfDQD7MzYVdBfw1UfFbE504
ARsjm165tfIz7Nh6d7nH2lJPAtxvm8vzuJsV1rYrfukEIZ2QoEEJEqjqJR16aTSU
w3FxjQxlb0rJCuxDiqoFV1GZME+aKxFHptDHX1c229OE/m+G/6h/IAHh54mlQRpy
t24z1PSp94P8LXmXMhTe+dLHsHCqe6q89EdnwdjdV2a5
-----END X509 CRL-----
