Certificate Revocation List (CRL):
        Version 1 (0x0)
    Signature Algorithm: sha256WithRSAEncryption
        Issuer: /C=US/ST=California/L=Santa Clara/O=pkg5/CN=ch5_ta1/emailAddress=ch5_ta1
        Last Update: Jan 22 15:33:07 2019 GMT
        Next Update: Oct 18 15:33:07 2021 GMT
Revoked Certificates:
    Serial Number: 07
        Revocation Date: Jan 22 15:33:07 2019 GMT
    Signature Algorithm: sha256WithRSAEncryption
         15:08:96:ec:83:76:82:92:7a:e3:66:d7:be:f9:3e:f0:97:88:
         19:43:af:ab:94:a9:72:d5:93:9f:cf:4f:0e:2a:00:99:52:a2:
         23:a1:81:b3:a0:34:70:02:74:70:c9:ec:6e:2c:22:4e:e5:1c:
         4a:44:46:56:0b:f2:88:c0:48:da:66:78:66:2a:e4:ec:c5:28:
         b9:07:ec:54:a7:b4:4c:9d:af:7c:53:93:a0:e1:e5:9f:fc:31:
         61:c7:6f:21:f3:f3:44:17:12:2d:e1:4b:1f:97:d5:2f:15:46:
         bc:91:63:46:33:c5:27:67:ae:de:f1:67:c2:41:77:78:7e:60:
         f7:2d:f3:c7:f9:66:d0:a6:72:27:64:36:0c:21:0f:3f:86:8c:
         25:5f:a2:ec:8c:11:18:89:a9:68:b9:c3:c2:66:4c:23:3d:b5:
         13:7d:67:b2:5e:40:df:11:00:aa:31:68:e2:c7:ef:62:d4:ff:
         c5:f3:8d:ff:7e:a9:93:b9:06:71:3a:35:8d:6a:1c:6e:bf:65:
         a9:45:d5:7c:27:45:b9:f7:9c:41:ae:6b:13:58:e6:6a:34:e9:
         5d:a3:ad:d8:b5:fa:2c:c3:84:42:c0:b2:ad:74:4b:14:f0:5a:
         74:cc:eb:97:22:de:94:9f:81:71:8c:3e:8a:d2:dc:12:4b:aa:
         11:4d:df:7f
-----BEGIN X509 CRL-----
MIIBzTCBtjANBgkqhkiG9w0BAQsFADBxMQswCQYDVQQGEwJVUzETMBEGA1UECAwK
Q2FsaWZvcm5pYTEUMBIGA1UEBwwLU2FudGEgQ2xhcmExDTALBgNVBAoMBHBrZzUx
EDAOBgNVBAMMB2NoNV90YTExFjAUBgkqhkiG9w0BCQEWB2NoNV90YTEXDTE5MDEy
MjE1MzMwN1oXDTIxMTAxODE1MzMwN1owFDASAgEHFw0xOTAxMjIxNTMzMDdaMA0G
CSqGSIb3DQEBCwUAA4IBAQAVCJbsg3aCknrjZte++T7wl4gZQ6+rlKly1ZOfz08O
KgCZUqIjoYGzoDRwAnRwyexuLCJO5RxKREZWC/KIwEjaZnhmKuTsxSi5B+xUp7RM
na98U5Og4eWf/DFhx28h8/NEFxIt4Usfl9UvFUa8kWNGM8UnZ67e8WfCQXd4fmD3
LfPH+WbQpnInZDYMIQ8/howlX6LsjBEYialoucPCZkwjPbUTfWeyXkDfEQCqMWji
x+9i1P/F843/fqmTuQZxOjWNahxuv2WpRdV8J0W595xBrmsTWOZqNOldo63Ytfos
w4RCwLKtdEsU8Fp0zOuXIt6Un4FxjD6K0twSS6oRTd9/
-----END X509 CRL-----
