Certificate Revocation List (CRL):
        Version 1 (0x0)
        Signature Algorithm: sha256WithRSAEncryption
        Issuer: C = US, ST = California, L = Santa Clara, O = pkg5, CN = ch5_ta1, emailAddress = ch5_ta1
        Last Update: Mar 18 08:51:29 2026 GMT
        Next Update: Dec 12 08:51:29 2028 GMT
Revoked Certificates:
    Serial Number: 07
        Revocation Date: Mar 18 08:51:29 2026 GMT
    Signature Algorithm: sha256WithRSAEncryption
    Signature Value:
        78:55:4a:d4:5b:a4:f7:b0:3f:1e:31:52:cb:7c:c0:9f:b2:1d:
        53:60:ee:b5:16:2a:e9:7b:63:7c:84:21:81:54:88:4e:a9:08:
        d2:38:a3:d1:65:69:df:ff:0b:49:a4:1b:f5:35:4a:32:00:c4:
        7d:82:70:2a:31:58:db:ee:21:f4:f1:fb:5b:b8:87:f1:40:30:
        12:1e:69:fd:06:b0:c2:6e:85:44:4b:0d:1d:51:ff:50:bd:a0:
        3b:aa:71:ac:ef:ab:f2:54:08:a9:ff:cd:b4:0b:cd:33:01:b4:
        c6:38:31:ce:ce:7d:0e:15:04:69:e8:2c:2a:86:20:9e:91:61:
        55:07:b8:a9:6f:12:1b:45:6a:d3:3b:d6:7a:4d:7f:70:5c:ff:
        30:37:33:cc:4b:2f:17:92:6b:7d:4b:55:ca:34:44:05:bc:43:
        a0:5b:8f:2a:17:3b:26:35:df:4d:c2:65:79:f2:bf:01:19:12:
        63:d7:9b:84:d7:2b:e3:81:dc:4f:e2:88:58:f1:3a:eb:48:ef:
        49:4c:6d:82:63:48:ea:a8:1f:f4:26:4e:2d:72:17:38:48:1f:
        7b:5f:f1:a3:b7:94:cc:92:a5:e9:34:29:c9:d1:f3:bb:e8:05:
        06:8e:18:0b:50:77:81:90:ec:c7:28:ea:ca:17:32:ba:50:cb:
        d3:fd:0c:58
-----BEGIN X509 CRL-----
MIIBzTCBtjANBgkqhkiG9w0BAQsFADBxMQswCQYDVQQGEwJVUzETMBEGA1UECAwK
Q2FsaWZvcm5pYTEUMBIGA1UEBwwLU2FudGEgQ2xhcmExDTALBgNVBAoMBHBrZzUx
EDAOBgNVBAMMB2NoNV90YTExFjAUBgkqhkiG9w0BCQEWB2NoNV90YTEXDTI2MDMx
ODA4NTEyOVoXDTI4MTIxMjA4NTEyOVowFDASAgEHFw0yNjAzMTgwODUxMjlaMA0G
CSqGSIb3DQEBCwUAA4IBAQB4VUrUW6T3sD8eMVLLfMCfsh1TYO61Firpe2N8hCGB
VIhOqQjSOKPRZWnf/wtJpBv1NUoyAMR9gnAqMVjb7iH08ftbuIfxQDASHmn9BrDC
boVESw0dUf9QvaA7qnGs76vyVAip/820C80zAbTGODHOzn0OFQRp6CwqhiCekWFV
B7ipbxIbRWrTO9Z6TX9wXP8wNzPMSy8Xkmt9S1XKNEQFvEOgW48qFzsmNd9NwmV5
8r8BGRJj15uE1yvjgdxP4ohY8TrrSO9JTG2CY0jqqB/0Jk4tchc4SB97X/Gjt5TM
kqXpNCnJ0fO76AUGjhgLUHeBkOzHKOrKFzK6UMvT/QxY
-----END X509 CRL-----
