Certificate Revocation List (CRL):
        Version 1 (0x0)
    Signature Algorithm: sha256WithRSAEncryption
        Issuer: /C=US/ST=California/L=Santa Clara/O=pkg5/CN=ch5_ta1/emailAddress=ch5_ta1
        Last Update: Jul 19 11:35:44 2023 GMT
        Next Update: Apr 14 11:35:44 2026 GMT
Revoked Certificates:
    Serial Number: 07
        Revocation Date: Jul 19 11:35:44 2023 GMT
    Signature Algorithm: sha256WithRSAEncryption
         7a:b5:80:0e:2f:1f:6f:96:b1:72:31:da:79:66:1b:7f:e8:a3:
         bb:5c:23:a9:b3:67:ac:d7:df:7d:e3:c7:af:2b:b5:2d:f9:26:
         d4:9d:90:45:3d:94:0d:6c:e2:69:c3:b0:62:bc:11:a5:8c:6a:
         af:3e:e6:a7:24:b0:45:bb:67:22:59:69:a1:94:48:73:da:fb:
         d3:7c:cb:66:e0:a2:1e:7e:b3:08:79:b6:c6:c5:db:c3:e4:49:
         46:41:79:0f:1d:22:ec:dd:81:22:6f:1c:ff:4b:fe:96:fc:93:
         8c:9e:38:bb:ca:d7:ad:b3:a3:4e:5e:f8:39:17:6e:54:a7:53:
         d7:30:e8:bd:e4:01:fa:67:d1:18:5e:51:85:57:67:aa:82:b1:
         f4:76:c2:08:7f:8c:79:e9:e3:12:7c:15:5c:8a:8d:28:a9:4a:
         4d:f4:eb:fd:c3:a5:7a:ea:d6:b4:0f:98:21:b5:02:34:06:2d:
         6b:28:8f:13:86:0d:3e:a3:04:82:0f:87:80:bf:41:fb:bf:64:
         68:5f:ac:18:29:3f:fd:f1:e6:e3:04:62:fe:ae:57:3f:21:d7:
         62:9c:42:f7:b2:c6:6f:2d:c9:e3:b3:84:11:8c:35:3e:0a:1b:
         7a:ff:81:f7:fc:27:12:11:97:43:df:08:75:51:5f:6e:42:a1:
         a9:c8:1e:3f
-----BEGIN X509 CRL-----
MIIBzTCBtjANBgkqhkiG9w0BAQsFADBxMQswCQYDVQQGEwJVUzETMBEGA1UECAwK
Q2FsaWZvcm5pYTEUMBIGA1UEBwwLU2FudGEgQ2xhcmExDTALBgNVBAoMBHBrZzUx
EDAOBgNVBAMMB2NoNV90YTExFjAUBgkqhkiG9w0BCQEWB2NoNV90YTEXDTIzMDcx
OTExMzU0NFoXDTI2MDQxNDExMzU0NFowFDASAgEHFw0yMzA3MTkxMTM1NDRaMA0G
CSqGSIb3DQEBCwUAA4IBAQB6tYAOLx9vlrFyMdp5Zht/6KO7XCOps2es199948ev
K7Ut+SbUnZBFPZQNbOJpw7BivBGljGqvPuanJLBFu2ciWWmhlEhz2vvTfMtm4KIe
frMIebbGxdvD5ElGQXkPHSLs3YEibxz/S/6W/JOMnji7ytets6NOXvg5F25Up1PX
MOi95AH6Z9EYXlGFV2eqgrH0dsIIf4x56eMSfBVcio0oqUpN9Ov9w6V66ta0D5gh
tQI0Bi1rKI8Thg0+owSCD4eAv0H7v2RoX6wYKT/98ebjBGL+rlc/IddinEL3ssZv
Lcnjs4QRjDU+Cht6/4H3/CcSEZdD3wh1UV9uQqGpyB4/
-----END X509 CRL-----
