Certificate Revocation List (CRL):
        Version 1 (0x0)
    Signature Algorithm: sha256WithRSAEncryption
        Issuer: /C=US/ST=California/L=Santa Clara/O=pkg5/CN=ch5_ta1/emailAddress=ch5_ta1
        Last Update: Jan 22 01:57:54 2016 GMT
        Next Update: Oct 18 01:57:54 2018 GMT
Revoked Certificates:
    Serial Number: 07
        Revocation Date: Jan 22 01:57:54 2016 GMT
    Signature Algorithm: sha256WithRSAEncryption
         50:24:a9:b4:ec:2e:dc:b2:0e:d1:8e:9b:53:1c:4f:c6:68:6d:
         89:8e:f1:03:22:ae:37:40:45:27:08:d7:fc:7e:76:e7:90:95:
         e9:35:55:95:10:76:d8:79:3c:50:2c:55:21:83:fc:9e:c3:12:
         a5:f3:7a:d3:be:5e:77:9f:be:32:19:7a:b7:b0:76:4c:95:23:
         7d:ed:2e:fd:a0:66:78:d3:c3:19:14:78:95:68:07:32:b2:af:
         4f:c7:58:b4:d7:47:dd:87:e1:5d:e0:25:d3:5c:92:d9:0b:ee:
         16:2c:ae:dd:f8:a1:eb:b5:e1:9f:bd:30:fd:93:8c:df:d1:e0:
         20:88:a6:d6:dc:35:9c:db:81:50:ad:fa:46:68:e8:a3:dd:ed:
         f6:9b:3b:e4:5d:2c:9e:7a:eb:e4:04:7d:01:cc:9e:b5:8a:1c:
         a1:f0:eb:af:77:57:91:5b:f9:1e:77:32:57:81:42:b3:7e:a6:
         94:64:24:db:61:79:03:ee:de:6b:13:8e:eb:96:ef:cf:0b:23:
         59:d6:4d:b5:92:44:0b:0e:aa:40:1d:83:95:3d:22:9d:54:be:
         7a:2c:2a:a8:b2:9d:6b:65:f9:0a:c5:56:c6:c1:5d:11:4e:25:
         4e:2f:05:87:57:ee:1f:a4:80:31:7c:18:aa:71:51:8e:f4:5c:
         20:39:b3:d4
-----BEGIN X509 CRL-----
MIIBzTCBtjANBgkqhkiG9w0BAQsFADBxMQswCQYDVQQGEwJVUzETMBEGA1UECAwK
Q2FsaWZvcm5pYTEUMBIGA1UEBwwLU2FudGEgQ2xhcmExDTALBgNVBAoMBHBrZzUx
EDAOBgNVBAMMB2NoNV90YTExFjAUBgkqhkiG9w0BCQEWB2NoNV90YTEXDTE2MDEy
MjAxNTc1NFoXDTE4MTAxODAxNTc1NFowFDASAgEHFw0xNjAxMjIwMTU3NTRaMA0G
CSqGSIb3DQEBCwUAA4IBAQBQJKm07C7csg7RjptTHE/GaG2JjvEDIq43QEUnCNf8
fnbnkJXpNVWVEHbYeTxQLFUhg/yewxKl83rTvl53n74yGXq3sHZMlSN97S79oGZ4
08MZFHiVaAcysq9Px1i010fdh+Fd4CXTXJLZC+4WLK7d+KHrteGfvTD9k4zf0eAg
iKbW3DWc24FQrfpGaOij3e32mzvkXSyeeuvkBH0BzJ61ihyh8Ouvd1eRW/kedzJX
gUKzfqaUZCTbYXkD7t5rE47rlu/PCyNZ1k21kkQLDqpAHYOVPSKdVL56LCqosp1r
ZfkKxVbGwV0RTiVOLwWHV+4fpIAxfBiqcVGO9FwgObPU
-----END X509 CRL-----
