Certificate Revocation List (CRL):
        Version 1 (0x0)
        Signature Algorithm: sha256WithRSAEncryption
        Issuer: /C=US/ST=California/L=Menlo Park/O=pkg5/CN=pubCA1_ta4/emailAddress=pubCA1_ta4
        Last Update: Aug  4 20:59:28 2010 GMT
        Next Update: Apr 30 20:59:28 2013 GMT
Revoked Certificates:
    Serial Number: 07
        Revocation Date: Aug  4 20:59:24 2010 GMT
    Serial Number: 08
        Revocation Date: Aug  4 20:59:24 2010 GMT
    Serial Number: 18
        Revocation Date: Aug  4 20:59:28 2010 GMT
    Signature Algorithm: sha256WithRSAEncryption
        45:47:01:04:a3:e9:cf:1c:cc:43:e6:00:23:34:57:eb:9e:f4:
        7c:93:88:70:61:dd:6b:b8:7c:8c:97:19:3e:08:f2:f2:64:81:
        f9:de:62:60:aa:8d:81:f2:c5:f2:6e:42:d4:7e:6b:e0:2c:6c:
        c1:38:05:0a:84:c5:e2:68:28:b4:82:d1:76:35:0a:43:95:9e:
        3f:16:48:6d:e1:27:c8:9a:22:fa:e2:63:13:bd:7c:15:4f:e0:
        d0:39:be:dc:19:97:9a:cf:08:38:17:f0:2c:9f:bf:a4:cf:be:
        ad:4c:1e:aa:96:96:d8:08:3f:61:ee:c0:b1:78:c2:57:dc:40:
        66:31
-----BEGIN X509 CRL-----
MIIBeTCB4zANBgkqhkiG9w0BAQsFADB2MQswCQYDVQQGEwJVUzETMBEGA1UECBMK
Q2FsaWZvcm5pYTETMBEGA1UEBxMKTWVubG8gUGFyazENMAsGA1UEChMEcGtnNTET
MBEGA1UEAxQKcHViQ0ExX3RhNDEZMBcGCSqGSIb3DQEJARYKcHViQ0ExX3RhNBcN
MTAwODA0MjA1OTI4WhcNMTMwNDMwMjA1OTI4WjA8MBICAQcXDTEwMDgwNDIwNTky
NFowEgIBCBcNMTAwODA0MjA1OTI0WjASAgEYFw0xMDA4MDQyMDU5MjhaMA0GCSqG
SIb3DQEBCwUAA4GBAEVHAQSj6c8czEPmACM0V+ue9HyTiHBh3Wu4fIyXGT4I8vJk
gfneYmCqjYHyxfJuQtR+a+AsbME4BQqExeJoKLSC0XY1CkOVnj8WSG3hJ8iaIvri
YxO9fBVP4NA5vtwZl5rPCDgX8Cyfv6TPvq1MHqqWltgIP2HuwLF4wlfcQGYx
-----END X509 CRL-----
