Certificate Revocation List (CRL):
        Version 1 (0x0)
        Signature Algorithm: sha256WithRSAEncryption
        Issuer: /C=US/ST=California/L=Menlo Park/O=pkg5/CN=pubCA2_ta4/emailAddress=pubCA2_ta4
        Last Update: Jan 28 02:54:24 2011 GMT
        Next Update: Oct 24 02:54:24 2013 GMT
Revoked Certificates:
    Serial Number: 07
        Revocation Date: Jan 28 02:54:11 2011 GMT
    Serial Number: 08
        Revocation Date: Jan 28 02:54:11 2011 GMT
    Serial Number: 1F
        Revocation Date: Jan 28 02:54:22 2011 GMT
    Serial Number: 23
        Revocation Date: Jan 28 02:54:24 2011 GMT
    Signature Algorithm: sha256WithRSAEncryption
        00:0d:ab:e1:51:f8:3f:36:bb:64:50:1f:d5:2a:00:42:db:4a:
        5f:a8:b1:d3:a6:5a:3e:51:4d:bb:af:93:6f:be:4e:d2:ca:dc:
        eb:7d:c5:84:ed:a7:c3:fa:eb:40:e5:04:c1:6c:66:fa:9f:8e:
        e8:dc:84:5a:94:9d:91:ff:8d:4d:62:72:75:47:39:c7:63:09:
        fb:33:57:e1:4f:ec:35:6f:e0:55:25:5e:7c:0c:1d:e9:9f:1c:
        77:a3:2e:34:c3:41:d6:b5:eb:0e:79:7f:72:8c:49:22:af:ed:
        8e:5f:a0:70:bb:4d:2b:88:50:34:d0:8d:55:86:7e:9c:5b:03:
        8d:fe
-----BEGIN X509 CRL-----
MIIBjTCB9zANBgkqhkiG9w0BAQsFADB2MQswCQYDVQQGEwJVUzETMBEGA1UECBMK
Q2FsaWZvcm5pYTETMBEGA1UEBxMKTWVubG8gUGFyazENMAsGA1UEChMEcGtnNTET
MBEGA1UEAxQKcHViQ0EyX3RhNDEZMBcGCSqGSIb3DQEJARYKcHViQ0EyX3RhNBcN
MTEwMTI4MDI1NDI0WhcNMTMxMDI0MDI1NDI0WjBQMBICAQcXDTExMDEyODAyNTQx
MVowEgIBCBcNMTEwMTI4MDI1NDExWjASAgEfFw0xMTAxMjgwMjU0MjJaMBICASMX
DTExMDEyODAyNTQyNFowDQYJKoZIhvcNAQELBQADgYEAAA2r4VH4Pza7ZFAf1SoA
QttKX6ix06ZaPlFNu6+Tb75O0src633FhO2nw/rrQOUEwWxm+p+O6NyEWpSdkf+N
TWJydUc5x2MJ+zNX4U/sNW/gVSVefAwd6Z8cd6MuNMNB1rXrDnl/coxJIq/tjl+g
cLtNK4hQNNCNVYZ+nFsDjf4=
-----END X509 CRL-----
