Certificate Revocation List (CRL):
        Version 1 (0x0)
        Signature Algorithm: sha256WithRSAEncryption
        Issuer: /C=US/ST=California/L=Menlo Park/O=pkg5/CN=pubCA1_ta4/emailAddress=pubCA1_ta4
        Last Update: Jan 28 02:54:23 2011 GMT
        Next Update: Oct 24 02:54:23 2013 GMT
Revoked Certificates:
    Serial Number: 07
        Revocation Date: Jan 28 02:54:11 2011 GMT
    Serial Number: 08
        Revocation Date: Jan 28 02:54:11 2011 GMT
    Serial Number: 1F
        Revocation Date: Jan 28 02:54:22 2011 GMT
    Signature Algorithm: sha256WithRSAEncryption
        39:0f:9c:ed:09:d5:34:f9:bd:1f:7e:a3:2c:3c:06:d9:8a:3c:
        ee:07:33:34:b8:4a:9c:59:74:fb:8d:5d:06:9c:8c:1e:b3:6d:
        73:e0:32:86:2d:bf:78:3a:c7:c7:a2:be:ed:cc:08:9f:e7:d3:
        db:5c:0f:33:67:56:e3:ae:e8:f3:fd:35:58:c7:63:d9:fc:e1:
        4a:80:2e:65:db:51:a1:6f:ec:a9:d7:a4:c7:37:18:bf:5e:e8:
        12:18:80:f2:3b:3c:ab:2f:e2:72:34:68:74:e8:2b:40:54:e6:
        6a:a1:25:12:ed:90:b8:52:c9:60:06:af:7d:d3:c7:11:a8:58:
        85:bb
-----BEGIN X509 CRL-----
MIIBeTCB4zANBgkqhkiG9w0BAQsFADB2MQswCQYDVQQGEwJVUzETMBEGA1UECBMK
Q2FsaWZvcm5pYTETMBEGA1UEBxMKTWVubG8gUGFyazENMAsGA1UEChMEcGtnNTET
MBEGA1UEAxQKcHViQ0ExX3RhNDEZMBcGCSqGSIb3DQEJARYKcHViQ0ExX3RhNBcN
MTEwMTI4MDI1NDIzWhcNMTMxMDI0MDI1NDIzWjA8MBICAQcXDTExMDEyODAyNTQx
MVowEgIBCBcNMTEwMTI4MDI1NDExWjASAgEfFw0xMTAxMjgwMjU0MjJaMA0GCSqG
SIb3DQEBCwUAA4GBADkPnO0J1TT5vR9+oyw8BtmKPO4HMzS4SpxZdPuNXQacjB6z
bXPgMoYtv3g6x8eivu3MCJ/n09tcDzNnVuOu6PP9NVjHY9n84UqALmXbUaFv7KnX
pMc3GL9e6BIYgPI7PKsv4nI0aHToK0BU5mqhJRLtkLhSyWAGr33TxxGoWIW7
-----END X509 CRL-----
