Certificate Revocation List (CRL):
        Version 1 (0x0)
    Signature Algorithm: sha256WithRSAEncryption
        Issuer: /C=US/ST=California/L=Santa Clara/O=pkg5/CN=ta5/emailAddress=ta5
        Last Update: Jul 19 11:35:51 2023 GMT
        Next Update: Apr 14 11:35:51 2026 GMT
Revoked Certificates:
    Serial Number: 07
        Revocation Date: Jul 19 11:35:44 2023 GMT
    Serial Number: 23
        Revocation Date: Jul 19 11:35:50 2023 GMT
    Serial Number: 27
        Revocation Date: Jul 19 11:35:51 2023 GMT
    Serial Number: 28
        Revocation Date: Jul 19 11:35:51 2023 GMT
    Signature Algorithm: sha256WithRSAEncryption
         51:a4:e6:8c:9f:68:d9:63:f0:f4:fc:ea:d6:0e:22:c4:dd:f2:
         5f:e3:51:23:68:0a:e0:5c:78:ec:12:24:8a:07:ab:1c:08:29:
         da:4c:ad:f2:8a:0e:d6:b9:51:f1:8e:a2:da:77:b5:c8:0e:af:
         b6:42:ca:0d:f8:e3:21:a2:66:ce:91:d8:9c:d1:3a:6b:27:55:
         7d:14:a1:3a:89:a7:d5:13:fe:df:c6:50:b6:1b:87:14:f4:41:
         08:1d:30:61:31:3f:d1:99:6d:83:50:71:0f:01:4d:83:34:46:
         e7:80:15:26:d4:8c:80:9b:1f:df:6e:de:d1:37:ca:2d:77:b6:
         bc:ea:b9:55:8b:40:f9:37:6e:cd:22:56:cf:73:6e:40:08:55:
         4a:0b:ab:8b:2f:19:c3:ae:02:1c:6d:c9:71:f2:d1:6a:6d:c7:
         3e:90:0b:58:43:85:1e:34:a9:04:74:e3:ac:7d:0d:9a:77:3f:
         71:04:25:a8:35:ec:24:fb:eb:6c:3a:38:41:f1:95:c4:cc:a2:
         99:f9:1d:9c:7c:84:cf:87:ff:33:c8:b2:2d:f7:02:b9:d2:8c:
         a8:b0:b2:21:27:51:b4:96:a5:e7:c8:7f:2d:10:fd:51:28:bb:
         35:70:d5:f7:36:26:72:16:a3:5f:f0:4b:fd:d3:7e:94:3c:95:
         ea:9c:c5:4f
-----BEGIN X509 CRL-----
MIICATCB6jANBgkqhkiG9w0BAQsFADBpMQswCQYDVQQGEwJVUzETMBEGA1UECAwK
Q2FsaWZvcm5pYTEUMBIGA1UEBwwLU2FudGEgQ2xhcmExDTALBgNVBAoMBHBrZzUx
DDAKBgNVBAMMA3RhNTESMBAGCSqGSIb3DQEJARYDdGE1Fw0yMzA3MTkxMTM1NTFa
Fw0yNjA0MTQxMTM1NTFaMFAwEgIBBxcNMjMwNzE5MTEzNTQ0WjASAgEjFw0yMzA3
MTkxMTM1NTBaMBICAScXDTIzMDcxOTExMzU1MVowEgIBKBcNMjMwNzE5MTEzNTUx
WjANBgkqhkiG9w0BAQsFAAOCAQEAUaTmjJ9o2WPw9Pzq1g4ixN3yX+NRI2gK4Fx4
7BIkigerHAgp2kyt8ooO1rlR8Y6i2ne1yA6vtkLKDfjjIaJmzpHYnNE6aydVfRSh
Oomn1RP+38ZQthuHFPRBCB0wYTE/0Zltg1BxDwFNgzRG54AVJtSMgJsf327e0TfK
LXe2vOq5VYtA+TduzSJWz3NuQAhVSguriy8Zw64CHG3JcfLRam3HPpALWEOFHjSp
BHTjrH0Nmnc/cQQlqDXsJPvrbDo4QfGVxMyimfkdnHyEz4f/M8iyLfcCudKMqLCy
ISdRtJal58h/LRD9USi7NXDV9zYmchajX/BL/dN+lDyV6pzFTw==
-----END X509 CRL-----
