Certificate Revocation List (CRL):
        Version 1 (0x0)
        Signature Algorithm: sha256WithRSAEncryption
        Issuer: /C=US/ST=California/L=Menlo Park/O=pkg5/CN=ta5/emailAddress=ta5
        Last Update: Mar 21 00:49:35 2011 GMT
        Next Update: Dec 15 00:49:35 2013 GMT
Revoked Certificates:
    Serial Number: 07
        Revocation Date: Mar 21 00:49:24 2011 GMT
    Serial Number: 23
        Revocation Date: Mar 21 00:49:32 2011 GMT
    Serial Number: 27
        Revocation Date: Mar 21 00:49:34 2011 GMT
    Serial Number: 28
        Revocation Date: Mar 21 00:49:35 2011 GMT
    Signature Algorithm: sha256WithRSAEncryption
        81:8c:4a:60:d8:d7:48:e8:ef:57:75:bf:0f:12:1f:a2:f3:5b:
        f4:78:d8:a8:6b:b9:72:c1:80:60:a5:1b:e1:82:71:88:2d:38:
        ff:2f:c6:be:36:16:d1:76:6c:e1:d9:ad:b4:c3:a2:c9:64:11:
        ee:d6:32:0a:b8:14:a7:73:7c:59:2f:86:8c:9a:83:80:35:79:
        3c:59:9e:7b:75:b6:8e:ef:15:2a:5d:f4:d0:69:04:f9:58:2f:
        b4:85:b9:5e:49:e9:8a:ae:72:94:34:28:87:6d:cd:ec:d6:86:
        79:17:a3:31:e0:9c:21:fb:b4:6d:84:ac:3d:86:47:f5:c8:c8:
        89:ca
-----BEGIN X509 CRL-----
MIIBfzCB6TANBgkqhkiG9w0BAQsFADBoMQswCQYDVQQGEwJVUzETMBEGA1UECBMK
Q2FsaWZvcm5pYTETMBEGA1UEBxMKTWVubG8gUGFyazENMAsGA1UEChMEcGtnNTEM
MAoGA1UEAxMDdGE1MRIwEAYJKoZIhvcNAQkBFgN0YTUXDTExMDMyMTAwNDkzNVoX
DTEzMTIxNTAwNDkzNVowUDASAgEHFw0xMTAzMjEwMDQ5MjRaMBICASMXDTExMDMy
MTAwNDkzMlowEgIBJxcNMTEwMzIxMDA0OTM0WjASAgEoFw0xMTAzMjEwMDQ5MzVa
MA0GCSqGSIb3DQEBCwUAA4GBAIGMSmDY10jo71d1vw8SH6LzW/R42KhruXLBgGCl
G+GCcYgtOP8vxr42FtF2bOHZrbTDoslkEe7WMgq4FKdzfFkvhoyag4A1eTxZnnt1
to7vFSpd9NBpBPlYL7SFuV5J6YqucpQ0KIdtzezWhnkXozHgnCH7tG2ErD2GR/XI
yInK
-----END X509 CRL-----
