Certificate Revocation List (CRL):
        Version 1 (0x0)
        Signature Algorithm: sha256WithRSAEncryption
        Issuer: /C=US/ST=California/L=Menlo Park/O=pkg5/CN=ta5/emailAddress=ta5
        Last Update: Aug  4 20:59:29 2010 GMT
        Next Update: Apr 30 20:59:29 2013 GMT
Revoked Certificates:
    Serial Number: 07
        Revocation Date: Aug  4 20:59:24 2010 GMT
    Serial Number: 08
        Revocation Date: Aug  4 20:59:24 2010 GMT
    Serial Number: 18
        Revocation Date: Aug  4 20:59:28 2010 GMT
    Serial Number: 1B
        Revocation Date: Aug  4 20:59:29 2010 GMT
    Signature Algorithm: sha256WithRSAEncryption
        8e:92:e0:14:21:89:5b:01:ae:c8:d7:88:ce:fd:18:2b:e3:25:
        31:9c:2a:a7:41:3c:d1:e1:d7:de:73:95:3b:7f:01:04:0d:46:
        6f:e1:9a:da:57:63:25:cc:d6:d9:d3:4b:ed:43:fd:6c:a0:96:
        a1:e9:5a:e0:b2:c4:2b:fd:ae:0a:8d:2b:08:1e:0e:d7:fe:8d:
        f5:bf:e0:fe:7b:4d:c8:2d:ac:51:8c:0a:cb:b0:77:51:c3:09:
        ed:4a:75:5b:c7:77:bb:31:9e:62:3f:33:af:95:82:94:83:7c:
        36:de:b0:e8:7a:b1:e3:7d:86:c0:7f:d8:84:74:73:7c:4b:36:
        f7:07
-----BEGIN X509 CRL-----
MIIBfzCB6TANBgkqhkiG9w0BAQsFADBoMQswCQYDVQQGEwJVUzETMBEGA1UECBMK
Q2FsaWZvcm5pYTETMBEGA1UEBxMKTWVubG8gUGFyazENMAsGA1UEChMEcGtnNTEM
MAoGA1UEAxMDdGE1MRIwEAYJKoZIhvcNAQkBFgN0YTUXDTEwMDgwNDIwNTkyOVoX
DTEzMDQzMDIwNTkyOVowUDASAgEHFw0xMDA4MDQyMDU5MjRaMBICAQgXDTEwMDgw
NDIwNTkyNFowEgIBGBcNMTAwODA0MjA1OTI4WjASAgEbFw0xMDA4MDQyMDU5Mjla
MA0GCSqGSIb3DQEBCwUAA4GBAI6S4BQhiVsBrsjXiM79GCvjJTGcKqdBPNHh195z
lTt/AQQNRm/hmtpXYyXM1tnTS+1D/WyglqHpWuCyxCv9rgqNKwgeDtf+jfW/4P57
TcgtrFGMCsuwd1HDCe1KdVvHd7sxnmI/M6+VgpSDfDbesOh6seN9hsB/2IR0c3xL
NvcH
-----END X509 CRL-----
