Certificate Revocation List (CRL):
        Version 1 (0x0)
    Signature Algorithm: sha256WithRSAEncryption
        Issuer: /C=US/ST=California/L=Santa Clara/O=pkg5/CN=ta5/emailAddress=ta5
        Last Update: Jan 22 15:33:15 2019 GMT
        Next Update: Oct 18 15:33:15 2021 GMT
Revoked Certificates:
    Serial Number: 07
        Revocation Date: Jan 22 15:33:07 2019 GMT
    Serial Number: 23
        Revocation Date: Jan 22 15:33:13 2019 GMT
    Serial Number: 27
        Revocation Date: Jan 22 15:33:14 2019 GMT
    Serial Number: 28
        Revocation Date: Jan 22 15:33:15 2019 GMT
    Signature Algorithm: sha256WithRSAEncryption
         17:87:d0:ea:fd:c0:3b:d5:38:18:2c:90:3e:da:fc:fb:57:34:
         bb:5f:19:d5:7b:f7:6e:ba:2d:5c:ef:b3:43:7d:33:a7:f8:5f:
         04:27:3a:47:ce:e0:be:73:2e:ca:88:0d:7d:4a:a3:37:a4:13:
         a0:9d:4e:5c:c2:41:34:0c:ea:6e:ed:76:55:aa:7d:02:92:2d:
         6d:f0:64:99:b6:11:2d:20:a7:ed:6f:8a:cc:3f:66:98:42:f5:
         03:73:b3:7a:e0:4f:8e:9f:11:23:90:49:d8:80:1c:0e:6c:3e:
         5d:91:28:9c:e9:a5:a5:43:18:c2:60:cb:1c:23:63:8e:1d:b8:
         70:1d:92:e7:84:f2:90:22:a6:75:3c:5d:8c:d6:e7:77:ea:33:
         aa:0f:3a:cc:60:fe:9d:7c:11:55:50:e3:bf:0f:20:4b:e7:e8:
         f3:e2:fa:ee:c4:79:54:2f:4a:72:54:92:97:c5:cd:53:3a:43:
         c9:a5:e5:d5:8b:64:6b:da:79:13:d6:fe:ca:4b:e1:f6:90:0a:
         71:e4:be:e2:71:0d:08:cf:25:db:cd:12:3d:d6:b7:99:98:6b:
         51:dd:d9:74:ba:15:c6:2f:9b:65:74:c5:c3:06:93:a1:0a:c9:
         ce:c1:55:49:8c:b3:60:8a:29:51:20:34:3f:7b:b4:c2:65:63:
         27:13:5c:6a
-----BEGIN X509 CRL-----
MIICATCB6jANBgkqhkiG9w0BAQsFADBpMQswCQYDVQQGEwJVUzETMBEGA1UECAwK
Q2FsaWZvcm5pYTEUMBIGA1UEBwwLU2FudGEgQ2xhcmExDTALBgNVBAoMBHBrZzUx
DDAKBgNVBAMMA3RhNTESMBAGCSqGSIb3DQEJARYDdGE1Fw0xOTAxMjIxNTMzMTVa
Fw0yMTEwMTgxNTMzMTVaMFAwEgIBBxcNMTkwMTIyMTUzMzA3WjASAgEjFw0xOTAx
MjIxNTMzMTNaMBICAScXDTE5MDEyMjE1MzMxNFowEgIBKBcNMTkwMTIyMTUzMzE1
WjANBgkqhkiG9w0BAQsFAAOCAQEAF4fQ6v3AO9U4GCyQPtr8+1c0u18Z1Xv3brot
XO+zQ30zp/hfBCc6R87gvnMuyogNfUqjN6QToJ1OXMJBNAzqbu12Vap9ApItbfBk
mbYRLSCn7W+KzD9mmEL1A3OzeuBPjp8RI5BJ2IAcDmw+XZEonOmlpUMYwmDLHCNj
jh24cB2S54TykCKmdTxdjNbnd+ozqg86zGD+nXwRVVDjvw8gS+fo8+L67sR5VC9K
clSSl8XNUzpDyaXl1Ytka9p5E9b+ykvh9pAKceS+4nENCM8l280SPda3mZhrUd3Z
dLoVxi+bZXTFwwaToQrJzsFVSYyzYIopUSA0P3u0wmVjJxNcag==
-----END X509 CRL-----
