Certificate Revocation List (CRL):
        Version 1 (0x0)
    Signature Algorithm: sha256WithRSAEncryption
        Issuer: /C=US/ST=California/L=Santa Clara/O=pkg5/CN=ta5/emailAddress=ta5
        Last Update: Sep 22 05:33:35 2021 GMT
        Next Update: Jun 18 05:33:35 2024 GMT
Revoked Certificates:
    Serial Number: 07
        Revocation Date: Sep 22 05:33:16 2021 GMT
    Serial Number: 23
        Revocation Date: Sep 22 05:33:30 2021 GMT
    Serial Number: 27
        Revocation Date: Sep 22 05:33:33 2021 GMT
    Serial Number: 28
        Revocation Date: Sep 22 05:33:34 2021 GMT
    Signature Algorithm: sha256WithRSAEncryption
         02:4f:bd:c9:8f:7b:79:86:c3:dc:e8:40:ce:6a:19:1e:c5:61:
         d9:f9:e2:8d:d6:fc:fc:bf:7a:57:ce:f1:dd:59:4e:42:de:6f:
         97:59:ed:6f:85:15:e0:2a:80:8b:76:d5:07:72:35:8d:3f:31:
         ae:f2:95:91:a8:30:19:dc:c0:68:99:c1:86:48:65:85:94:a1:
         1c:37:6f:e0:cb:2a:d3:e5:3c:40:a3:dd:7f:89:7f:03:d6:ef:
         39:3e:a4:ab:a4:51:b9:07:c1:84:99:1f:41:e5:04:dd:7b:b1:
         88:ad:1f:6a:ba:19:41:ae:87:a7:77:c7:87:a6:e6:83:b3:51:
         c2:e6:2c:0c:96:57:f9:eb:da:47:dc:23:e8:4f:6a:a0:7d:f6:
         26:08:11:88:8f:a3:4c:a5:49:75:da:bb:83:3a:fd:4c:99:47:
         fa:8d:d7:f8:86:3f:82:76:3e:c9:62:42:1c:02:4b:1f:1a:c9:
         66:2b:68:cd:9c:61:a5:3c:02:61:ca:c3:21:4c:53:19:08:1e:
         79:6c:c6:24:46:e1:00:c0:5d:70:4f:f8:3b:5a:31:74:84:20:
         60:b6:94:fd:0c:39:2f:84:c3:4e:67:4b:b1:8e:06:aa:4c:f3:
         09:f3:d9:7b:e9:3d:c2:4b:15:f9:b6:4d:e3:25:2e:59:79:fe:
         b0:77:42:59
-----BEGIN X509 CRL-----
MIICATCB6jANBgkqhkiG9w0BAQsFADBpMQswCQYDVQQGEwJVUzETMBEGA1UECAwK
Q2FsaWZvcm5pYTEUMBIGA1UEBwwLU2FudGEgQ2xhcmExDTALBgNVBAoMBHBrZzUx
DDAKBgNVBAMMA3RhNTESMBAGCSqGSIb3DQEJARYDdGE1Fw0yMTA5MjIwNTMzMzVa
Fw0yNDA2MTgwNTMzMzVaMFAwEgIBBxcNMjEwOTIyMDUzMzE2WjASAgEjFw0yMTA5
MjIwNTMzMzBaMBICAScXDTIxMDkyMjA1MzMzM1owEgIBKBcNMjEwOTIyMDUzMzM0
WjANBgkqhkiG9w0BAQsFAAOCAQEAAk+9yY97eYbD3OhAzmoZHsVh2fnijdb8/L96
V87x3VlOQt5vl1ntb4UV4CqAi3bVB3I1jT8xrvKVkagwGdzAaJnBhkhlhZShHDdv
4Msq0+U8QKPdf4l/A9bvOT6kq6RRuQfBhJkfQeUE3XuxiK0faroZQa6Hp3fHh6bm
g7NRwuYsDJZX+evaR9wj6E9qoH32JggRiI+jTKVJddq7gzr9TJlH+o3X+IY/gnY+
yWJCHAJLHxrJZitozZxhpTwCYcrDIUxTGQgeeWzGJEbhAMBdcE/4O1oxdIQgYLaU
/Qw5L4TDTmdLsY4GqkzzCfPZe+k9wksV+bZN4yUuWXn+sHdCWQ==
-----END X509 CRL-----
