Certificate Revocation List (CRL):
        Version 1 (0x0)
        Signature Algorithm: sha256WithRSAEncryption
        Issuer: /C=US/ST=California/L=Menlo Park/O=pkg5/CN=ta5/emailAddress=ta5
        Last Update: Apr 11 22:37:52 2011 GMT
        Next Update: Jan  5 22:37:52 2014 GMT
Revoked Certificates:
    Serial Number: 07
        Revocation Date: Apr 11 22:37:40 2011 GMT
    Serial Number: 23
        Revocation Date: Apr 11 22:37:50 2011 GMT
    Serial Number: 27
        Revocation Date: Apr 11 22:37:51 2011 GMT
    Serial Number: 28
        Revocation Date: Apr 11 22:37:52 2011 GMT
    Signature Algorithm: sha256WithRSAEncryption
        58:70:11:73:97:29:40:34:77:df:1e:5d:b1:77:6b:9a:6b:00:
        33:d1:a3:50:34:05:f6:ba:ed:eb:c7:23:81:e5:da:56:3f:ac:
        3a:32:e6:ff:e2:45:da:68:7d:03:70:ea:00:f4:f2:6d:52:f9:
        5e:fc:0f:a9:83:1a:dd:a0:17:9b:6e:ee:9e:42:b5:25:e1:9f:
        e1:38:db:99:21:71:53:fe:b6:ce:b4:57:1c:b7:d7:99:eb:6e:
        a8:ba:65:e2:6d:16:53:7e:6c:6d:93:b0:0c:f7:48:ec:16:71:
        ce:84:a6:27:c5:88:82:8d:76:09:c5:74:8f:5d:b9:29:46:6a:
        e3:ae
-----BEGIN X509 CRL-----
MIIBfzCB6TANBgkqhkiG9w0BAQsFADBoMQswCQYDVQQGEwJVUzETMBEGA1UECBMK
Q2FsaWZvcm5pYTETMBEGA1UEBxMKTWVubG8gUGFyazENMAsGA1UEChMEcGtnNTEM
MAoGA1UEAxMDdGE1MRIwEAYJKoZIhvcNAQkBFgN0YTUXDTExMDQxMTIyMzc1MloX
DTE0MDEwNTIyMzc1MlowUDASAgEHFw0xMTA0MTEyMjM3NDBaMBICASMXDTExMDQx
MTIyMzc1MFowEgIBJxcNMTEwNDExMjIzNzUxWjASAgEoFw0xMTA0MTEyMjM3NTJa
MA0GCSqGSIb3DQEBCwUAA4GBAFhwEXOXKUA0d98eXbF3a5prADPRo1A0Bfa67evH
I4Hl2lY/rDoy5v/iRdpofQNw6gD08m1S+V78D6mDGt2gF5tu7p5CtSXhn+E425kh
cVP+ts60Vxy315nrbqi6ZeJtFlN+bG2TsAz3SOwWcc6EpifFiIKNdgnFdI9duSlG
auOu
-----END X509 CRL-----
