Certificate Revocation List (CRL):
        Version 1 (0x0)
        Signature Algorithm: sha256WithRSAEncryption
        Issuer: /C=US/ST=California/L=Menlo Park/O=pkg5/CN=ta5/emailAddress=ta5
        Last Update: Jan 28 02:54:25 2011 GMT
        Next Update: Oct 24 02:54:25 2013 GMT
Revoked Certificates:
    Serial Number: 07
        Revocation Date: Jan 28 02:54:11 2011 GMT
    Serial Number: 08
        Revocation Date: Jan 28 02:54:11 2011 GMT
    Serial Number: 1F
        Revocation Date: Jan 28 02:54:22 2011 GMT
    Serial Number: 23
        Revocation Date: Jan 28 02:54:24 2011 GMT
    Serial Number: 24
        Revocation Date: Jan 28 02:54:25 2011 GMT
    Signature Algorithm: sha256WithRSAEncryption
        94:82:fa:b9:39:bb:a6:53:fe:a4:d5:9a:47:d7:9b:0d:f4:b8:
        29:c1:58:66:47:4a:b0:be:6e:7f:f2:2c:39:0e:5b:1a:24:e7:
        dd:99:6f:63:19:f2:7c:97:4c:83:ee:df:31:93:0c:44:cb:67:
        f2:11:16:9b:fb:ee:ab:27:52:6c:00:b9:4e:88:9b:b5:02:ea:
        b4:df:5b:c4:a7:94:38:b5:2c:90:e9:22:fd:86:3f:03:60:91:
        1b:36:8c:da:b1:61:27:cd:05:d7:fd:5a:46:c9:c5:9a:9c:b1:
        7b:52:96:20:6a:d2:ef:cc:47:40:fd:2e:2a:33:b0:20:6d:8d:
        f7:fb
-----BEGIN X509 CRL-----
MIIBkzCB/TANBgkqhkiG9w0BAQsFADBoMQswCQYDVQQGEwJVUzETMBEGA1UECBMK
Q2FsaWZvcm5pYTETMBEGA1UEBxMKTWVubG8gUGFyazENMAsGA1UEChMEcGtnNTEM
MAoGA1UEAxMDdGE1MRIwEAYJKoZIhvcNAQkBFgN0YTUXDTExMDEyODAyNTQyNVoX
DTEzMTAyNDAyNTQyNVowZDASAgEHFw0xMTAxMjgwMjU0MTFaMBICAQgXDTExMDEy
ODAyNTQxMVowEgIBHxcNMTEwMTI4MDI1NDIyWjASAgEjFw0xMTAxMjgwMjU0MjRa
MBICASQXDTExMDEyODAyNTQyNVowDQYJKoZIhvcNAQELBQADgYEAlIL6uTm7plP+
pNWaR9ebDfS4KcFYZkdKsL5uf/IsOQ5bGiTn3ZlvYxnyfJdMg+7fMZMMRMtn8hEW
m/vuqydSbAC5ToibtQLqtN9bxKeUOLUskOki/YY/A2CRGzaM2rFhJ80F1/1aRsnF
mpyxe1KWIGrS78xHQP0uKjOwIG2N9/s=
-----END X509 CRL-----
