Certificate Revocation List (CRL):
        Version 1 (0x0)
    Signature Algorithm: sha256WithRSAEncryption
        Issuer: /C=US/ST=California/L=Santa Clara/O=pkg5/CN=ta5/emailAddress=ta5
        Last Update: Jan 22 01:58:00 2016 GMT
        Next Update: Oct 18 01:58:00 2018 GMT
Revoked Certificates:
    Serial Number: 07
        Revocation Date: Jan 22 01:57:54 2016 GMT
    Serial Number: 24
        Revocation Date: Jan 22 01:57:59 2016 GMT
    Serial Number: 28
        Revocation Date: Jan 22 01:57:59 2016 GMT
    Serial Number: 29
        Revocation Date: Jan 22 01:58:00 2016 GMT
    Signature Algorithm: sha256WithRSAEncryption
         18:d5:a3:de:b5:d1:eb:d0:b7:9a:61:d4:4c:13:3b:6f:ea:3a:
         8a:0e:10:d9:60:ed:35:64:13:23:2d:05:cb:a7:eb:13:0d:2b:
         bd:f1:5a:01:d4:17:54:88:c8:a4:2d:55:b6:dc:55:f0:c1:1d:
         09:49:1f:bd:41:ad:0f:dd:ff:f0:3d:ce:fb:89:fc:82:d0:37:
         1d:c2:4c:4e:e1:26:2b:ff:0d:b2:6f:3a:9d:02:ff:6a:22:46:
         05:ab:68:d4:17:42:3f:ad:55:b0:de:bb:5c:50:ec:b1:1f:1f:
         79:aa:f7:c9:78:f6:6a:cf:7d:76:c3:09:a6:da:47:00:34:a6:
         a8:3c:04:ef:84:f8:79:0a:29:cb:cd:8e:a4:5c:0c:b7:9a:04:
         88:79:f4:e6:ac:6a:99:53:e2:ce:37:f7:6a:b0:4a:57:8b:f9:
         a3:55:56:d7:02:ac:27:5c:26:16:e8:7c:73:20:fc:fe:bd:bd:
         b6:91:4c:ec:91:88:68:a1:4e:40:bc:86:11:f1:74:31:a0:21:
         ca:0f:4b:d9:5a:83:d1:26:5b:60:2b:54:dc:fc:59:c8:0c:19:
         a7:1b:4a:46:54:50:81:20:f3:55:06:5f:58:cd:41:06:dd:a8:
         6f:63:03:c2:c3:88:8d:16:dd:39:ee:6b:19:e8:2d:06:02:28:
         fb:eb:b5:a1
-----BEGIN X509 CRL-----
MIICATCB6jANBgkqhkiG9w0BAQsFADBpMQswCQYDVQQGEwJVUzETMBEGA1UECAwK
Q2FsaWZvcm5pYTEUMBIGA1UEBwwLU2FudGEgQ2xhcmExDTALBgNVBAoMBHBrZzUx
DDAKBgNVBAMMA3RhNTESMBAGCSqGSIb3DQEJARYDdGE1Fw0xNjAxMjIwMTU4MDBa
Fw0xODEwMTgwMTU4MDBaMFAwEgIBBxcNMTYwMTIyMDE1NzU0WjASAgEkFw0xNjAx
MjIwMTU3NTlaMBICASgXDTE2MDEyMjAxNTc1OVowEgIBKRcNMTYwMTIyMDE1ODAw
WjANBgkqhkiG9w0BAQsFAAOCAQEAGNWj3rXR69C3mmHUTBM7b+o6ig4Q2WDtNWQT
Iy0Fy6frEw0rvfFaAdQXVIjIpC1VttxV8MEdCUkfvUGtD93/8D3O+4n8gtA3HcJM
TuEmK/8Nsm86nQL/aiJGBato1BdCP61VsN67XFDssR8fear3yXj2as99dsMJptpH
ADSmqDwE74T4eQopy82OpFwMt5oEiHn05qxqmVPizjf3arBKV4v5o1VW1wKsJ1wm
Fuh8cyD8/r29tpFM7JGIaKFOQLyGEfF0MaAhyg9L2VqD0SZbYCtU3PxZyAwZpxtK
RlRQgSDzVQZfWM1BBt2ob2MDwsOIjRbdOe5rGegtBgIo++u1oQ==
-----END X509 CRL-----
