Certificate Revocation List (CRL):
        Version 1 (0x0)
        Signature Algorithm: sha256WithRSAEncryption
        Issuer: C = US, ST = California, L = Santa Clara, O = pkg5, CN = ta5, emailAddress = ta5
        Last Update: Mar 18 08:51:45 2026 GMT
        Next Update: Dec 12 08:51:45 2028 GMT
Revoked Certificates:
    Serial Number: 07
        Revocation Date: Mar 18 08:51:29 2026 GMT
    Serial Number: 23
        Revocation Date: Mar 18 08:51:42 2026 GMT
    Serial Number: 27
        Revocation Date: Mar 18 08:51:43 2026 GMT
    Serial Number: 28
        Revocation Date: Mar 18 08:51:45 2026 GMT
    Signature Algorithm: sha256WithRSAEncryption
    Signature Value:
        b7:48:ec:66:81:e2:5c:57:5c:da:f3:2f:c2:e8:6b:10:ca:bb:
        0b:8e:6c:28:39:ce:75:5d:d1:71:20:2f:7b:75:ef:5a:0f:89:
        9c:28:6c:45:ee:f1:8d:73:ac:b2:62:4d:e9:92:be:b3:90:c6:
        aa:13:a7:87:4a:c1:d3:a4:7b:ca:19:08:05:01:39:b4:f0:4c:
        1d:77:39:38:a7:fd:8f:02:03:aa:2e:b5:c5:51:b7:a9:bf:97:
        35:fe:d6:8c:65:64:75:4e:b8:59:81:ec:24:b2:b9:61:b3:e9:
        c0:ab:57:d0:c1:bc:b9:97:b5:72:f3:37:a9:d7:84:e5:81:5f:
        98:05:a5:d5:17:94:77:cc:d7:8f:28:0d:a2:0e:97:47:c9:7a:
        c5:07:4c:f1:32:b1:d1:aa:8d:41:48:b3:f0:cb:7e:f1:cd:2e:
        f3:0c:26:b3:13:a4:69:f7:e1:16:2a:ed:ac:b7:7a:99:e3:c6:
        7e:67:c8:c4:ba:0d:21:a5:e8:38:64:6d:7a:44:7d:4e:61:ad:
        a0:f3:5b:c1:55:b0:18:a8:11:1a:6a:f7:07:cc:6c:26:58:88:
        c6:d9:5b:fd:e5:a7:31:19:0c:25:2b:c2:db:3c:5e:9c:b3:99:
        47:6c:cd:82:7c:36:e9:bd:fb:93:f6:0a:6f:8d:17:e1:90:34:
        89:e5:ea:22
-----BEGIN X509 CRL-----
MIICATCB6jANBgkqhkiG9w0BAQsFADBpMQswCQYDVQQGEwJVUzETMBEGA1UECAwK
Q2FsaWZvcm5pYTEUMBIGA1UEBwwLU2FudGEgQ2xhcmExDTALBgNVBAoMBHBrZzUx
DDAKBgNVBAMMA3RhNTESMBAGCSqGSIb3DQEJARYDdGE1Fw0yNjAzMTgwODUxNDVa
Fw0yODEyMTIwODUxNDVaMFAwEgIBBxcNMjYwMzE4MDg1MTI5WjASAgEjFw0yNjAz
MTgwODUxNDJaMBICAScXDTI2MDMxODA4NTE0M1owEgIBKBcNMjYwMzE4MDg1MTQ1
WjANBgkqhkiG9w0BAQsFAAOCAQEAt0jsZoHiXFdc2vMvwuhrEMq7C45sKDnOdV3R
cSAve3XvWg+JnChsRe7xjXOssmJN6ZK+s5DGqhOnh0rB06R7yhkIBQE5tPBMHXc5
OKf9jwIDqi61xVG3qb+XNf7WjGVkdU64WYHsJLK5YbPpwKtX0MG8uZe1cvM3qdeE
5YFfmAWl1ReUd8zXjygNog6XR8l6xQdM8TKx0aqNQUiz8Mt+8c0u8wwmsxOkaffh
FirtrLd6mePGfmfIxLoNIaXoOGRtekR9TmGtoPNbwVWwGKgRGmr3B8xsJliIxtlb
/eWnMRkMJSvC2zxenLOZR2zNgnw26b37k/YKb40X4ZA0ieXqIg==
-----END X509 CRL-----
