Certificate Revocation List (CRL):
        Version 1 (0x0)
    Signature Algorithm: sha256WithRSAEncryption
        Issuer: /C=US/ST=California/L=Santa Clara/O=pkg5/CN=ta5/emailAddress=ta5
        Last Update: Dec 13 00:13:38 2013 GMT
        Next Update: Sep  8 00:13:38 2016 GMT
Revoked Certificates:
    Serial Number: 07
        Revocation Date: Dec 13 00:13:34 2013 GMT
    Serial Number: 23
        Revocation Date: Dec 13 00:13:37 2013 GMT
    Serial Number: 27
        Revocation Date: Dec 13 00:13:38 2013 GMT
    Serial Number: 28
        Revocation Date: Dec 13 00:13:38 2013 GMT
    Signature Algorithm: sha256WithRSAEncryption
         4d:b9:05:ae:86:33:2a:45:ac:b2:d2:a6:82:a4:05:4d:95:20:
         a6:3d:ed:57:b2:07:21:d4:8f:01:75:ad:4b:3d:62:9a:eb:85:
         57:64:7e:e1:7b:04:54:25:b1:15:19:74:19:81:a5:82:f9:d7:
         cb:d5:f3:5f:cb:54:21:b8:47:58:22:da:b8:3e:dc:31:53:4b:
         c9:85:c4:d2:c0:ba:4d:57:60:ce:95:75:95:29:2d:3a:be:3e:
         a2:c6:bc:41:1f:60:3a:03:ed:b7:c2:9d:9c:50:32:83:d3:9b:
         8d:06:4a:72:1e:5e:13:a8:9d:5d:65:16:ec:87:3d:e0:b4:dc:
         c4:16
-----BEGIN X509 CRL-----
MIIBgDCB6jANBgkqhkiG9w0BAQsFADBpMQswCQYDVQQGEwJVUzETMBEGA1UECAwK
Q2FsaWZvcm5pYTEUMBIGA1UEBwwLU2FudGEgQ2xhcmExDTALBgNVBAoMBHBrZzUx
DDAKBgNVBAMMA3RhNTESMBAGCSqGSIb3DQEJARYDdGE1Fw0xMzEyMTMwMDEzMzha
Fw0xNjA5MDgwMDEzMzhaMFAwEgIBBxcNMTMxMjEzMDAxMzM0WjASAgEjFw0xMzEy
MTMwMDEzMzdaMBICAScXDTEzMTIxMzAwMTMzOFowEgIBKBcNMTMxMjEzMDAxMzM4
WjANBgkqhkiG9w0BAQsFAAOBgQBNuQWuhjMqRayy0qaCpAVNlSCmPe1Xsgch1I8B
da1LPWKa64VXZH7hewRUJbEVGXQZgaWC+dfL1fNfy1QhuEdYItq4PtwxU0vJhcTS
wLpNV2DOlXWVKS06vj6ixrxBH2A6A+23wp2cUDKD05uNBkpyHl4TqJ1dZRbshz3g
tNzEFg==
-----END X509 CRL-----
