Certificate:
    Data:
        Version: 3 (0x2)
        Serial Number: 1 (0x1)
        Signature Algorithm: sha256WithRSAEncryption
        Issuer: C=US, ST=California, L=Menlo Park, O=pkg5, CN=ta1/emailAddress=ta1
        Validity
            Not Before: Jan 28 02:54:10 2011 GMT
            Not After : Oct 24 02:54:10 2013 GMT
        Subject: C=US, ST=California, L=Menlo Park, O=pkg5, CN=i1_ta1/emailAddress=i1_ta1
        Subject Public Key Info:
            Public Key Algorithm: rsaEncryption
            RSA Public Key: (1024 bit)
                Modulus (1024 bit):
                    00:cb:34:c4:83:e1:23:3a:30:58:ea:08:7f:6b:81:
                    7d:7c:15:1c:72:94:47:9c:af:19:f2:2f:1c:dc:7d:
                    4f:bd:0e:d1:0d:3c:3f:5c:94:0b:75:e4:a6:ce:c8:
                    f9:53:40:8b:49:35:b9:76:3a:6f:28:03:f8:a1:1e:
                    7f:e7:c9:c0:b5:aa:dc:2c:a0:23:94:c6:47:3a:55:
                    64:50:79:a9:08:e2:ab:9c:7e:b9:84:b4:b2:e6:10:
                    b6:a2:8e:b1:5a:b4:69:1b:12:d3:8d:7c:44:44:e1:
                    a1:c7:31:b1:4a:97:63:7e:ab:a5:02:3c:f3:2a:10:
                    a2:91:3e:63:f9:b0:54:85:87
                Exponent: 65537 (0x10001)
        X509v3 extensions:
            X509v3 Subject Key Identifier: 
                7B:97:31:F3:69:92:87:B0:E3:15:19:3F:91:50:24:E5:21:FA:67:61
            X509v3 Authority Key Identifier: 
                keyid:15:AB:A2:AB:34:BD:EB:C4:C9:AE:0D:82:51:00:DD:2D:B1:1D:1A:7B
                DirName:/C=US/ST=California/L=Menlo Park/O=pkg5/CN=ta1/emailAddress=ta1
                serial:C1:E4:F1:A8:14:C7:A7:58

            X509v3 Basic Constraints: critical
                CA:TRUE
            X509v3 Key Usage: critical
                Certificate Sign, CRL Sign
    Signature Algorithm: sha256WithRSAEncryption
        2a:f6:d1:6c:93:95:9e:b4:ca:91:ba:de:50:8a:de:d4:08:11:
        2c:5e:70:7b:ce:a2:cc:91:f6:c3:54:c1:ed:07:c0:c1:19:6f:
        aa:a8:10:f8:f5:83:10:9d:a5:1e:74:f6:0e:dd:74:01:0c:e6:
        4c:d8:40:40:be:ee:1b:88:bf:eb:51:b8:ac:bc:ab:5c:ea:3c:
        23:d5:15:8f:a2:df:4d:2c:58:1f:5f:95:c0:c1:d4:71:b3:af:
        cc:07:6e:51:82:3f:f0:d7:fe:c8:85:a4:48:ae:81:d8:b2:28:
        11:4a:fb:f1:c3:59:01:6a:54:d7:5f:ff:26:c3:15:5d:d7:cc:
        a9:bb
-----BEGIN CERTIFICATE-----
MIIDLTCCApagAwIBAgIBATANBgkqhkiG9w0BAQsFADBoMQswCQYDVQQGEwJVUzET
MBEGA1UECBMKQ2FsaWZvcm5pYTETMBEGA1UEBxMKTWVubG8gUGFyazENMAsGA1UE
ChMEcGtnNTEMMAoGA1UEAxMDdGExMRIwEAYJKoZIhvcNAQkBFgN0YTEwHhcNMTEw
MTI4MDI1NDEwWhcNMTMxMDI0MDI1NDEwWjBuMQswCQYDVQQGEwJVUzETMBEGA1UE
CBMKQ2FsaWZvcm5pYTETMBEGA1UEBxMKTWVubG8gUGFyazENMAsGA1UEChMEcGtn
NTEPMA0GA1UEAxQGaTFfdGExMRUwEwYJKoZIhvcNAQkBFgZpMV90YTEwgZ8wDQYJ
KoZIhvcNAQEBBQADgY0AMIGJAoGBAMs0xIPhIzowWOoIf2uBfXwVHHKUR5yvGfIv
HNx9T70O0Q08P1yUC3Xkps7I+VNAi0k1uXY6bygD+KEef+fJwLWq3CygI5TGRzpV
ZFB5qQjiq5x+uYS0suYQtqKOsVq0aRsS0418REThoccxsUqXY36rpQI88yoQopE+
Y/mwVIWHAgMBAAGjgeAwgd0wHQYDVR0OBBYEFHuXMfNpkoew4xUZP5FQJOUh+mdh
MIGaBgNVHSMEgZIwgY+AFBWroqs0vevEya4NglEA3S2xHRp7oWykajBoMQswCQYD
VQQGEwJVUzETMBEGA1UECBMKQ2FsaWZvcm5pYTETMBEGA1UEBxMKTWVubG8gUGFy
azENMAsGA1UEChMEcGtnNTEMMAoGA1UEAxMDdGExMRIwEAYJKoZIhvcNAQkBFgN0
YTGCCQDB5PGoFMenWDAPBgNVHRMBAf8EBTADAQH/MA4GA1UdDwEB/wQEAwIBBjAN
BgkqhkiG9w0BAQsFAAOBgQAq9tFsk5WetMqRut5Qit7UCBEsXnB7zqLMkfbDVMHt
B8DBGW+qqBD49YMQnaUedPYO3XQBDOZM2EBAvu4biL/rUbisvKtc6jwj1RWPot9N
LFgfX5XAwdRxs6/MB25Rgj/w1/7IhaRIroHYsigRSvvxw1kBalTXX/8mwxVd18yp
uw==
-----END CERTIFICATE-----
