Certificate:
    Data:
        Version: 3 (0x2)
        Serial Number: 1 (0x1)
        Signature Algorithm: sha256WithRSAEncryption
        Issuer: C=US, ST=California, L=Menlo Park, O=pkg5, CN=ta1/emailAddress=ta1
        Validity
            Not Before: Aug  4 20:59:23 2010 GMT
            Not After : Apr 30 20:59:23 2013 GMT
        Subject: C=US, ST=California, L=Menlo Park, O=pkg5, CN=i1_ta1/emailAddress=i1_ta1
        Subject Public Key Info:
            Public Key Algorithm: rsaEncryption
            RSA Public Key: (1024 bit)
                Modulus (1024 bit):
                    00:c6:a6:ce:f9:00:3f:47:3e:3c:72:b0:a7:d8:29:
                    ec:13:8a:8b:95:d9:c1:93:c2:af:50:f9:21:56:36:
                    40:5c:8b:08:99:bd:56:5d:91:56:46:5c:e8:ad:44:
                    ca:8b:b5:29:03:58:a4:e4:19:b3:31:9e:b7:39:ee:
                    5e:2b:45:a0:36:5c:0c:63:f7:e4:ce:ff:27:e2:bd:
                    72:3d:fe:a5:36:b8:c6:87:04:8a:78:94:40:56:3f:
                    8b:da:32:82:99:6c:19:63:ea:a3:c2:21:a2:b9:99:
                    86:d6:b0:70:38:2e:4f:5b:37:00:ac:c5:8e:73:9f:
                    3d:cb:ae:0c:6e:b8:d4:1e:31
                Exponent: 65537 (0x10001)
        X509v3 extensions:
            X509v3 Subject Key Identifier: 
                56:66:FB:5E:DF:02:EF:B8:8E:E1:8A:AF:6D:9B:6A:CD:F6:BF:8B:6C
            X509v3 Authority Key Identifier: 
                keyid:BB:C9:C7:62:4B:87:B7:6A:32:3F:A5:51:7B:C1:3A:8E:3F:06:5C:F7
                DirName:/C=US/ST=California/L=Menlo Park/O=pkg5/CN=ta1/emailAddress=ta1
                serial:CB:CF:1D:CD:F3:A6:CD:09

            X509v3 Basic Constraints: critical
                CA:TRUE
    Signature Algorithm: sha256WithRSAEncryption
        a2:a3:72:b1:14:ad:a0:f9:c7:4c:76:bb:6d:1e:eb:0d:f9:75:
        2e:d4:56:30:ac:78:24:9a:1b:9e:78:28:9f:24:da:56:17:9f:
        fc:e6:18:3d:ce:2a:4e:3a:7d:fe:71:c9:dd:a3:57:ed:7d:ca:
        f4:6f:f8:e8:fe:7f:b0:db:c3:1b:c8:d2:1b:e1:93:13:df:9f:
        5c:a7:56:1e:60:91:2d:bd:51:f7:70:80:50:57:c5:78:f0:7f:
        67:a8:57:08:06:59:0d:04:54:6d:7d:d2:4f:27:d4:c1:dc:73:
        03:52:e4:69:e6:e9:c4:3a:6d:64:db:21:47:8e:7d:c8:3e:9d:
        48:3b
-----BEGIN CERTIFICATE-----
MIIDHTCCAoagAwIBAgIBATANBgkqhkiG9w0BAQsFADBoMQswCQYDVQQGEwJVUzET
MBEGA1UECBMKQ2FsaWZvcm5pYTETMBEGA1UEBxMKTWVubG8gUGFyazENMAsGA1UE
ChMEcGtnNTEMMAoGA1UEAxMDdGExMRIwEAYJKoZIhvcNAQkBFgN0YTEwHhcNMTAw
ODA0MjA1OTIzWhcNMTMwNDMwMjA1OTIzWjBuMQswCQYDVQQGEwJVUzETMBEGA1UE
CBMKQ2FsaWZvcm5pYTETMBEGA1UEBxMKTWVubG8gUGFyazENMAsGA1UEChMEcGtn
NTEPMA0GA1UEAxQGaTFfdGExMRUwEwYJKoZIhvcNAQkBFgZpMV90YTEwgZ8wDQYJ
KoZIhvcNAQEBBQADgY0AMIGJAoGBAMamzvkAP0c+PHKwp9gp7BOKi5XZwZPCr1D5
IVY2QFyLCJm9Vl2RVkZc6K1Eyou1KQNYpOQZszGetznuXitFoDZcDGP35M7/J+K9
cj3+pTa4xocEiniUQFY/i9oygplsGWPqo8IhormZhtawcDguT1s3AKzFjnOfPcuu
DG641B4xAgMBAAGjgdAwgc0wHQYDVR0OBBYEFFZm+17fAu+4juGKr22bas32v4ts
MIGaBgNVHSMEgZIwgY+AFLvJx2JLh7dqMj+lUXvBOo4/Blz3oWykajBoMQswCQYD
VQQGEwJVUzETMBEGA1UECBMKQ2FsaWZvcm5pYTETMBEGA1UEBxMKTWVubG8gUGFy
azENMAsGA1UEChMEcGtnNTEMMAoGA1UEAxMDdGExMRIwEAYJKoZIhvcNAQkBFgN0
YTGCCQDLzx3N86bNCTAPBgNVHRMBAf8EBTADAQH/MA0GCSqGSIb3DQEBCwUAA4GB
AKKjcrEUraD5x0x2u20e6w35dS7UVjCseCSaG554KJ8k2lYXn/zmGD3OKk46ff5x
yd2jV+19yvRv+Oj+f7DbwxvI0hvhkxPfn1ynVh5gkS29UfdwgFBXxXjwf2eoVwgG
WQ0EVG190k8n1MHccwNS5Gnm6cQ6bWTbIUeOfcg+nUg7
-----END CERTIFICATE-----
