Certificate:
    Data:
        Version: 3 (0x2)
        Serial Number: 2 (0x2)
        Signature Algorithm: sha256WithRSAEncryption
        Issuer: C=US, ST=California, L=Menlo Park, O=pkg5, CN=i1_ta1/emailAddress=i1_ta1
        Validity
            Not Before: Jan 28 02:54:10 2011 GMT
            Not After : Oct 24 02:54:10 2013 GMT
        Subject: C=US, ST=California, L=Menlo Park, O=pkg5, CN=i2_ta1/emailAddress=i2_ta1
        Subject Public Key Info:
            Public Key Algorithm: rsaEncryption
            RSA Public Key: (1024 bit)
                Modulus (1024 bit):
                    00:b1:2b:50:52:0e:01:25:b0:1a:8b:58:c2:e3:99:
                    47:54:32:41:79:5b:5e:2a:37:7a:d8:4a:cf:91:26:
                    72:71:37:8c:0c:4f:58:4e:52:1b:ed:33:4e:c3:22:
                    0a:ad:d8:f2:7b:a1:0c:17:79:57:eb:2a:0f:df:4d:
                    65:e3:73:4e:1b:a7:ba:b2:4b:c0:2c:63:11:73:f4:
                    12:96:60:d1:06:44:d5:29:b9:df:e1:ba:8b:2f:7d:
                    df:82:9f:f1:26:e0:d0:ec:2d:cd:f9:53:e8:ea:3e:
                    3d:e3:45:dd:2f:cb:02:be:b4:88:b9:e7:a9:28:47:
                    33:39:04:31:96:7f:91:b7:77
                Exponent: 65537 (0x10001)
        X509v3 extensions:
            X509v3 Subject Key Identifier: 
                4A:49:37:7B:87:42:F2:B2:3F:07:11:1E:FC:AD:31:B2:C9:DA:CD:25
            X509v3 Authority Key Identifier: 
                keyid:7B:97:31:F3:69:92:87:B0:E3:15:19:3F:91:50:24:E5:21:FA:67:61
                DirName:/C=US/ST=California/L=Menlo Park/O=pkg5/CN=ta1/emailAddress=ta1
                serial:01

            X509v3 Basic Constraints: critical
                CA:TRUE
            X509v3 Key Usage: critical
                Certificate Sign, CRL Sign
    Signature Algorithm: sha256WithRSAEncryption
        6d:9f:bf:30:b0:53:f9:b5:f6:95:da:a9:ef:fb:77:40:50:19:
        68:11:5f:08:e9:70:c2:9d:23:2e:25:56:bc:ac:b0:1e:cd:71:
        c0:94:01:5d:f3:a9:9a:9f:30:a9:72:67:37:6c:cc:d1:66:2a:
        a7:ec:2c:d4:23:70:8d:e6:20:f3:8e:96:e4:5f:9d:7d:97:f6:
        8a:62:53:0f:1b:6f:c9:1e:11:31:70:2b:f7:64:6b:63:c8:2f:
        a9:a2:2e:de:e9:37:81:c9:5f:9e:61:25:2b:d3:3f:f3:46:a1:
        52:d1:2b:ce:33:eb:0a:a7:bf:c7:35:14:64:2a:1c:00:26:1f:
        b4:fc
-----BEGIN CERTIFICATE-----
MIIDKzCCApSgAwIBAgIBAjANBgkqhkiG9w0BAQsFADBuMQswCQYDVQQGEwJVUzET
MBEGA1UECBMKQ2FsaWZvcm5pYTETMBEGA1UEBxMKTWVubG8gUGFyazENMAsGA1UE
ChMEcGtnNTEPMA0GA1UEAxQGaTFfdGExMRUwEwYJKoZIhvcNAQkBFgZpMV90YTEw
HhcNMTEwMTI4MDI1NDEwWhcNMTMxMDI0MDI1NDEwWjBuMQswCQYDVQQGEwJVUzET
MBEGA1UECBMKQ2FsaWZvcm5pYTETMBEGA1UEBxMKTWVubG8gUGFyazENMAsGA1UE
ChMEcGtnNTEPMA0GA1UEAxQGaTJfdGExMRUwEwYJKoZIhvcNAQkBFgZpMl90YTEw
gZ8wDQYJKoZIhvcNAQEBBQADgY0AMIGJAoGBALErUFIOASWwGotYwuOZR1QyQXlb
Xio3ethKz5EmcnE3jAxPWE5SG+0zTsMiCq3Y8nuhDBd5V+sqD99NZeNzThunurJL
wCxjEXP0EpZg0QZE1Sm53+G6iy9934Kf8Sbg0OwtzflT6Oo+PeNF3S/LAr60iLnn
qShHMzkEMZZ/kbd3AgMBAAGjgdgwgdUwHQYDVR0OBBYEFEpJN3uHQvKyPwcRHvyt
MbLJ2s0lMIGSBgNVHSMEgYowgYeAFHuXMfNpkoew4xUZP5FQJOUh+mdhoWykajBo
MQswCQYDVQQGEwJVUzETMBEGA1UECBMKQ2FsaWZvcm5pYTETMBEGA1UEBxMKTWVu
bG8gUGFyazENMAsGA1UEChMEcGtnNTEMMAoGA1UEAxMDdGExMRIwEAYJKoZIhvcN
AQkBFgN0YTGCAQEwDwYDVR0TAQH/BAUwAwEB/zAOBgNVHQ8BAf8EBAMCAQYwDQYJ
KoZIhvcNAQELBQADgYEAbZ+/MLBT+bX2ldqp7/t3QFAZaBFfCOlwwp0jLiVWvKyw
Hs1xwJQBXfOpmp8wqXJnN2zM0WYqp+ws1CNwjeYg846W5F+dfZf2imJTDxtvyR4R
MXAr92RrY8gvqaIu3uk3gclfnmElK9M/80ahUtErzjPrCqe/xzUUZCocACYftPw=
-----END CERTIFICATE-----
