Certificate:
    Data:
        Version: 3 (0x2)
        Serial Number: 2 (0x2)
        Signature Algorithm: sha256WithRSAEncryption
        Issuer: C=US, ST=California, L=Menlo Park, O=pkg5, CN=i1_ta1/emailAddress=i1_ta1
        Validity
            Not Before: Aug  4 20:59:23 2010 GMT
            Not After : Apr 30 20:59:23 2013 GMT
        Subject: C=US, ST=California, L=Menlo Park, O=pkg5, CN=i2_ta1/emailAddress=i2_ta1
        Subject Public Key Info:
            Public Key Algorithm: rsaEncryption
            RSA Public Key: (1024 bit)
                Modulus (1024 bit):
                    00:b9:6b:ec:dd:7f:06:e2:ac:a5:56:89:fa:1b:8b:
                    07:da:76:d6:a9:62:c0:b2:cf:ff:c1:eb:95:b1:e7:
                    74:42:ee:af:28:92:3e:86:3a:24:89:f2:60:cd:f3:
                    29:dd:ad:18:3f:ff:d7:cc:88:5a:36:fd:2d:16:46:
                    67:6a:08:86:10:2e:fc:cf:3e:cd:bd:c6:30:f2:8c:
                    c8:63:d2:70:17:1e:c0:b4:27:5c:68:ff:83:1c:4c:
                    a6:18:2f:43:4e:44:4c:de:44:52:bf:da:da:b4:1b:
                    ee:85:d8:d7:0a:14:09:42:e9:f4:87:83:f3:85:a6:
                    81:64:57:b2:12:de:a7:03:27
                Exponent: 65537 (0x10001)
        X509v3 extensions:
            X509v3 Subject Key Identifier: 
                E3:6D:6B:62:16:42:41:2B:9C:3B:68:01:F3:EF:16:3C:31:83:05:41
            X509v3 Authority Key Identifier: 
                keyid:56:66:FB:5E:DF:02:EF:B8:8E:E1:8A:AF:6D:9B:6A:CD:F6:BF:8B:6C
                DirName:/C=US/ST=California/L=Menlo Park/O=pkg5/CN=ta1/emailAddress=ta1
                serial:01

            X509v3 Basic Constraints: critical
                CA:TRUE
    Signature Algorithm: sha256WithRSAEncryption
        b6:ba:e6:a5:25:c6:2f:d8:b0:ff:68:f5:0f:4b:f3:1e:10:25:
        68:72:8f:bc:f2:ce:17:ee:81:66:db:18:46:08:7f:07:d3:82:
        63:99:c4:19:87:cc:d8:cd:cc:e5:fd:6c:c7:c7:39:32:be:f5:
        94:9f:21:a5:39:df:91:d7:0a:57:6b:e5:41:87:eb:c4:ca:a9:
        08:05:85:a2:03:89:13:a7:b2:88:ff:91:94:5d:13:6b:97:32:
        e8:e3:2c:80:42:b2:c9:78:52:9d:23:c9:e8:11:4a:79:9b:d0:
        9d:d2:10:3d:2e:21:e3:f6:a7:f6:e5:4c:55:a8:f9:0a:bc:13:
        d7:d5
-----BEGIN CERTIFICATE-----
MIIDGzCCAoSgAwIBAgIBAjANBgkqhkiG9w0BAQsFADBuMQswCQYDVQQGEwJVUzET
MBEGA1UECBMKQ2FsaWZvcm5pYTETMBEGA1UEBxMKTWVubG8gUGFyazENMAsGA1UE
ChMEcGtnNTEPMA0GA1UEAxQGaTFfdGExMRUwEwYJKoZIhvcNAQkBFgZpMV90YTEw
HhcNMTAwODA0MjA1OTIzWhcNMTMwNDMwMjA1OTIzWjBuMQswCQYDVQQGEwJVUzET
MBEGA1UECBMKQ2FsaWZvcm5pYTETMBEGA1UEBxMKTWVubG8gUGFyazENMAsGA1UE
ChMEcGtnNTEPMA0GA1UEAxQGaTJfdGExMRUwEwYJKoZIhvcNAQkBFgZpMl90YTEw
gZ8wDQYJKoZIhvcNAQEBBQADgY0AMIGJAoGBALlr7N1/BuKspVaJ+huLB9p21qli
wLLP/8HrlbHndELuryiSPoY6JInyYM3zKd2tGD//18yIWjb9LRZGZ2oIhhAu/M8+
zb3GMPKMyGPScBcewLQnXGj/gxxMphgvQ05ETN5EUr/a2rQb7oXY1woUCULp9IeD
84WmgWRXshLepwMnAgMBAAGjgcgwgcUwHQYDVR0OBBYEFONta2IWQkErnDtoAfPv
FjwxgwVBMIGSBgNVHSMEgYowgYeAFFZm+17fAu+4juGKr22bas32v4tsoWykajBo
MQswCQYDVQQGEwJVUzETMBEGA1UECBMKQ2FsaWZvcm5pYTETMBEGA1UEBxMKTWVu
bG8gUGFyazENMAsGA1UEChMEcGtnNTEMMAoGA1UEAxMDdGExMRIwEAYJKoZIhvcN
AQkBFgN0YTGCAQEwDwYDVR0TAQH/BAUwAwEB/zANBgkqhkiG9w0BAQsFAAOBgQC2
uualJcYv2LD/aPUPS/MeECVoco+88s4X7oFm2xhGCH8H04JjmcQZh8zYzczl/WzH
xzkyvvWUnyGlOd+R1wpXa+VBh+vEyqkIBYWiA4kTp7KI/5GUXRNrlzLo4yyAQrLJ
eFKdI8noEUp5m9Cd0hA9LiHj9qf25UxVqPkKvBPX1Q==
-----END CERTIFICATE-----
