Certificate:
    Data:
        Version: 3 (0x2)
        Serial Number:
            ee:77:7e:6a:c1:1e:57:ed
        Signature Algorithm: sha256WithRSAEncryption
        Issuer: C=US, ST=California, L=Menlo Park, O=pkg5, CN=ta3/emailAddress=ta3
        Validity
            Not Before: Mar 21 00:49:26 2011 GMT
            Not After : Dec 15 00:49:26 2013 GMT
        Subject: C=US, ST=California, L=Menlo Park, O=pkg5, CN=ta3/emailAddress=ta3
        Subject Public Key Info:
            Public Key Algorithm: rsaEncryption
            RSA Public Key: (1024 bit)
                Modulus (1024 bit):
                    00:d8:90:38:43:d3:79:4c:01:69:dc:78:b0:e5:8c:
                    1c:90:85:72:d5:30:6a:03:2d:a8:e4:6a:ad:27:c4:
                    59:e8:8c:a6:51:79:62:ff:18:26:87:e7:29:68:2e:
                    3d:20:b1:78:40:56:c0:82:04:2a:4a:37:e1:38:9f:
                    0a:ce:0d:c6:ad:e7:8c:b1:8e:25:61:a1:72:09:98:
                    2c:a5:a4:bb:56:61:87:f0:2e:12:8d:da:8b:68:e1:
                    39:9a:c8:2f:aa:dc:c9:84:ff:1b:eb:ce:29:82:55:
                    b3:4c:c9:98:fd:d8:7c:13:ea:c0:d5:72:17:7e:92:
                    0b:f4:d4:71:a0:22:fa:c5:f7
                Exponent: 65537 (0x10001)
        X509v3 extensions:
            X509v3 Subject Key Identifier: 
                E2:9E:A1:8B:D7:D3:B0:F1:C3:E9:77:A4:49:5D:6A:4E:AB:73:AC:5D
            X509v3 Authority Key Identifier: 
                keyid:E2:9E:A1:8B:D7:D3:B0:F1:C3:E9:77:A4:49:5D:6A:4E:AB:73:AC:5D
                DirName:/C=US/ST=California/L=Menlo Park/O=pkg5/CN=ta3/emailAddress=ta3
                serial:EE:77:7E:6A:C1:1E:57:ED

            X509v3 Basic Constraints: 
                CA:TRUE
    Signature Algorithm: sha256WithRSAEncryption
        63:77:35:62:c5:a1:23:fb:3b:7f:05:54:98:94:b8:52:15:20:
        56:e0:55:44:90:e0:bc:3c:f4:de:ad:f9:17:36:1e:c5:7a:0f:
        ac:b1:17:44:27:cd:cf:a0:d4:5a:a8:68:ca:22:04:8a:ac:9e:
        ae:fc:e4:8a:71:4b:2a:33:86:9e:6b:63:73:97:9c:8d:76:88:
        08:87:31:cc:21:c5:c9:fb:db:c1:cd:64:b3:f5:09:cc:14:48:
        d6:38:0b:15:2e:d0:ca:d2:3c:d7:36:14:db:74:7c:7a:38:db:
        2a:2c:50:ec:08:d4:f9:9b:24:3c:69:f1:a9:c1:46:6b:7b:84:
        aa:36
-----BEGIN CERTIFICATE-----
MIIDHDCCAoWgAwIBAgIJAO53fmrBHlftMA0GCSqGSIb3DQEBCwUAMGgxCzAJBgNV
BAYTAlVTMRMwEQYDVQQIEwpDYWxpZm9ybmlhMRMwEQYDVQQHEwpNZW5sbyBQYXJr
MQ0wCwYDVQQKEwRwa2c1MQwwCgYDVQQDEwN0YTMxEjAQBgkqhkiG9w0BCQEWA3Rh
MzAeFw0xMTAzMjEwMDQ5MjZaFw0xMzEyMTUwMDQ5MjZaMGgxCzAJBgNVBAYTAlVT
MRMwEQYDVQQIEwpDYWxpZm9ybmlhMRMwEQYDVQQHEwpNZW5sbyBQYXJrMQ0wCwYD
VQQKEwRwa2c1MQwwCgYDVQQDEwN0YTMxEjAQBgkqhkiG9w0BCQEWA3RhMzCBnzAN
BgkqhkiG9w0BAQEFAAOBjQAwgYkCgYEA2JA4Q9N5TAFp3Hiw5YwckIVy1TBqAy2o
5GqtJ8RZ6IymUXli/xgmh+cpaC49ILF4QFbAggQqSjfhOJ8Kzg3GreeMsY4lYaFy
CZgspaS7VmGH8C4SjdqLaOE5msgvqtzJhP8b684pglWzTMmY/dh8E+rA1XIXfpIL
9NRxoCL6xfcCAwEAAaOBzTCByjAdBgNVHQ4EFgQU4p6hi9fTsPHD6XekSV1qTqtz
rF0wgZoGA1UdIwSBkjCBj4AU4p6hi9fTsPHD6XekSV1qTqtzrF2hbKRqMGgxCzAJ
BgNVBAYTAlVTMRMwEQYDVQQIEwpDYWxpZm9ybmlhMRMwEQYDVQQHEwpNZW5sbyBQ
YXJrMQ0wCwYDVQQKEwRwa2c1MQwwCgYDVQQDEwN0YTMxEjAQBgkqhkiG9w0BCQEW
A3RhM4IJAO53fmrBHlftMAwGA1UdEwQFMAMBAf8wDQYJKoZIhvcNAQELBQADgYEA
Y3c1YsWhI/s7fwVUmJS4UhUgVuBVRJDgvDz03q35FzYexXoPrLEXRCfNz6DUWqho
yiIEiqyervzkinFLKjOGnmtjc5ecjXaICIcxzCHFyfvbwc1ks/UJzBRI1jgLFS7Q
ytI81zYU23R8ejjbKixQ7AjU+ZskPGnxqcFGa3uEqjY=
-----END CERTIFICATE-----
