Certificate:
    Data:
        Version: 3 (0x2)
        Serial Number:
            f4:58:54:6a:83:22:66:e9
        Signature Algorithm: sha256WithRSAEncryption
        Issuer: C=US, ST=California, L=Menlo Park, O=pkg5, CN=ta3/emailAddress=ta3
        Validity
            Not Before: Apr 11 22:37:43 2011 GMT
            Not After : Jan  5 22:37:43 2014 GMT
        Subject: C=US, ST=California, L=Menlo Park, O=pkg5, CN=ta3/emailAddress=ta3
        Subject Public Key Info:
            Public Key Algorithm: rsaEncryption
            RSA Public Key: (1024 bit)
                Modulus (1024 bit):
                    00:d0:b0:e7:c0:27:96:d6:ff:16:89:f4:4c:67:d5:
                    23:57:a6:af:fe:f3:be:d9:1e:28:44:a6:a3:0e:67:
                    09:1f:b2:fc:70:fd:2c:4a:9c:13:a0:cf:37:97:2c:
                    39:7c:42:a4:f7:64:7e:be:49:67:05:01:b3:f7:46:
                    34:9b:d8:bd:4b:ac:d6:40:96:5a:6d:a0:33:ae:03:
                    33:22:7d:06:39:6e:0a:5e:39:3f:e6:eb:c7:f9:e3:
                    1a:a7:dd:16:14:6d:8e:b7:84:d9:af:b7:43:db:5d:
                    0f:2b:e8:3d:fe:66:d7:9e:3a:06:a1:9f:c3:35:81:
                    d4:cd:bc:16:3c:a2:c1:dd:89
                Exponent: 65537 (0x10001)
        X509v3 extensions:
            X509v3 Subject Key Identifier: 
                7A:F6:51:7A:7F:9B:AB:37:3D:4E:93:03:90:6D:6A:84:09:7C:3A:DD
            X509v3 Authority Key Identifier: 
                keyid:7A:F6:51:7A:7F:9B:AB:37:3D:4E:93:03:90:6D:6A:84:09:7C:3A:DD
                DirName:/C=US/ST=California/L=Menlo Park/O=pkg5/CN=ta3/emailAddress=ta3
                serial:F4:58:54:6A:83:22:66:E9

            X509v3 Basic Constraints: 
                CA:TRUE
    Signature Algorithm: sha256WithRSAEncryption
        26:1b:34:03:12:d5:13:94:0f:f8:57:6a:47:d8:d9:81:78:0b:
        65:f1:51:b7:4e:b2:89:c2:6a:30:5d:37:ad:35:91:16:48:5f:
        9b:b9:cd:30:1e:0e:f3:31:1e:7a:4e:72:13:c6:e4:66:0a:a9:
        a4:66:5d:f6:fe:21:51:0f:ab:fd:d7:9d:5d:13:86:07:df:1d:
        9d:d8:19:ce:6d:e9:7e:7a:19:06:20:07:cc:d1:a3:c2:04:28:
        b8:9b:41:23:65:92:47:86:ee:ac:a5:7f:b7:2c:92:67:87:83:
        5b:04:d0:e5:5d:3c:4c:a1:51:e0:9c:02:9a:d5:35:b4:7b:e0:
        e4:c3
-----BEGIN CERTIFICATE-----
MIIDHDCCAoWgAwIBAgIJAPRYVGqDImbpMA0GCSqGSIb3DQEBCwUAMGgxCzAJBgNV
BAYTAlVTMRMwEQYDVQQIEwpDYWxpZm9ybmlhMRMwEQYDVQQHEwpNZW5sbyBQYXJr
MQ0wCwYDVQQKEwRwa2c1MQwwCgYDVQQDEwN0YTMxEjAQBgkqhkiG9w0BCQEWA3Rh
MzAeFw0xMTA0MTEyMjM3NDNaFw0xNDAxMDUyMjM3NDNaMGgxCzAJBgNVBAYTAlVT
MRMwEQYDVQQIEwpDYWxpZm9ybmlhMRMwEQYDVQQHEwpNZW5sbyBQYXJrMQ0wCwYD
VQQKEwRwa2c1MQwwCgYDVQQDEwN0YTMxEjAQBgkqhkiG9w0BCQEWA3RhMzCBnzAN
BgkqhkiG9w0BAQEFAAOBjQAwgYkCgYEA0LDnwCeW1v8WifRMZ9UjV6av/vO+2R4o
RKajDmcJH7L8cP0sSpwToM83lyw5fEKk92R+vklnBQGz90Y0m9i9S6zWQJZabaAz
rgMzIn0GOW4KXjk/5uvH+eMap90WFG2Ot4TZr7dD210PK+g9/mbXnjoGoZ/DNYHU
zbwWPKLB3YkCAwEAAaOBzTCByjAdBgNVHQ4EFgQUevZRen+bqzc9TpMDkG1qhAl8
Ot0wgZoGA1UdIwSBkjCBj4AUevZRen+bqzc9TpMDkG1qhAl8Ot2hbKRqMGgxCzAJ
BgNVBAYTAlVTMRMwEQYDVQQIEwpDYWxpZm9ybmlhMRMwEQYDVQQHEwpNZW5sbyBQ
YXJrMQ0wCwYDVQQKEwRwa2c1MQwwCgYDVQQDEwN0YTMxEjAQBgkqhkiG9w0BCQEW
A3RhM4IJAPRYVGqDImbpMAwGA1UdEwQFMAMBAf8wDQYJKoZIhvcNAQELBQADgYEA
Jhs0AxLVE5QP+FdqR9jZgXgLZfFRt06yicJqMF03rTWRFkhfm7nNMB4O8zEeek5y
E8bkZgqppGZd9v4hUQ+r/dedXROGB98dndgZzm3pfnoZBiAHzNGjwgQouJtBI2WS
R4burKV/tyySZ4eDWwTQ5V08TKFR4JwCmtU1tHvg5MM=
-----END CERTIFICATE-----
