Certificate:
    Data:
        Version: 3 (0x2)
        Serial Number: 13890425601977148222 (0xc0c4b47d88d6e33e)
    Signature Algorithm: sha256WithRSAEncryption
        Issuer: C=US, ST=California, L=Santa Clara, O=pkg5, CN=ta3/emailAddress=ta3
        Validity
            Not Before: Dec 13 00:13:35 2013 GMT
            Not After : Sep  8 00:13:35 2016 GMT
        Subject: C=US, ST=California, L=Santa Clara, O=pkg5, CN=ta3/emailAddress=ta3
        Subject Public Key Info:
            Public Key Algorithm: rsaEncryption
                Public-Key: (1024 bit)
                Modulus:
                    00:cc:99:d3:8e:88:a3:54:f1:da:a6:39:be:69:28:
                    5a:87:05:0b:04:59:41:21:39:40:8a:46:fd:f5:20:
                    d5:6b:b6:02:cd:5f:62:2e:88:34:8b:3d:f1:c0:fe:
                    38:f7:f6:1f:65:10:d7:0c:03:4c:90:17:f7:25:a4:
                    62:eb:80:83:44:1f:b2:53:a4:de:c5:d2:17:7e:f6:
                    96:fe:e2:1a:bc:45:97:dc:29:f9:46:70:11:8d:4a:
                    f4:b6:b7:2d:67:20:8f:d0:6a:0f:20:09:ff:7c:11:
                    1c:94:9b:5e:83:57:67:35:2e:37:a2:54:97:2a:fb:
                    d1:38:64:d5:e0:79:2f:ae:2f
                Exponent: 65537 (0x10001)
        X509v3 extensions:
            X509v3 Subject Key Identifier: 
                B4:D4:36:9F:F8:CB:A2:5F:50:89:DA:21:E3:27:C4:91:F7:84:88:45
            X509v3 Authority Key Identifier: 
                keyid:B4:D4:36:9F:F8:CB:A2:5F:50:89:DA:21:E3:27:C4:91:F7:84:88:45

            X509v3 Basic Constraints: 
                CA:TRUE
    Signature Algorithm: sha256WithRSAEncryption
         22:83:f2:64:c1:e3:e1:67:e4:55:ef:3b:0c:37:93:e9:c1:d7:
         3f:0e:74:f1:03:59:1d:88:03:dd:d0:f5:38:40:c1:f3:da:93:
         ff:c9:3f:6c:e8:14:ea:87:7f:25:34:3d:93:81:05:7d:89:70:
         d2:18:50:17:a9:df:dd:c9:b2:88:80:7d:ed:3c:c5:8d:30:6d:
         56:c8:f6:df:58:82:b5:76:0c:ab:e9:2d:78:be:1a:d2:e6:8e:
         85:3f:00:6c:12:bf:d9:99:e1:dc:12:67:e0:57:9c:56:1e:2d:
         e5:39:04:82:c2:a6:e0:ca:88:60:74:a2:1a:2a:2b:f4:a5:e9:
         8e:07
-----BEGIN CERTIFICATE-----
MIICoDCCAgmgAwIBAgIJAMDEtH2I1uM+MA0GCSqGSIb3DQEBCwUAMGkxCzAJBgNV
BAYTAlVTMRMwEQYDVQQIDApDYWxpZm9ybmlhMRQwEgYDVQQHDAtTYW50YSBDbGFy
YTENMAsGA1UECgwEcGtnNTEMMAoGA1UEAwwDdGEzMRIwEAYJKoZIhvcNAQkBFgN0
YTMwHhcNMTMxMjEzMDAxMzM1WhcNMTYwOTA4MDAxMzM1WjBpMQswCQYDVQQGEwJV
UzETMBEGA1UECAwKQ2FsaWZvcm5pYTEUMBIGA1UEBwwLU2FudGEgQ2xhcmExDTAL
BgNVBAoMBHBrZzUxDDAKBgNVBAMMA3RhMzESMBAGCSqGSIb3DQEJARYDdGEzMIGf
MA0GCSqGSIb3DQEBAQUAA4GNADCBiQKBgQDMmdOOiKNU8dqmOb5pKFqHBQsEWUEh
OUCKRv31INVrtgLNX2IuiDSLPfHA/jj39h9lENcMA0yQF/clpGLrgINEH7JTpN7F
0hd+9pb+4hq8RZfcKflGcBGNSvS2ty1nII/Qag8gCf98ERyUm16DV2c1LjeiVJcq
+9E4ZNXgeS+uLwIDAQABo1AwTjAdBgNVHQ4EFgQUtNQ2n/jLol9Qidoh4yfEkfeE
iEUwHwYDVR0jBBgwFoAUtNQ2n/jLol9Qidoh4yfEkfeEiEUwDAYDVR0TBAUwAwEB
/zANBgkqhkiG9w0BAQsFAAOBgQAig/JkwePhZ+RV7zsMN5Ppwdc/DnTxA1kdiAPd
0PU4QMHz2pP/yT9s6BTqh38lND2TgQV9iXDSGFAXqd/dybKIgH3tPMWNMG1WyPbf
WIK1dgyr6S14vhrS5o6FPwBsEr/ZmeHcEmfgV5xWHi3lOQSCwqbgyohgdKIaKiv0
pemOBw==
-----END CERTIFICATE-----
