Certificate:
    Data:
        Version: 3 (0x2)
        Serial Number:
            86:89:ba:18:66:f8:f6:2f
    Signature Algorithm: sha256WithRSAEncryption
        Issuer: C=US, ST=California, L=Santa Clara, O=pkg5, CN=ta3/emailAddress=ta3
        Validity
            Not Before: Jul 19 11:35:46 2023 GMT
            Not After : Apr 14 11:35:46 2026 GMT
        Subject: C=US, ST=California, L=Santa Clara, O=pkg5, CN=ta3/emailAddress=ta3
        Subject Public Key Info:
            Public Key Algorithm: rsaEncryption
                Public-Key: (2048 bit)
                Modulus:
                    00:bf:20:ac:6b:33:f6:15:f6:3f:e8:2d:9d:bd:89:
                    54:2a:19:63:c2:fb:42:63:7d:c5:67:13:26:fc:d6:
                    48:3e:0b:33:3a:15:c6:83:f9:83:33:c8:4a:1a:e9:
                    6f:d3:1f:c1:40:78:9f:ff:85:69:ae:be:29:ab:66:
                    9b:2d:17:86:20:bb:2a:e8:bb:a2:43:38:1d:8e:f5:
                    1d:64:5a:40:09:06:25:6e:08:38:8c:bd:7a:d0:35:
                    75:c8:c9:9d:18:a6:7c:f8:d4:2c:ba:09:7d:bb:51:
                    e6:b9:f9:7c:f3:d2:22:35:b3:58:0f:7e:c2:8f:7b:
                    24:9b:2e:09:bf:fe:a0:39:ab:ac:83:94:ec:bb:25:
                    ce:2e:0f:ad:f0:b2:8d:56:d5:01:cb:cb:3c:df:72:
                    c4:0a:ba:d1:fa:e5:19:85:9d:a8:d8:6e:62:a8:6c:
                    f6:af:f2:fa:55:f4:99:c4:af:77:9b:e0:f2:f9:7f:
                    df:80:77:2f:2b:3b:8e:aa:8c:9f:ea:72:1c:fd:45:
                    29:e5:2b:cf:94:d8:b1:62:58:a7:bb:71:02:1b:93:
                    c7:31:55:9f:1b:ee:79:85:34:f3:2d:fb:0e:04:e6:
                    76:e4:a7:0d:88:dd:9d:42:37:1a:c8:86:4d:46:46:
                    78:05:7e:37:2a:35:36:16:2b:a1:3c:ca:8e:b3:c8:
                    8e:4d
                Exponent: 65537 (0x10001)
        X509v3 extensions:
            X509v3 Subject Key Identifier: 
                F8:FC:1B:17:AF:A0:B5:3C:20:B8:72:93:D2:EA:04:A7:52:B6:29:60
            X509v3 Authority Key Identifier: 
                keyid:F8:FC:1B:17:AF:A0:B5:3C:20:B8:72:93:D2:EA:04:A7:52:B6:29:60

            X509v3 Basic Constraints: 
                CA:TRUE
    Signature Algorithm: sha256WithRSAEncryption
         78:11:1d:bb:eb:2a:21:b3:2e:78:61:5e:5f:56:e5:eb:ed:fb:
         cd:63:6a:2b:6e:25:e4:52:51:fa:c7:13:62:f1:94:3a:f0:68:
         f2:cd:2b:bb:55:ef:fd:81:f7:ff:22:59:9f:5e:31:81:0e:c9:
         d8:34:b8:c0:36:56:b3:5a:57:7d:0d:77:45:51:bf:ce:ca:72:
         91:8a:a8:b2:ea:18:5a:b0:a8:67:5e:6c:d3:25:7f:0b:b2:21:
         86:84:15:3d:ad:f9:8d:14:b9:81:d1:de:6c:9e:f6:29:68:64:
         13:15:67:c0:ff:a8:4d:30:d1:9b:a7:a7:a5:ff:eb:3d:cb:4d:
         9e:a1:0a:11:f5:ac:da:41:34:41:d6:7f:85:a8:69:6d:6f:ec:
         75:8e:16:6a:aa:b1:d1:38:ee:45:81:1d:f9:92:41:8b:ae:92:
         f3:dc:dc:b1:8d:4e:3a:9a:f5:81:c9:89:6e:96:99:f0:7d:c0:
         d1:f1:d6:df:79:9a:eb:86:d7:2e:2c:7d:6e:d1:bf:94:02:f2:
         9d:1c:27:bf:ff:f5:1c:97:24:b9:c5:f5:03:55:56:a3:10:66:
         76:54:10:7e:4a:d0:1c:e1:68:87:0c:b0:4a:54:43:f4:c7:46:
         1a:70:34:49:4d:ea:a6:47:29:4f:39:bf:35:cb:45:38:48:c6:
         dd:d0:cb:e4
-----BEGIN CERTIFICATE-----
MIIDpTCCAo2gAwIBAgIJAIaJuhhm+PYvMA0GCSqGSIb3DQEBCwUAMGkxCzAJBgNV
BAYTAlVTMRMwEQYDVQQIDApDYWxpZm9ybmlhMRQwEgYDVQQHDAtTYW50YSBDbGFy
YTENMAsGA1UECgwEcGtnNTEMMAoGA1UEAwwDdGEzMRIwEAYJKoZIhvcNAQkBFgN0
YTMwHhcNMjMwNzE5MTEzNTQ2WhcNMjYwNDE0MTEzNTQ2WjBpMQswCQYDVQQGEwJV
UzETMBEGA1UECAwKQ2FsaWZvcm5pYTEUMBIGA1UEBwwLU2FudGEgQ2xhcmExDTAL
BgNVBAoMBHBrZzUxDDAKBgNVBAMMA3RhMzESMBAGCSqGSIb3DQEJARYDdGEzMIIB
IjANBgkqhkiG9w0BAQEFAAOCAQ8AMIIBCgKCAQEAvyCsazP2FfY/6C2dvYlUKhlj
wvtCY33FZxMm/NZIPgszOhXGg/mDM8hKGulv0x/BQHif/4Vprr4pq2abLReGILsq
6LuiQzgdjvUdZFpACQYlbgg4jL160DV1yMmdGKZ8+NQsugl9u1Hmufl889IiNbNY
D37Cj3skmy4Jv/6gOausg5TsuyXOLg+t8LKNVtUBy8s833LECrrR+uUZhZ2o2G5i
qGz2r/L6VfSZxK93m+Dy+X/fgHcvKzuOqoyf6nIc/UUp5SvPlNixYlinu3ECG5PH
MVWfG+55hTTzLfsOBOZ25KcNiN2dQjcayIZNRkZ4BX43KjU2FiuhPMqOs8iOTQID
AQABo1AwTjAdBgNVHQ4EFgQU+PwbF6+gtTwguHKT0uoEp1K2KWAwHwYDVR0jBBgw
FoAU+PwbF6+gtTwguHKT0uoEp1K2KWAwDAYDVR0TBAUwAwEB/zANBgkqhkiG9w0B
AQsFAAOCAQEAeBEdu+sqIbMueGFeX1bl6+37zWNqK24l5FJR+scTYvGUOvBo8s0r
u1Xv/YH3/yJZn14xgQ7J2DS4wDZWs1pXfQ13RVG/zspykYqosuoYWrCoZ15s0yV/
C7IhhoQVPa35jRS5gdHebJ72KWhkExVnwP+oTTDRm6enpf/rPctNnqEKEfWs2kE0
QdZ/hahpbW/sdY4Waqqx0TjuRYEd+ZJBi66S89zcsY1OOpr1gcmJbpaZ8H3A0fHW
33ma64bXLix9btG/lALynRwnv//1HJckucX1A1VWoxBmdlQQfkrQHOFohwywSlRD
9MdGGnA0SU3qpkcpTzm/NctFOEjG3dDL5A==
-----END CERTIFICATE-----
