Certificate:
    Data:
        Version: 3 (0x2)
        Serial Number:
            98:29:8d:38:a1:e7:d1:02
        Signature Algorithm: sha256WithRSAEncryption
        Issuer: C=US, ST=California, L=Menlo Park, O=pkg5, CN=ta3/emailAddress=ta3
        Validity
            Not Before: Jan 28 02:54:13 2011 GMT
            Not After : Oct 24 02:54:13 2013 GMT
        Subject: C=US, ST=California, L=Menlo Park, O=pkg5, CN=ta3/emailAddress=ta3
        Subject Public Key Info:
            Public Key Algorithm: rsaEncryption
            RSA Public Key: (1024 bit)
                Modulus (1024 bit):
                    00:ee:7d:c2:8c:0e:23:2b:7d:b5:b9:51:ca:8f:45:
                    37:2a:21:5b:2d:d6:ec:57:c5:fa:ac:f1:39:63:d3:
                    6d:40:39:cc:53:23:a5:a5:72:6e:1a:f0:bc:e5:0b:
                    fb:0d:82:40:b4:61:d7:a9:1b:b4:4a:55:62:cf:4e:
                    3c:a6:39:65:fa:74:f9:91:8c:b9:0e:01:2b:cd:34:
                    87:a7:76:f7:02:dd:ed:81:77:ca:d5:c7:9c:b8:03:
                    a7:81:7e:c0:bf:14:32:7b:82:50:69:15:03:b0:7c:
                    5d:66:d4:d1:58:70:0a:90:0c:97:b7:ab:64:30:45:
                    5f:a8:7a:27:82:89:88:98:0d
                Exponent: 65537 (0x10001)
        X509v3 extensions:
            X509v3 Subject Key Identifier: 
                DF:F1:C3:42:E4:27:21:E0:3B:1D:E0:85:47:1F:16:35:4D:58:F3:1E
            X509v3 Authority Key Identifier: 
                keyid:DF:F1:C3:42:E4:27:21:E0:3B:1D:E0:85:47:1F:16:35:4D:58:F3:1E
                DirName:/C=US/ST=California/L=Menlo Park/O=pkg5/CN=ta3/emailAddress=ta3
                serial:98:29:8D:38:A1:E7:D1:02

            X509v3 Basic Constraints: 
                CA:TRUE
    Signature Algorithm: sha256WithRSAEncryption
        b0:3d:ff:8a:38:de:32:30:4e:1f:f3:ba:2f:f9:4d:c4:20:31:
        f9:5d:3e:38:91:c8:f9:ce:84:ed:3a:16:52:29:2c:4b:6c:5f:
        f3:5d:76:c8:23:cb:be:8c:ba:26:f2:09:53:79:dd:67:28:aa:
        f8:3a:19:ff:9a:47:d8:67:93:0a:fe:1d:ae:b4:71:2d:e8:52:
        d9:78:1b:d9:5c:a0:8e:e9:ff:6a:f3:92:5c:5a:8f:12:3d:29:
        35:c9:16:de:e7:94:6b:58:20:85:85:9e:31:d7:80:9a:e0:a8:
        dc:e9:61:b0:4e:aa:7f:10:d4:90:e2:39:ca:b0:93:02:03:53:
        89:6f
-----BEGIN CERTIFICATE-----
MIIDHDCCAoWgAwIBAgIJAJgpjTih59ECMA0GCSqGSIb3DQEBCwUAMGgxCzAJBgNV
BAYTAlVTMRMwEQYDVQQIEwpDYWxpZm9ybmlhMRMwEQYDVQQHEwpNZW5sbyBQYXJr
MQ0wCwYDVQQKEwRwa2c1MQwwCgYDVQQDEwN0YTMxEjAQBgkqhkiG9w0BCQEWA3Rh
MzAeFw0xMTAxMjgwMjU0MTNaFw0xMzEwMjQwMjU0MTNaMGgxCzAJBgNVBAYTAlVT
MRMwEQYDVQQIEwpDYWxpZm9ybmlhMRMwEQYDVQQHEwpNZW5sbyBQYXJrMQ0wCwYD
VQQKEwRwa2c1MQwwCgYDVQQDEwN0YTMxEjAQBgkqhkiG9w0BCQEWA3RhMzCBnzAN
BgkqhkiG9w0BAQEFAAOBjQAwgYkCgYEA7n3CjA4jK321uVHKj0U3KiFbLdbsV8X6
rPE5Y9NtQDnMUyOlpXJuGvC85Qv7DYJAtGHXqRu0SlViz048pjll+nT5kYy5DgEr
zTSHp3b3At3tgXfK1cecuAOngX7AvxQye4JQaRUDsHxdZtTRWHAKkAyXt6tkMEVf
qHongomImA0CAwEAAaOBzTCByjAdBgNVHQ4EFgQU3/HDQuQnIeA7HeCFRx8WNU1Y
8x4wgZoGA1UdIwSBkjCBj4AU3/HDQuQnIeA7HeCFRx8WNU1Y8x6hbKRqMGgxCzAJ
BgNVBAYTAlVTMRMwEQYDVQQIEwpDYWxpZm9ybmlhMRMwEQYDVQQHEwpNZW5sbyBQ
YXJrMQ0wCwYDVQQKEwRwa2c1MQwwCgYDVQQDEwN0YTMxEjAQBgkqhkiG9w0BCQEW
A3RhM4IJAJgpjTih59ECMAwGA1UdEwQFMAMBAf8wDQYJKoZIhvcNAQELBQADgYEA
sD3/ijjeMjBOH/O6L/lNxCAx+V0+OJHI+c6E7ToWUiksS2xf8112yCPLvoy6JvIJ
U3ndZyiq+DoZ/5pH2GeTCv4drrRxLehS2Xgb2Vygjun/avOSXFqPEj0pNckW3ueU
a1gghYWeMdeAmuCo3OlhsE6qfxDUkOI5yrCTAgNTiW8=
-----END CERTIFICATE-----
