Certificate:
    Data:
        Version: 3 (0x2)
        Serial Number:
            74:e7:12:b5:f0:fd:da:49:31:eb:3b:e1:eb:75:65:b3:79:2d:fc:ff
        Signature Algorithm: sha256WithRSAEncryption
        Issuer: C = US, ST = California, L = Santa Clara, O = pkg5, CN = ta3, emailAddress = ta3
        Validity
            Not Before: Mar 18 08:51:33 2026 GMT
            Not After : Dec 12 08:51:33 2028 GMT
        Subject: C = US, ST = California, L = Santa Clara, O = pkg5, CN = ta3, emailAddress = ta3
        Subject Public Key Info:
            Public Key Algorithm: rsaEncryption
                Public-Key: (2048 bit)
                Modulus:
                    00:b6:d3:4e:8d:2f:88:5d:70:9d:0c:69:99:ae:32:
                    12:5d:f9:e0:08:45:dc:56:1f:39:82:8f:84:53:0f:
                    09:49:76:e5:93:17:7e:62:44:8f:6a:ec:69:ac:eb:
                    8c:47:ba:f9:f7:6e:96:08:e6:23:f4:19:57:67:dd:
                    55:35:f0:5f:cc:2b:c9:b6:37:12:c8:b2:70:14:d9:
                    0f:8a:98:7a:de:7f:13:40:54:fb:a4:e1:b6:19:83:
                    10:66:75:01:20:d5:c5:9d:81:3b:05:15:40:b4:5f:
                    12:c4:b5:dd:92:92:76:ab:24:e3:79:6c:3c:44:f2:
                    65:27:8a:f6:cb:3b:10:c7:12:5f:2d:2d:eb:32:13:
                    77:b1:43:b5:0d:52:34:b8:ef:11:18:a6:9b:ec:47:
                    32:09:c4:6b:de:c0:01:13:89:bd:20:12:d0:53:6d:
                    d0:17:cb:f5:3e:64:cc:d7:4b:96:6f:96:90:66:b8:
                    5e:cf:66:be:b9:6f:c8:50:56:b4:1f:d2:a4:4c:83:
                    a3:1b:32:c4:84:47:0e:6f:f6:30:43:29:73:0e:c1:
                    cc:0f:1e:d0:e5:19:e5:20:92:ed:5a:82:d6:89:27:
                    07:af:cc:53:b9:cd:82:d2:4f:c4:c7:5c:62:f4:fe:
                    51:37:58:96:72:64:59:d6:39:4b:f9:02:83:ae:fc:
                    79:23
                Exponent: 65537 (0x10001)
        X509v3 extensions:
            X509v3 Subject Key Identifier: 
                43:54:28:1A:4B:3C:F9:91:B3:CB:00:A8:B8:90:E4:B7:6F:B6:22:CD
            X509v3 Authority Key Identifier: 
                43:54:28:1A:4B:3C:F9:91:B3:CB:00:A8:B8:90:E4:B7:6F:B6:22:CD
            X509v3 Basic Constraints: critical
                CA:TRUE
    Signature Algorithm: sha256WithRSAEncryption
    Signature Value:
        a3:81:d6:a1:ec:71:0e:52:46:1a:d0:e3:87:8d:a0:5a:46:23:
        4b:35:1f:d7:c5:b4:83:37:0c:f7:24:09:71:54:2f:48:39:a0:
        bd:8a:9d:03:c2:b2:d4:c8:4b:80:f7:6d:9f:15:78:a2:69:84:
        5b:d2:7f:53:7c:b9:61:39:4c:61:58:03:12:9c:26:10:a8:fa:
        59:42:1a:15:5a:d2:d0:b5:f7:92:a3:10:d8:d1:b0:9b:d6:54:
        4f:cf:9d:38:6d:37:22:70:0d:7f:8e:4a:f6:8b:4b:4e:04:96:
        30:47:de:ee:06:df:46:98:b0:8a:b6:67:71:eb:b0:fe:d3:c9:
        3d:f6:6a:d6:c0:e6:17:95:70:c0:1c:3b:0e:15:b5:df:d4:28:
        e6:d3:c1:f5:1d:ea:63:e0:a2:60:67:12:13:73:f4:bc:14:2b:
        90:48:ad:a1:de:9a:3d:f1:09:fc:28:4a:1f:f9:a8:8b:bb:da:
        2c:1f:f4:a1:60:16:5e:9d:1f:ae:8a:3a:07:b0:a4:67:cc:5f:
        05:e3:61:f3:14:82:89:30:c6:06:b5:f0:6a:49:3e:23:bb:f6:
        fc:41:6b:0c:28:83:2a:02:25:ce:76:3a:2a:34:9b:3b:01:e2:
        94:99:26:87:0c:e1:29:91:51:e7:f1:4e:4f:6b:25:12:84:c5:
        a8:0a:2c:f9
-----BEGIN CERTIFICATE-----
MIIDszCCApugAwIBAgIUdOcStfD92kkx6zvh63Vls3kt/P8wDQYJKoZIhvcNAQEL
BQAwaTELMAkGA1UEBhMCVVMxEzARBgNVBAgMCkNhbGlmb3JuaWExFDASBgNVBAcM
C1NhbnRhIENsYXJhMQ0wCwYDVQQKDARwa2c1MQwwCgYDVQQDDAN0YTMxEjAQBgkq
hkiG9w0BCQEWA3RhMzAeFw0yNjAzMTgwODUxMzNaFw0yODEyMTIwODUxMzNaMGkx
CzAJBgNVBAYTAlVTMRMwEQYDVQQIDApDYWxpZm9ybmlhMRQwEgYDVQQHDAtTYW50
YSBDbGFyYTENMAsGA1UECgwEcGtnNTEMMAoGA1UEAwwDdGEzMRIwEAYJKoZIhvcN
AQkBFgN0YTMwggEiMA0GCSqGSIb3DQEBAQUAA4IBDwAwggEKAoIBAQC2006NL4hd
cJ0MaZmuMhJd+eAIRdxWHzmCj4RTDwlJduWTF35iRI9q7Gms64xHuvn3bpYI5iP0
GVdn3VU18F/MK8m2NxLIsnAU2Q+KmHrefxNAVPuk4bYZgxBmdQEg1cWdgTsFFUC0
XxLEtd2SknarJON5bDxE8mUnivbLOxDHEl8tLesyE3exQ7UNUjS47xEYppvsRzIJ
xGvewAETib0gEtBTbdAXy/U+ZMzXS5ZvlpBmuF7PZr65b8hQVrQf0qRMg6MbMsSE
Rw5v9jBDKXMOwcwPHtDlGeUgku1agtaJJwevzFO5zYLST8THXGL0/lE3WJZyZFnW
OUv5AoOu/HkjAgMBAAGjUzBRMB0GA1UdDgQWBBRDVCgaSzz5kbPLAKi4kOS3b7Yi
zTAfBgNVHSMEGDAWgBRDVCgaSzz5kbPLAKi4kOS3b7YizTAPBgNVHRMBAf8EBTAD
AQH/MA0GCSqGSIb3DQEBCwUAA4IBAQCjgdah7HEOUkYa0OOHjaBaRiNLNR/XxbSD
Nwz3JAlxVC9IOaC9ip0DwrLUyEuA922fFXiiaYRb0n9TfLlhOUxhWAMSnCYQqPpZ
QhoVWtLQtfeSoxDY0bCb1lRPz504bTcicA1/jkr2i0tOBJYwR97uBt9GmLCKtmdx
67D+08k99mrWwOYXlXDAHDsOFbXf1Cjm08H1Hepj4KJgZxITc/S8FCuQSK2h3po9
8Qn8KEof+aiLu9osH/ShYBZenR+uijoHsKRnzF8F42HzFIKJMMYGtfBqST4ju/b8
QWsMKIMqAiXOdjoqNJs7AeKUmSaHDOEpkVHn8U5PayUShMWoCiz5
-----END CERTIFICATE-----
