Certificate:
    Data:
        Version: 3 (0x2)
        Serial Number:
            92:34:07:38:50:69:aa:6d
    Signature Algorithm: sha256WithRSAEncryption
        Issuer: C=US, ST=California, L=Santa Clara, O=pkg5, OU=ta9, CN=localhost/emailAddress=ta9
        Validity
            Not Before: Sep 22 05:33:38 2021 GMT
            Not After : Jun 18 05:33:38 2024 GMT
        Subject: C=US, ST=California, L=Santa Clara, O=pkg5, OU=ta9, CN=localhost/emailAddress=ta9
        Subject Public Key Info:
            Public Key Algorithm: rsaEncryption
                Public-Key: (2048 bit)
                Modulus:
                    00:a7:cc:55:c4:06:3c:71:c2:d6:70:75:cb:a4:ab:
                    51:30:4c:06:2e:60:76:67:5c:40:7a:ad:81:31:b7:
                    fb:f1:b5:6d:26:d5:18:8e:c1:b3:4d:3f:bf:f4:41:
                    01:bc:e7:96:0e:7e:0a:85:88:1b:bc:91:97:e4:71:
                    c1:77:78:8b:fb:e7:60:1f:46:ad:6e:74:95:75:10:
                    ea:6b:b7:ec:dd:3b:da:99:ad:03:a3:ad:54:f1:d3:
                    25:7a:3e:7b:95:33:f2:89:6b:72:20:21:34:23:9a:
                    7a:c9:3f:dd:dd:f9:c0:a7:d3:31:60:b8:78:5f:e3:
                    11:53:00:22:dd:9d:b6:85:4f:1d:5b:06:ef:09:eb:
                    c0:79:f7:c8:ac:a5:be:c3:ac:49:6b:d5:21:91:c4:
                    54:74:aa:83:54:89:9b:3f:eb:6e:54:0c:7c:c7:a5:
                    3a:f8:c0:ca:89:1c:f9:ef:9b:bd:9a:d1:3d:94:90:
                    9c:f1:46:d3:52:df:58:6e:f0:5a:16:41:4d:08:c8:
                    f0:40:55:4f:fe:b8:7a:35:90:13:9a:3b:fc:ba:5d:
                    f6:71:3e:ef:0f:ef:7d:72:00:09:b5:0a:35:f8:cf:
                    64:b5:1d:a7:9f:e1:9d:0f:fc:ec:ec:31:de:ef:99:
                    ec:b3:0e:db:bb:2c:d3:cb:bd:23:b1:93:75:b9:0e:
                    8f:09
                Exponent: 65537 (0x10001)
        X509v3 extensions:
            X509v3 Subject Key Identifier: 
                45:FB:E7:13:C0:6F:8D:63:30:BD:33:56:02:E1:A6:A9:55:30:E0:F3
            X509v3 Authority Key Identifier: 
                keyid:45:FB:E7:13:C0:6F:8D:63:30:BD:33:56:02:E1:A6:A9:55:30:E0:F3

            X509v3 Basic Constraints: 
                CA:TRUE
    Signature Algorithm: sha256WithRSAEncryption
         06:aa:5e:b6:29:d6:2d:fb:98:b7:3e:d2:94:dc:1d:d8:1d:a2:
         01:50:14:67:0f:6c:cd:06:b9:49:9b:15:8a:30:4f:bb:de:fd:
         5b:92:f3:40:88:ef:57:7d:57:e2:c6:30:d3:a9:3e:86:83:b1:
         40:bd:ec:51:a5:fd:98:11:51:e7:4a:e0:fe:4f:05:21:88:e8:
         5a:76:92:9a:5e:eb:c1:f6:3d:e2:51:71:02:74:be:98:4b:fe:
         59:af:b6:58:ab:86:3c:d6:32:0d:25:73:b2:2f:72:48:df:0e:
         b6:6c:ec:d5:b0:12:09:20:ec:b6:0a:54:b6:ae:27:53:1f:d6:
         7c:4a:18:ee:8d:4f:bd:d6:ca:11:e6:ea:26:c9:68:68:62:fd:
         60:85:6d:ea:80:91:12:6a:1e:b4:35:81:40:9b:03:45:65:f4:
         ba:c0:06:89:f5:1e:df:4d:ae:15:e0:e4:36:6a:33:a3:b8:9d:
         9c:10:d2:cb:5e:40:3b:55:cb:60:3e:be:f2:1b:db:97:68:2d:
         65:b7:99:f4:f8:10:09:8c:0f:c9:24:82:aa:a5:f5:1d:82:98:
         c5:42:1e:56:7f:80:77:a1:ae:28:2a:fe:60:d4:fb:f2:b8:75:
         c4:3d:d9:2f:cc:63:c2:77:77:54:fb:93:0b:e5:8a:17:02:d2:
         2d:e3:6d:b9
-----BEGIN CERTIFICATE-----
MIIDzTCCArWgAwIBAgIJAJI0BzhQaaptMA0GCSqGSIb3DQEBCwUAMH0xCzAJBgNV
BAYTAlVTMRMwEQYDVQQIDApDYWxpZm9ybmlhMRQwEgYDVQQHDAtTYW50YSBDbGFy
YTENMAsGA1UECgwEcGtnNTEMMAoGA1UECwwDdGE5MRIwEAYDVQQDDAlsb2NhbGhv
c3QxEjAQBgkqhkiG9w0BCQEWA3RhOTAeFw0yMTA5MjIwNTMzMzhaFw0yNDA2MTgw
NTMzMzhaMH0xCzAJBgNVBAYTAlVTMRMwEQYDVQQIDApDYWxpZm9ybmlhMRQwEgYD
VQQHDAtTYW50YSBDbGFyYTENMAsGA1UECgwEcGtnNTEMMAoGA1UECwwDdGE5MRIw
EAYDVQQDDAlsb2NhbGhvc3QxEjAQBgkqhkiG9w0BCQEWA3RhOTCCASIwDQYJKoZI
hvcNAQEBBQADggEPADCCAQoCggEBAKfMVcQGPHHC1nB1y6SrUTBMBi5gdmdcQHqt
gTG3+/G1bSbVGI7Bs00/v/RBAbznlg5+CoWIG7yRl+RxwXd4i/vnYB9GrW50lXUQ
6mu37N072pmtA6OtVPHTJXo+e5Uz8olrciAhNCOaesk/3d35wKfTMWC4eF/jEVMA
It2dtoVPHVsG7wnrwHn3yKylvsOsSWvVIZHEVHSqg1SJmz/rblQMfMelOvjAyokc
+e+bvZrRPZSQnPFG01LfWG7wWhZBTQjI8EBVT/64ejWQE5o7/Lpd9nE+7w/vfXIA
CbUKNfjPZLUdp5/hnQ/87Owx3u+Z7LMO27ss08u9I7GTdbkOjwkCAwEAAaNQME4w
HQYDVR0OBBYEFEX75xPAb41jML0zVgLhpqlVMODzMB8GA1UdIwQYMBaAFEX75xPA
b41jML0zVgLhpqlVMODzMAwGA1UdEwQFMAMBAf8wDQYJKoZIhvcNAQELBQADggEB
AAaqXrYp1i37mLc+0pTcHdgdogFQFGcPbM0GuUmbFYowT7ve/VuS80CI71d9V+LG
MNOpPoaDsUC97FGl/ZgRUedK4P5PBSGI6Fp2kppe68H2PeJRcQJ0vphL/lmvtlir
hjzWMg0lc7IvckjfDrZs7NWwEgkg7LYKVLauJ1Mf1nxKGO6NT73WyhHm6ibJaGhi
/WCFbeqAkRJqHrQ1gUCbA0Vl9LrABon1Ht9NrhXg5DZqM6O4nZwQ0steQDtVy2A+
vvIb25doLWW3mfT4EAmMD8kkgqql9R2CmMVCHlZ/gHehrigq/mDU+/K4dcQ92S/M
Y8J3d1T7kwvlihcC0i3jbbk=
-----END CERTIFICATE-----
