Certificate:
    Data:
        Version: 3 (0x2)
        Serial Number: 13819296227012453465 (0xbfc800b360f92459)
    Signature Algorithm: sha256WithRSAEncryption
        Issuer: C=US, ST=California, L=Santa Clara, O=pkg5, OU=ta9, CN=localhost/emailAddress=ta9
        Validity
            Not Before: Jan 22 01:58:01 2016 GMT
            Not After : Oct 18 01:58:01 2018 GMT
        Subject: C=US, ST=California, L=Santa Clara, O=pkg5, OU=ta9, CN=localhost/emailAddress=ta9
        Subject Public Key Info:
            Public Key Algorithm: rsaEncryption
                Public-Key: (2048 bit)
                Modulus:
                    00:c5:7a:00:2d:4e:1a:58:df:2f:78:50:e1:83:0b:
                    73:24:2e:25:33:bc:c6:b4:20:12:e1:44:c6:7c:82:
                    9d:4c:5d:27:cf:33:84:76:ae:ae:7a:25:66:99:7f:
                    3b:d0:e7:98:c2:ab:b5:51:8a:37:ea:07:1d:58:6d:
                    39:bd:bc:d4:4e:59:09:98:c6:8a:04:99:f0:a2:24:
                    66:1b:9f:f7:30:4e:4f:cf:06:38:ac:35:72:8a:27:
                    2c:61:0f:1c:73:2d:b8:a0:29:72:b9:a3:40:83:bf:
                    e6:82:f3:8f:61:42:a2:19:a7:dc:48:ce:2e:83:08:
                    5d:ee:63:23:41:ce:a0:f2:f7:6e:ab:23:3f:a6:11:
                    90:41:60:f4:29:fa:06:60:80:05:17:75:98:8d:1f:
                    10:8d:5a:4f:f4:f5:b8:59:d0:b5:b7:3d:8c:3d:3a:
                    d4:65:d8:b3:f0:2f:35:0b:89:bb:90:1c:82:ec:03:
                    0a:46:6e:b8:09:c5:93:9c:5a:c5:74:af:f7:92:b0:
                    5d:17:02:46:99:76:24:1e:9b:1b:56:da:d0:42:f2:
                    d6:32:7c:03:b9:97:13:29:2d:32:d2:3c:34:c0:02:
                    ce:04:e2:8c:ef:63:87:40:f1:ae:ca:c0:97:65:3c:
                    33:7a:2f:72:20:18:5d:15:ff:f4:6d:b0:c3:57:0d:
                    43:b7
                Exponent: 65537 (0x10001)
        X509v3 extensions:
            X509v3 Subject Key Identifier: 
                9C:3C:DD:C3:23:FA:7B:B8:37:CE:9F:A1:59:B3:DF:33:76:2B:FE:2B
            X509v3 Authority Key Identifier: 
                keyid:9C:3C:DD:C3:23:FA:7B:B8:37:CE:9F:A1:59:B3:DF:33:76:2B:FE:2B

            X509v3 Basic Constraints: 
                CA:TRUE
    Signature Algorithm: sha256WithRSAEncryption
         69:d3:7a:52:5c:ef:d8:25:14:69:2a:2e:c8:0d:dc:fe:3c:a1:
         0d:95:21:c6:bf:b5:c3:70:2b:b1:ee:9a:69:3a:aa:c8:b2:53:
         f6:55:0d:6e:1d:39:b4:d9:f3:0e:14:a9:e5:b6:24:f0:6d:56:
         d1:01:40:fa:29:a9:2b:a4:9a:e2:e6:72:c9:47:a4:54:1c:b7:
         f7:92:83:9c:4f:91:56:27:1c:da:d0:ce:a9:9d:01:06:9d:94:
         88:a0:b4:e5:1a:9b:5b:d3:c4:17:f4:4d:58:0c:f9:54:35:0e:
         98:61:8c:27:83:6e:b5:16:d3:d7:8b:71:2a:54:ec:8d:97:91:
         ad:e3:ec:c4:5e:6e:4d:30:83:2a:e0:ad:51:df:69:e9:68:8c:
         0d:fd:9a:9f:ba:15:71:ea:c2:bf:92:9b:e1:d0:62:32:6d:b4:
         e0:5e:de:b0:87:57:92:43:d0:ef:3d:b5:c1:70:86:e9:44:f3:
         e3:48:7f:34:f7:75:16:3e:5f:ef:b3:8a:ea:31:09:bd:4c:f5:
         c0:ea:f2:b6:9a:36:47:e4:0f:63:00:7d:69:c9:9f:f3:f4:d7:
         ce:6e:20:e6:d2:b2:e2:60:1e:f4:b6:17:dd:38:ca:59:1e:1b:
         46:c6:ae:77:aa:77:ff:ea:41:60:70:16:bc:91:9d:a5:ea:3c:
         0c:4c:f2:7e
-----BEGIN CERTIFICATE-----
MIIDzTCCArWgAwIBAgIJAL/IALNg+SRZMA0GCSqGSIb3DQEBCwUAMH0xCzAJBgNV
BAYTAlVTMRMwEQYDVQQIDApDYWxpZm9ybmlhMRQwEgYDVQQHDAtTYW50YSBDbGFy
YTENMAsGA1UECgwEcGtnNTEMMAoGA1UECwwDdGE5MRIwEAYDVQQDDAlsb2NhbGhv
c3QxEjAQBgkqhkiG9w0BCQEWA3RhOTAeFw0xNjAxMjIwMTU4MDFaFw0xODEwMTgw
MTU4MDFaMH0xCzAJBgNVBAYTAlVTMRMwEQYDVQQIDApDYWxpZm9ybmlhMRQwEgYD
VQQHDAtTYW50YSBDbGFyYTENMAsGA1UECgwEcGtnNTEMMAoGA1UECwwDdGE5MRIw
EAYDVQQDDAlsb2NhbGhvc3QxEjAQBgkqhkiG9w0BCQEWA3RhOTCCASIwDQYJKoZI
hvcNAQEBBQADggEPADCCAQoCggEBAMV6AC1OGljfL3hQ4YMLcyQuJTO8xrQgEuFE
xnyCnUxdJ88zhHaurnolZpl/O9DnmMKrtVGKN+oHHVhtOb281E5ZCZjGigSZ8KIk
Zhuf9zBOT88GOKw1coonLGEPHHMtuKApcrmjQIO/5oLzj2FCohmn3EjOLoMIXe5j
I0HOoPL3bqsjP6YRkEFg9Cn6BmCABRd1mI0fEI1aT/T1uFnQtbc9jD061GXYs/Av
NQuJu5AcguwDCkZuuAnFk5xaxXSv95KwXRcCRpl2JB6bG1ba0ELy1jJ8A7mXEykt
MtI8NMACzgTijO9jh0DxrsrAl2U8M3ovciAYXRX/9G2ww1cNQ7cCAwEAAaNQME4w
HQYDVR0OBBYEFJw83cMj+nu4N86foVmz3zN2K/4rMB8GA1UdIwQYMBaAFJw83cMj
+nu4N86foVmz3zN2K/4rMAwGA1UdEwQFMAMBAf8wDQYJKoZIhvcNAQELBQADggEB
AGnTelJc79glFGkqLsgN3P48oQ2VIca/tcNwK7Hummk6qsiyU/ZVDW4dObTZ8w4U
qeW2JPBtVtEBQPopqSukmuLmcslHpFQct/eSg5xPkVYnHNrQzqmdAQadlIigtOUa
m1vTxBf0TVgM+VQ1DphhjCeDbrUW09eLcSpU7I2Xka3j7MRebk0wgyrgrVHfaelo
jA39mp+6FXHqwr+Sm+HQYjJttOBe3rCHV5JD0O89tcFwhulE8+NIfzT3dRY+X++z
iuoxCb1M9cDq8raaNkfkD2MAfWnJn/P0185uIObSsuJgHvS2F904ylkeG0bGrneq
d//qQWBwFryRnaXqPAxM8n4=
-----END CERTIFICATE-----
