Certificate:
    Data:
        Version: 3 (0x2)
        Serial Number:
            69:8d:0b:21:80:a1:f9:f2:d8:42:a7:e6:0d:7e:2b:c0:3e:e4:50:07
        Signature Algorithm: sha256WithRSAEncryption
        Issuer: C = US, ST = California, L = Santa Clara, O = pkg5, OU = ta9, CN = localhost, emailAddress = ta9
        Validity
            Not Before: Mar 18 08:51:48 2026 GMT
            Not After : Dec 12 08:51:48 2028 GMT
        Subject: C = US, ST = California, L = Santa Clara, O = pkg5, OU = ta9, CN = localhost, emailAddress = ta9
        Subject Public Key Info:
            Public Key Algorithm: rsaEncryption
                Public-Key: (2048 bit)
                Modulus:
                    00:ae:86:51:57:1d:1b:a2:e6:a8:06:e2:a6:be:46:
                    47:d6:f0:b3:67:7b:08:ff:fc:b4:09:de:9c:75:b4:
                    53:85:72:76:3c:35:dc:c8:d3:64:6a:f3:91:05:86:
                    c4:34:2c:f4:54:5b:64:31:90:54:a2:d9:e5:a5:eb:
                    c7:e6:c4:e6:54:9d:84:5e:a3:3a:28:46:48:38:3c:
                    fc:7e:7e:71:8b:44:22:40:a6:91:b8:eb:79:45:58:
                    42:73:35:06:ab:a7:b8:bd:7e:e5:87:d4:92:88:05:
                    ee:86:00:b3:81:78:a7:43:29:5d:58:56:94:58:26:
                    86:f0:60:d9:97:56:d9:3a:45:48:7e:dc:4d:31:bd:
                    f1:c1:af:39:46:b8:ce:5f:b4:29:0b:70:7c:f7:fc:
                    87:d1:06:d7:20:8a:7c:ee:02:8a:9d:69:c6:2d:0f:
                    12:bd:51:6c:3b:09:34:37:6f:16:54:41:17:98:75:
                    a3:dc:9b:b3:18:a0:5a:20:61:6c:5f:ea:03:63:c4:
                    a1:da:62:4d:cc:02:93:9e:2d:d9:ec:70:50:20:a3:
                    9f:f3:cf:8f:aa:d3:a9:1c:64:2a:38:08:b9:33:20:
                    f3:d3:a5:cd:45:6f:88:46:30:0a:4a:bb:32:64:95:
                    04:1b:ed:a5:48:0c:3b:29:d3:e3:c3:4c:64:f2:c8:
                    5a:0b
                Exponent: 65537 (0x10001)
        X509v3 extensions:
            X509v3 Subject Key Identifier: 
                C2:DC:D8:84:D5:67:BB:7D:CA:B9:67:D7:FA:22:D0:78:9E:DD:68:18
            X509v3 Authority Key Identifier: 
                C2:DC:D8:84:D5:67:BB:7D:CA:B9:67:D7:FA:22:D0:78:9E:DD:68:18
            X509v3 Basic Constraints: critical
                CA:TRUE
    Signature Algorithm: sha256WithRSAEncryption
    Signature Value:
        33:15:f6:df:53:fd:08:41:0e:10:cf:31:92:21:b3:42:51:ba:
        2a:95:5e:00:c9:49:99:a3:9e:22:a0:a0:0f:fe:a7:44:c9:1b:
        dc:2e:7b:9c:78:0c:02:45:ec:f9:3d:6d:d1:6a:23:69:bd:92:
        48:a8:5a:12:e2:e0:fa:41:a0:29:31:9f:1e:a5:78:5f:5e:b1:
        5c:1c:86:14:6f:c9:43:48:df:f8:46:a4:13:99:c9:2c:fe:54:
        3e:42:22:29:13:fe:a1:49:b3:b7:09:af:f9:bf:ea:20:97:80:
        dc:c5:e0:72:54:2a:02:ba:25:0c:a6:f4:74:33:d1:c1:10:bf:
        68:96:0b:06:40:72:32:a3:b0:62:4e:1a:7a:6f:80:cf:54:db:
        51:b3:a0:06:6d:0e:99:d2:8b:7f:3b:03:18:73:b7:b2:db:57:
        dc:4d:d9:53:50:63:1a:90:56:8d:cd:a3:4e:b4:aa:ce:1f:10:
        39:31:18:46:69:9f:13:ac:e8:3d:0e:fc:31:67:81:85:6c:d3:
        92:1c:5d:2a:e5:e2:0d:34:3a:73:8d:75:d6:70:33:55:1a:06:
        a9:25:a9:9d:ed:62:06:9e:e4:da:2b:8d:f9:dc:80:a0:4a:4b:
        53:56:4e:73:b4:74:0f:12:ca:51:39:fd:ee:d3:39:82:fa:5f:
        d2:d0:17:66
-----BEGIN CERTIFICATE-----
MIID2zCCAsOgAwIBAgIUaY0LIYCh+fLYQqfmDX4rwD7kUAcwDQYJKoZIhvcNAQEL
BQAwfTELMAkGA1UEBhMCVVMxEzARBgNVBAgMCkNhbGlmb3JuaWExFDASBgNVBAcM
C1NhbnRhIENsYXJhMQ0wCwYDVQQKDARwa2c1MQwwCgYDVQQLDAN0YTkxEjAQBgNV
BAMMCWxvY2FsaG9zdDESMBAGCSqGSIb3DQEJARYDdGE5MB4XDTI2MDMxODA4NTE0
OFoXDTI4MTIxMjA4NTE0OFowfTELMAkGA1UEBhMCVVMxEzARBgNVBAgMCkNhbGlm
b3JuaWExFDASBgNVBAcMC1NhbnRhIENsYXJhMQ0wCwYDVQQKDARwa2c1MQwwCgYD
VQQLDAN0YTkxEjAQBgNVBAMMCWxvY2FsaG9zdDESMBAGCSqGSIb3DQEJARYDdGE5
MIIBIjANBgkqhkiG9w0BAQEFAAOCAQ8AMIIBCgKCAQEAroZRVx0bouaoBuKmvkZH
1vCzZ3sI//y0Cd6cdbRThXJ2PDXcyNNkavORBYbENCz0VFtkMZBUotnlpevH5sTm
VJ2EXqM6KEZIODz8fn5xi0QiQKaRuOt5RVhCczUGq6e4vX7lh9SSiAXuhgCzgXin
QyldWFaUWCaG8GDZl1bZOkVIftxNMb3xwa85RrjOX7QpC3B89/yH0QbXIIp87gKK
nWnGLQ8SvVFsOwk0N28WVEEXmHWj3JuzGKBaIGFsX+oDY8Sh2mJNzAKTni3Z7HBQ
IKOf88+PqtOpHGQqOAi5MyDz06XNRW+IRjAKSrsyZJUEG+2lSAw7KdPjw0xk8sha
CwIDAQABo1MwUTAdBgNVHQ4EFgQUwtzYhNVnu33KuWfX+iLQeJ7daBgwHwYDVR0j
BBgwFoAUwtzYhNVnu33KuWfX+iLQeJ7daBgwDwYDVR0TAQH/BAUwAwEB/zANBgkq
hkiG9w0BAQsFAAOCAQEAMxX231P9CEEOEM8xkiGzQlG6KpVeAMlJmaOeIqCgD/6n
RMkb3C57nHgMAkXs+T1t0Wojab2SSKhaEuLg+kGgKTGfHqV4X16xXByGFG/JQ0jf
+EakE5nJLP5UPkIiKRP+oUmztwmv+b/qIJeA3MXgclQqArolDKb0dDPRwRC/aJYL
BkByMqOwYk4aem+Az1TbUbOgBm0OmdKLfzsDGHO3sttX3E3ZU1BjGpBWjc2jTrSq
zh8QOTEYRmmfE6zoPQ78MWeBhWzTkhxdKuXiDTQ6c4111nAzVRoGqSWpne1iBp7k
2iuN+dyAoEpLU1ZOc7R0DxLKUTn97tM5gvpf0tAXZg==
-----END CERTIFICATE-----
