Certificate:
    Data:
        Version: 3 (0x2)
        Serial Number: 16519569919148996401 (0xe5414d51291ab731)
    Signature Algorithm: sha256WithRSAEncryption
        Issuer: C=US, ST=California, L=Santa Clara, O=pkg5, OU=ta9, CN=localhost/emailAddress=ta9
        Validity
            Not Before: Dec 13 00:13:38 2013 GMT
            Not After : Sep  8 00:13:38 2016 GMT
        Subject: C=US, ST=California, L=Santa Clara, O=pkg5, OU=ta9, CN=localhost/emailAddress=ta9
        Subject Public Key Info:
            Public Key Algorithm: rsaEncryption
                Public-Key: (1024 bit)
                Modulus:
                    00:c9:8a:2d:0d:53:04:e8:02:bb:bc:27:df:0e:b8:
                    33:25:07:54:61:d0:d9:b6:08:33:5b:c3:eb:4c:a1:
                    1f:9f:51:cc:a9:83:07:16:15:9c:69:0b:48:74:62:
                    35:5f:a3:94:38:37:0f:3f:5f:58:26:9a:36:0b:a2:
                    0f:bb:9b:57:ff:fd:70:01:d6:28:a2:b6:67:ed:a9:
                    c8:90:15:b5:7f:91:60:32:ff:96:13:a4:3f:09:23:
                    70:2f:38:6f:24:54:41:95:2f:91:5a:6e:a5:aa:77:
                    da:6c:50:ee:62:e5:85:8a:67:63:7d:fc:07:30:ba:
                    f3:96:93:6c:5d:5f:9e:2e:07
                Exponent: 65537 (0x10001)
        X509v3 extensions:
            X509v3 Subject Key Identifier: 
                E8:5E:8E:77:D1:61:64:BB:48:AF:38:95:0C:57:16:4E:E3:77:3D:35
            X509v3 Authority Key Identifier: 
                keyid:E8:5E:8E:77:D1:61:64:BB:48:AF:38:95:0C:57:16:4E:E3:77:3D:35

            X509v3 Basic Constraints: 
                CA:TRUE
    Signature Algorithm: sha256WithRSAEncryption
         3e:20:dc:10:1b:b4:83:9a:0a:9a:41:d3:6f:ec:ef:5b:51:0f:
         a7:4a:49:0e:b3:86:f6:0f:c2:84:ea:0f:b2:08:6d:a2:7c:e4:
         24:10:ba:45:c2:c3:9e:07:b9:c3:74:10:f2:74:7f:c7:61:2e:
         0e:45:33:00:c4:19:32:61:2b:58:0a:f4:51:7a:03:66:68:32:
         27:c3:20:27:af:c4:93:64:45:0d:16:0e:ca:2b:86:f6:1c:22:
         13:74:5a:d2:68:fc:45:11:b8:f1:13:26:e1:e4:c2:b7:b5:b8:
         f8:fc:cc:6d:fb:87:3e:5d:53:31:ba:99:16:65:7b:b1:6c:e9:
         78:8a
-----BEGIN CERTIFICATE-----
MIICyDCCAjGgAwIBAgIJAOVBTVEpGrcxMA0GCSqGSIb3DQEBCwUAMH0xCzAJBgNV
BAYTAlVTMRMwEQYDVQQIDApDYWxpZm9ybmlhMRQwEgYDVQQHDAtTYW50YSBDbGFy
YTENMAsGA1UECgwEcGtnNTEMMAoGA1UECwwDdGE5MRIwEAYDVQQDDAlsb2NhbGhv
c3QxEjAQBgkqhkiG9w0BCQEWA3RhOTAeFw0xMzEyMTMwMDEzMzhaFw0xNjA5MDgw
MDEzMzhaMH0xCzAJBgNVBAYTAlVTMRMwEQYDVQQIDApDYWxpZm9ybmlhMRQwEgYD
VQQHDAtTYW50YSBDbGFyYTENMAsGA1UECgwEcGtnNTEMMAoGA1UECwwDdGE5MRIw
EAYDVQQDDAlsb2NhbGhvc3QxEjAQBgkqhkiG9w0BCQEWA3RhOTCBnzANBgkqhkiG
9w0BAQEFAAOBjQAwgYkCgYEAyYotDVME6AK7vCffDrgzJQdUYdDZtggzW8PrTKEf
n1HMqYMHFhWcaQtIdGI1X6OUODcPP19YJpo2C6IPu5tX//1wAdYoorZn7anIkBW1
f5FgMv+WE6Q/CSNwLzhvJFRBlS+RWm6lqnfabFDuYuWFimdjffwHMLrzlpNsXV+e
LgcCAwEAAaNQME4wHQYDVR0OBBYEFOhejnfRYWS7SK84lQxXFk7jdz01MB8GA1Ud
IwQYMBaAFOhejnfRYWS7SK84lQxXFk7jdz01MAwGA1UdEwQFMAMBAf8wDQYJKoZI
hvcNAQELBQADgYEAPiDcEBu0g5oKmkHTb+zvW1EPp0pJDrOG9g/ChOoPsghtonzk
JBC6RcLDnge5w3QQ8nR/x2EuDkUzAMQZMmErWAr0UXoDZmgyJ8MgJ6/Ek2RFDRYO
yiuG9hwiE3Ra0mj8RRG48RMm4eTCt7W4+PzMbfuHPl1TMbqZFmV7sWzpeIo=
-----END CERTIFICATE-----
