Certificate:
    Data:
        Version: 3 (0x2)
        Serial Number:
            9e:e5:13:15:31:13:43:af
    Signature Algorithm: sha256WithRSAEncryption
        Issuer: C=US, ST=California, L=Santa Clara, O=pkg5, OU=ta9, CN=localhost/emailAddress=ta9
        Validity
            Not Before: Jul 19 11:35:53 2023 GMT
            Not After : Apr 14 11:35:53 2026 GMT
        Subject: C=US, ST=California, L=Santa Clara, O=pkg5, OU=ta9, CN=localhost/emailAddress=ta9
        Subject Public Key Info:
            Public Key Algorithm: rsaEncryption
                Public-Key: (2048 bit)
                Modulus:
                    00:cd:38:7c:64:a2:47:d0:95:9b:32:e5:17:cd:3c:
                    b1:64:93:d3:1f:45:36:fc:c5:ad:c9:78:5b:f9:2e:
                    89:2a:12:ad:29:05:1a:a3:3f:3e:03:3f:cb:f0:76:
                    8a:34:ae:59:5d:e3:5a:22:fc:34:54:4c:cd:a3:87:
                    99:e0:05:4f:ac:fe:cd:e2:4e:d5:d0:03:57:66:ba:
                    8b:e6:0b:26:2a:44:7b:d9:bf:5d:f7:98:d8:ea:b2:
                    6e:cb:e7:9b:82:7b:89:00:ed:b7:66:68:ef:bf:ea:
                    06:c8:bd:cc:66:61:f8:d6:72:11:ec:d5:ae:80:54:
                    f3:c7:89:fa:d0:e1:f4:ae:34:ea:64:1f:42:a2:ec:
                    89:f2:d0:44:7c:48:7d:66:a3:f5:0b:09:55:c7:a0:
                    cb:74:8b:3b:6c:51:cf:6a:7b:6d:f9:36:a0:dc:87:
                    3f:ce:f8:b3:20:56:a7:c5:cb:12:cd:3c:d8:d7:9f:
                    50:42:ff:c1:5f:5d:ef:f9:8a:e8:da:ba:2c:b6:e6:
                    fc:2c:e0:37:66:54:e3:48:fe:7d:cc:21:c9:91:cd:
                    d7:e1:66:3d:22:ed:6d:25:52:1f:12:a3:62:47:b0:
                    0a:df:c6:63:bb:24:87:b7:51:6a:d5:c5:b7:e6:79:
                    b5:4d:bb:44:2f:6b:f5:b3:ec:27:9a:9a:ce:8a:bf:
                    18:d5
                Exponent: 65537 (0x10001)
        X509v3 extensions:
            X509v3 Subject Key Identifier: 
                55:75:E7:85:63:4E:7F:7D:A2:28:A5:2B:B9:61:3E:78:18:FD:43:8B
            X509v3 Authority Key Identifier: 
                keyid:55:75:E7:85:63:4E:7F:7D:A2:28:A5:2B:B9:61:3E:78:18:FD:43:8B

            X509v3 Basic Constraints: 
                CA:TRUE
    Signature Algorithm: sha256WithRSAEncryption
         93:35:29:98:48:64:e6:c1:93:0f:4e:95:49:a1:a1:3a:2e:50:
         d4:75:72:4b:b0:39:e0:79:db:46:b5:77:7a:79:31:b5:15:4e:
         5f:67:b2:31:71:ff:7d:70:41:41:69:fd:35:06:dd:5f:86:12:
         32:2c:39:a5:b4:92:46:66:e4:5a:92:f7:1f:ef:f8:3f:d5:4d:
         26:e9:95:2e:e7:21:77:bd:75:80:ff:3d:05:a4:6e:9a:d1:0d:
         4e:11:e0:54:14:24:90:9d:f9:dd:23:1a:a3:88:b1:67:16:cc:
         d1:d1:fb:2c:31:7f:99:ee:34:a9:37:65:a7:de:51:b2:08:e5:
         bb:78:a4:a0:96:f6:13:c0:0c:dd:a1:a5:07:7a:b9:bc:7d:7e:
         1a:9e:73:51:f3:df:a9:6d:54:89:eb:30:b4:80:6a:34:d5:1a:
         04:41:74:78:36:7e:cb:4c:6c:b4:35:53:9a:9c:06:83:2b:ce:
         a4:f7:f0:61:56:8d:9c:bb:2a:9a:7c:da:7c:17:c3:ca:79:ff:
         92:f9:8e:cb:33:8a:85:8e:1e:7d:e0:39:46:18:1e:11:5d:8d:
         a8:d5:84:a3:80:88:54:31:94:1e:3e:4d:67:8d:53:36:88:ea:
         69:f3:6b:ec:16:3a:31:ab:a0:ed:88:af:1a:d0:94:3c:6c:c6:
         5b:cc:61:45
-----BEGIN CERTIFICATE-----
MIIDzTCCArWgAwIBAgIJAJ7lExUxE0OvMA0GCSqGSIb3DQEBCwUAMH0xCzAJBgNV
BAYTAlVTMRMwEQYDVQQIDApDYWxpZm9ybmlhMRQwEgYDVQQHDAtTYW50YSBDbGFy
YTENMAsGA1UECgwEcGtnNTEMMAoGA1UECwwDdGE5MRIwEAYDVQQDDAlsb2NhbGhv
c3QxEjAQBgkqhkiG9w0BCQEWA3RhOTAeFw0yMzA3MTkxMTM1NTNaFw0yNjA0MTQx
MTM1NTNaMH0xCzAJBgNVBAYTAlVTMRMwEQYDVQQIDApDYWxpZm9ybmlhMRQwEgYD
VQQHDAtTYW50YSBDbGFyYTENMAsGA1UECgwEcGtnNTEMMAoGA1UECwwDdGE5MRIw
EAYDVQQDDAlsb2NhbGhvc3QxEjAQBgkqhkiG9w0BCQEWA3RhOTCCASIwDQYJKoZI
hvcNAQEBBQADggEPADCCAQoCggEBAM04fGSiR9CVmzLlF808sWST0x9FNvzFrcl4
W/kuiSoSrSkFGqM/PgM/y/B2ijSuWV3jWiL8NFRMzaOHmeAFT6z+zeJO1dADV2a6
i+YLJipEe9m/XfeY2Oqybsvnm4J7iQDtt2Zo77/qBsi9zGZh+NZyEezVroBU88eJ
+tDh9K406mQfQqLsifLQRHxIfWaj9QsJVcegy3SLO2xRz2p7bfk2oNyHP874syBW
p8XLEs082NefUEL/wV9d7/mK6Nq6LLbm/CzgN2ZU40j+fcwhyZHN1+FmPSLtbSVS
HxKjYkewCt/GY7skh7dRatXFt+Z5tU27RC9r9bPsJ5qazoq/GNUCAwEAAaNQME4w
HQYDVR0OBBYEFFV154VjTn99oiilK7lhPngY/UOLMB8GA1UdIwQYMBaAFFV154Vj
Tn99oiilK7lhPngY/UOLMAwGA1UdEwQFMAMBAf8wDQYJKoZIhvcNAQELBQADggEB
AJM1KZhIZObBkw9OlUmhoTouUNR1ckuwOeB520a1d3p5MbUVTl9nsjFx/31wQUFp
/TUG3V+GEjIsOaW0kkZm5FqS9x/v+D/VTSbplS7nIXe9dYD/PQWkbprRDU4R4FQU
JJCd+d0jGqOIsWcWzNHR+ywxf5nuNKk3ZafeUbII5bt4pKCW9hPADN2hpQd6ubx9
fhqec1Hz36ltVInrMLSAajTVGgRBdHg2fstMbLQ1U5qcBoMrzqT38GFWjZy7Kpp8
2nwXw8p5/5L5jsszioWOHn3gOUYYHhFdjajVhKOAiFQxlB4+TWeNUzaI6mnza+wW
OjGroO2IrxrQlDxsxlvMYUU=
-----END CERTIFICATE-----
